ARM GAS  /var/folders/l3/4y5292px21b4835bsnjwqc7w009kq1/T//ccWcE0m3.s 			page 1


   1              		.cpu cortex-m4
   2              		.eabi_attribute 27, 1
   3              		.eabi_attribute 20, 1
   4              		.eabi_attribute 21, 1
   5              		.eabi_attribute 23, 3
   6              		.eabi_attribute 24, 1
   7              		.eabi_attribute 25, 1
   8              		.eabi_attribute 26, 1
   9              		.eabi_attribute 30, 1
  10              		.eabi_attribute 34, 1
  11              		.eabi_attribute 18, 4
  12              		.file	"at32_hoverboard.c"
  13              		.text
  14              	.Ltext0:
  15              		.cfi_sections	.debug_frame
  16              		.section	.text._Z12__io_putchari,"ax",%progbits
  17              		.align	1
  18              		.global	_Z12__io_putchari
  19              		.syntax unified
  20              		.thumb
  21              		.thumb_func
  22              		.fpu fpv4-sp-d16
  24              	_Z12__io_putchari:
  25              		.fnstart
  26              	.LFB124:
  27              		.file 1 "../hoverboard/at32_hoverboard.c"
   1:../hoverboard/at32_hoverboard.c **** /*
   2:../hoverboard/at32_hoverboard.c ****  **************************************************************************
   3:../hoverboard/at32_hoverboard.c ****  * File Name    : at32_hoverboard.c
   4:../hoverboard/at32_hoverboard.c ****  * Description  : 1. Set of firmware functions to manage Leds, push-button and COM ports.
   5:../hoverboard/at32_hoverboard.c ****  * Date         : 2019-08-10
   6:../hoverboard/at32_hoverboard.c ****  * Version      : V1.0.0
   7:../hoverboard/at32_hoverboard.c ****  **************************************************************************
   8:../hoverboard/at32_hoverboard.c ****  */
   9:../hoverboard/at32_hoverboard.c **** 
  10:../hoverboard/at32_hoverboard.c **** #include "at32_hoverboard.h"
  11:../hoverboard/at32_hoverboard.c **** #include "stdio.h"
  12:../hoverboard/at32_hoverboard.c **** #include "misc.h"
  13:../hoverboard/at32_hoverboard.c **** 
  14:../hoverboard/at32_hoverboard.c **** #ifdef __GNUC__
  15:../hoverboard/at32_hoverboard.c ****   /* With GCC/RAISONANCE, small printf (option LD Linker->Libraries->Small printf
  16:../hoverboard/at32_hoverboard.c ****      set to 'Yes') calls __io_putchar() */
  17:../hoverboard/at32_hoverboard.c ****   #define PUTCHAR_PROTOTYPE int __io_putchar(int ch)
  18:../hoverboard/at32_hoverboard.c **** #else
  19:../hoverboard/at32_hoverboard.c ****   #define PUTCHAR_PROTOTYPE int fputc(int ch, FILE *f)
  20:../hoverboard/at32_hoverboard.c **** #endif /* __GNUC__ */
  21:../hoverboard/at32_hoverboard.c **** 
  22:../hoverboard/at32_hoverboard.c **** /*delay macros*/
  23:../hoverboard/at32_hoverboard.c **** #define STEP_DELAY_MS	500
  24:../hoverboard/at32_hoverboard.c **** 
  25:../hoverboard/at32_hoverboard.c **** /*AT-START LED resouce array*/
  26:../hoverboard/at32_hoverboard.c **** GPIO_Type *LED_GPIO_PORT[LED_NUM] = {LED1_GPIO, LED2_GPIO, LED3_GPIO, LED4_GPIO};
  27:../hoverboard/at32_hoverboard.c **** uint16_t LED_GPIO_PIN[LED_NUM]    = {LED1_PIN, LED2_PIN, LED3_PIN, LED4_PIN};
  28:../hoverboard/at32_hoverboard.c **** uint32_t LED_GPIO_RCC_CLK[LED_NUM] = {LED1_GPIO_RCC_CLK, LED2_GPIO_RCC_CLK, LED3_GPIO_RCC_CLK, LED4
  29:../hoverboard/at32_hoverboard.c **** 
  30:../hoverboard/at32_hoverboard.c **** /*AT-START Button resouce arry*/
  31:../hoverboard/at32_hoverboard.c **** GPIO_Type *BUTTON_GPIO_PORT[BUTTON_NUM] = {BUTTON_WAKEUP_GPIO, BUTTON_USER_KEY_GPIO};
ARM GAS  /var/folders/l3/4y5292px21b4835bsnjwqc7w009kq1/T//ccWcE0m3.s 			page 2


  32:../hoverboard/at32_hoverboard.c **** uint16_t BUTTON_GPIO_PIN[BUTTON_NUM]    = {BUTTON_WAKEUP_PIN, BUTTON_USER_KEY_PIN};
  33:../hoverboard/at32_hoverboard.c **** uint32_t BUTTON_GPIO_RCC_CLK [BUTTON_NUM] = {BUTTON_WAKEUP_RCC_CLK, BUTTON_USER_KEY_RCC_CLK};
  34:../hoverboard/at32_hoverboard.c **** 
  35:../hoverboard/at32_hoverboard.c **** /*delay variable*/
  36:../hoverboard/at32_hoverboard.c **** static __IO float fac_us;
  37:../hoverboard/at32_hoverboard.c **** static __IO float fac_ms;
  38:../hoverboard/at32_hoverboard.c **** 
  39:../hoverboard/at32_hoverboard.c **** /**
  40:../hoverboard/at32_hoverboard.c ****   * @brief  Retargets the C library printf function to the USART.
  41:../hoverboard/at32_hoverboard.c ****   * @param  None
  42:../hoverboard/at32_hoverboard.c ****   * @retval None
  43:../hoverboard/at32_hoverboard.c ****   */
  44:../hoverboard/at32_hoverboard.c **** PUTCHAR_PROTOTYPE
  45:../hoverboard/at32_hoverboard.c **** {
  28              		.loc 1 45 0
  29              		.cfi_startproc
  30              		@ args = 0, pretend = 0, frame = 0
  31              		@ frame_needed = 0, uses_anonymous_args = 0
  32              	.LVL0:
  33 0000 10B5     		push	{r4, lr}
  34              		.save {r4, lr}
  35              	.LCFI0:
  36              		.cfi_def_cfa_offset 8
  37              		.cfi_offset 4, -8
  38              		.cfi_offset 14, -4
  39 0002 0446     		mov	r4, r0
  46:../hoverboard/at32_hoverboard.c ****     USART_SendData(AT32_PRINT_UART, ch);
  40              		.loc 1 46 0
  41 0004 81B2     		uxth	r1, r0
  42 0006 0548     		ldr	r0, .L4
  43              	.LVL1:
  44 0008 FFF7FEFF 		bl	USART_SendData
  45              	.LVL2:
  46              	.L2:
  47:../hoverboard/at32_hoverboard.c ****     while ( USART_GetFlagStatus(AT32_PRINT_UART, USART_FLAG_TRAC) == RESET ) ;
  47              		.loc 1 47 0
  48 000c 4021     		movs	r1, #64
  49 000e 0348     		ldr	r0, .L4
  50 0010 FFF7FEFF 		bl	USART_GetFlagStatus
  51              	.LVL3:
  52 0014 0028     		cmp	r0, #0
  53 0016 F9D0     		beq	.L2
  48:../hoverboard/at32_hoverboard.c **** 	return ch;
  49:../hoverboard/at32_hoverboard.c **** }
  54              		.loc 1 49 0
  55 0018 2046     		mov	r0, r4
  56 001a 10BD     		pop	{r4, pc}
  57              	.LVL4:
  58              	.L5:
  59              		.align	2
  60              	.L4:
  61 001c 00440040 		.word	1073759232
  62              		.cfi_endproc
  63              	.LFE124:
  64              		.fnend
  66              		.section	.text._Z6_writeiPci,"ax",%progbits
  67              		.align	1
ARM GAS  /var/folders/l3/4y5292px21b4835bsnjwqc7w009kq1/T//ccWcE0m3.s 			page 3


  68              		.global	_Z6_writeiPci
  69              		.syntax unified
  70              		.thumb
  71              		.thumb_func
  72              		.fpu fpv4-sp-d16
  74              	_Z6_writeiPci:
  75              		.fnstart
  76              	.LFB125:
  50:../hoverboard/at32_hoverboard.c **** 
  51:../hoverboard/at32_hoverboard.c **** int _write(int file, char *data, int len)
  52:../hoverboard/at32_hoverboard.c **** {
  77              		.loc 1 52 0
  78              		.cfi_startproc
  79              		@ args = 0, pretend = 0, frame = 0
  80              		@ frame_needed = 0, uses_anonymous_args = 0
  81              	.LVL5:
  82 0000 70B5     		push	{r4, r5, r6, lr}
  83              		.save {r4, r5, r6, lr}
  84              	.LCFI1:
  85              		.cfi_def_cfa_offset 16
  86              		.cfi_offset 4, -16
  87              		.cfi_offset 5, -12
  88              		.cfi_offset 6, -8
  89              		.cfi_offset 14, -4
  53:../hoverboard/at32_hoverboard.c ****   int bytes_written;
  54:../hoverboard/at32_hoverboard.c ****   char ch;
  55:../hoverboard/at32_hoverboard.c **** 
  56:../hoverboard/at32_hoverboard.c ****   if ((file != 1) && (file != 2))
  90              		.loc 1 56 0
  91 0002 0138     		subs	r0, r0, #1
  92              	.LVL6:
  93 0004 0128     		cmp	r0, #1
  94 0006 0AD8     		bhi	.L9
  95 0008 0D46     		mov	r5, r1
  96 000a 1646     		mov	r6, r2
  57:../hoverboard/at32_hoverboard.c ****   {
  58:../hoverboard/at32_hoverboard.c ****     return -1;
  59:../hoverboard/at32_hoverboard.c ****   }
  60:../hoverboard/at32_hoverboard.c **** 
  61:../hoverboard/at32_hoverboard.c ****   for (bytes_written = 0; bytes_written < len; bytes_written++)
  97              		.loc 1 61 0
  98 000c 0024     		movs	r4, #0
  99              	.LVL7:
 100              	.L8:
 101              		.loc 1 61 0 is_stmt 0 discriminator 3
 102 000e B442     		cmp	r4, r6
 103 0010 07DA     		bge	.L6
 104              	.LVL8:
  62:../hoverboard/at32_hoverboard.c ****   {
  63:../hoverboard/at32_hoverboard.c ****     ch = *data;
  64:../hoverboard/at32_hoverboard.c ****     data++;
  65:../hoverboard/at32_hoverboard.c ****     __io_putchar(ch);
 105              		.loc 1 65 0 is_stmt 1 discriminator 2
 106 0012 15F8010B 		ldrb	r0, [r5], #1	@ zero_extendqisi2
 107              	.LVL9:
 108 0016 FFF7FEFF 		bl	_Z12__io_putchari
 109              	.LVL10:
ARM GAS  /var/folders/l3/4y5292px21b4835bsnjwqc7w009kq1/T//ccWcE0m3.s 			page 4


  61:../hoverboard/at32_hoverboard.c ****   {
 110              		.loc 1 61 0 discriminator 2
 111 001a 0134     		adds	r4, r4, #1
 112              	.LVL11:
 113 001c F7E7     		b	.L8
 114              	.LVL12:
 115              	.L9:
  58:../hoverboard/at32_hoverboard.c ****   }
 116              		.loc 1 58 0
 117 001e 4FF0FF34 		mov	r4, #-1
 118              	.LVL13:
 119              	.L6:
  66:../hoverboard/at32_hoverboard.c ****   }
  67:../hoverboard/at32_hoverboard.c **** 
  68:../hoverboard/at32_hoverboard.c ****   return bytes_written;
  69:../hoverboard/at32_hoverboard.c **** }
 120              		.loc 1 69 0
 121 0022 2046     		mov	r0, r4
 122 0024 70BD     		pop	{r4, r5, r6, pc}
 123              		.cfi_endproc
 124              	.LFE125:
 125              		.fnend
 127              		.section	.text._Z10Board_Initv,"ax",%progbits
 128              		.align	1
 129              		.global	_Z10Board_Initv
 130              		.syntax unified
 131              		.thumb
 132              		.thumb_func
 133              		.fpu fpv4-sp-d16
 135              	_Z10Board_Initv:
 136              		.fnstart
 137              	.LFB127:
  70:../hoverboard/at32_hoverboard.c **** 
  71:../hoverboard/at32_hoverboard.c **** /**
  72:../hoverboard/at32_hoverboard.c ****   * @brief  Board initialize interface
  73:../hoverboard/at32_hoverboard.c ****   *         init LED and BUTTON
  74:../hoverboard/at32_hoverboard.c ****   * @param  None
  75:../hoverboard/at32_hoverboard.c ****   * @retval None
  76:../hoverboard/at32_hoverboard.c ****   */
  77:../hoverboard/at32_hoverboard.c **** void AT32_Hoverboard_Init()
  78:../hoverboard/at32_hoverboard.c **** {
  79:../hoverboard/at32_hoverboard.c ****     /*initialize Delay Function*/
  80:../hoverboard/at32_hoverboard.c ****     Delay_init();
  81:../hoverboard/at32_hoverboard.c **** 
  82:../hoverboard/at32_hoverboard.c ****     /* hold board power pin high */
  83:../hoverboard/at32_hoverboard.c ****     Board_Init();
  84:../hoverboard/at32_hoverboard.c **** 
  85:../hoverboard/at32_hoverboard.c ****     /*Configure LED in AT_START_BOARD*/
  86:../hoverboard/at32_hoverboard.c ****     AT32_LEDn_Init(LED2);
  87:../hoverboard/at32_hoverboard.c ****     AT32_LEDn_Init(LED3);
  88:../hoverboard/at32_hoverboard.c ****     AT32_LEDn_Init(LED4);
  89:../hoverboard/at32_hoverboard.c ****     AT32_LEDn_OFF(LED2);
  90:../hoverboard/at32_hoverboard.c ****     AT32_LEDn_OFF(LED3);
  91:../hoverboard/at32_hoverboard.c ****     AT32_LEDn_OFF(LED4);
  92:../hoverboard/at32_hoverboard.c **** 
  93:../hoverboard/at32_hoverboard.c ****     /*Configure Button in AT_START_BOARD*/
  94:../hoverboard/at32_hoverboard.c ****     AT32_BUTTON_Init(BUTTON_WAKEUP); /*PA5*/
ARM GAS  /var/folders/l3/4y5292px21b4835bsnjwqc7w009kq1/T//ccWcE0m3.s 			page 5


  95:../hoverboard/at32_hoverboard.c ****     AT32_BUTTON_Init(BUTTON_USER_KEY); /*PC13*/
  96:../hoverboard/at32_hoverboard.c **** 
  97:../hoverboard/at32_hoverboard.c **** }
  98:../hoverboard/at32_hoverboard.c **** 
  99:../hoverboard/at32_hoverboard.c **** /**
 100:../hoverboard/at32_hoverboard.c ****  * 
 101:../hoverboard/at32_hoverboard.c ****  * 
 102:../hoverboard/at32_hoverboard.c ****  */
 103:../hoverboard/at32_hoverboard.c **** void Board_Init()
 104:../hoverboard/at32_hoverboard.c **** {
 138              		.loc 1 104 0
 139              		.cfi_startproc
 140              		@ args = 0, pretend = 0, frame = 8
 141              		@ frame_needed = 0, uses_anonymous_args = 0
 142 0000 00B5     		push	{lr}
 143              		.save {lr}
 144              	.LCFI2:
 145              		.cfi_def_cfa_offset 4
 146              		.cfi_offset 14, -4
 147              		.pad #12
 148 0002 83B0     		sub	sp, sp, #12
 149              	.LCFI3:
 150              		.cfi_def_cfa_offset 16
 105:../hoverboard/at32_hoverboard.c ****     GPIO_InitType GPIO_InitStructure;
 106:../hoverboard/at32_hoverboard.c **** 
 107:../hoverboard/at32_hoverboard.c ****     /*Enable the Button Clock*/
 108:../hoverboard/at32_hoverboard.c ****     RCC_APB2PeriphClockCmd(POWER_RCC_CLK, ENABLE);
 151              		.loc 1 108 0
 152 0004 0121     		movs	r1, #1
 153 0006 0420     		movs	r0, #4
 154 0008 FFF7FEFF 		bl	RCC_APB2PeriphClockCmd
 155              	.LVL14:
 109:../hoverboard/at32_hoverboard.c **** 
 110:../hoverboard/at32_hoverboard.c ****     /*Configure Button pin as input with pull-up/pull-down*/
 111:../hoverboard/at32_hoverboard.c ****     GPIO_StructInit(&GPIO_InitStructure);
 156              		.loc 1 111 0
 157 000c 01A8     		add	r0, sp, #4
 158 000e FFF7FEFF 		bl	GPIO_StructInit
 159              	.LVL15:
 112:../hoverboard/at32_hoverboard.c ****     GPIO_InitStructure.GPIO_Pins = POWER_PIN;
 160              		.loc 1 112 0
 161 0012 2023     		movs	r3, #32
 162 0014 ADF80430 		strh	r3, [sp, #4]	@ movhi
 113:../hoverboard/at32_hoverboard.c ****     GPIO_InitStructure.GPIO_Mode = GPIO_Mode_IN_PU; //hold high for board to stay in power on mode
 163              		.loc 1 113 0
 164 0018 4823     		movs	r3, #72
 165 001a 8DF80730 		strb	r3, [sp, #7]
 114:../hoverboard/at32_hoverboard.c ****     GPIO_Init(POWER_GPIO, &GPIO_InitStructure);
 166              		.loc 1 114 0
 167 001e 01A9     		add	r1, sp, #4
 168 0020 0248     		ldr	r0, .L13
 169 0022 FFF7FEFF 		bl	GPIO_Init
 170              	.LVL16:
 115:../hoverboard/at32_hoverboard.c **** 
 116:../hoverboard/at32_hoverboard.c ****     //set it high
 117:../hoverboard/at32_hoverboard.c ****    // GPIO_SetBits(POWER_GPIO, POWER_PIN);
 118:../hoverboard/at32_hoverboard.c **** 
ARM GAS  /var/folders/l3/4y5292px21b4835bsnjwqc7w009kq1/T//ccWcE0m3.s 			page 6


 119:../hoverboard/at32_hoverboard.c **** }
 171              		.loc 1 119 0
 172 0026 03B0     		add	sp, sp, #12
 173              	.LCFI4:
 174              		.cfi_def_cfa_offset 4
 175              		@ sp needed
 176 0028 5DF804FB 		ldr	pc, [sp], #4
 177              	.L14:
 178              		.align	2
 179              	.L13:
 180 002c 00080140 		.word	1073809408
 181              		.cfi_endproc
 182              	.LFE127:
 183              		.fnend
 185              		.section	.text._Z18AT32_USB_GPIO_initv,"ax",%progbits
 186              		.align	1
 187              		.global	_Z18AT32_USB_GPIO_initv
 188              		.syntax unified
 189              		.thumb
 190              		.thumb_func
 191              		.fpu fpv4-sp-d16
 193              	_Z18AT32_USB_GPIO_initv:
 194              		.fnstart
 195              	.LFB128:
 120:../hoverboard/at32_hoverboard.c **** 
 121:../hoverboard/at32_hoverboard.c **** /**
 122:../hoverboard/at32_hoverboard.c ****   * @brief  USB GPIO initialize
 123:../hoverboard/at32_hoverboard.c ****   *         USB use DP->PA12, DM->PA11
 124:../hoverboard/at32_hoverboard.c ****   * @param  None
 125:../hoverboard/at32_hoverboard.c ****   * @retval None
 126:../hoverboard/at32_hoverboard.c ****   */
 127:../hoverboard/at32_hoverboard.c **** void AT32_USB_GPIO_init()
 128:../hoverboard/at32_hoverboard.c **** {
 196              		.loc 1 128 0
 197              		.cfi_startproc
 198              		@ args = 0, pretend = 0, frame = 8
 199              		@ frame_needed = 0, uses_anonymous_args = 0
 200 0000 10B5     		push	{r4, lr}
 201              		.save {r4, lr}
 202              	.LCFI5:
 203              		.cfi_def_cfa_offset 8
 204              		.cfi_offset 4, -8
 205              		.cfi_offset 14, -4
 206              		.pad #8
 207 0002 82B0     		sub	sp, sp, #8
 208              	.LCFI6:
 209              		.cfi_def_cfa_offset 16
 129:../hoverboard/at32_hoverboard.c ****     GPIO_InitType GPIO_InitStructure;
 130:../hoverboard/at32_hoverboard.c ****     /* Enable the USB Clock*/
 131:../hoverboard/at32_hoverboard.c ****     RCC_APB2PeriphClockCmd(USB_GPIO_RCC_CLK, ENABLE);
 210              		.loc 1 131 0
 211 0004 0121     		movs	r1, #1
 212 0006 0420     		movs	r0, #4
 213 0008 FFF7FEFF 		bl	RCC_APB2PeriphClockCmd
 214              	.LVL17:
 132:../hoverboard/at32_hoverboard.c **** 
 133:../hoverboard/at32_hoverboard.c ****     /*Configure DP, DM pin as GPIO_Mode_OUT_PP*/
ARM GAS  /var/folders/l3/4y5292px21b4835bsnjwqc7w009kq1/T//ccWcE0m3.s 			page 7


 134:../hoverboard/at32_hoverboard.c ****     GPIO_StructInit(&GPIO_InitStructure);
 215              		.loc 1 134 0
 216 000c 01A8     		add	r0, sp, #4
 217 000e FFF7FEFF 		bl	GPIO_StructInit
 218              	.LVL18:
 135:../hoverboard/at32_hoverboard.c ****     GPIO_InitStructure.GPIO_Pins  = USB_DP_PIN | USB_DM_PIN;
 219              		.loc 1 135 0
 220 0012 4FF4C053 		mov	r3, #6144
 221 0016 ADF80430 		strh	r3, [sp, #4]	@ movhi
 136:../hoverboard/at32_hoverboard.c ****     GPIO_InitStructure.GPIO_Mode = GPIO_Mode_OUT_PP;
 222              		.loc 1 136 0
 223 001a 1023     		movs	r3, #16
 224 001c 8DF80730 		strb	r3, [sp, #7]
 137:../hoverboard/at32_hoverboard.c ****     GPIO_InitStructure.GPIO_MaxSpeed = GPIO_MaxSpeed_50MHz;
 225              		.loc 1 137 0
 226 0020 0223     		movs	r3, #2
 227 0022 8DF80630 		strb	r3, [sp, #6]
 138:../hoverboard/at32_hoverboard.c ****     GPIO_Init(USB_GPIO, &GPIO_InitStructure);
 228              		.loc 1 138 0
 229 0026 064C     		ldr	r4, .L17
 230 0028 01A9     		add	r1, sp, #4
 231 002a 2046     		mov	r0, r4
 232 002c FFF7FEFF 		bl	GPIO_Init
 233              	.LVL19:
 139:../hoverboard/at32_hoverboard.c ****     GPIO_ResetBits(USB_GPIO, USB_DP_PIN);
 234              		.loc 1 139 0
 235 0030 4FF48051 		mov	r1, #4096
 236 0034 2046     		mov	r0, r4
 237 0036 FFF7FEFF 		bl	GPIO_ResetBits
 238              	.LVL20:
 140:../hoverboard/at32_hoverboard.c **** 
 141:../hoverboard/at32_hoverboard.c **** }
 239              		.loc 1 141 0
 240 003a 02B0     		add	sp, sp, #8
 241              	.LCFI7:
 242              		.cfi_def_cfa_offset 8
 243              		@ sp needed
 244 003c 10BD     		pop	{r4, pc}
 245              	.L18:
 246 003e 00BF     		.align	2
 247              	.L17:
 248 0040 00080140 		.word	1073809408
 249              		.cfi_endproc
 250              	.LFE128:
 251              		.fnend
 253              		.section	.text._Z16AT32_BUTTON_Init11BUTTON_Type,"ax",%progbits
 254              		.align	1
 255              		.global	_Z16AT32_BUTTON_Init11BUTTON_Type
 256              		.syntax unified
 257              		.thumb
 258              		.thumb_func
 259              		.fpu fpv4-sp-d16
 261              	_Z16AT32_BUTTON_Init11BUTTON_Type:
 262              		.fnstart
 263              	.LFB129:
 142:../hoverboard/at32_hoverboard.c **** 
 143:../hoverboard/at32_hoverboard.c **** /**
ARM GAS  /var/folders/l3/4y5292px21b4835bsnjwqc7w009kq1/T//ccWcE0m3.s 			page 8


 144:../hoverboard/at32_hoverboard.c ****   * @brief  Configure Button GPIO
 145:../hoverboard/at32_hoverboard.c ****   * @param  Button: Specifies the Button to be configured.
 146:../hoverboard/at32_hoverboard.c ****   * @retval None
 147:../hoverboard/at32_hoverboard.c ****   */
 148:../hoverboard/at32_hoverboard.c **** void AT32_BUTTON_Init(BUTTON_Type button)
 149:../hoverboard/at32_hoverboard.c **** {
 264              		.loc 1 149 0
 265              		.cfi_startproc
 266              		@ args = 0, pretend = 0, frame = 8
 267              		@ frame_needed = 0, uses_anonymous_args = 0
 268              	.LVL21:
 269 0000 10B5     		push	{r4, lr}
 270              		.save {r4, lr}
 271              	.LCFI8:
 272              		.cfi_def_cfa_offset 8
 273              		.cfi_offset 4, -8
 274              		.cfi_offset 14, -4
 275              		.pad #8
 276 0002 82B0     		sub	sp, sp, #8
 277              	.LCFI9:
 278              		.cfi_def_cfa_offset 16
 279 0004 0446     		mov	r4, r0
 150:../hoverboard/at32_hoverboard.c ****     GPIO_InitType GPIO_InitStructure;
 151:../hoverboard/at32_hoverboard.c **** 
 152:../hoverboard/at32_hoverboard.c ****     /*Enable the Button Clock*/
 153:../hoverboard/at32_hoverboard.c ****     RCC_APB2PeriphClockCmd(BUTTON_GPIO_RCC_CLK[button], ENABLE);
 280              		.loc 1 153 0
 281 0006 0121     		movs	r1, #1
 282 0008 0B4B     		ldr	r3, .L21
 283 000a 53F82000 		ldr	r0, [r3, r0, lsl #2]
 284              	.LVL22:
 285 000e FFF7FEFF 		bl	RCC_APB2PeriphClockCmd
 286              	.LVL23:
 154:../hoverboard/at32_hoverboard.c **** 
 155:../hoverboard/at32_hoverboard.c ****     /*Configure Button pin as input with pull-up/pull-down*/
 156:../hoverboard/at32_hoverboard.c ****     GPIO_StructInit(&GPIO_InitStructure);
 287              		.loc 1 156 0
 288 0012 01A8     		add	r0, sp, #4
 289 0014 FFF7FEFF 		bl	GPIO_StructInit
 290              	.LVL24:
 157:../hoverboard/at32_hoverboard.c ****     GPIO_InitStructure.GPIO_Pins = BUTTON_GPIO_PIN[button];
 291              		.loc 1 157 0
 292 0018 084B     		ldr	r3, .L21+4
 293 001a 33F81430 		ldrh	r3, [r3, r4, lsl #1]
 294 001e ADF80430 		strh	r3, [sp, #4]	@ movhi
 158:../hoverboard/at32_hoverboard.c ****     GPIO_InitStructure.GPIO_Mode = GPIO_Mode_IN_PD;
 295              		.loc 1 158 0
 296 0022 2823     		movs	r3, #40
 297 0024 8DF80730 		strb	r3, [sp, #7]
 159:../hoverboard/at32_hoverboard.c ****     GPIO_Init(BUTTON_GPIO_PORT[button], &GPIO_InitStructure);
 298              		.loc 1 159 0
 299 0028 01A9     		add	r1, sp, #4
 300 002a 054B     		ldr	r3, .L21+8
 301 002c 53F82400 		ldr	r0, [r3, r4, lsl #2]
 302 0030 FFF7FEFF 		bl	GPIO_Init
 303              	.LVL25:
 160:../hoverboard/at32_hoverboard.c **** }
ARM GAS  /var/folders/l3/4y5292px21b4835bsnjwqc7w009kq1/T//ccWcE0m3.s 			page 9


 304              		.loc 1 160 0
 305 0034 02B0     		add	sp, sp, #8
 306              	.LCFI10:
 307              		.cfi_def_cfa_offset 8
 308              		@ sp needed
 309 0036 10BD     		pop	{r4, pc}
 310              	.L22:
 311              		.align	2
 312              	.L21:
 313 0038 00000000 		.word	.LANCHOR0
 314 003c 00000000 		.word	.LANCHOR1
 315 0040 00000000 		.word	.LANCHOR2
 316              		.cfi_endproc
 317              	.LFE129:
 318              		.fnend
 320              		.section	.text._Z17AT32_BUTTON_State11BUTTON_Type,"ax",%progbits
 321              		.align	1
 322              		.global	_Z17AT32_BUTTON_State11BUTTON_Type
 323              		.syntax unified
 324              		.thumb
 325              		.thumb_func
 326              		.fpu fpv4-sp-d16
 328              	_Z17AT32_BUTTON_State11BUTTON_Type:
 329              		.fnstart
 330              	.LFB130:
 161:../hoverboard/at32_hoverboard.c **** 
 162:../hoverboard/at32_hoverboard.c **** /**
 163:../hoverboard/at32_hoverboard.c ****   * @brief  Returns the selected button state
 164:../hoverboard/at32_hoverboard.c ****   * @param  Button: Specifies the Button to be Checked
 165:../hoverboard/at32_hoverboard.c ****   * @retval The Button GPIO Pin value
 166:../hoverboard/at32_hoverboard.c ****   */
 167:../hoverboard/at32_hoverboard.c **** uint8_t AT32_BUTTON_State(BUTTON_Type button)
 168:../hoverboard/at32_hoverboard.c **** {
 331              		.loc 1 168 0
 332              		.cfi_startproc
 333              		@ args = 0, pretend = 0, frame = 0
 334              		@ frame_needed = 0, uses_anonymous_args = 0
 335              	.LVL26:
 336 0000 08B5     		push	{r3, lr}
 337              		.save {r3, lr}
 338              	.LCFI11:
 339              		.cfi_def_cfa_offset 8
 340              		.cfi_offset 3, -8
 341              		.cfi_offset 14, -4
 169:../hoverboard/at32_hoverboard.c ****     return GPIO_ReadInputDataBit(BUTTON_GPIO_PORT[button], BUTTON_GPIO_PIN[button]);
 342              		.loc 1 169 0
 343 0002 044B     		ldr	r3, .L25
 344 0004 33F81010 		ldrh	r1, [r3, r0, lsl #1]
 345 0008 034B     		ldr	r3, .L25+4
 346 000a 53F82000 		ldr	r0, [r3, r0, lsl #2]
 347              	.LVL27:
 348 000e FFF7FEFF 		bl	GPIO_ReadInputDataBit
 349              	.LVL28:
 170:../hoverboard/at32_hoverboard.c **** }
 350              		.loc 1 170 0
 351 0012 08BD     		pop	{r3, pc}
 352              	.L26:
ARM GAS  /var/folders/l3/4y5292px21b4835bsnjwqc7w009kq1/T//ccWcE0m3.s 			page 10


 353              		.align	2
 354              	.L25:
 355 0014 00000000 		.word	.LANCHOR1
 356 0018 00000000 		.word	.LANCHOR2
 357              		.cfi_endproc
 358              	.LFE130:
 359              		.fnend
 361              		.section	.text._Z14AT32_LEDn_Init8LED_Type,"ax",%progbits
 362              		.align	1
 363              		.global	_Z14AT32_LEDn_Init8LED_Type
 364              		.syntax unified
 365              		.thumb
 366              		.thumb_func
 367              		.fpu fpv4-sp-d16
 369              	_Z14AT32_LEDn_Init8LED_Type:
 370              		.fnstart
 371              	.LFB132:
 171:../hoverboard/at32_hoverboard.c **** 
 172:../hoverboard/at32_hoverboard.c **** /**
 173:../hoverboard/at32_hoverboard.c ****   * @brief  Returns which Button have press down
 174:../hoverboard/at32_hoverboard.c ****   * @param  None
 175:../hoverboard/at32_hoverboard.c ****   * @retval The Button have press down
 176:../hoverboard/at32_hoverboard.c ****   */
 177:../hoverboard/at32_hoverboard.c **** BUTTON_Type AT32_BUTTON_Press()
 178:../hoverboard/at32_hoverboard.c **** {
 179:../hoverboard/at32_hoverboard.c ****     static uint8_t Pressed = 1;
 180:../hoverboard/at32_hoverboard.c ****     /*Get Button state in AT_START board*/
 181:../hoverboard/at32_hoverboard.c ****     if ((Pressed == 1) && ((AT32_BUTTON_State(BUTTON_WAKEUP) == Bit_SET ) || (AT32_BUTTON_State(BUT
 182:../hoverboard/at32_hoverboard.c ****     {
 183:../hoverboard/at32_hoverboard.c ****         /*debounce*/
 184:../hoverboard/at32_hoverboard.c ****         Pressed = 0;
 185:../hoverboard/at32_hoverboard.c ****         Delay_ms(10);
 186:../hoverboard/at32_hoverboard.c ****         if (AT32_BUTTON_State(BUTTON_WAKEUP) == Bit_SET)
 187:../hoverboard/at32_hoverboard.c ****             return BUTTON_WAKEUP;
 188:../hoverboard/at32_hoverboard.c ****         if (AT32_BUTTON_State(BUTTON_USER_KEY) == Bit_SET)
 189:../hoverboard/at32_hoverboard.c ****             return BUTTON_USER_KEY;
 190:../hoverboard/at32_hoverboard.c ****     }else if((AT32_BUTTON_State(BUTTON_USER_KEY) == Bit_RESET) && (AT32_BUTTON_State(BUTTON_WAKEUP)
 191:../hoverboard/at32_hoverboard.c ****     {
 192:../hoverboard/at32_hoverboard.c ****         Pressed = 1;
 193:../hoverboard/at32_hoverboard.c ****     }
 194:../hoverboard/at32_hoverboard.c ****     return NO_BUTTON;
 195:../hoverboard/at32_hoverboard.c **** }
 196:../hoverboard/at32_hoverboard.c **** 
 197:../hoverboard/at32_hoverboard.c **** /**
 198:../hoverboard/at32_hoverboard.c ****   * @brief  Configure LED GPIO
 199:../hoverboard/at32_hoverboard.c ****   * @param  led: Specifies the LED to be configured.
 200:../hoverboard/at32_hoverboard.c ****   * @retval None
 201:../hoverboard/at32_hoverboard.c ****   */
 202:../hoverboard/at32_hoverboard.c **** void AT32_LEDn_Init(LED_Type led)
 203:../hoverboard/at32_hoverboard.c **** {
 372              		.loc 1 203 0
 373              		.cfi_startproc
 374              		@ args = 0, pretend = 0, frame = 8
 375              		@ frame_needed = 0, uses_anonymous_args = 0
 376              	.LVL29:
 377 0000 10B5     		push	{r4, lr}
 378              		.save {r4, lr}
ARM GAS  /var/folders/l3/4y5292px21b4835bsnjwqc7w009kq1/T//ccWcE0m3.s 			page 11


 379              	.LCFI12:
 380              		.cfi_def_cfa_offset 8
 381              		.cfi_offset 4, -8
 382              		.cfi_offset 14, -4
 383              		.pad #8
 384 0002 82B0     		sub	sp, sp, #8
 385              	.LCFI13:
 386              		.cfi_def_cfa_offset 16
 387 0004 0446     		mov	r4, r0
 204:../hoverboard/at32_hoverboard.c ****     GPIO_InitType GPIO_InitStructure;
 205:../hoverboard/at32_hoverboard.c ****     /*Enable the LED Clock*/
 206:../hoverboard/at32_hoverboard.c ****     RCC_APB2PeriphClockCmd(LED_GPIO_RCC_CLK[led], ENABLE);
 388              		.loc 1 206 0
 389 0006 0121     		movs	r1, #1
 390 0008 0D4B     		ldr	r3, .L29
 391 000a 53F82000 		ldr	r0, [r3, r0, lsl #2]
 392              	.LVL30:
 393 000e FFF7FEFF 		bl	RCC_APB2PeriphClockCmd
 394              	.LVL31:
 207:../hoverboard/at32_hoverboard.c **** 
 208:../hoverboard/at32_hoverboard.c ****     /*Configure the LED pin as ouput push-pull*/
 209:../hoverboard/at32_hoverboard.c ****     GPIO_StructInit(&GPIO_InitStructure);
 395              		.loc 1 209 0
 396 0012 01A8     		add	r0, sp, #4
 397 0014 FFF7FEFF 		bl	GPIO_StructInit
 398              	.LVL32:
 210:../hoverboard/at32_hoverboard.c ****     GPIO_InitStructure.GPIO_Pins = LED_GPIO_PIN[led];
 399              		.loc 1 210 0
 400 0018 0A4B     		ldr	r3, .L29+4
 401 001a 33F81430 		ldrh	r3, [r3, r4, lsl #1]
 402 001e ADF80430 		strh	r3, [sp, #4]	@ movhi
 211:../hoverboard/at32_hoverboard.c ****     GPIO_InitStructure.GPIO_Mode = GPIO_Mode_OUT_PP;
 403              		.loc 1 211 0
 404 0022 1023     		movs	r3, #16
 405 0024 8DF80730 		strb	r3, [sp, #7]
 212:../hoverboard/at32_hoverboard.c ****     GPIO_InitStructure.GPIO_MaxSpeed = GPIO_MaxSpeed_50MHz;
 406              		.loc 1 212 0
 407 0028 0223     		movs	r3, #2
 408 002a 8DF80630 		strb	r3, [sp, #6]
 213:../hoverboard/at32_hoverboard.c ****     GPIO_Init(LED_GPIO_PORT[led], &GPIO_InitStructure);
 409              		.loc 1 213 0
 410 002e 01A9     		add	r1, sp, #4
 411 0030 054B     		ldr	r3, .L29+8
 412 0032 53F82400 		ldr	r0, [r3, r4, lsl #2]
 413 0036 FFF7FEFF 		bl	GPIO_Init
 414              	.LVL33:
 214:../hoverboard/at32_hoverboard.c **** }
 415              		.loc 1 214 0
 416 003a 02B0     		add	sp, sp, #8
 417              	.LCFI14:
 418              		.cfi_def_cfa_offset 8
 419              		@ sp needed
 420 003c 10BD     		pop	{r4, pc}
 421              	.L30:
 422 003e 00BF     		.align	2
 423              	.L29:
 424 0040 00000000 		.word	.LANCHOR3
ARM GAS  /var/folders/l3/4y5292px21b4835bsnjwqc7w009kq1/T//ccWcE0m3.s 			page 12


 425 0044 00000000 		.word	.LANCHOR4
 426 0048 00000000 		.word	.LANCHOR5
 427              		.cfi_endproc
 428              	.LFE132:
 429              		.fnend
 431              		.section	.text._Z12AT32_LEDn_ON8LED_Type,"ax",%progbits
 432              		.align	1
 433              		.global	_Z12AT32_LEDn_ON8LED_Type
 434              		.syntax unified
 435              		.thumb
 436              		.thumb_func
 437              		.fpu fpv4-sp-d16
 439              	_Z12AT32_LEDn_ON8LED_Type:
 440              		.fnstart
 441              	.LFB133:
 215:../hoverboard/at32_hoverboard.c **** 
 216:../hoverboard/at32_hoverboard.c **** /**
 217:../hoverboard/at32_hoverboard.c ****   * @brief  Turns selected LED On.
 218:../hoverboard/at32_hoverboard.c ****   * @param  Led: Specifies the Led to be set on.
 219:../hoverboard/at32_hoverboard.c ****   *   This parameter can be one of following parameters:
 220:../hoverboard/at32_hoverboard.c ****   *     @arg LED1
 221:../hoverboard/at32_hoverboard.c ****   *     @arg LED2
 222:../hoverboard/at32_hoverboard.c ****   *     @arg LED3
 223:../hoverboard/at32_hoverboard.c ****   *     @arg LED4
 224:../hoverboard/at32_hoverboard.c ****   * @retval None
 225:../hoverboard/at32_hoverboard.c ****   */
 226:../hoverboard/at32_hoverboard.c **** void AT32_LEDn_ON(LED_Type led)
 227:../hoverboard/at32_hoverboard.c **** {
 442              		.loc 1 227 0
 443              		.cfi_startproc
 444              		@ args = 0, pretend = 0, frame = 0
 445              		@ frame_needed = 0, uses_anonymous_args = 0
 446              		@ link register save eliminated.
 447              	.LVL34:
 228:../hoverboard/at32_hoverboard.c ****     if ( led > (LED_NUM - 1))
 448              		.loc 1 228 0
 449 0000 0328     		cmp	r0, #3
 450 0002 07D8     		bhi	.L31
 229:../hoverboard/at32_hoverboard.c ****         return;
 230:../hoverboard/at32_hoverboard.c ****     if ( LED_GPIO_PIN[led] )
 451              		.loc 1 230 0
 452 0004 044B     		ldr	r3, .L33
 453 0006 33F81030 		ldrh	r3, [r3, r0, lsl #1]
 454 000a 1BB1     		cbz	r3, .L31
 231:../hoverboard/at32_hoverboard.c ****         LED_GPIO_PORT[led]->BSRE = LED_GPIO_PIN[led];
 455              		.loc 1 231 0
 456 000c 034A     		ldr	r2, .L33+4
 457 000e 52F82020 		ldr	r2, [r2, r0, lsl #2]
 458 0012 1361     		str	r3, [r2, #16]
 459              	.L31:
 232:../hoverboard/at32_hoverboard.c **** }
 460              		.loc 1 232 0
 461 0014 7047     		bx	lr
 462              	.L34:
 463 0016 00BF     		.align	2
 464              	.L33:
 465 0018 00000000 		.word	.LANCHOR4
ARM GAS  /var/folders/l3/4y5292px21b4835bsnjwqc7w009kq1/T//ccWcE0m3.s 			page 13


 466 001c 00000000 		.word	.LANCHOR5
 467              		.cfi_endproc
 468              	.LFE133:
 469              		.cantunwind
 470              		.fnend
 472              		.section	.text._Z13AT32_LEDn_OFF8LED_Type,"ax",%progbits
 473              		.align	1
 474              		.global	_Z13AT32_LEDn_OFF8LED_Type
 475              		.syntax unified
 476              		.thumb
 477              		.thumb_func
 478              		.fpu fpv4-sp-d16
 480              	_Z13AT32_LEDn_OFF8LED_Type:
 481              		.fnstart
 482              	.LFB134:
 233:../hoverboard/at32_hoverboard.c **** 
 234:../hoverboard/at32_hoverboard.c **** /**
 235:../hoverboard/at32_hoverboard.c ****   * @brief  Turns selected LED Off.
 236:../hoverboard/at32_hoverboard.c ****   * @param  Led: Specifies the Led to be set off.
 237:../hoverboard/at32_hoverboard.c ****   *   This parameter can be one of following parameters:
 238:../hoverboard/at32_hoverboard.c ****   *     @arg LED1
 239:../hoverboard/at32_hoverboard.c ****   *     @arg LED2
 240:../hoverboard/at32_hoverboard.c ****   *     @arg LED3
 241:../hoverboard/at32_hoverboard.c ****   *     @arg LED4
 242:../hoverboard/at32_hoverboard.c ****   * @retval None
 243:../hoverboard/at32_hoverboard.c ****   */
 244:../hoverboard/at32_hoverboard.c **** void AT32_LEDn_OFF(LED_Type led)
 245:../hoverboard/at32_hoverboard.c **** {
 483              		.loc 1 245 0
 484              		.cfi_startproc
 485              		@ args = 0, pretend = 0, frame = 0
 486              		@ frame_needed = 0, uses_anonymous_args = 0
 487              		@ link register save eliminated.
 488              	.LVL35:
 246:../hoverboard/at32_hoverboard.c ****     if ( led > (LED_NUM - 1))
 489              		.loc 1 246 0
 490 0000 0328     		cmp	r0, #3
 491 0002 07D8     		bhi	.L35
 247:../hoverboard/at32_hoverboard.c ****         return;
 248:../hoverboard/at32_hoverboard.c ****     if ( LED_GPIO_PIN[led] )
 492              		.loc 1 248 0
 493 0004 044B     		ldr	r3, .L37
 494 0006 33F81030 		ldrh	r3, [r3, r0, lsl #1]
 495 000a 1BB1     		cbz	r3, .L35
 249:../hoverboard/at32_hoverboard.c ****         LED_GPIO_PORT[led]->BRE = LED_GPIO_PIN[led];
 496              		.loc 1 249 0
 497 000c 034A     		ldr	r2, .L37+4
 498 000e 52F82020 		ldr	r2, [r2, r0, lsl #2]
 499 0012 5361     		str	r3, [r2, #20]
 500              	.L35:
 250:../hoverboard/at32_hoverboard.c **** }
 501              		.loc 1 250 0
 502 0014 7047     		bx	lr
 503              	.L38:
 504 0016 00BF     		.align	2
 505              	.L37:
 506 0018 00000000 		.word	.LANCHOR4
ARM GAS  /var/folders/l3/4y5292px21b4835bsnjwqc7w009kq1/T//ccWcE0m3.s 			page 14


 507 001c 00000000 		.word	.LANCHOR5
 508              		.cfi_endproc
 509              	.LFE134:
 510              		.cantunwind
 511              		.fnend
 513              		.section	.text._Z16AT32_LEDn_Toggle8LED_Type,"ax",%progbits
 514              		.align	1
 515              		.global	_Z16AT32_LEDn_Toggle8LED_Type
 516              		.syntax unified
 517              		.thumb
 518              		.thumb_func
 519              		.fpu fpv4-sp-d16
 521              	_Z16AT32_LEDn_Toggle8LED_Type:
 522              		.fnstart
 523              	.LFB135:
 251:../hoverboard/at32_hoverboard.c **** 
 252:../hoverboard/at32_hoverboard.c **** /**
 253:../hoverboard/at32_hoverboard.c ****   * @brief  Turns selected LED Tooggle.
 254:../hoverboard/at32_hoverboard.c ****   * @param  Led: Specifies the Led to be set off.
 255:../hoverboard/at32_hoverboard.c ****   *   This parameter can be one of following parameters:
 256:../hoverboard/at32_hoverboard.c ****   *     @arg LED1
 257:../hoverboard/at32_hoverboard.c ****   *     @arg LED2
 258:../hoverboard/at32_hoverboard.c ****   *     @arg LED3
 259:../hoverboard/at32_hoverboard.c ****   *     @arg LED4
 260:../hoverboard/at32_hoverboard.c ****   * @retval None
 261:../hoverboard/at32_hoverboard.c ****   */
 262:../hoverboard/at32_hoverboard.c **** void AT32_LEDn_Toggle(LED_Type led)
 263:../hoverboard/at32_hoverboard.c **** {
 524              		.loc 1 263 0
 525              		.cfi_startproc
 526              		@ args = 0, pretend = 0, frame = 0
 527              		@ frame_needed = 0, uses_anonymous_args = 0
 528              		@ link register save eliminated.
 529              	.LVL36:
 264:../hoverboard/at32_hoverboard.c ****     if ( led > (LED_NUM - 1))
 530              		.loc 1 264 0
 531 0000 0328     		cmp	r0, #3
 532 0002 09D8     		bhi	.L39
 265:../hoverboard/at32_hoverboard.c ****         return;
 266:../hoverboard/at32_hoverboard.c ****     if ( LED_GPIO_PIN[led] )
 533              		.loc 1 266 0
 534 0004 054B     		ldr	r3, .L41
 535 0006 33F81030 		ldrh	r3, [r3, r0, lsl #1]
 536 000a 2BB1     		cbz	r3, .L39
 267:../hoverboard/at32_hoverboard.c ****         LED_GPIO_PORT[led]->OPTDT ^= LED_GPIO_PIN[led];
 537              		.loc 1 267 0
 538 000c 044A     		ldr	r2, .L41+4
 539 000e 52F82020 		ldr	r2, [r2, r0, lsl #2]
 540 0012 D168     		ldr	r1, [r2, #12]
 541 0014 4B40     		eors	r3, r3, r1
 542 0016 D360     		str	r3, [r2, #12]
 543              	.L39:
 268:../hoverboard/at32_hoverboard.c **** }
 544              		.loc 1 268 0
 545 0018 7047     		bx	lr
 546              	.L42:
 547 001a 00BF     		.align	2
ARM GAS  /var/folders/l3/4y5292px21b4835bsnjwqc7w009kq1/T//ccWcE0m3.s 			page 15


 548              	.L41:
 549 001c 00000000 		.word	.LANCHOR4
 550 0020 00000000 		.word	.LANCHOR5
 551              		.cfi_endproc
 552              	.LFE135:
 553              		.cantunwind
 554              		.fnend
 556              		.section	.text._Z15UART_Print_Initm,"ax",%progbits
 557              		.align	1
 558              		.global	_Z15UART_Print_Initm
 559              		.syntax unified
 560              		.thumb
 561              		.thumb_func
 562              		.fpu fpv4-sp-d16
 564              	_Z15UART_Print_Initm:
 565              		.fnstart
 566              	.LFB136:
 269:../hoverboard/at32_hoverboard.c **** 
 270:../hoverboard/at32_hoverboard.c **** /**
 271:../hoverboard/at32_hoverboard.c ****   * @brief  initialize UART2
 272:../hoverboard/at32_hoverboard.c ****   * @param  bound: UART BaudRate
 273:../hoverboard/at32_hoverboard.c ****   * @retval None
 274:../hoverboard/at32_hoverboard.c ****   */
 275:../hoverboard/at32_hoverboard.c **** void UART_Print_Init(uint32_t bound)
 276:../hoverboard/at32_hoverboard.c **** {
 567              		.loc 1 276 0
 568              		.cfi_startproc
 569              		@ args = 0, pretend = 0, frame = 24
 570              		@ frame_needed = 0, uses_anonymous_args = 0
 571              	.LVL37:
 572 0000 70B5     		push	{r4, r5, r6, lr}
 573              		.save {r4, r5, r6, lr}
 574              	.LCFI15:
 575              		.cfi_def_cfa_offset 16
 576              		.cfi_offset 4, -16
 577              		.cfi_offset 5, -12
 578              		.cfi_offset 6, -8
 579              		.cfi_offset 14, -4
 580              		.pad #24
 581 0002 86B0     		sub	sp, sp, #24
 582              	.LCFI16:
 583              		.cfi_def_cfa_offset 40
 584 0004 0646     		mov	r6, r0
 277:../hoverboard/at32_hoverboard.c ****     GPIO_InitType GPIO_InitStructure;
 278:../hoverboard/at32_hoverboard.c ****     USART_InitType USART_InitStructure;
 279:../hoverboard/at32_hoverboard.c **** 
 280:../hoverboard/at32_hoverboard.c ****     /*Enable the UART Clock*/
 281:../hoverboard/at32_hoverboard.c ****     RCC_APB2PeriphClockCmd(AT32_PRINT_UARTTX_GPIO_RCC | AT32_PRINT_UARTRX_GPIO_RCC, ENABLE);
 585              		.loc 1 281 0
 586 0006 0121     		movs	r1, #1
 587 0008 0420     		movs	r0, #4
 588              	.LVL38:
 589 000a FFF7FEFF 		bl	RCC_APB2PeriphClockCmd
 590              	.LVL39:
 282:../hoverboard/at32_hoverboard.c ****     RCC_APB1PeriphClockCmd(AT32_PRINT_UART_RCC, ENABLE);
 591              		.loc 1 282 0
 592 000e 0121     		movs	r1, #1
ARM GAS  /var/folders/l3/4y5292px21b4835bsnjwqc7w009kq1/T//ccWcE0m3.s 			page 16


 593 0010 4FF40030 		mov	r0, #131072
 594 0014 FFF7FEFF 		bl	RCC_APB1PeriphClockCmd
 595              	.LVL40:
 283:../hoverboard/at32_hoverboard.c **** 
 284:../hoverboard/at32_hoverboard.c ****     /* Configure the UART2 RX pin */
 285:../hoverboard/at32_hoverboard.c ****     GPIO_StructInit(&GPIO_InitStructure);
 596              		.loc 1 285 0
 597 0018 05A8     		add	r0, sp, #20
 598 001a FFF7FEFF 		bl	GPIO_StructInit
 599              	.LVL41:
 286:../hoverboard/at32_hoverboard.c ****     GPIO_InitStructure.GPIO_Pins = AT32_PRINT_UARTTX_PIN;
 600              		.loc 1 286 0
 601 001e 0425     		movs	r5, #4
 602 0020 ADF81450 		strh	r5, [sp, #20]	@ movhi
 287:../hoverboard/at32_hoverboard.c ****     GPIO_InitStructure.GPIO_MaxSpeed = GPIO_MaxSpeed_50MHz;
 603              		.loc 1 287 0
 604 0024 0223     		movs	r3, #2
 605 0026 8DF81630 		strb	r3, [sp, #22]
 288:../hoverboard/at32_hoverboard.c ****     GPIO_InitStructure.GPIO_Mode = GPIO_Mode_AF_PP;
 606              		.loc 1 288 0
 607 002a 1823     		movs	r3, #24
 608 002c 8DF81730 		strb	r3, [sp, #23]
 289:../hoverboard/at32_hoverboard.c ****     GPIO_Init(AT32_PRINT_UARTTX_GPIO, &GPIO_InitStructure);
 609              		.loc 1 289 0
 610 0030 1B4C     		ldr	r4, .L45
 611 0032 05A9     		add	r1, sp, #20
 612 0034 2046     		mov	r0, r4
 613 0036 FFF7FEFF 		bl	GPIO_Init
 614              	.LVL42:
 290:../hoverboard/at32_hoverboard.c **** 
 291:../hoverboard/at32_hoverboard.c ****     /* Configure the UART2 TX pin */
 292:../hoverboard/at32_hoverboard.c ****     GPIO_InitStructure.GPIO_Pins = AT32_PRINT_UARTRX_PIN;//PA3
 615              		.loc 1 292 0
 616 003a 0823     		movs	r3, #8
 617 003c ADF81430 		strh	r3, [sp, #20]	@ movhi
 293:../hoverboard/at32_hoverboard.c ****     GPIO_InitStructure.GPIO_Mode = GPIO_Mode_IN_FLOATING;
 618              		.loc 1 293 0
 619 0040 8DF81750 		strb	r5, [sp, #23]
 294:../hoverboard/at32_hoverboard.c ****     GPIO_Init(AT32_PRINT_UARTRX_GPIO, &GPIO_InitStructure);
 620              		.loc 1 294 0
 621 0044 05A9     		add	r1, sp, #20
 622 0046 2046     		mov	r0, r4
 623 0048 FFF7FEFF 		bl	GPIO_Init
 624              	.LVL43:
 295:../hoverboard/at32_hoverboard.c **** 
 296:../hoverboard/at32_hoverboard.c ****     /*Configure UART param*/
 297:../hoverboard/at32_hoverboard.c ****     USART_StructInit(&USART_InitStructure);
 625              		.loc 1 297 0
 626 004c 0DEB0500 		add	r0, sp, r5
 627 0050 FFF7FEFF 		bl	USART_StructInit
 628              	.LVL44:
 298:../hoverboard/at32_hoverboard.c ****     USART_InitStructure.USART_BaudRate = bound;
 629              		.loc 1 298 0
 630 0054 0196     		str	r6, [sp, #4]
 299:../hoverboard/at32_hoverboard.c ****     USART_InitStructure.USART_WordLength = USART_WordLength_8b;
 631              		.loc 1 299 0
 632 0056 0023     		movs	r3, #0
ARM GAS  /var/folders/l3/4y5292px21b4835bsnjwqc7w009kq1/T//ccWcE0m3.s 			page 17


 633 0058 ADF80830 		strh	r3, [sp, #8]	@ movhi
 300:../hoverboard/at32_hoverboard.c ****     USART_InitStructure.USART_StopBits = USART_StopBits_1;
 634              		.loc 1 300 0
 635 005c ADF80A30 		strh	r3, [sp, #10]	@ movhi
 301:../hoverboard/at32_hoverboard.c ****     USART_InitStructure.USART_Parity = USART_Parity_No;
 636              		.loc 1 301 0
 637 0060 ADF80C30 		strh	r3, [sp, #12]	@ movhi
 302:../hoverboard/at32_hoverboard.c ****     USART_InitStructure.USART_HardwareFlowControl = USART_HardwareFlowControl_None;
 638              		.loc 1 302 0
 639 0064 ADF81030 		strh	r3, [sp, #16]	@ movhi
 303:../hoverboard/at32_hoverboard.c ****     USART_InitStructure.USART_Mode = USART_Mode_Rx | USART_Mode_Tx;
 640              		.loc 1 303 0
 641 0068 0C23     		movs	r3, #12
 642 006a ADF80E30 		strh	r3, [sp, #14]	@ movhi
 304:../hoverboard/at32_hoverboard.c **** 
 305:../hoverboard/at32_hoverboard.c ****   /* Enable USART2 Receive and Transmit interrupts */
 306:../hoverboard/at32_hoverboard.c ****     USART_Init(AT32_PRINT_UART, &USART_InitStructure);
 643              		.loc 1 306 0
 644 006e A4F54444 		sub	r4, r4, #50176
 645 0072 0DEB0501 		add	r1, sp, r5
 646 0076 2046     		mov	r0, r4
 647 0078 FFF7FEFF 		bl	USART_Init
 648              	.LVL45:
 307:../hoverboard/at32_hoverboard.c ****     USART_INTConfig(AT32_PRINT_UART, USART_INT_RDNE, ENABLE);
 649              		.loc 1 307 0
 650 007c 0122     		movs	r2, #1
 651 007e 40F22551 		movw	r1, #1317
 652 0082 2046     		mov	r0, r4
 653 0084 FFF7FEFF 		bl	USART_INTConfig
 654              	.LVL46:
 308:../hoverboard/at32_hoverboard.c ****     USART_INTConfig(AT32_PRINT_UART, USART_INT_TDE, ENABLE);
 655              		.loc 1 308 0
 656 0088 0122     		movs	r2, #1
 657 008a 40F22771 		movw	r1, #1831
 658 008e 2046     		mov	r0, r4
 659 0090 FFF7FEFF 		bl	USART_INTConfig
 660              	.LVL47:
 309:../hoverboard/at32_hoverboard.c **** 
 310:../hoverboard/at32_hoverboard.c ****     USART_Cmd(AT32_PRINT_UART, ENABLE);
 661              		.loc 1 310 0
 662 0094 0121     		movs	r1, #1
 663 0096 2046     		mov	r0, r4
 664 0098 FFF7FEFF 		bl	USART_Cmd
 665              	.LVL48:
 311:../hoverboard/at32_hoverboard.c **** }
 666              		.loc 1 311 0
 667 009c 06B0     		add	sp, sp, #24
 668              	.LCFI17:
 669              		.cfi_def_cfa_offset 16
 670              		@ sp needed
 671 009e 70BD     		pop	{r4, r5, r6, pc}
 672              	.LVL49:
 673              	.L46:
 674              		.align	2
 675              	.L45:
 676 00a0 00080140 		.word	1073809408
 677              		.cfi_endproc
ARM GAS  /var/folders/l3/4y5292px21b4835bsnjwqc7w009kq1/T//ccWcE0m3.s 			page 18


 678              	.LFE136:
 679              		.fnend
 681              		.section	.text._Z10Delay_initv,"ax",%progbits
 682              		.align	1
 683              		.global	_Z10Delay_initv
 684              		.syntax unified
 685              		.thumb
 686              		.thumb_func
 687              		.fpu fpv4-sp-d16
 689              	_Z10Delay_initv:
 690              		.fnstart
 691              	.LFB137:
 312:../hoverboard/at32_hoverboard.c **** 
 313:../hoverboard/at32_hoverboard.c **** /**
 314:../hoverboard/at32_hoverboard.c ****   * @brief  initialize Delay function
 315:../hoverboard/at32_hoverboard.c ****   * @param  None
 316:../hoverboard/at32_hoverboard.c ****   * @retval None
 317:../hoverboard/at32_hoverboard.c ****   */
 318:../hoverboard/at32_hoverboard.c **** void Delay_init()
 319:../hoverboard/at32_hoverboard.c **** {
 692              		.loc 1 319 0
 693              		.cfi_startproc
 694              		@ args = 0, pretend = 0, frame = 0
 695              		@ frame_needed = 0, uses_anonymous_args = 0
 696 0000 08B5     		push	{r3, lr}
 697              		.save {r3, lr}
 698              	.LCFI18:
 699              		.cfi_def_cfa_offset 8
 700              		.cfi_offset 3, -8
 701              		.cfi_offset 14, -4
 320:../hoverboard/at32_hoverboard.c ****     /*Config Systick*/
 321:../hoverboard/at32_hoverboard.c ****     SysTick_CLKSourceConfig(SysTick_CLKSource_HCLK_Div8);
 702              		.loc 1 321 0
 703 0002 6FF00400 		mvn	r0, #4
 704 0006 FFF7FEFF 		bl	SysTick_CLKSourceConfig
 705              	.LVL50:
 322:../hoverboard/at32_hoverboard.c ****     fac_us=(float)SystemCoreClock/(192 * 1000000);
 706              		.loc 1 322 0
 707 000a 0B4B     		ldr	r3, .L49
 708 000c D3ED007A 		vldr.32	s15, [r3]	@ int
 709 0010 F8EE677A 		vcvt.f32.u32	s15, s15
 710 0014 DFED096A 		vldr.32	s13, .L49+4
 711 0018 87EEA67A 		vdiv.f32	s14, s15, s13
 712 001c 084B     		ldr	r3, .L49+8
 713 001e 83ED007A 		vstr.32	s14, [r3]
 323:../hoverboard/at32_hoverboard.c ****     fac_ms=fac_us*1000;
 714              		.loc 1 323 0
 715 0022 D3ED007A 		vldr.32	s15, [r3]
 716 0026 9FED077A 		vldr.32	s14, .L49+12
 717 002a 67EE877A 		vmul.f32	s15, s15, s14
 718 002e 064B     		ldr	r3, .L49+16
 719 0030 C3ED007A 		vstr.32	s15, [r3]
 324:../hoverboard/at32_hoverboard.c **** }
 720              		.loc 1 324 0
 721 0034 08BD     		pop	{r3, pc}
 722              	.L50:
 723 0036 00BF     		.align	2
ARM GAS  /var/folders/l3/4y5292px21b4835bsnjwqc7w009kq1/T//ccWcE0m3.s 			page 19


 724              	.L49:
 725 0038 00000000 		.word	SystemCoreClock
 726 003c 001B374D 		.word	1295457024
 727 0040 00000000 		.word	.LANCHOR6
 728 0044 00007A44 		.word	1148846080
 729 0048 00000000 		.word	.LANCHOR7
 730              		.cfi_endproc
 731              	.LFE137:
 732              		.fnend
 734              		.section	.text._Z20AT32_Hoverboard_Initv,"ax",%progbits
 735              		.align	1
 736              		.global	_Z20AT32_Hoverboard_Initv
 737              		.syntax unified
 738              		.thumb
 739              		.thumb_func
 740              		.fpu fpv4-sp-d16
 742              	_Z20AT32_Hoverboard_Initv:
 743              		.fnstart
 744              	.LFB126:
  78:../hoverboard/at32_hoverboard.c ****     /*initialize Delay Function*/
 745              		.loc 1 78 0
 746              		.cfi_startproc
 747              		@ args = 0, pretend = 0, frame = 0
 748              		@ frame_needed = 0, uses_anonymous_args = 0
 749 0000 08B5     		push	{r3, lr}
 750              		.save {r3, lr}
 751              	.LCFI19:
 752              		.cfi_def_cfa_offset 8
 753              		.cfi_offset 3, -8
 754              		.cfi_offset 14, -4
  80:../hoverboard/at32_hoverboard.c **** 
 755              		.loc 1 80 0
 756 0002 FFF7FEFF 		bl	_Z10Delay_initv
 757              	.LVL51:
  83:../hoverboard/at32_hoverboard.c **** 
 758              		.loc 1 83 0
 759 0006 FFF7FEFF 		bl	_Z10Board_Initv
 760              	.LVL52:
  86:../hoverboard/at32_hoverboard.c ****     AT32_LEDn_Init(LED3);
 761              		.loc 1 86 0
 762 000a 0120     		movs	r0, #1
 763 000c FFF7FEFF 		bl	_Z14AT32_LEDn_Init8LED_Type
 764              	.LVL53:
  87:../hoverboard/at32_hoverboard.c ****     AT32_LEDn_Init(LED4);
 765              		.loc 1 87 0
 766 0010 0220     		movs	r0, #2
 767 0012 FFF7FEFF 		bl	_Z14AT32_LEDn_Init8LED_Type
 768              	.LVL54:
  88:../hoverboard/at32_hoverboard.c ****     AT32_LEDn_OFF(LED2);
 769              		.loc 1 88 0
 770 0016 0320     		movs	r0, #3
 771 0018 FFF7FEFF 		bl	_Z14AT32_LEDn_Init8LED_Type
 772              	.LVL55:
  89:../hoverboard/at32_hoverboard.c ****     AT32_LEDn_OFF(LED3);
 773              		.loc 1 89 0
 774 001c 0120     		movs	r0, #1
 775 001e FFF7FEFF 		bl	_Z13AT32_LEDn_OFF8LED_Type
ARM GAS  /var/folders/l3/4y5292px21b4835bsnjwqc7w009kq1/T//ccWcE0m3.s 			page 20


 776              	.LVL56:
  90:../hoverboard/at32_hoverboard.c ****     AT32_LEDn_OFF(LED4);
 777              		.loc 1 90 0
 778 0022 0220     		movs	r0, #2
 779 0024 FFF7FEFF 		bl	_Z13AT32_LEDn_OFF8LED_Type
 780              	.LVL57:
  91:../hoverboard/at32_hoverboard.c **** 
 781              		.loc 1 91 0
 782 0028 0320     		movs	r0, #3
 783 002a FFF7FEFF 		bl	_Z13AT32_LEDn_OFF8LED_Type
 784              	.LVL58:
  94:../hoverboard/at32_hoverboard.c ****     AT32_BUTTON_Init(BUTTON_USER_KEY); /*PC13*/
 785              		.loc 1 94 0
 786 002e 0020     		movs	r0, #0
 787 0030 FFF7FEFF 		bl	_Z16AT32_BUTTON_Init11BUTTON_Type
 788              	.LVL59:
  95:../hoverboard/at32_hoverboard.c **** 
 789              		.loc 1 95 0
 790 0034 0120     		movs	r0, #1
 791 0036 FFF7FEFF 		bl	_Z16AT32_BUTTON_Init11BUTTON_Type
 792              	.LVL60:
  97:../hoverboard/at32_hoverboard.c **** 
 793              		.loc 1 97 0
 794 003a 08BD     		pop	{r3, pc}
 795              		.cfi_endproc
 796              	.LFE126:
 797              		.fnend
 799              		.section	.text._Z8Delay_usm,"ax",%progbits
 800              		.align	1
 801              		.global	_Z8Delay_usm
 802              		.syntax unified
 803              		.thumb
 804              		.thumb_func
 805              		.fpu fpv4-sp-d16
 807              	_Z8Delay_usm:
 808              		.fnstart
 809              	.LFB138:
 325:../hoverboard/at32_hoverboard.c **** 
 326:../hoverboard/at32_hoverboard.c **** /**
 327:../hoverboard/at32_hoverboard.c ****   * @brief  Inserts a delay time.
 328:../hoverboard/at32_hoverboard.c ****   * @param  nus: specifies the delay time length, in microsecond.
 329:../hoverboard/at32_hoverboard.c ****   * @retval None
 330:../hoverboard/at32_hoverboard.c ****   */
 331:../hoverboard/at32_hoverboard.c **** void Delay_us(u32 nus)
 332:../hoverboard/at32_hoverboard.c **** {
 810              		.loc 1 332 0
 811              		.cfi_startproc
 812              		@ args = 0, pretend = 0, frame = 0
 813              		@ frame_needed = 0, uses_anonymous_args = 0
 814              		@ link register save eliminated.
 815              	.LVL61:
 333:../hoverboard/at32_hoverboard.c ****     u32 temp;
 334:../hoverboard/at32_hoverboard.c ****     SysTick->LOAD = nus*fac_us;
 816              		.loc 1 334 0
 817 0000 104B     		ldr	r3, .L55
 818 0002 93ED007A 		vldr.32	s14, [r3]
 819 0006 07EE900A 		vmov	s15, r0	@ int
ARM GAS  /var/folders/l3/4y5292px21b4835bsnjwqc7w009kq1/T//ccWcE0m3.s 			page 21


 820 000a F8EE677A 		vcvt.f32.u32	s15, s15
 821 000e 67EE877A 		vmul.f32	s15, s15, s14
 822 0012 FCEEE77A 		vcvt.u32.f32	s15, s15
 823 0016 0C4B     		ldr	r3, .L55+4
 824 0018 C3ED017A 		vstr.32	s15, [r3, #4]	@ int
 335:../hoverboard/at32_hoverboard.c ****     SysTick->VAL = 0x00;
 825              		.loc 1 335 0
 826 001c 0022     		movs	r2, #0
 827 001e 9A60     		str	r2, [r3, #8]
 336:../hoverboard/at32_hoverboard.c ****     SysTick->CTRL |= SysTick_CTRL_ENABLE_Msk ;
 828              		.loc 1 336 0
 829 0020 1A68     		ldr	r2, [r3]
 830 0022 42F00102 		orr	r2, r2, #1
 831 0026 1A60     		str	r2, [r3]
 832              	.L54:
 337:../hoverboard/at32_hoverboard.c ****     do
 338:../hoverboard/at32_hoverboard.c ****     {
 339:../hoverboard/at32_hoverboard.c ****         temp = SysTick->CTRL;
 833              		.loc 1 339 0
 834 0028 074B     		ldr	r3, .L55+4
 835 002a 1B68     		ldr	r3, [r3]
 836              	.LVL62:
 340:../hoverboard/at32_hoverboard.c ****     }while((temp & 0x01) &&! (temp & (1<<16)));
 837              		.loc 1 340 0
 838 002c 03F00113 		and	r3, r3, #65537
 839              	.LVL63:
 840 0030 012B     		cmp	r3, #1
 841 0032 F9D0     		beq	.L54
 341:../hoverboard/at32_hoverboard.c **** 
 342:../hoverboard/at32_hoverboard.c ****     SysTick->CTRL &= ~SysTick_CTRL_ENABLE_Msk;
 842              		.loc 1 342 0
 843 0034 044B     		ldr	r3, .L55+4
 844 0036 1A68     		ldr	r2, [r3]
 845 0038 22F00102 		bic	r2, r2, #1
 846 003c 1A60     		str	r2, [r3]
 343:../hoverboard/at32_hoverboard.c ****     SysTick->VAL = 0X00;
 847              		.loc 1 343 0
 848 003e 0022     		movs	r2, #0
 849 0040 9A60     		str	r2, [r3, #8]
 344:../hoverboard/at32_hoverboard.c **** }
 850              		.loc 1 344 0
 851 0042 7047     		bx	lr
 852              	.L56:
 853              		.align	2
 854              	.L55:
 855 0044 00000000 		.word	.LANCHOR6
 856 0048 10E000E0 		.word	-536813552
 857              		.cfi_endproc
 858              	.LFE138:
 859              		.cantunwind
 860              		.fnend
 862              		.section	.text._Z8Delay_mst,"ax",%progbits
 863              		.align	1
 864              		.global	_Z8Delay_mst
 865              		.syntax unified
 866              		.thumb
 867              		.thumb_func
ARM GAS  /var/folders/l3/4y5292px21b4835bsnjwqc7w009kq1/T//ccWcE0m3.s 			page 22


 868              		.fpu fpv4-sp-d16
 870              	_Z8Delay_mst:
 871              		.fnstart
 872              	.LFB139:
 345:../hoverboard/at32_hoverboard.c **** 
 346:../hoverboard/at32_hoverboard.c **** /**
 347:../hoverboard/at32_hoverboard.c ****   * @brief  Inserts a delay time.
 348:../hoverboard/at32_hoverboard.c ****   * @param  nms: specifies the delay time length, in milliseconds.
 349:../hoverboard/at32_hoverboard.c ****   * @retval None
 350:../hoverboard/at32_hoverboard.c ****   */
 351:../hoverboard/at32_hoverboard.c **** void Delay_ms(u16 nms)
 352:../hoverboard/at32_hoverboard.c **** {
 873              		.loc 1 352 0
 874              		.cfi_startproc
 875              		@ args = 0, pretend = 0, frame = 0
 876              		@ frame_needed = 0, uses_anonymous_args = 0
 877              		@ link register save eliminated.
 878              	.LVL64:
 879 0000 22E0     		b	.L62
 880              	.L59:
 353:../hoverboard/at32_hoverboard.c ****     u32 temp;
 354:../hoverboard/at32_hoverboard.c ****     while(nms)
 355:../hoverboard/at32_hoverboard.c ****     {
 356:../hoverboard/at32_hoverboard.c ****         if(nms > STEP_DELAY_MS)
 357:../hoverboard/at32_hoverboard.c ****         {
 358:../hoverboard/at32_hoverboard.c ****             SysTick->LOAD = (u32)STEP_DELAY_MS * fac_ms;
 359:../hoverboard/at32_hoverboard.c ****             nms -= STEP_DELAY_MS;
 360:../hoverboard/at32_hoverboard.c ****         }
 361:../hoverboard/at32_hoverboard.c ****         else
 362:../hoverboard/at32_hoverboard.c ****         {
 363:../hoverboard/at32_hoverboard.c ****             SysTick->LOAD = (u32)nms * fac_ms;
 881              		.loc 1 363 0
 882 0002 1C4B     		ldr	r3, .L63
 883 0004 93ED007A 		vldr.32	s14, [r3]
 884 0008 07EE900A 		vmov	s15, r0	@ int
 885 000c F8EE677A 		vcvt.f32.u32	s15, s15
 886 0010 67EE877A 		vmul.f32	s15, s15, s14
 887 0014 FCEEE77A 		vcvt.u32.f32	s15, s15
 888 0018 174B     		ldr	r3, .L63+4
 889 001a C3ED017A 		vstr.32	s15, [r3, #4]	@ int
 890              	.LVL65:
 364:../hoverboard/at32_hoverboard.c ****             nms = 0;
 891              		.loc 1 364 0
 892 001e 0020     		movs	r0, #0
 893              	.LVL66:
 894              	.L60:
 365:../hoverboard/at32_hoverboard.c ****         }
 366:../hoverboard/at32_hoverboard.c ****         SysTick->VAL = 0x00;
 895              		.loc 1 366 0
 896 0020 154B     		ldr	r3, .L63+4
 897 0022 0022     		movs	r2, #0
 898 0024 9A60     		str	r2, [r3, #8]
 367:../hoverboard/at32_hoverboard.c ****         SysTick->CTRL |= SysTick_CTRL_ENABLE_Msk;
 899              		.loc 1 367 0
 900 0026 1A68     		ldr	r2, [r3]
 901 0028 42F00102 		orr	r2, r2, #1
 902 002c 1A60     		str	r2, [r3]
ARM GAS  /var/folders/l3/4y5292px21b4835bsnjwqc7w009kq1/T//ccWcE0m3.s 			page 23


 903              	.L61:
 368:../hoverboard/at32_hoverboard.c ****         do
 369:../hoverboard/at32_hoverboard.c ****         {
 370:../hoverboard/at32_hoverboard.c ****             temp = SysTick->CTRL;
 904              		.loc 1 370 0
 905 002e 124B     		ldr	r3, .L63+4
 906 0030 1B68     		ldr	r3, [r3]
 907              	.LVL67:
 371:../hoverboard/at32_hoverboard.c ****         }while( (temp & 0x01) && !(temp & (1<<16)) );
 908              		.loc 1 371 0
 909 0032 03F00113 		and	r3, r3, #65537
 910              	.LVL68:
 911 0036 012B     		cmp	r3, #1
 912 0038 F9D0     		beq	.L61
 372:../hoverboard/at32_hoverboard.c **** 
 373:../hoverboard/at32_hoverboard.c ****         SysTick->CTRL &= ~SysTick_CTRL_ENABLE_Msk;
 913              		.loc 1 373 0
 914 003a 0F4B     		ldr	r3, .L63+4
 915 003c 1A68     		ldr	r2, [r3]
 916 003e 22F00102 		bic	r2, r2, #1
 917 0042 1A60     		str	r2, [r3]
 374:../hoverboard/at32_hoverboard.c ****         SysTick->VAL = 0X00;
 918              		.loc 1 374 0
 919 0044 0022     		movs	r2, #0
 920 0046 9A60     		str	r2, [r3, #8]
 921              	.L62:
 354:../hoverboard/at32_hoverboard.c ****     {
 922              		.loc 1 354 0
 923 0048 90B1     		cbz	r0, .L57
 356:../hoverboard/at32_hoverboard.c ****         {
 924              		.loc 1 356 0
 925 004a B0F5FA7F 		cmp	r0, #500
 926 004e D8D9     		bls	.L59
 358:../hoverboard/at32_hoverboard.c ****             nms -= STEP_DELAY_MS;
 927              		.loc 1 358 0
 928 0050 084B     		ldr	r3, .L63
 929 0052 D3ED007A 		vldr.32	s15, [r3]
 930 0056 9FED097A 		vldr.32	s14, .L63+8
 931 005a 67EE877A 		vmul.f32	s15, s15, s14
 932 005e FCEEE77A 		vcvt.u32.f32	s15, s15
 933 0062 054B     		ldr	r3, .L63+4
 934 0064 C3ED017A 		vstr.32	s15, [r3, #4]	@ int
 359:../hoverboard/at32_hoverboard.c ****         }
 935              		.loc 1 359 0
 936 0068 A0F5FA70 		sub	r0, r0, #500
 937              	.LVL69:
 938 006c 80B2     		uxth	r0, r0
 939              	.LVL70:
 940 006e D7E7     		b	.L60
 941              	.L57:
 375:../hoverboard/at32_hoverboard.c ****     }
 376:../hoverboard/at32_hoverboard.c **** }
 942              		.loc 1 376 0
 943 0070 7047     		bx	lr
 944              	.L64:
 945 0072 00BF     		.align	2
 946              	.L63:
ARM GAS  /var/folders/l3/4y5292px21b4835bsnjwqc7w009kq1/T//ccWcE0m3.s 			page 24


 947 0074 00000000 		.word	.LANCHOR7
 948 0078 10E000E0 		.word	-536813552
 949 007c 0000FA43 		.word	1140457472
 950              		.cfi_endproc
 951              	.LFE139:
 952              		.cantunwind
 953              		.fnend
 955              		.section	.text._Z17AT32_BUTTON_Pressv,"ax",%progbits
 956              		.align	1
 957              		.global	_Z17AT32_BUTTON_Pressv
 958              		.syntax unified
 959              		.thumb
 960              		.thumb_func
 961              		.fpu fpv4-sp-d16
 963              	_Z17AT32_BUTTON_Pressv:
 964              		.fnstart
 965              	.LFB131:
 178:../hoverboard/at32_hoverboard.c ****     static uint8_t Pressed = 1;
 966              		.loc 1 178 0
 967              		.cfi_startproc
 968              		@ args = 0, pretend = 0, frame = 0
 969              		@ frame_needed = 0, uses_anonymous_args = 0
 970 0000 10B5     		push	{r4, lr}
 971              		.save {r4, lr}
 972              	.LCFI20:
 973              		.cfi_def_cfa_offset 8
 974              		.cfi_offset 4, -8
 975              		.cfi_offset 14, -4
 181:../hoverboard/at32_hoverboard.c ****     {
 976              		.loc 1 181 0
 977 0002 194B     		ldr	r3, .L79
 978 0004 1B78     		ldrb	r3, [r3]	@ zero_extendqisi2
 979 0006 012B     		cmp	r3, #1
 980 0008 0CD0     		beq	.L76
 981              	.L66:
 190:../hoverboard/at32_hoverboard.c ****     {
 982              		.loc 1 190 0 discriminator 6
 983 000a 0120     		movs	r0, #1
 984 000c FFF7FEFF 		bl	_Z17AT32_BUTTON_State11BUTTON_Type
 985              	.LVL71:
 986 0010 20BB     		cbnz	r0, .L77
 190:../hoverboard/at32_hoverboard.c ****     {
 987              		.loc 1 190 0 is_stmt 0 discriminator 1
 988 0012 0020     		movs	r0, #0
 989 0014 FFF7FEFF 		bl	_Z17AT32_BUTTON_State11BUTTON_Type
 990              	.LVL72:
 991 0018 20BB     		cbnz	r0, .L73
 192:../hoverboard/at32_hoverboard.c ****     }
 992              		.loc 1 192 0 is_stmt 1
 993 001a 134B     		ldr	r3, .L79
 994 001c 0122     		movs	r2, #1
 995 001e 1A70     		strb	r2, [r3]
 194:../hoverboard/at32_hoverboard.c **** }
 996              		.loc 1 194 0
 997 0020 0420     		movs	r0, #4
 998 0022 1CE0     		b	.L68
 999              	.L76:
ARM GAS  /var/folders/l3/4y5292px21b4835bsnjwqc7w009kq1/T//ccWcE0m3.s 			page 25


 181:../hoverboard/at32_hoverboard.c ****     {
 1000              		.loc 1 181 0 discriminator 1
 1001 0024 0020     		movs	r0, #0
 1002 0026 FFF7FEFF 		bl	_Z17AT32_BUTTON_State11BUTTON_Type
 1003              	.LVL73:
 1004 002a 0128     		cmp	r0, #1
 1005 002c 04D0     		beq	.L67
 181:../hoverboard/at32_hoverboard.c ****     {
 1006              		.loc 1 181 0 is_stmt 0 discriminator 4
 1007 002e 0120     		movs	r0, #1
 1008 0030 FFF7FEFF 		bl	_Z17AT32_BUTTON_State11BUTTON_Type
 1009              	.LVL74:
 1010 0034 0128     		cmp	r0, #1
 1011 0036 E8D1     		bne	.L66
 1012              	.L67:
 184:../hoverboard/at32_hoverboard.c ****         Delay_ms(10);
 1013              		.loc 1 184 0 is_stmt 1 discriminator 5
 1014 0038 0024     		movs	r4, #0
 1015 003a 0B4B     		ldr	r3, .L79
 1016 003c 1C70     		strb	r4, [r3]
 185:../hoverboard/at32_hoverboard.c ****         if (AT32_BUTTON_State(BUTTON_WAKEUP) == Bit_SET)
 1017              		.loc 1 185 0 discriminator 5
 1018 003e 0A20     		movs	r0, #10
 1019 0040 FFF7FEFF 		bl	_Z8Delay_mst
 1020              	.LVL75:
 186:../hoverboard/at32_hoverboard.c ****             return BUTTON_WAKEUP;
 1021              		.loc 1 186 0 discriminator 5
 1022 0044 2046     		mov	r0, r4
 1023 0046 FFF7FEFF 		bl	_Z17AT32_BUTTON_State11BUTTON_Type
 1024              	.LVL76:
 1025 004a 0128     		cmp	r0, #1
 1026 004c 08D0     		beq	.L78
 188:../hoverboard/at32_hoverboard.c ****             return BUTTON_USER_KEY;
 1027              		.loc 1 188 0
 1028 004e 0120     		movs	r0, #1
 1029 0050 FFF7FEFF 		bl	_Z17AT32_BUTTON_State11BUTTON_Type
 1030              	.LVL77:
 1031 0054 0128     		cmp	r0, #1
 1032 0056 02D0     		beq	.L68
 194:../hoverboard/at32_hoverboard.c **** }
 1033              		.loc 1 194 0
 1034 0058 0420     		movs	r0, #4
 1035 005a 00E0     		b	.L68
 1036              	.L77:
 1037 005c 0420     		movs	r0, #4
 1038              	.L68:
 195:../hoverboard/at32_hoverboard.c **** 
 1039              		.loc 1 195 0
 1040 005e 10BD     		pop	{r4, pc}
 1041              	.L78:
 187:../hoverboard/at32_hoverboard.c ****         if (AT32_BUTTON_State(BUTTON_USER_KEY) == Bit_SET)
 1042              		.loc 1 187 0
 1043 0060 0020     		movs	r0, #0
 1044 0062 FCE7     		b	.L68
 1045              	.L73:
 194:../hoverboard/at32_hoverboard.c **** }
 1046              		.loc 1 194 0
ARM GAS  /var/folders/l3/4y5292px21b4835bsnjwqc7w009kq1/T//ccWcE0m3.s 			page 26


 1047 0064 0420     		movs	r0, #4
 1048 0066 FAE7     		b	.L68
 1049              	.L80:
 1050              		.align	2
 1051              	.L79:
 1052 0068 00000000 		.word	.LANCHOR8
 1053              		.cfi_endproc
 1054              	.LFE131:
 1055              		.fnend
 1057              		.section	.text._Z9Delay_sect,"ax",%progbits
 1058              		.align	1
 1059              		.global	_Z9Delay_sect
 1060              		.syntax unified
 1061              		.thumb
 1062              		.thumb_func
 1063              		.fpu fpv4-sp-d16
 1065              	_Z9Delay_sect:
 1066              		.fnstart
 1067              	.LFB140:
 377:../hoverboard/at32_hoverboard.c **** 
 378:../hoverboard/at32_hoverboard.c **** /**
 379:../hoverboard/at32_hoverboard.c ****   * @brief  Inserts a delay time.
 380:../hoverboard/at32_hoverboard.c ****   * @param  sec: specifies the delay time length, in seconds.
 381:../hoverboard/at32_hoverboard.c ****   * @retval None
 382:../hoverboard/at32_hoverboard.c ****   */
 383:../hoverboard/at32_hoverboard.c **** void Delay_sec(u16 sec)
 384:../hoverboard/at32_hoverboard.c **** {
 1068              		.loc 1 384 0
 1069              		.cfi_startproc
 1070              		@ args = 0, pretend = 0, frame = 0
 1071              		@ frame_needed = 0, uses_anonymous_args = 0
 1072              	.LVL78:
 1073 0000 38B5     		push	{r3, r4, r5, lr}
 1074              	.LCFI21:
 1075              		.cfi_def_cfa_offset 16
 1076              		.cfi_offset 3, -16
 1077              		.cfi_offset 4, -12
 1078              		.cfi_offset 5, -8
 1079              		.cfi_offset 14, -4
 1080 0002 0546     		mov	r5, r0
 1081              	.LVL79:
 385:../hoverboard/at32_hoverboard.c ****     u16 i;
 386:../hoverboard/at32_hoverboard.c ****     for(i=0; i<sec; i++)
 1082              		.loc 1 386 0
 1083 0004 0024     		movs	r4, #0
 1084              	.LVL80:
 1085              	.L83:
 1086              		.loc 1 386 0 is_stmt 0 discriminator 3
 1087 0006 AC42     		cmp	r4, r5
 1088 0008 0AD2     		bcs	.L81
 387:../hoverboard/at32_hoverboard.c ****     {
 388:../hoverboard/at32_hoverboard.c ****         Delay_ms(500);
 1089              		.loc 1 388 0 is_stmt 1 discriminator 2
 1090 000a 4FF4FA70 		mov	r0, #500
 1091 000e FFF7FEFF 		bl	_Z8Delay_mst
 1092              	.LVL81:
 389:../hoverboard/at32_hoverboard.c ****         Delay_ms(500);
ARM GAS  /var/folders/l3/4y5292px21b4835bsnjwqc7w009kq1/T//ccWcE0m3.s 			page 27


 1093              		.loc 1 389 0 discriminator 2
 1094 0012 4FF4FA70 		mov	r0, #500
 1095 0016 FFF7FEFF 		bl	_Z8Delay_mst
 1096              	.LVL82:
 386:../hoverboard/at32_hoverboard.c ****     {
 1097              		.loc 1 386 0 discriminator 2
 1098 001a 0134     		adds	r4, r4, #1
 1099              	.LVL83:
 1100 001c A4B2     		uxth	r4, r4
 1101              	.LVL84:
 1102 001e F2E7     		b	.L83
 1103              	.L81:
 390:../hoverboard/at32_hoverboard.c ****     }
 391:../hoverboard/at32_hoverboard.c **** }
 1104              		.loc 1 391 0
 1105 0020 38BD     		pop	{r3, r4, r5, pc}
 1106              		.cfi_endproc
 1107              	.LFE140:
 1108              		.cantunwind
 1109              		.fnend
 1111              		.global	BUTTON_GPIO_RCC_CLK
 1112              		.global	BUTTON_GPIO_PIN
 1113              		.global	BUTTON_GPIO_PORT
 1114              		.global	LED_GPIO_RCC_CLK
 1115              		.global	LED_GPIO_PIN
 1116              		.global	LED_GPIO_PORT
 1117              		.section	.bss._ZL6fac_ms,"aw",%nobits
 1118              		.align	2
 1119              		.set	.LANCHOR7,. + 0
 1122              	_ZL6fac_ms:
 1123 0000 00000000 		.space	4
 1124              		.section	.bss._ZL6fac_us,"aw",%nobits
 1125              		.align	2
 1126              		.set	.LANCHOR6,. + 0
 1129              	_ZL6fac_us:
 1130 0000 00000000 		.space	4
 1131              		.section	.data.BUTTON_GPIO_PIN,"aw",%progbits
 1132              		.align	2
 1133              		.set	.LANCHOR1,. + 0
 1136              	BUTTON_GPIO_PIN:
 1137 0000 0100     		.short	1
 1138 0002 0002     		.short	512
 1139              		.section	.data.BUTTON_GPIO_PORT,"aw",%progbits
 1140              		.align	2
 1141              		.set	.LANCHOR2,. + 0
 1144              	BUTTON_GPIO_PORT:
 1145 0000 00080140 		.word	1073809408
 1146 0004 000C0140 		.word	1073810432
 1147              		.section	.data.BUTTON_GPIO_RCC_CLK,"aw",%progbits
 1148              		.align	2
 1149              		.set	.LANCHOR0,. + 0
 1152              	BUTTON_GPIO_RCC_CLK:
 1153 0000 04000000 		.word	4
 1154 0004 08000000 		.word	8
 1155              		.section	.data.LED_GPIO_PIN,"aw",%progbits
 1156              		.align	2
 1157              		.set	.LANCHOR4,. + 0
ARM GAS  /var/folders/l3/4y5292px21b4835bsnjwqc7w009kq1/T//ccWcE0m3.s 			page 28


 1160              	LED_GPIO_PIN:
 1161 0000 0000     		.short	0
 1162 0002 0020     		.short	8192
 1163 0004 0040     		.short	16384
 1164 0006 0080     		.short	-32768
 1165              		.section	.data.LED_GPIO_PORT,"aw",%progbits
 1166              		.align	2
 1167              		.set	.LANCHOR5,. + 0
 1170              	LED_GPIO_PORT:
 1171 0000 00000000 		.word	0
 1172 0004 00100140 		.word	1073811456
 1173 0008 00100140 		.word	1073811456
 1174 000c 00100140 		.word	1073811456
 1175              		.section	.data.LED_GPIO_RCC_CLK,"aw",%progbits
 1176              		.align	2
 1177              		.set	.LANCHOR3,. + 0
 1180              	LED_GPIO_RCC_CLK:
 1181 0000 00000000 		.word	0
 1182 0004 10000000 		.word	16
 1183 0008 10000000 		.word	16
 1184 000c 10000000 		.word	16
 1185              		.section	.data._ZZ17AT32_BUTTON_PressvE7Pressed,"aw",%progbits
 1186              		.set	.LANCHOR8,. + 0
 1189              	_ZZ17AT32_BUTTON_PressvE7Pressed:
 1190 0000 01       		.byte	1
 1191              		.text
 1192              	.Letext0:
 1193              		.file 2 "/usr/local/Cellar/gcc-arm-none-eabi/20180627/arm-none-eabi/include/machine/_default_types
 1194              		.file 3 "/usr/local/Cellar/gcc-arm-none-eabi/20180627/arm-none-eabi/include/sys/_stdint.h"
 1195              		.file 4 "../Libraries/CMSIS/CM4/CoreSupport/core_cm4.h"
 1196              		.file 5 "../Libraries/CMSIS/CM4/DeviceSupport/system_at32f4xx.h"
 1197              		.file 6 "../Libraries/CMSIS/CM4/DeviceSupport/at32f4xx.h"
 1198              		.file 7 "../Libraries/AT32F4xx_StdPeriph_Driver/inc/at32f4xx_gpio.h"
 1199              		.file 8 "../Libraries/AT32F4xx_StdPeriph_Driver/inc/at32f4xx_usart.h"
 1200              		.file 9 "../hoverboard/at32_hoverboard.h"
 1201              		.file 10 "/usr/local/Cellar/gcc-arm-none-eabi/20180627/arm-none-eabi/include/sys/lock.h"
 1202              		.file 11 "/usr/local/Cellar/gcc-arm-none-eabi/20180627/arm-none-eabi/include/sys/_types.h"
 1203              		.file 12 "/usr/local/Cellar/gcc-arm-none-eabi/20180627/lib/gcc/arm-none-eabi/7.3.1/include/stddef.
 1204              		.file 13 "/usr/local/Cellar/gcc-arm-none-eabi/20180627/arm-none-eabi/include/sys/reent.h"
 1205              		.file 14 "../Libraries/AT32F4xx_StdPeriph_Driver/inc/misc.h"
 1206              		.file 15 "../Libraries/AT32F4xx_StdPeriph_Driver/inc/at32f4xx_rcc.h"
ARM GAS  /var/folders/l3/4y5292px21b4835bsnjwqc7w009kq1/T//ccWcE0m3.s 			page 29

