ARM GAS  /var/folders/l3/4y5292px21b4835bsnjwqc7w009kq1/T//ccVOQnT7.s 			page 1


   1              		.cpu cortex-m4
   2              		.eabi_attribute 27, 1
   3              		.eabi_attribute 20, 1
   4              		.eabi_attribute 21, 1
   5              		.eabi_attribute 23, 3
   6              		.eabi_attribute 24, 1
   7              		.eabi_attribute 25, 1
   8              		.eabi_attribute 26, 1
   9              		.eabi_attribute 30, 1
  10              		.eabi_attribute 34, 1
  11              		.eabi_attribute 18, 4
  12              		.file	"at32f4xx_rcc.c"
  13              		.text
  14              	.Ltext0:
  15              		.cfi_sections	.debug_frame
  16              		.section	.text.RCC_Reset,"ax",%progbits
  17              		.align	1
  18              		.global	RCC_Reset
  19              		.syntax unified
  20              		.thumb
  21              		.thumb_func
  22              		.fpu fpv4-sp-d16
  24              	RCC_Reset:
  25              		.fnstart
  26              	.LFB123:
  27              		.file 1 "../Libraries/AT32F4xx_StdPeriph_Driver/src/at32f4xx_rcc.c"
   1:../Libraries/AT32F4xx_StdPeriph_Driver/src/at32f4xx_rcc.c **** /**
   2:../Libraries/AT32F4xx_StdPeriph_Driver/src/at32f4xx_rcc.c ****  **************************************************************************
   3:../Libraries/AT32F4xx_StdPeriph_Driver/src/at32f4xx_rcc.c ****  * File Name    : at32f4xx_rcc.c
   4:../Libraries/AT32F4xx_StdPeriph_Driver/src/at32f4xx_rcc.c ****  * Description  : at32f4xx RCC source file
   5:../Libraries/AT32F4xx_StdPeriph_Driver/src/at32f4xx_rcc.c ****  * Date         : 2018-02-26
   6:../Libraries/AT32F4xx_StdPeriph_Driver/src/at32f4xx_rcc.c ****  * Version      : V1.0.4
   7:../Libraries/AT32F4xx_StdPeriph_Driver/src/at32f4xx_rcc.c ****  **************************************************************************
   8:../Libraries/AT32F4xx_StdPeriph_Driver/src/at32f4xx_rcc.c ****  */
   9:../Libraries/AT32F4xx_StdPeriph_Driver/src/at32f4xx_rcc.c **** 
  10:../Libraries/AT32F4xx_StdPeriph_Driver/src/at32f4xx_rcc.c **** 
  11:../Libraries/AT32F4xx_StdPeriph_Driver/src/at32f4xx_rcc.c **** /* Includes ------------------------------------------------------------------*/
  12:../Libraries/AT32F4xx_StdPeriph_Driver/src/at32f4xx_rcc.c **** #include "at32f4xx_rcc.h"
  13:../Libraries/AT32F4xx_StdPeriph_Driver/src/at32f4xx_rcc.c **** 
  14:../Libraries/AT32F4xx_StdPeriph_Driver/src/at32f4xx_rcc.c **** /** @addtogroup at32f4xx_StdPeriph_Driver
  15:../Libraries/AT32F4xx_StdPeriph_Driver/src/at32f4xx_rcc.c ****   * @{
  16:../Libraries/AT32F4xx_StdPeriph_Driver/src/at32f4xx_rcc.c ****   */
  17:../Libraries/AT32F4xx_StdPeriph_Driver/src/at32f4xx_rcc.c **** 
  18:../Libraries/AT32F4xx_StdPeriph_Driver/src/at32f4xx_rcc.c **** /** @defgroup RCC
  19:../Libraries/AT32F4xx_StdPeriph_Driver/src/at32f4xx_rcc.c ****   * @brief RCC driver modules
  20:../Libraries/AT32F4xx_StdPeriph_Driver/src/at32f4xx_rcc.c ****   * @{
  21:../Libraries/AT32F4xx_StdPeriph_Driver/src/at32f4xx_rcc.c ****   */
  22:../Libraries/AT32F4xx_StdPeriph_Driver/src/at32f4xx_rcc.c **** 
  23:../Libraries/AT32F4xx_StdPeriph_Driver/src/at32f4xx_rcc.c **** /** @defgroup RCC_Private_TypesDefinitions
  24:../Libraries/AT32F4xx_StdPeriph_Driver/src/at32f4xx_rcc.c ****   * @{
  25:../Libraries/AT32F4xx_StdPeriph_Driver/src/at32f4xx_rcc.c ****   */
  26:../Libraries/AT32F4xx_StdPeriph_Driver/src/at32f4xx_rcc.c **** 
  27:../Libraries/AT32F4xx_StdPeriph_Driver/src/at32f4xx_rcc.c **** /**
  28:../Libraries/AT32F4xx_StdPeriph_Driver/src/at32f4xx_rcc.c ****   * @}
  29:../Libraries/AT32F4xx_StdPeriph_Driver/src/at32f4xx_rcc.c ****   */
  30:../Libraries/AT32F4xx_StdPeriph_Driver/src/at32f4xx_rcc.c **** 
  31:../Libraries/AT32F4xx_StdPeriph_Driver/src/at32f4xx_rcc.c **** /** @defgroup RCC_Private_Defines
ARM GAS  /var/folders/l3/4y5292px21b4835bsnjwqc7w009kq1/T//ccVOQnT7.s 			page 2


  32:../Libraries/AT32F4xx_StdPeriph_Driver/src/at32f4xx_rcc.c ****   * @{
  33:../Libraries/AT32F4xx_StdPeriph_Driver/src/at32f4xx_rcc.c ****   */
  34:../Libraries/AT32F4xx_StdPeriph_Driver/src/at32f4xx_rcc.c **** 
  35:../Libraries/AT32F4xx_StdPeriph_Driver/src/at32f4xx_rcc.c **** /* ------------ RCC registers bit address in the alias region ----------- */
  36:../Libraries/AT32F4xx_StdPeriph_Driver/src/at32f4xx_rcc.c **** #define RCC_OFFSET                  (RCC_BASE - PERIPH_BASE)
  37:../Libraries/AT32F4xx_StdPeriph_Driver/src/at32f4xx_rcc.c **** 
  38:../Libraries/AT32F4xx_StdPeriph_Driver/src/at32f4xx_rcc.c **** /* --- CTRL Register ---*/
  39:../Libraries/AT32F4xx_StdPeriph_Driver/src/at32f4xx_rcc.c **** 
  40:../Libraries/AT32F4xx_StdPeriph_Driver/src/at32f4xx_rcc.c **** /* Alias word address of HSIEN bit */
  41:../Libraries/AT32F4xx_StdPeriph_Driver/src/at32f4xx_rcc.c **** #define CTRL_OFFSET                 (RCC_OFFSET + 0x00)
  42:../Libraries/AT32F4xx_StdPeriph_Driver/src/at32f4xx_rcc.c **** #define HSIEN_BitPos                0x00
  43:../Libraries/AT32F4xx_StdPeriph_Driver/src/at32f4xx_rcc.c **** #define CTRL_HSIEN_BB               (PERIPH_BB_BASE + (CTRL_OFFSET * 32) + (HSIEN_BitPos * 4))
  44:../Libraries/AT32F4xx_StdPeriph_Driver/src/at32f4xx_rcc.c **** 
  45:../Libraries/AT32F4xx_StdPeriph_Driver/src/at32f4xx_rcc.c **** /* Alias word address of PLLEN bit */
  46:../Libraries/AT32F4xx_StdPeriph_Driver/src/at32f4xx_rcc.c **** #define PLLEN_BitPos                0x18
  47:../Libraries/AT32F4xx_StdPeriph_Driver/src/at32f4xx_rcc.c **** #define CTRL_PLLEN_BB               (PERIPH_BB_BASE + (CTRL_OFFSET * 32) + (PLLEN_BitPos * 4))
  48:../Libraries/AT32F4xx_StdPeriph_Driver/src/at32f4xx_rcc.c **** 
  49:../Libraries/AT32F4xx_StdPeriph_Driver/src/at32f4xx_rcc.c **** /* Alias word address of HSECFDEN bit */
  50:../Libraries/AT32F4xx_StdPeriph_Driver/src/at32f4xx_rcc.c **** #define HSECFDEN_BitPos             0x13
  51:../Libraries/AT32F4xx_StdPeriph_Driver/src/at32f4xx_rcc.c **** #define CTRL_HSECFDEN_BB            (PERIPH_BB_BASE + (CTRL_OFFSET * 32) + (HSECFDEN_BitPos * 4))
  52:../Libraries/AT32F4xx_StdPeriph_Driver/src/at32f4xx_rcc.c **** 
  53:../Libraries/AT32F4xx_StdPeriph_Driver/src/at32f4xx_rcc.c **** #define HSICAL_BitPos               (8)
  54:../Libraries/AT32F4xx_StdPeriph_Driver/src/at32f4xx_rcc.c **** #if defined (AT32F403xx)
  55:../Libraries/AT32F4xx_StdPeriph_Driver/src/at32f4xx_rcc.c **** #define HSITWK_BitPos               (3)
  56:../Libraries/AT32F4xx_StdPeriph_Driver/src/at32f4xx_rcc.c **** #elif defined (AT32F413xx)
  57:../Libraries/AT32F4xx_StdPeriph_Driver/src/at32f4xx_rcc.c **** #define HSITWK_BitPos               (2)
  58:../Libraries/AT32F4xx_StdPeriph_Driver/src/at32f4xx_rcc.c **** #endif
  59:../Libraries/AT32F4xx_StdPeriph_Driver/src/at32f4xx_rcc.c **** 
  60:../Libraries/AT32F4xx_StdPeriph_Driver/src/at32f4xx_rcc.c **** /* --- CFG Register ---*/
  61:../Libraries/AT32F4xx_StdPeriph_Driver/src/at32f4xx_rcc.c **** 
  62:../Libraries/AT32F4xx_StdPeriph_Driver/src/at32f4xx_rcc.c **** /* Alias word address of USBPSC bit */
  63:../Libraries/AT32F4xx_StdPeriph_Driver/src/at32f4xx_rcc.c **** #define CFG_OFFSET                  (RCC_OFFSET + 0x04)
  64:../Libraries/AT32F4xx_StdPeriph_Driver/src/at32f4xx_rcc.c **** 
  65:../Libraries/AT32F4xx_StdPeriph_Driver/src/at32f4xx_rcc.c **** /* --- BDC Register ---*/
  66:../Libraries/AT32F4xx_StdPeriph_Driver/src/at32f4xx_rcc.c **** 
  67:../Libraries/AT32F4xx_StdPeriph_Driver/src/at32f4xx_rcc.c **** /* Alias word address of RTCEN bit */
  68:../Libraries/AT32F4xx_StdPeriph_Driver/src/at32f4xx_rcc.c **** #define BDC_OFFSET                  (RCC_OFFSET + 0x20)
  69:../Libraries/AT32F4xx_StdPeriph_Driver/src/at32f4xx_rcc.c **** #define RTCEN_BitPos                0x0F
  70:../Libraries/AT32F4xx_StdPeriph_Driver/src/at32f4xx_rcc.c **** #define BDC_RTCEN_BB                (PERIPH_BB_BASE + (BDC_OFFSET * 32) + (RTCEN_BitPos * 4))
  71:../Libraries/AT32F4xx_StdPeriph_Driver/src/at32f4xx_rcc.c **** 
  72:../Libraries/AT32F4xx_StdPeriph_Driver/src/at32f4xx_rcc.c **** /* Alias word address of BDRST bit */
  73:../Libraries/AT32F4xx_StdPeriph_Driver/src/at32f4xx_rcc.c **** #define BDRST_BitPos                0x10
  74:../Libraries/AT32F4xx_StdPeriph_Driver/src/at32f4xx_rcc.c **** #define BDC_BDRST_BB                (PERIPH_BB_BASE + (BDC_OFFSET * 32) + (BDRST_BitPos * 4))
  75:../Libraries/AT32F4xx_StdPeriph_Driver/src/at32f4xx_rcc.c **** 
  76:../Libraries/AT32F4xx_StdPeriph_Driver/src/at32f4xx_rcc.c **** /* --- CTRLSTS Register ---*/
  77:../Libraries/AT32F4xx_StdPeriph_Driver/src/at32f4xx_rcc.c **** 
  78:../Libraries/AT32F4xx_StdPeriph_Driver/src/at32f4xx_rcc.c **** /* Alias word address of LSIEN bit */
  79:../Libraries/AT32F4xx_StdPeriph_Driver/src/at32f4xx_rcc.c **** #define CTRLSTS_OFFSET              (RCC_OFFSET + 0x24)
  80:../Libraries/AT32F4xx_StdPeriph_Driver/src/at32f4xx_rcc.c **** #define LSIEN_BitPos                0x00
  81:../Libraries/AT32F4xx_StdPeriph_Driver/src/at32f4xx_rcc.c **** #define CTRLSTS_LSIEN_BB            (PERIPH_BB_BASE + (CTRLSTS_OFFSET * 32) + (LSIEN_BitPos * 4))
  82:../Libraries/AT32F4xx_StdPeriph_Driver/src/at32f4xx_rcc.c **** 
  83:../Libraries/AT32F4xx_StdPeriph_Driver/src/at32f4xx_rcc.c **** #define MISC_OFFSET                (RCC_OFFSET + 0x30)
  84:../Libraries/AT32F4xx_StdPeriph_Driver/src/at32f4xx_rcc.c **** 
  85:../Libraries/AT32F4xx_StdPeriph_Driver/src/at32f4xx_rcc.c **** /* ---------------------- RCC registers bit mask ------------------------ */
  86:../Libraries/AT32F4xx_StdPeriph_Driver/src/at32f4xx_rcc.c **** 
  87:../Libraries/AT32F4xx_StdPeriph_Driver/src/at32f4xx_rcc.c **** /* CFG register bit mask */
  88:../Libraries/AT32F4xx_StdPeriph_Driver/src/at32f4xx_rcc.c **** #define CFG_PLL_Mask                RCC_CFG_PLLCFG_MASK
ARM GAS  /var/folders/l3/4y5292px21b4835bsnjwqc7w009kq1/T//ccVOQnT7.s 			page 3


  89:../Libraries/AT32F4xx_StdPeriph_Driver/src/at32f4xx_rcc.c **** 
  90:../Libraries/AT32F4xx_StdPeriph_Driver/src/at32f4xx_rcc.c **** #define CFG_ADCPSC_Pos              ((uint32_t)14)
  91:../Libraries/AT32F4xx_StdPeriph_Driver/src/at32f4xx_rcc.c **** #define CFG_ADCPSCBit2_IdxMask      ((uint32_t)4)
  92:../Libraries/AT32F4xx_StdPeriph_Driver/src/at32f4xx_rcc.c **** 
  93:../Libraries/AT32F4xx_StdPeriph_Driver/src/at32f4xx_rcc.c **** #define CFG_ADCPSC_Rst_Mask         ((uint32_t)~RCC_CFG_ADCPSC)
  94:../Libraries/AT32F4xx_StdPeriph_Driver/src/at32f4xx_rcc.c **** #define CFG_ADCPSC_Set_Mask         ((uint32_t)0x0000C000)
  95:../Libraries/AT32F4xx_StdPeriph_Driver/src/at32f4xx_rcc.c **** #define CFG_ADCPSCBit2_Set_Mask     ((uint32_t)0x10000000)
  96:../Libraries/AT32F4xx_StdPeriph_Driver/src/at32f4xx_rcc.c **** 
  97:../Libraries/AT32F4xx_StdPeriph_Driver/src/at32f4xx_rcc.c **** /* RCC Flag Mask */
  98:../Libraries/AT32F4xx_StdPeriph_Driver/src/at32f4xx_rcc.c **** #define FLAG_Mask                   ((uint8_t)0x1F)
  99:../Libraries/AT32F4xx_StdPeriph_Driver/src/at32f4xx_rcc.c **** 
 100:../Libraries/AT32F4xx_StdPeriph_Driver/src/at32f4xx_rcc.c **** /* CLKINT register byte 2 (Bits[15:8]) base address */
 101:../Libraries/AT32F4xx_StdPeriph_Driver/src/at32f4xx_rcc.c **** #define CLKINT_BYTE2_EN_ADDR        ((uint32_t)0x40021009)
 102:../Libraries/AT32F4xx_StdPeriph_Driver/src/at32f4xx_rcc.c **** 
 103:../Libraries/AT32F4xx_StdPeriph_Driver/src/at32f4xx_rcc.c **** /* CLKINT register byte 3 (Bits[23:16]) base address */
 104:../Libraries/AT32F4xx_StdPeriph_Driver/src/at32f4xx_rcc.c **** #define CLKINT_BYTE3_CLR_ADDR       ((uint32_t)0x4002100A)
 105:../Libraries/AT32F4xx_StdPeriph_Driver/src/at32f4xx_rcc.c **** 
 106:../Libraries/AT32F4xx_StdPeriph_Driver/src/at32f4xx_rcc.c **** /* BDC register base address */
 107:../Libraries/AT32F4xx_StdPeriph_Driver/src/at32f4xx_rcc.c **** #define BDC_BYTE0_LSE_ADDR          (PERIPH_BASE + BDC_OFFSET)
 108:../Libraries/AT32F4xx_StdPeriph_Driver/src/at32f4xx_rcc.c **** 
 109:../Libraries/AT32F4xx_StdPeriph_Driver/src/at32f4xx_rcc.c **** /* MISC register base address */
 110:../Libraries/AT32F4xx_StdPeriph_Driver/src/at32f4xx_rcc.c **** #define MISC_BYTE0_HSICALKEY_ADDR   (PERIPH_BASE + MISC_OFFSET)
 111:../Libraries/AT32F4xx_StdPeriph_Driver/src/at32f4xx_rcc.c **** #define MISC_HSICAL_ENABLE_KEY      ((uint8_t)0x5A)
 112:../Libraries/AT32F4xx_StdPeriph_Driver/src/at32f4xx_rcc.c **** #define MISC_HSICAL_DISABLE_KEY     ((uint8_t)0x0)
 113:../Libraries/AT32F4xx_StdPeriph_Driver/src/at32f4xx_rcc.c **** 
 114:../Libraries/AT32F4xx_StdPeriph_Driver/src/at32f4xx_rcc.c **** /**
 115:../Libraries/AT32F4xx_StdPeriph_Driver/src/at32f4xx_rcc.c ****   * @}
 116:../Libraries/AT32F4xx_StdPeriph_Driver/src/at32f4xx_rcc.c ****   */
 117:../Libraries/AT32F4xx_StdPeriph_Driver/src/at32f4xx_rcc.c **** 
 118:../Libraries/AT32F4xx_StdPeriph_Driver/src/at32f4xx_rcc.c **** /** @defgroup RCC_Private_Macros
 119:../Libraries/AT32F4xx_StdPeriph_Driver/src/at32f4xx_rcc.c ****   * @{
 120:../Libraries/AT32F4xx_StdPeriph_Driver/src/at32f4xx_rcc.c ****   */
 121:../Libraries/AT32F4xx_StdPeriph_Driver/src/at32f4xx_rcc.c **** 
 122:../Libraries/AT32F4xx_StdPeriph_Driver/src/at32f4xx_rcc.c **** /**
 123:../Libraries/AT32F4xx_StdPeriph_Driver/src/at32f4xx_rcc.c ****   * @}
 124:../Libraries/AT32F4xx_StdPeriph_Driver/src/at32f4xx_rcc.c ****   */
 125:../Libraries/AT32F4xx_StdPeriph_Driver/src/at32f4xx_rcc.c **** 
 126:../Libraries/AT32F4xx_StdPeriph_Driver/src/at32f4xx_rcc.c **** /** @defgroup RCC_Private_Variables
 127:../Libraries/AT32F4xx_StdPeriph_Driver/src/at32f4xx_rcc.c ****   * @{
 128:../Libraries/AT32F4xx_StdPeriph_Driver/src/at32f4xx_rcc.c ****   */
 129:../Libraries/AT32F4xx_StdPeriph_Driver/src/at32f4xx_rcc.c **** static __I uint8_t APBAHBPscTable[8] = {1, 2, 3, 4, 6, 7, 8, 9};
 130:../Libraries/AT32F4xx_StdPeriph_Driver/src/at32f4xx_rcc.c **** static __I uint8_t ADCPscTable[8] = {2, 4, 6, 8, 2, 12, 8, 16};
 131:../Libraries/AT32F4xx_StdPeriph_Driver/src/at32f4xx_rcc.c **** 
 132:../Libraries/AT32F4xx_StdPeriph_Driver/src/at32f4xx_rcc.c **** /**
 133:../Libraries/AT32F4xx_StdPeriph_Driver/src/at32f4xx_rcc.c ****   * @}
 134:../Libraries/AT32F4xx_StdPeriph_Driver/src/at32f4xx_rcc.c ****   */
 135:../Libraries/AT32F4xx_StdPeriph_Driver/src/at32f4xx_rcc.c **** 
 136:../Libraries/AT32F4xx_StdPeriph_Driver/src/at32f4xx_rcc.c **** /** @defgroup RCC_Private_FunctionPrototypes
 137:../Libraries/AT32F4xx_StdPeriph_Driver/src/at32f4xx_rcc.c ****   * @{
 138:../Libraries/AT32F4xx_StdPeriph_Driver/src/at32f4xx_rcc.c ****   */
 139:../Libraries/AT32F4xx_StdPeriph_Driver/src/at32f4xx_rcc.c **** static void RCC_HSEENDelay(uint32_t);
 140:../Libraries/AT32F4xx_StdPeriph_Driver/src/at32f4xx_rcc.c **** 
 141:../Libraries/AT32F4xx_StdPeriph_Driver/src/at32f4xx_rcc.c **** /**
 142:../Libraries/AT32F4xx_StdPeriph_Driver/src/at32f4xx_rcc.c ****   * @}
 143:../Libraries/AT32F4xx_StdPeriph_Driver/src/at32f4xx_rcc.c ****   */
 144:../Libraries/AT32F4xx_StdPeriph_Driver/src/at32f4xx_rcc.c **** 
 145:../Libraries/AT32F4xx_StdPeriph_Driver/src/at32f4xx_rcc.c **** /** @defgroup RCC_Private_Functions
ARM GAS  /var/folders/l3/4y5292px21b4835bsnjwqc7w009kq1/T//ccVOQnT7.s 			page 4


 146:../Libraries/AT32F4xx_StdPeriph_Driver/src/at32f4xx_rcc.c ****   * @{
 147:../Libraries/AT32F4xx_StdPeriph_Driver/src/at32f4xx_rcc.c ****   */
 148:../Libraries/AT32F4xx_StdPeriph_Driver/src/at32f4xx_rcc.c **** 
 149:../Libraries/AT32F4xx_StdPeriph_Driver/src/at32f4xx_rcc.c **** /**
 150:../Libraries/AT32F4xx_StdPeriph_Driver/src/at32f4xx_rcc.c ****   * @brief  Resets the RCC clock configuration to the default reset state.
 151:../Libraries/AT32F4xx_StdPeriph_Driver/src/at32f4xx_rcc.c ****   * @param  None
 152:../Libraries/AT32F4xx_StdPeriph_Driver/src/at32f4xx_rcc.c ****   * @retval None
 153:../Libraries/AT32F4xx_StdPeriph_Driver/src/at32f4xx_rcc.c ****   */
 154:../Libraries/AT32F4xx_StdPeriph_Driver/src/at32f4xx_rcc.c **** void RCC_Reset(void)
 155:../Libraries/AT32F4xx_StdPeriph_Driver/src/at32f4xx_rcc.c **** {
  28              		.loc 1 155 0
  29              		.cfi_startproc
  30              		@ args = 0, pretend = 0, frame = 0
  31              		@ frame_needed = 0, uses_anonymous_args = 0
  32              		@ link register save eliminated.
 156:../Libraries/AT32F4xx_StdPeriph_Driver/src/at32f4xx_rcc.c ****   /* Set HSIEN bit */
 157:../Libraries/AT32F4xx_StdPeriph_Driver/src/at32f4xx_rcc.c ****   RCC->CTRL |= (uint32_t)0x00000001;
  33              		.loc 1 157 0
  34 0000 114B     		ldr	r3, .L2
  35 0002 1A68     		ldr	r2, [r3]
  36 0004 42F00102 		orr	r2, r2, #1
  37 0008 1A60     		str	r2, [r3]
 158:../Libraries/AT32F4xx_StdPeriph_Driver/src/at32f4xx_rcc.c **** 
 159:../Libraries/AT32F4xx_StdPeriph_Driver/src/at32f4xx_rcc.c ****   /* Reset SYSCLKSEL, AHBPSC, APB1PSC, APB2PSC, ADCPSC and CLKOUT bits */
 160:../Libraries/AT32F4xx_StdPeriph_Driver/src/at32f4xx_rcc.c ****   RCC->CFG &= (uint32_t)0xE8FF0000;
  38              		.loc 1 160 0
  39 000a 5968     		ldr	r1, [r3, #4]
  40 000c 0F4A     		ldr	r2, .L2+4
  41 000e 0A40     		ands	r2, r2, r1
  42 0010 5A60     		str	r2, [r3, #4]
 161:../Libraries/AT32F4xx_StdPeriph_Driver/src/at32f4xx_rcc.c **** 
 162:../Libraries/AT32F4xx_StdPeriph_Driver/src/at32f4xx_rcc.c ****   /* Reset HSEEN, HSECFDEN and PLLEN bits */
 163:../Libraries/AT32F4xx_StdPeriph_Driver/src/at32f4xx_rcc.c ****   RCC->CTRL &= (uint32_t)0xFEF6FFFF;
  43              		.loc 1 163 0
  44 0012 1A68     		ldr	r2, [r3]
  45 0014 22F08472 		bic	r2, r2, #17301504
  46 0018 22F48032 		bic	r2, r2, #65536
  47 001c 1A60     		str	r2, [r3]
 164:../Libraries/AT32F4xx_StdPeriph_Driver/src/at32f4xx_rcc.c **** 
 165:../Libraries/AT32F4xx_StdPeriph_Driver/src/at32f4xx_rcc.c ****   /* Reset HSEBYPS bit */
 166:../Libraries/AT32F4xx_StdPeriph_Driver/src/at32f4xx_rcc.c ****   RCC->CTRL &= (uint32_t)0xFFFBFFFF;
  48              		.loc 1 166 0
  49 001e 1A68     		ldr	r2, [r3]
  50 0020 22F48022 		bic	r2, r2, #262144
  51 0024 1A60     		str	r2, [r3]
 167:../Libraries/AT32F4xx_StdPeriph_Driver/src/at32f4xx_rcc.c **** 
 168:../Libraries/AT32F4xx_StdPeriph_Driver/src/at32f4xx_rcc.c ****   /* Reset PLLRC, PLLHSEPSC, PLLMUL, PLLFREQRANGE, and USBPSC bits */
 169:../Libraries/AT32F4xx_StdPeriph_Driver/src/at32f4xx_rcc.c ****   RCC->CFG &= (uint32_t)0x1700FFFF;
  52              		.loc 1 169 0
  53 0026 5A68     		ldr	r2, [r3, #4]
  54 0028 22F06842 		bic	r2, r2, #-402653184
  55 002c 22F47F02 		bic	r2, r2, #16711680
  56 0030 5A60     		str	r2, [r3, #4]
 170:../Libraries/AT32F4xx_StdPeriph_Driver/src/at32f4xx_rcc.c **** 
 171:../Libraries/AT32F4xx_StdPeriph_Driver/src/at32f4xx_rcc.c ****   /* Disable all interrupts and clear pending bits  */
 172:../Libraries/AT32F4xx_StdPeriph_Driver/src/at32f4xx_rcc.c ****   RCC->CLKINT = 0x009F0000;
  57              		.loc 1 172 0
ARM GAS  /var/folders/l3/4y5292px21b4835bsnjwqc7w009kq1/T//ccVOQnT7.s 			page 5


  58 0032 4FF41F02 		mov	r2, #10420224
  59 0036 9A60     		str	r2, [r3, #8]
 173:../Libraries/AT32F4xx_StdPeriph_Driver/src/at32f4xx_rcc.c **** 
 174:../Libraries/AT32F4xx_StdPeriph_Driver/src/at32f4xx_rcc.c ****   /* Reset USB768B, CLKOUT[3], HSICAL_KEY[7:0] */
 175:../Libraries/AT32F4xx_StdPeriph_Driver/src/at32f4xx_rcc.c ****   RCC->MISC &= 0xFEFEFF00;
  60              		.loc 1 175 0
  61 0038 196B     		ldr	r1, [r3, #48]
  62 003a A2F10122 		sub	r2, r2, #16777472
  63 003e A2F52002 		sub	r2, r2, #10485760
  64 0042 0A40     		ands	r2, r2, r1
  65 0044 1A63     		str	r2, [r3, #48]
 176:../Libraries/AT32F4xx_StdPeriph_Driver/src/at32f4xx_rcc.c **** }
  66              		.loc 1 176 0
  67 0046 7047     		bx	lr
  68              	.L3:
  69              		.align	2
  70              	.L2:
  71 0048 00100240 		.word	1073876992
  72 004c 0000FFE8 		.word	-385941504
  73              		.cfi_endproc
  74              	.LFE123:
  75              		.cantunwind
  76              		.fnend
  78              		.section	.text.RCC_HSEConfig,"ax",%progbits
  79              		.align	1
  80              		.global	RCC_HSEConfig
  81              		.syntax unified
  82              		.thumb
  83              		.thumb_func
  84              		.fpu fpv4-sp-d16
  86              	RCC_HSEConfig:
  87              		.fnstart
  88              	.LFB124:
 177:../Libraries/AT32F4xx_StdPeriph_Driver/src/at32f4xx_rcc.c **** 
 178:../Libraries/AT32F4xx_StdPeriph_Driver/src/at32f4xx_rcc.c **** /**
 179:../Libraries/AT32F4xx_StdPeriph_Driver/src/at32f4xx_rcc.c ****   * @brief  Configures the External High Speed oscillator (HSE).
 180:../Libraries/AT32F4xx_StdPeriph_Driver/src/at32f4xx_rcc.c ****   * @note   HSE can not be stopped if it is used directly or through the PLL as system clock.
 181:../Libraries/AT32F4xx_StdPeriph_Driver/src/at32f4xx_rcc.c ****   * @param  RCC_HSE: specifies the new state of the HSE.
 182:../Libraries/AT32F4xx_StdPeriph_Driver/src/at32f4xx_rcc.c ****   *   This parameter can be one of the following values:
 183:../Libraries/AT32F4xx_StdPeriph_Driver/src/at32f4xx_rcc.c ****   *     @arg RCC_HSE_DISABLE: HSE oscillator OFF
 184:../Libraries/AT32F4xx_StdPeriph_Driver/src/at32f4xx_rcc.c ****   *     @arg RCC_HSE_ENABLE: HSE oscillator ON
 185:../Libraries/AT32F4xx_StdPeriph_Driver/src/at32f4xx_rcc.c ****   *     @arg RCC_HSE_BYPASS: HSE oscillator bypassed with external clock
 186:../Libraries/AT32F4xx_StdPeriph_Driver/src/at32f4xx_rcc.c ****   * @retval None
 187:../Libraries/AT32F4xx_StdPeriph_Driver/src/at32f4xx_rcc.c ****   */
 188:../Libraries/AT32F4xx_StdPeriph_Driver/src/at32f4xx_rcc.c **** void RCC_HSEConfig(uint32_t RCC_HSE)
 189:../Libraries/AT32F4xx_StdPeriph_Driver/src/at32f4xx_rcc.c **** {
  89              		.loc 1 189 0
  90              		.cfi_startproc
  91              		@ args = 0, pretend = 0, frame = 0
  92              		@ frame_needed = 0, uses_anonymous_args = 0
  93              		@ link register save eliminated.
  94              	.LVL0:
 190:../Libraries/AT32F4xx_StdPeriph_Driver/src/at32f4xx_rcc.c ****   /* Check the parameters */
 191:../Libraries/AT32F4xx_StdPeriph_Driver/src/at32f4xx_rcc.c ****   assert_param(IS_RCC_HSE(RCC_HSE));
 192:../Libraries/AT32F4xx_StdPeriph_Driver/src/at32f4xx_rcc.c ****   /* Reset HSEEN and HSEBYPS bits before configuring the HSE ------------------*/
 193:../Libraries/AT32F4xx_StdPeriph_Driver/src/at32f4xx_rcc.c ****   /* Reset HSEEN bit */
 194:../Libraries/AT32F4xx_StdPeriph_Driver/src/at32f4xx_rcc.c ****   RCC->CTRL &= ~RCC_CTRL_HSEEN;
ARM GAS  /var/folders/l3/4y5292px21b4835bsnjwqc7w009kq1/T//ccVOQnT7.s 			page 6


  95              		.loc 1 194 0
  96 0000 0D4B     		ldr	r3, .L8
  97 0002 1A68     		ldr	r2, [r3]
  98 0004 22F48032 		bic	r2, r2, #65536
  99 0008 1A60     		str	r2, [r3]
 195:../Libraries/AT32F4xx_StdPeriph_Driver/src/at32f4xx_rcc.c ****   /* Reset HSEBYPS bit */
 196:../Libraries/AT32F4xx_StdPeriph_Driver/src/at32f4xx_rcc.c ****   RCC->CTRL &= ~RCC_CTRL_HSEBYPS;
 100              		.loc 1 196 0
 101 000a 1A68     		ldr	r2, [r3]
 102 000c 22F48022 		bic	r2, r2, #262144
 103 0010 1A60     		str	r2, [r3]
 197:../Libraries/AT32F4xx_StdPeriph_Driver/src/at32f4xx_rcc.c **** 
 198:../Libraries/AT32F4xx_StdPeriph_Driver/src/at32f4xx_rcc.c ****   /* Configure HSE (RCC_HSE_DISABLE is already covered by the code section above) */
 199:../Libraries/AT32F4xx_StdPeriph_Driver/src/at32f4xx_rcc.c ****   switch(RCC_HSE)
 104              		.loc 1 199 0
 105 0012 B0F5803F 		cmp	r0, #65536
 106 0016 03D0     		beq	.L6
 107 0018 B0F5802F 		cmp	r0, #262144
 108 001c 06D0     		beq	.L7
 109 001e 7047     		bx	lr
 110              	.L6:
 200:../Libraries/AT32F4xx_StdPeriph_Driver/src/at32f4xx_rcc.c ****   {
 201:../Libraries/AT32F4xx_StdPeriph_Driver/src/at32f4xx_rcc.c ****   case RCC_HSE_ENABLE:
 202:../Libraries/AT32F4xx_StdPeriph_Driver/src/at32f4xx_rcc.c ****     /* Set HSEEN bit */
 203:../Libraries/AT32F4xx_StdPeriph_Driver/src/at32f4xx_rcc.c ****     RCC->CTRL |= RCC_CTRL_HSEEN;
 111              		.loc 1 203 0
 112 0020 054A     		ldr	r2, .L8
 113 0022 1368     		ldr	r3, [r2]
 114 0024 43F48033 		orr	r3, r3, #65536
 115 0028 1360     		str	r3, [r2]
 204:../Libraries/AT32F4xx_StdPeriph_Driver/src/at32f4xx_rcc.c ****     break;
 116              		.loc 1 204 0
 117 002a 7047     		bx	lr
 118              	.L7:
 205:../Libraries/AT32F4xx_StdPeriph_Driver/src/at32f4xx_rcc.c **** 
 206:../Libraries/AT32F4xx_StdPeriph_Driver/src/at32f4xx_rcc.c ****   case RCC_HSE_BYPASS:
 207:../Libraries/AT32F4xx_StdPeriph_Driver/src/at32f4xx_rcc.c ****     /* Set HSEBYPS and HSEEN bits */
 208:../Libraries/AT32F4xx_StdPeriph_Driver/src/at32f4xx_rcc.c ****     RCC->CTRL |= RCC_CTRL_HSEBYPS | RCC_CTRL_HSEEN;
 119              		.loc 1 208 0
 120 002c 024A     		ldr	r2, .L8
 121 002e 1368     		ldr	r3, [r2]
 122 0030 43F4A023 		orr	r3, r3, #327680
 123 0034 1360     		str	r3, [r2]
 209:../Libraries/AT32F4xx_StdPeriph_Driver/src/at32f4xx_rcc.c ****     break;
 210:../Libraries/AT32F4xx_StdPeriph_Driver/src/at32f4xx_rcc.c **** 
 211:../Libraries/AT32F4xx_StdPeriph_Driver/src/at32f4xx_rcc.c ****   default:
 212:../Libraries/AT32F4xx_StdPeriph_Driver/src/at32f4xx_rcc.c ****     break;
 213:../Libraries/AT32F4xx_StdPeriph_Driver/src/at32f4xx_rcc.c ****   }
 214:../Libraries/AT32F4xx_StdPeriph_Driver/src/at32f4xx_rcc.c **** }
 124              		.loc 1 214 0
 125 0036 7047     		bx	lr
 126              	.L9:
 127              		.align	2
 128              	.L8:
 129 0038 00100240 		.word	1073876992
 130              		.cfi_endproc
 131              	.LFE124:
ARM GAS  /var/folders/l3/4y5292px21b4835bsnjwqc7w009kq1/T//ccVOQnT7.s 			page 7


 132              		.cantunwind
 133              		.fnend
 135              		.section	.text.RCC_SetHSITweakValue,"ax",%progbits
 136              		.align	1
 137              		.global	RCC_SetHSITweakValue
 138              		.syntax unified
 139              		.thumb
 140              		.thumb_func
 141              		.fpu fpv4-sp-d16
 143              	RCC_SetHSITweakValue:
 144              		.fnstart
 145              	.LFB126:
 215:../Libraries/AT32F4xx_StdPeriph_Driver/src/at32f4xx_rcc.c **** 
 216:../Libraries/AT32F4xx_StdPeriph_Driver/src/at32f4xx_rcc.c **** /**
 217:../Libraries/AT32F4xx_StdPeriph_Driver/src/at32f4xx_rcc.c ****   * @brief  Waits for HSE start-up.
 218:../Libraries/AT32F4xx_StdPeriph_Driver/src/at32f4xx_rcc.c ****   * @param  None
 219:../Libraries/AT32F4xx_StdPeriph_Driver/src/at32f4xx_rcc.c ****   * @retval An ErrorStatus enumuration value:
 220:../Libraries/AT32F4xx_StdPeriph_Driver/src/at32f4xx_rcc.c ****   * - SUCCESS: HSE oscillator is stable and ready to use
 221:../Libraries/AT32F4xx_StdPeriph_Driver/src/at32f4xx_rcc.c ****   * - ERROR: HSE oscillator not yet ready
 222:../Libraries/AT32F4xx_StdPeriph_Driver/src/at32f4xx_rcc.c ****   */
 223:../Libraries/AT32F4xx_StdPeriph_Driver/src/at32f4xx_rcc.c **** ErrorStatus RCC_WaitForHSEStable(void)
 224:../Libraries/AT32F4xx_StdPeriph_Driver/src/at32f4xx_rcc.c **** {
 225:../Libraries/AT32F4xx_StdPeriph_Driver/src/at32f4xx_rcc.c ****   __IO uint32_t StartUpCounter = 0;
 226:../Libraries/AT32F4xx_StdPeriph_Driver/src/at32f4xx_rcc.c ****   ErrorStatus status = ERROR;
 227:../Libraries/AT32F4xx_StdPeriph_Driver/src/at32f4xx_rcc.c ****   FlagStatus HSEStatus = RESET;
 228:../Libraries/AT32F4xx_StdPeriph_Driver/src/at32f4xx_rcc.c **** 
 229:../Libraries/AT32F4xx_StdPeriph_Driver/src/at32f4xx_rcc.c ****   /* Wait till HSE is ready and if Time out is reached exit */
 230:../Libraries/AT32F4xx_StdPeriph_Driver/src/at32f4xx_rcc.c ****   do
 231:../Libraries/AT32F4xx_StdPeriph_Driver/src/at32f4xx_rcc.c ****   {
 232:../Libraries/AT32F4xx_StdPeriph_Driver/src/at32f4xx_rcc.c ****     HSEStatus = RCC_GetFlagStatus(RCC_FLAG_HSESTBL);
 233:../Libraries/AT32F4xx_StdPeriph_Driver/src/at32f4xx_rcc.c ****     StartUpCounter++;
 234:../Libraries/AT32F4xx_StdPeriph_Driver/src/at32f4xx_rcc.c ****   }
 235:../Libraries/AT32F4xx_StdPeriph_Driver/src/at32f4xx_rcc.c ****   while((StartUpCounter != HSE_STARTUP_TIMEOUT) && (HSEStatus == RESET));
 236:../Libraries/AT32F4xx_StdPeriph_Driver/src/at32f4xx_rcc.c ****   
 237:../Libraries/AT32F4xx_StdPeriph_Driver/src/at32f4xx_rcc.c ****   /* Delay for HSE Stable */
 238:../Libraries/AT32F4xx_StdPeriph_Driver/src/at32f4xx_rcc.c ****   RCC_HSEENDelay(HSE_STABLE_DELAY);
 239:../Libraries/AT32F4xx_StdPeriph_Driver/src/at32f4xx_rcc.c **** 
 240:../Libraries/AT32F4xx_StdPeriph_Driver/src/at32f4xx_rcc.c ****   if (RCC_GetFlagStatus(RCC_FLAG_HSESTBL) != RESET)
 241:../Libraries/AT32F4xx_StdPeriph_Driver/src/at32f4xx_rcc.c ****   {
 242:../Libraries/AT32F4xx_StdPeriph_Driver/src/at32f4xx_rcc.c ****     status = SUCCESS;
 243:../Libraries/AT32F4xx_StdPeriph_Driver/src/at32f4xx_rcc.c ****   }
 244:../Libraries/AT32F4xx_StdPeriph_Driver/src/at32f4xx_rcc.c ****   else
 245:../Libraries/AT32F4xx_StdPeriph_Driver/src/at32f4xx_rcc.c ****   {
 246:../Libraries/AT32F4xx_StdPeriph_Driver/src/at32f4xx_rcc.c ****     status = ERROR;
 247:../Libraries/AT32F4xx_StdPeriph_Driver/src/at32f4xx_rcc.c ****   }
 248:../Libraries/AT32F4xx_StdPeriph_Driver/src/at32f4xx_rcc.c **** 
 249:../Libraries/AT32F4xx_StdPeriph_Driver/src/at32f4xx_rcc.c ****   return (status);
 250:../Libraries/AT32F4xx_StdPeriph_Driver/src/at32f4xx_rcc.c **** }
 251:../Libraries/AT32F4xx_StdPeriph_Driver/src/at32f4xx_rcc.c **** 
 252:../Libraries/AT32F4xx_StdPeriph_Driver/src/at32f4xx_rcc.c **** /**
 253:../Libraries/AT32F4xx_StdPeriph_Driver/src/at32f4xx_rcc.c ****   * @brief  Adjusts the Internal High Speed oscillator (HSI) calibration value.
 254:../Libraries/AT32F4xx_StdPeriph_Driver/src/at32f4xx_rcc.c ****   * @param  HSITweakValue: specifies the calibration trimming value.
 255:../Libraries/AT32F4xx_StdPeriph_Driver/src/at32f4xx_rcc.c ****   *   This parameter must be a number between 0 and 0x1F.
 256:../Libraries/AT32F4xx_StdPeriph_Driver/src/at32f4xx_rcc.c ****   * @retval None
 257:../Libraries/AT32F4xx_StdPeriph_Driver/src/at32f4xx_rcc.c ****   */
 258:../Libraries/AT32F4xx_StdPeriph_Driver/src/at32f4xx_rcc.c **** void RCC_SetHSITweakValue(uint8_t HSITweakValue)
 259:../Libraries/AT32F4xx_StdPeriph_Driver/src/at32f4xx_rcc.c **** {
ARM GAS  /var/folders/l3/4y5292px21b4835bsnjwqc7w009kq1/T//ccVOQnT7.s 			page 8


 146              		.loc 1 259 0
 147              		.cfi_startproc
 148              		@ args = 0, pretend = 0, frame = 0
 149              		@ frame_needed = 0, uses_anonymous_args = 0
 150              		@ link register save eliminated.
 151              	.LVL1:
 260:../Libraries/AT32F4xx_StdPeriph_Driver/src/at32f4xx_rcc.c ****   uint32_t tmpreg = 0;
 261:../Libraries/AT32F4xx_StdPeriph_Driver/src/at32f4xx_rcc.c ****   /* Check the parameters */
 262:../Libraries/AT32F4xx_StdPeriph_Driver/src/at32f4xx_rcc.c ****   assert_param(IS_RCC_TWEAK_VALUE(HSITweakValue));
 263:../Libraries/AT32F4xx_StdPeriph_Driver/src/at32f4xx_rcc.c ****   tmpreg = RCC->CTRL;
 152              		.loc 1 263 0
 153 0000 034A     		ldr	r2, .L11
 154 0002 1368     		ldr	r3, [r2]
 155              	.LVL2:
 264:../Libraries/AT32F4xx_StdPeriph_Driver/src/at32f4xx_rcc.c ****   /* Clear HSITWK[4:0] bits */
 265:../Libraries/AT32F4xx_StdPeriph_Driver/src/at32f4xx_rcc.c ****   tmpreg &= ~RCC_CTRL_HSITWK;
 156              		.loc 1 265 0
 157 0004 23F0F803 		bic	r3, r3, #248
 158              	.LVL3:
 266:../Libraries/AT32F4xx_StdPeriph_Driver/src/at32f4xx_rcc.c ****   /* Set the HSITWK[4:0] bits according to HSITweakValue value */
 267:../Libraries/AT32F4xx_StdPeriph_Driver/src/at32f4xx_rcc.c ****   tmpreg |= (uint32_t)HSITweakValue << HSITWK_BitPos;
 159              		.loc 1 267 0
 160 0008 43EAC000 		orr	r0, r3, r0, lsl #3
 161              	.LVL4:
 268:../Libraries/AT32F4xx_StdPeriph_Driver/src/at32f4xx_rcc.c ****   /* Store the new value */
 269:../Libraries/AT32F4xx_StdPeriph_Driver/src/at32f4xx_rcc.c ****   RCC->CTRL = tmpreg;
 162              		.loc 1 269 0
 163 000c 1060     		str	r0, [r2]
 270:../Libraries/AT32F4xx_StdPeriph_Driver/src/at32f4xx_rcc.c **** }
 164              		.loc 1 270 0
 165 000e 7047     		bx	lr
 166              	.L12:
 167              		.align	2
 168              	.L11:
 169 0010 00100240 		.word	1073876992
 170              		.cfi_endproc
 171              	.LFE126:
 172              		.cantunwind
 173              		.fnend
 175              		.section	.text.RCC_SetHSICalibValue,"ax",%progbits
 176              		.align	1
 177              		.global	RCC_SetHSICalibValue
 178              		.syntax unified
 179              		.thumb
 180              		.thumb_func
 181              		.fpu fpv4-sp-d16
 183              	RCC_SetHSICalibValue:
 184              		.fnstart
 185              	.LFB127:
 271:../Libraries/AT32F4xx_StdPeriph_Driver/src/at32f4xx_rcc.c **** 
 272:../Libraries/AT32F4xx_StdPeriph_Driver/src/at32f4xx_rcc.c **** 
 273:../Libraries/AT32F4xx_StdPeriph_Driver/src/at32f4xx_rcc.c **** /**
 274:../Libraries/AT32F4xx_StdPeriph_Driver/src/at32f4xx_rcc.c ****   * @brief  Adjusts the Internal High Speed oscillator (HSI) calibration value.
 275:../Libraries/AT32F4xx_StdPeriph_Driver/src/at32f4xx_rcc.c ****   * @param  HSICalibValue: specifies the calibration value.
 276:../Libraries/AT32F4xx_StdPeriph_Driver/src/at32f4xx_rcc.c ****   *   This parameter must be a number between 0 and 0xFF.
 277:../Libraries/AT32F4xx_StdPeriph_Driver/src/at32f4xx_rcc.c ****   * @retval None
 278:../Libraries/AT32F4xx_StdPeriph_Driver/src/at32f4xx_rcc.c ****   */
ARM GAS  /var/folders/l3/4y5292px21b4835bsnjwqc7w009kq1/T//ccVOQnT7.s 			page 9


 279:../Libraries/AT32F4xx_StdPeriph_Driver/src/at32f4xx_rcc.c **** void RCC_SetHSICalibValue(uint8_t HSICalibValue)
 280:../Libraries/AT32F4xx_StdPeriph_Driver/src/at32f4xx_rcc.c **** {
 186              		.loc 1 280 0
 187              		.cfi_startproc
 188              		@ args = 0, pretend = 0, frame = 0
 189              		@ frame_needed = 0, uses_anonymous_args = 0
 190              		@ link register save eliminated.
 191              	.LVL5:
 281:../Libraries/AT32F4xx_StdPeriph_Driver/src/at32f4xx_rcc.c ****   uint32_t tmpreg = 0;
 282:../Libraries/AT32F4xx_StdPeriph_Driver/src/at32f4xx_rcc.c ****   /* Check the parameters */
 283:../Libraries/AT32F4xx_StdPeriph_Driver/src/at32f4xx_rcc.c ****   assert_param(IS_RCC_CALIB_VALUE(HSICalibValue));
 284:../Libraries/AT32F4xx_StdPeriph_Driver/src/at32f4xx_rcc.c **** 
 285:../Libraries/AT32F4xx_StdPeriph_Driver/src/at32f4xx_rcc.c ****   /* Enable write HSICAL */
 286:../Libraries/AT32F4xx_StdPeriph_Driver/src/at32f4xx_rcc.c ****   *(__IO uint8_t *) MISC_BYTE0_HSICALKEY_ADDR = MISC_HSICAL_ENABLE_KEY;
 192              		.loc 1 286 0
 193 0000 064A     		ldr	r2, .L14
 194 0002 5A23     		movs	r3, #90
 195 0004 1370     		strb	r3, [r2]
 287:../Libraries/AT32F4xx_StdPeriph_Driver/src/at32f4xx_rcc.c **** 
 288:../Libraries/AT32F4xx_StdPeriph_Driver/src/at32f4xx_rcc.c ****   /* Get RCC_CTRL and clear HSICAL bits */
 289:../Libraries/AT32F4xx_StdPeriph_Driver/src/at32f4xx_rcc.c ****   tmpreg = RCC->CTRL & (~RCC_CTRL_HSICAL);
 196              		.loc 1 289 0
 197 0006 0649     		ldr	r1, .L14+4
 198 0008 0B68     		ldr	r3, [r1]
 199 000a 23F47F43 		bic	r3, r3, #65280
 200              	.LVL6:
 290:../Libraries/AT32F4xx_StdPeriph_Driver/src/at32f4xx_rcc.c ****   /* Set the HSICAL[7:0] bits according to HSICalibValue value */
 291:../Libraries/AT32F4xx_StdPeriph_Driver/src/at32f4xx_rcc.c ****   tmpreg |= (uint32_t)HSICalibValue << HSICAL_BitPos;
 201              		.loc 1 291 0
 202 000e 43EA0020 		orr	r0, r3, r0, lsl #8
 203              	.LVL7:
 292:../Libraries/AT32F4xx_StdPeriph_Driver/src/at32f4xx_rcc.c ****   /* Store the new value */
 293:../Libraries/AT32F4xx_StdPeriph_Driver/src/at32f4xx_rcc.c ****   RCC->CTRL = tmpreg;
 204              		.loc 1 293 0
 205 0012 0860     		str	r0, [r1]
 294:../Libraries/AT32F4xx_StdPeriph_Driver/src/at32f4xx_rcc.c **** 
 295:../Libraries/AT32F4xx_StdPeriph_Driver/src/at32f4xx_rcc.c ****   /* Disable write HSICAL */
 296:../Libraries/AT32F4xx_StdPeriph_Driver/src/at32f4xx_rcc.c ****   *(__IO uint8_t *) MISC_BYTE0_HSICALKEY_ADDR = MISC_HSICAL_DISABLE_KEY;
 206              		.loc 1 296 0
 207 0014 0023     		movs	r3, #0
 208 0016 1370     		strb	r3, [r2]
 297:../Libraries/AT32F4xx_StdPeriph_Driver/src/at32f4xx_rcc.c **** }
 209              		.loc 1 297 0
 210 0018 7047     		bx	lr
 211              	.L15:
 212 001a 00BF     		.align	2
 213              	.L14:
 214 001c 30100240 		.word	1073877040
 215 0020 00100240 		.word	1073876992
 216              		.cfi_endproc
 217              	.LFE127:
 218              		.cantunwind
 219              		.fnend
 221              		.section	.text.RCC_HSICmd,"ax",%progbits
 222              		.align	1
 223              		.global	RCC_HSICmd
 224              		.syntax unified
ARM GAS  /var/folders/l3/4y5292px21b4835bsnjwqc7w009kq1/T//ccVOQnT7.s 			page 10


 225              		.thumb
 226              		.thumb_func
 227              		.fpu fpv4-sp-d16
 229              	RCC_HSICmd:
 230              		.fnstart
 231              	.LFB128:
 298:../Libraries/AT32F4xx_StdPeriph_Driver/src/at32f4xx_rcc.c **** 
 299:../Libraries/AT32F4xx_StdPeriph_Driver/src/at32f4xx_rcc.c **** 
 300:../Libraries/AT32F4xx_StdPeriph_Driver/src/at32f4xx_rcc.c **** /**
 301:../Libraries/AT32F4xx_StdPeriph_Driver/src/at32f4xx_rcc.c ****   * @brief  Enables or disables the Internal High Speed oscillator (HSI).
 302:../Libraries/AT32F4xx_StdPeriph_Driver/src/at32f4xx_rcc.c ****   * @note   HSI can not be stopped if it is used directly or through the PLL as system clock.
 303:../Libraries/AT32F4xx_StdPeriph_Driver/src/at32f4xx_rcc.c ****   * @param  NewState: new state of the HSI. This parameter can be: ENABLE or DISABLE.
 304:../Libraries/AT32F4xx_StdPeriph_Driver/src/at32f4xx_rcc.c ****   * @retval None
 305:../Libraries/AT32F4xx_StdPeriph_Driver/src/at32f4xx_rcc.c ****   */
 306:../Libraries/AT32F4xx_StdPeriph_Driver/src/at32f4xx_rcc.c **** void RCC_HSICmd(FunctionalState NewState)
 307:../Libraries/AT32F4xx_StdPeriph_Driver/src/at32f4xx_rcc.c **** {
 232              		.loc 1 307 0
 233              		.cfi_startproc
 234              		@ args = 0, pretend = 0, frame = 0
 235              		@ frame_needed = 0, uses_anonymous_args = 0
 236              		@ link register save eliminated.
 237              	.LVL8:
 308:../Libraries/AT32F4xx_StdPeriph_Driver/src/at32f4xx_rcc.c ****   /* Check the parameters */
 309:../Libraries/AT32F4xx_StdPeriph_Driver/src/at32f4xx_rcc.c ****   assert_param(IS_FUNCTIONAL_STATE(NewState));
 310:../Libraries/AT32F4xx_StdPeriph_Driver/src/at32f4xx_rcc.c ****   *(__IO uint32_t *) CTRL_HSIEN_BB = (uint32_t)NewState;
 238              		.loc 1 310 0
 239 0000 014B     		ldr	r3, .L17
 240 0002 1860     		str	r0, [r3]
 311:../Libraries/AT32F4xx_StdPeriph_Driver/src/at32f4xx_rcc.c **** }
 241              		.loc 1 311 0
 242 0004 7047     		bx	lr
 243              	.L18:
 244 0006 00BF     		.align	2
 245              	.L17:
 246 0008 00004242 		.word	1111621632
 247              		.cfi_endproc
 248              	.LFE128:
 249              		.cantunwind
 250              		.fnend
 252              		.section	.text.RCC_PLLConfig,"ax",%progbits
 253              		.align	1
 254              		.global	RCC_PLLConfig
 255              		.syntax unified
 256              		.thumb
 257              		.thumb_func
 258              		.fpu fpv4-sp-d16
 260              	RCC_PLLConfig:
 261              		.fnstart
 262              	.LFB129:
 312:../Libraries/AT32F4xx_StdPeriph_Driver/src/at32f4xx_rcc.c **** 
 313:../Libraries/AT32F4xx_StdPeriph_Driver/src/at32f4xx_rcc.c **** /**
 314:../Libraries/AT32F4xx_StdPeriph_Driver/src/at32f4xx_rcc.c ****   * @brief  Configures the PLL clock source and multiplication factor.
 315:../Libraries/AT32F4xx_StdPeriph_Driver/src/at32f4xx_rcc.c ****   * @note   This function must be used only when the PLL is disabled.
 316:../Libraries/AT32F4xx_StdPeriph_Driver/src/at32f4xx_rcc.c ****   * @param  RCC_PLLRefClk: specifies the PLL entry clock source.
 317:../Libraries/AT32F4xx_StdPeriph_Driver/src/at32f4xx_rcc.c ****   *   This parameter can be one of the following values:
 318:../Libraries/AT32F4xx_StdPeriph_Driver/src/at32f4xx_rcc.c ****   *     @arg RCC_PLLRefClk_HSI_Div2: HSI oscillator clock divided by 2 selected as PLL clock entry
 319:../Libraries/AT32F4xx_StdPeriph_Driver/src/at32f4xx_rcc.c ****   *     @arg RCC_PLLRefClk_HSE_Div1: HSE oscillator clock selected as PLL clock entry
ARM GAS  /var/folders/l3/4y5292px21b4835bsnjwqc7w009kq1/T//ccVOQnT7.s 			page 11


 320:../Libraries/AT32F4xx_StdPeriph_Driver/src/at32f4xx_rcc.c ****   *     @arg RCC_PLLRefClk_HSE_Div2: HSE oscillator clock divided by 2 selected as PLL clock entry
 321:../Libraries/AT32F4xx_StdPeriph_Driver/src/at32f4xx_rcc.c ****   * @param  RCC_PLLMult: specifies the PLL multiplication factor.
 322:../Libraries/AT32F4xx_StdPeriph_Driver/src/at32f4xx_rcc.c ****   *   			This parameter can be RCC_PLLMult_x where x:[2,64]
 323:../Libraries/AT32F4xx_StdPeriph_Driver/src/at32f4xx_rcc.c ****   * @param  RCC_PLLRange: specifies the PLL frequency range
 324:../Libraries/AT32F4xx_StdPeriph_Driver/src/at32f4xx_rcc.c ****   *     @arg RCC_Range_LessEqual_72Mhz: When PLL output is less than or equal to 72 MHz.
 325:../Libraries/AT32F4xx_StdPeriph_Driver/src/at32f4xx_rcc.c ****   *     @arg RCC_Range_GreatThan_72Mhz: When PLL output is greater than 72 MHz.
 326:../Libraries/AT32F4xx_StdPeriph_Driver/src/at32f4xx_rcc.c ****   *
 327:../Libraries/AT32F4xx_StdPeriph_Driver/src/at32f4xx_rcc.c ****   * @retval None
 328:../Libraries/AT32F4xx_StdPeriph_Driver/src/at32f4xx_rcc.c ****   */
 329:../Libraries/AT32F4xx_StdPeriph_Driver/src/at32f4xx_rcc.c **** void RCC_PLLConfig(uint32_t RCC_PLLRefClk, uint32_t RCC_PLLMult, uint32_t RCC_PLLRange)
 330:../Libraries/AT32F4xx_StdPeriph_Driver/src/at32f4xx_rcc.c **** {
 263              		.loc 1 330 0
 264              		.cfi_startproc
 265              		@ args = 0, pretend = 0, frame = 0
 266              		@ frame_needed = 0, uses_anonymous_args = 0
 267              		@ link register save eliminated.
 268              	.LVL9:
 269 0000 10B4     		push	{r4}
 270              	.LCFI0:
 271              		.cfi_def_cfa_offset 4
 272              		.cfi_offset 4, -4
 273              	.LVL10:
 331:../Libraries/AT32F4xx_StdPeriph_Driver/src/at32f4xx_rcc.c ****   uint32_t tmpreg = 0;
 332:../Libraries/AT32F4xx_StdPeriph_Driver/src/at32f4xx_rcc.c **** 
 333:../Libraries/AT32F4xx_StdPeriph_Driver/src/at32f4xx_rcc.c ****   /* Check the parameters */
 334:../Libraries/AT32F4xx_StdPeriph_Driver/src/at32f4xx_rcc.c ****   assert_param(IS_RCC_PLL_CFG(RCC_PLLRefClk));
 335:../Libraries/AT32F4xx_StdPeriph_Driver/src/at32f4xx_rcc.c ****   assert_param(IS_RCC_PLL_MULT(RCC_PLLMult));
 336:../Libraries/AT32F4xx_StdPeriph_Driver/src/at32f4xx_rcc.c ****   assert_param(IS_RCC_PLL_RANGE(RCC_PLLRange));
 337:../Libraries/AT32F4xx_StdPeriph_Driver/src/at32f4xx_rcc.c **** 
 338:../Libraries/AT32F4xx_StdPeriph_Driver/src/at32f4xx_rcc.c ****   tmpreg = RCC->CFG;
 274              		.loc 1 338 0
 275 0002 064C     		ldr	r4, .L21
 276 0004 6368     		ldr	r3, [r4, #4]
 277              	.LVL11:
 339:../Libraries/AT32F4xx_StdPeriph_Driver/src/at32f4xx_rcc.c ****   /* Clear PLLRC, PLLHSEPSC and PLLMULT[5:0] bits */
 340:../Libraries/AT32F4xx_StdPeriph_Driver/src/at32f4xx_rcc.c ****   tmpreg &= CFG_PLL_Mask;
 278              		.loc 1 340 0
 279 0006 23F06043 		bic	r3, r3, #-536870912
 280              	.LVL12:
 281 000a 23F47C13 		bic	r3, r3, #4128768
 282              	.LVL13:
 341:../Libraries/AT32F4xx_StdPeriph_Driver/src/at32f4xx_rcc.c ****   /* Set the PLL configuration bits */
 342:../Libraries/AT32F4xx_StdPeriph_Driver/src/at32f4xx_rcc.c ****   tmpreg |= RCC_PLLRefClk | RCC_PLLMult | RCC_PLLRange;
 283              		.loc 1 342 0
 284 000e 0143     		orrs	r1, r1, r0
 285              	.LVL14:
 286 0010 0A43     		orrs	r2, r2, r1
 287              	.LVL15:
 288 0012 1A43     		orrs	r2, r2, r3
 289              	.LVL16:
 343:../Libraries/AT32F4xx_StdPeriph_Driver/src/at32f4xx_rcc.c ****   /* Store the new value */
 344:../Libraries/AT32F4xx_StdPeriph_Driver/src/at32f4xx_rcc.c ****   RCC->CFG = tmpreg;
 290              		.loc 1 344 0
 291 0014 6260     		str	r2, [r4, #4]
 345:../Libraries/AT32F4xx_StdPeriph_Driver/src/at32f4xx_rcc.c **** }
 292              		.loc 1 345 0
 293 0016 5DF8044B 		ldr	r4, [sp], #4
ARM GAS  /var/folders/l3/4y5292px21b4835bsnjwqc7w009kq1/T//ccVOQnT7.s 			page 12


 294              	.LCFI1:
 295              		.cfi_restore 4
 296              		.cfi_def_cfa_offset 0
 297 001a 7047     		bx	lr
 298              	.L22:
 299              		.align	2
 300              	.L21:
 301 001c 00100240 		.word	1073876992
 302              		.cfi_endproc
 303              	.LFE129:
 304              		.cantunwind
 305              		.fnend
 307              		.section	.text.RCC_PLLCmd,"ax",%progbits
 308              		.align	1
 309              		.global	RCC_PLLCmd
 310              		.syntax unified
 311              		.thumb
 312              		.thumb_func
 313              		.fpu fpv4-sp-d16
 315              	RCC_PLLCmd:
 316              		.fnstart
 317              	.LFB130:
 346:../Libraries/AT32F4xx_StdPeriph_Driver/src/at32f4xx_rcc.c **** 
 347:../Libraries/AT32F4xx_StdPeriph_Driver/src/at32f4xx_rcc.c **** /**
 348:../Libraries/AT32F4xx_StdPeriph_Driver/src/at32f4xx_rcc.c ****   * @brief  Enables or disables the PLL.
 349:../Libraries/AT32F4xx_StdPeriph_Driver/src/at32f4xx_rcc.c ****   * @note   The PLL can not be disabled if it is used as system clock.
 350:../Libraries/AT32F4xx_StdPeriph_Driver/src/at32f4xx_rcc.c ****   * @param  NewState: new state of the PLL. This parameter can be: ENABLE or DISABLE.
 351:../Libraries/AT32F4xx_StdPeriph_Driver/src/at32f4xx_rcc.c ****   * @retval None
 352:../Libraries/AT32F4xx_StdPeriph_Driver/src/at32f4xx_rcc.c ****   */
 353:../Libraries/AT32F4xx_StdPeriph_Driver/src/at32f4xx_rcc.c **** void RCC_PLLCmd(FunctionalState NewState)
 354:../Libraries/AT32F4xx_StdPeriph_Driver/src/at32f4xx_rcc.c **** {
 318              		.loc 1 354 0
 319              		.cfi_startproc
 320              		@ args = 0, pretend = 0, frame = 0
 321              		@ frame_needed = 0, uses_anonymous_args = 0
 322              		@ link register save eliminated.
 323              	.LVL17:
 355:../Libraries/AT32F4xx_StdPeriph_Driver/src/at32f4xx_rcc.c ****   /* Check the parameters */
 356:../Libraries/AT32F4xx_StdPeriph_Driver/src/at32f4xx_rcc.c ****   assert_param(IS_FUNCTIONAL_STATE(NewState));
 357:../Libraries/AT32F4xx_StdPeriph_Driver/src/at32f4xx_rcc.c **** 
 358:../Libraries/AT32F4xx_StdPeriph_Driver/src/at32f4xx_rcc.c ****   *(__IO uint32_t *) CTRL_PLLEN_BB = (uint32_t)NewState;
 324              		.loc 1 358 0
 325 0000 014B     		ldr	r3, .L24
 326 0002 1860     		str	r0, [r3]
 359:../Libraries/AT32F4xx_StdPeriph_Driver/src/at32f4xx_rcc.c **** }
 327              		.loc 1 359 0
 328 0004 7047     		bx	lr
 329              	.L25:
 330 0006 00BF     		.align	2
 331              	.L24:
 332 0008 60004242 		.word	1111621728
 333              		.cfi_endproc
 334              	.LFE130:
 335              		.cantunwind
 336              		.fnend
 338              		.section	.text.RCC_SYSCLKConfig,"ax",%progbits
 339              		.align	1
ARM GAS  /var/folders/l3/4y5292px21b4835bsnjwqc7w009kq1/T//ccVOQnT7.s 			page 13


 340              		.global	RCC_SYSCLKConfig
 341              		.syntax unified
 342              		.thumb
 343              		.thumb_func
 344              		.fpu fpv4-sp-d16
 346              	RCC_SYSCLKConfig:
 347              		.fnstart
 348              	.LFB131:
 360:../Libraries/AT32F4xx_StdPeriph_Driver/src/at32f4xx_rcc.c **** 
 361:../Libraries/AT32F4xx_StdPeriph_Driver/src/at32f4xx_rcc.c **** /**
 362:../Libraries/AT32F4xx_StdPeriph_Driver/src/at32f4xx_rcc.c ****   * @brief  Configures the system clock (SYSCLK).
 363:../Libraries/AT32F4xx_StdPeriph_Driver/src/at32f4xx_rcc.c ****   * @param  RCC_SYSCLKSelect: specifies the clock source used as system clock.
 364:../Libraries/AT32F4xx_StdPeriph_Driver/src/at32f4xx_rcc.c ****   *   This parameter can be one of the following values:
 365:../Libraries/AT32F4xx_StdPeriph_Driver/src/at32f4xx_rcc.c ****   *     @arg RCC_SYSCLKSelction_HSI: HSI selected as system clock
 366:../Libraries/AT32F4xx_StdPeriph_Driver/src/at32f4xx_rcc.c ****   *     @arg RCC_SYSCLKSelction_HSE: HSE selected as system clock
 367:../Libraries/AT32F4xx_StdPeriph_Driver/src/at32f4xx_rcc.c ****   *     @arg RCC_SYSCLKSelction_PLL: PLL selected as system clock
 368:../Libraries/AT32F4xx_StdPeriph_Driver/src/at32f4xx_rcc.c ****   * @retval None
 369:../Libraries/AT32F4xx_StdPeriph_Driver/src/at32f4xx_rcc.c ****   */
 370:../Libraries/AT32F4xx_StdPeriph_Driver/src/at32f4xx_rcc.c **** void RCC_SYSCLKConfig(uint32_t RCC_SYSCLKSelect)
 371:../Libraries/AT32F4xx_StdPeriph_Driver/src/at32f4xx_rcc.c **** {
 349              		.loc 1 371 0
 350              		.cfi_startproc
 351              		@ args = 0, pretend = 0, frame = 0
 352              		@ frame_needed = 0, uses_anonymous_args = 0
 353              		@ link register save eliminated.
 354              	.LVL18:
 372:../Libraries/AT32F4xx_StdPeriph_Driver/src/at32f4xx_rcc.c ****   uint32_t tmpreg = 0;
 373:../Libraries/AT32F4xx_StdPeriph_Driver/src/at32f4xx_rcc.c ****   /* Check the parameters */
 374:../Libraries/AT32F4xx_StdPeriph_Driver/src/at32f4xx_rcc.c ****   assert_param(IS_RCC_SYSCLK_CFG(RCC_SYSCLKSelect));
 375:../Libraries/AT32F4xx_StdPeriph_Driver/src/at32f4xx_rcc.c ****   tmpreg = RCC->CFG;
 355              		.loc 1 375 0
 356 0000 034A     		ldr	r2, .L27
 357 0002 5368     		ldr	r3, [r2, #4]
 358              	.LVL19:
 376:../Libraries/AT32F4xx_StdPeriph_Driver/src/at32f4xx_rcc.c ****   /* Clear SYSCLKSEL[1:0] bits */
 377:../Libraries/AT32F4xx_StdPeriph_Driver/src/at32f4xx_rcc.c ****   tmpreg &= ~RCC_CFG_SYSCLKSEL;
 359              		.loc 1 377 0
 360 0004 23F00303 		bic	r3, r3, #3
 361              	.LVL20:
 378:../Libraries/AT32F4xx_StdPeriph_Driver/src/at32f4xx_rcc.c ****   /* Set SYSCLKSEL[1:0] bits according to RCC_SYSCLKSelect value */
 379:../Libraries/AT32F4xx_StdPeriph_Driver/src/at32f4xx_rcc.c ****   tmpreg |= RCC_SYSCLKSelect;
 362              		.loc 1 379 0
 363 0008 1843     		orrs	r0, r0, r3
 364              	.LVL21:
 380:../Libraries/AT32F4xx_StdPeriph_Driver/src/at32f4xx_rcc.c ****   /* Store the new value */
 381:../Libraries/AT32F4xx_StdPeriph_Driver/src/at32f4xx_rcc.c ****   RCC->CFG = tmpreg;
 365              		.loc 1 381 0
 366 000a 5060     		str	r0, [r2, #4]
 382:../Libraries/AT32F4xx_StdPeriph_Driver/src/at32f4xx_rcc.c **** }
 367              		.loc 1 382 0
 368 000c 7047     		bx	lr
 369              	.L28:
 370 000e 00BF     		.align	2
 371              	.L27:
 372 0010 00100240 		.word	1073876992
 373              		.cfi_endproc
 374              	.LFE131:
ARM GAS  /var/folders/l3/4y5292px21b4835bsnjwqc7w009kq1/T//ccVOQnT7.s 			page 14


 375              		.cantunwind
 376              		.fnend
 378              		.section	.text.RCC_GetSYSCLKSelction,"ax",%progbits
 379              		.align	1
 380              		.global	RCC_GetSYSCLKSelction
 381              		.syntax unified
 382              		.thumb
 383              		.thumb_func
 384              		.fpu fpv4-sp-d16
 386              	RCC_GetSYSCLKSelction:
 387              		.fnstart
 388              	.LFB132:
 383:../Libraries/AT32F4xx_StdPeriph_Driver/src/at32f4xx_rcc.c **** 
 384:../Libraries/AT32F4xx_StdPeriph_Driver/src/at32f4xx_rcc.c **** /**
 385:../Libraries/AT32F4xx_StdPeriph_Driver/src/at32f4xx_rcc.c ****   * @brief  Returns the clock source used as system clock.
 386:../Libraries/AT32F4xx_StdPeriph_Driver/src/at32f4xx_rcc.c ****   * @param  None
 387:../Libraries/AT32F4xx_StdPeriph_Driver/src/at32f4xx_rcc.c ****   * @retval The clock source used as system clock. The returned value can
 388:../Libraries/AT32F4xx_StdPeriph_Driver/src/at32f4xx_rcc.c ****   *   be one of the following:
 389:../Libraries/AT32F4xx_StdPeriph_Driver/src/at32f4xx_rcc.c ****   *     - 0x00: HSI used as system clock
 390:../Libraries/AT32F4xx_StdPeriph_Driver/src/at32f4xx_rcc.c ****   *     - 0x04: HSE used as system clock
 391:../Libraries/AT32F4xx_StdPeriph_Driver/src/at32f4xx_rcc.c ****   *     - 0x08: PLL used as system clock
 392:../Libraries/AT32F4xx_StdPeriph_Driver/src/at32f4xx_rcc.c ****   */
 393:../Libraries/AT32F4xx_StdPeriph_Driver/src/at32f4xx_rcc.c **** uint8_t RCC_GetSYSCLKSelction(void)
 394:../Libraries/AT32F4xx_StdPeriph_Driver/src/at32f4xx_rcc.c **** {
 389              		.loc 1 394 0
 390              		.cfi_startproc
 391              		@ args = 0, pretend = 0, frame = 0
 392              		@ frame_needed = 0, uses_anonymous_args = 0
 393              		@ link register save eliminated.
 395:../Libraries/AT32F4xx_StdPeriph_Driver/src/at32f4xx_rcc.c ****   return ((uint8_t)(RCC->CFG & RCC_CFG_SYSCLKSTS));
 394              		.loc 1 395 0
 395 0000 024B     		ldr	r3, .L30
 396 0002 5868     		ldr	r0, [r3, #4]
 396:../Libraries/AT32F4xx_StdPeriph_Driver/src/at32f4xx_rcc.c **** }
 397              		.loc 1 396 0
 398 0004 00F00C00 		and	r0, r0, #12
 399 0008 7047     		bx	lr
 400              	.L31:
 401 000a 00BF     		.align	2
 402              	.L30:
 403 000c 00100240 		.word	1073876992
 404              		.cfi_endproc
 405              	.LFE132:
 406              		.cantunwind
 407              		.fnend
 409              		.section	.text.RCC_AHBCLKConfig,"ax",%progbits
 410              		.align	1
 411              		.global	RCC_AHBCLKConfig
 412              		.syntax unified
 413              		.thumb
 414              		.thumb_func
 415              		.fpu fpv4-sp-d16
 417              	RCC_AHBCLKConfig:
 418              		.fnstart
 419              	.LFB133:
 397:../Libraries/AT32F4xx_StdPeriph_Driver/src/at32f4xx_rcc.c **** 
 398:../Libraries/AT32F4xx_StdPeriph_Driver/src/at32f4xx_rcc.c **** /**
ARM GAS  /var/folders/l3/4y5292px21b4835bsnjwqc7w009kq1/T//ccVOQnT7.s 			page 15


 399:../Libraries/AT32F4xx_StdPeriph_Driver/src/at32f4xx_rcc.c ****   * @brief  Configures the AHB clock (HCLK).
 400:../Libraries/AT32F4xx_StdPeriph_Driver/src/at32f4xx_rcc.c ****   * @param  RCC_SYSCLK_Div: defines the AHB clock divider. This clock is derived from
 401:../Libraries/AT32F4xx_StdPeriph_Driver/src/at32f4xx_rcc.c ****   *   the system clock (SYSCLK).
 402:../Libraries/AT32F4xx_StdPeriph_Driver/src/at32f4xx_rcc.c ****   *   This parameter can be one of the following values:
 403:../Libraries/AT32F4xx_StdPeriph_Driver/src/at32f4xx_rcc.c ****   *     @arg RCC_SYSCLK_Div1: AHB clock = SYSCLK
 404:../Libraries/AT32F4xx_StdPeriph_Driver/src/at32f4xx_rcc.c ****   *     @arg RCC_SYSCLK_Div2: AHB clock = SYSCLK/2
 405:../Libraries/AT32F4xx_StdPeriph_Driver/src/at32f4xx_rcc.c ****   *     @arg RCC_SYSCLK_Div4: AHB clock = SYSCLK/4
 406:../Libraries/AT32F4xx_StdPeriph_Driver/src/at32f4xx_rcc.c ****   *     @arg RCC_SYSCLK_Div8: AHB clock = SYSCLK/8
 407:../Libraries/AT32F4xx_StdPeriph_Driver/src/at32f4xx_rcc.c ****   *     @arg RCC_SYSCLK_Div16: AHB clock = SYSCLK/16
 408:../Libraries/AT32F4xx_StdPeriph_Driver/src/at32f4xx_rcc.c ****   *     @arg RCC_SYSCLK_Div64: AHB clock = SYSCLK/64
 409:../Libraries/AT32F4xx_StdPeriph_Driver/src/at32f4xx_rcc.c ****   *     @arg RCC_SYSCLK_Div128: AHB clock = SYSCLK/128
 410:../Libraries/AT32F4xx_StdPeriph_Driver/src/at32f4xx_rcc.c ****   *     @arg RCC_SYSCLK_Div256: AHB clock = SYSCLK/256
 411:../Libraries/AT32F4xx_StdPeriph_Driver/src/at32f4xx_rcc.c ****   *     @arg RCC_SYSCLK_Div512: AHB clock = SYSCLK/512
 412:../Libraries/AT32F4xx_StdPeriph_Driver/src/at32f4xx_rcc.c ****   * @retval None
 413:../Libraries/AT32F4xx_StdPeriph_Driver/src/at32f4xx_rcc.c ****   */
 414:../Libraries/AT32F4xx_StdPeriph_Driver/src/at32f4xx_rcc.c **** void RCC_AHBCLKConfig(uint32_t RCC_SYSCLK_Div)
 415:../Libraries/AT32F4xx_StdPeriph_Driver/src/at32f4xx_rcc.c **** {
 420              		.loc 1 415 0
 421              		.cfi_startproc
 422              		@ args = 0, pretend = 0, frame = 0
 423              		@ frame_needed = 0, uses_anonymous_args = 0
 424              		@ link register save eliminated.
 425              	.LVL22:
 416:../Libraries/AT32F4xx_StdPeriph_Driver/src/at32f4xx_rcc.c ****   uint32_t tmpreg = 0;
 417:../Libraries/AT32F4xx_StdPeriph_Driver/src/at32f4xx_rcc.c ****   /* Check the parameters */
 418:../Libraries/AT32F4xx_StdPeriph_Driver/src/at32f4xx_rcc.c ****   assert_param(IS_RCC_AHBCLK(RCC_SYSCLK_Div));
 419:../Libraries/AT32F4xx_StdPeriph_Driver/src/at32f4xx_rcc.c ****   tmpreg = RCC->CFG;
 426              		.loc 1 419 0
 427 0000 034A     		ldr	r2, .L33
 428 0002 5368     		ldr	r3, [r2, #4]
 429              	.LVL23:
 420:../Libraries/AT32F4xx_StdPeriph_Driver/src/at32f4xx_rcc.c ****   /* Clear AHBPSC[3:0] bits */
 421:../Libraries/AT32F4xx_StdPeriph_Driver/src/at32f4xx_rcc.c ****   tmpreg &= ~RCC_CFG_AHBPSC;
 430              		.loc 1 421 0
 431 0004 23F0F003 		bic	r3, r3, #240
 432              	.LVL24:
 422:../Libraries/AT32F4xx_StdPeriph_Driver/src/at32f4xx_rcc.c ****   /* Set AHBPSC[3:0] bits according to RCC_SYSCLK_Div value */
 423:../Libraries/AT32F4xx_StdPeriph_Driver/src/at32f4xx_rcc.c ****   tmpreg |= RCC_SYSCLK_Div;
 433              		.loc 1 423 0
 434 0008 1843     		orrs	r0, r0, r3
 435              	.LVL25:
 424:../Libraries/AT32F4xx_StdPeriph_Driver/src/at32f4xx_rcc.c ****   /* Store the new value */
 425:../Libraries/AT32F4xx_StdPeriph_Driver/src/at32f4xx_rcc.c ****   RCC->CFG = tmpreg;
 436              		.loc 1 425 0
 437 000a 5060     		str	r0, [r2, #4]
 426:../Libraries/AT32F4xx_StdPeriph_Driver/src/at32f4xx_rcc.c **** }
 438              		.loc 1 426 0
 439 000c 7047     		bx	lr
 440              	.L34:
 441 000e 00BF     		.align	2
 442              	.L33:
 443 0010 00100240 		.word	1073876992
 444              		.cfi_endproc
 445              	.LFE133:
 446              		.cantunwind
 447              		.fnend
 449              		.section	.text.RCC_APB1CLKConfig,"ax",%progbits
ARM GAS  /var/folders/l3/4y5292px21b4835bsnjwqc7w009kq1/T//ccVOQnT7.s 			page 16


 450              		.align	1
 451              		.global	RCC_APB1CLKConfig
 452              		.syntax unified
 453              		.thumb
 454              		.thumb_func
 455              		.fpu fpv4-sp-d16
 457              	RCC_APB1CLKConfig:
 458              		.fnstart
 459              	.LFB134:
 427:../Libraries/AT32F4xx_StdPeriph_Driver/src/at32f4xx_rcc.c **** 
 428:../Libraries/AT32F4xx_StdPeriph_Driver/src/at32f4xx_rcc.c **** /**
 429:../Libraries/AT32F4xx_StdPeriph_Driver/src/at32f4xx_rcc.c ****   * @brief  Configures the Low Speed APB clock (PCLK1).
 430:../Libraries/AT32F4xx_StdPeriph_Driver/src/at32f4xx_rcc.c ****   * @param  RCC_HCLK_Div: defines the APB1 clock divider. This clock is derived from
 431:../Libraries/AT32F4xx_StdPeriph_Driver/src/at32f4xx_rcc.c ****   *   the AHB clock (HCLK).
 432:../Libraries/AT32F4xx_StdPeriph_Driver/src/at32f4xx_rcc.c ****   *   This parameter can be one of the following values:
 433:../Libraries/AT32F4xx_StdPeriph_Driver/src/at32f4xx_rcc.c ****   *     @arg RCC_AHBCLK_Div1: APB1 clock = HCLK
 434:../Libraries/AT32F4xx_StdPeriph_Driver/src/at32f4xx_rcc.c ****   *     @arg RCC_AHBCLK_Div2: APB1 clock = HCLK/2
 435:../Libraries/AT32F4xx_StdPeriph_Driver/src/at32f4xx_rcc.c ****   *     @arg RCC_AHBCLK_Div4: APB1 clock = HCLK/4
 436:../Libraries/AT32F4xx_StdPeriph_Driver/src/at32f4xx_rcc.c ****   *     @arg RCC_AHBCLK_Div8: APB1 clock = HCLK/8
 437:../Libraries/AT32F4xx_StdPeriph_Driver/src/at32f4xx_rcc.c ****   *     @arg RCC_AHBCLK_Div16: APB1 clock = HCLK/16
 438:../Libraries/AT32F4xx_StdPeriph_Driver/src/at32f4xx_rcc.c ****   * @retval None
 439:../Libraries/AT32F4xx_StdPeriph_Driver/src/at32f4xx_rcc.c ****   */
 440:../Libraries/AT32F4xx_StdPeriph_Driver/src/at32f4xx_rcc.c **** void RCC_APB1CLKConfig(uint32_t RCC_HCLK_Div)
 441:../Libraries/AT32F4xx_StdPeriph_Driver/src/at32f4xx_rcc.c **** {
 460              		.loc 1 441 0
 461              		.cfi_startproc
 462              		@ args = 0, pretend = 0, frame = 0
 463              		@ frame_needed = 0, uses_anonymous_args = 0
 464              		@ link register save eliminated.
 465              	.LVL26:
 442:../Libraries/AT32F4xx_StdPeriph_Driver/src/at32f4xx_rcc.c ****   uint32_t tmpreg = 0;
 443:../Libraries/AT32F4xx_StdPeriph_Driver/src/at32f4xx_rcc.c ****   /* Check the parameters */
 444:../Libraries/AT32F4xx_StdPeriph_Driver/src/at32f4xx_rcc.c ****   assert_param(IS_RCC_APBCLK(RCC_HCLK_Div));
 445:../Libraries/AT32F4xx_StdPeriph_Driver/src/at32f4xx_rcc.c ****   tmpreg = RCC->CFG;
 466              		.loc 1 445 0
 467 0000 034A     		ldr	r2, .L36
 468 0002 5368     		ldr	r3, [r2, #4]
 469              	.LVL27:
 446:../Libraries/AT32F4xx_StdPeriph_Driver/src/at32f4xx_rcc.c ****   /* Clear APB1PSC[2:0] bits */
 447:../Libraries/AT32F4xx_StdPeriph_Driver/src/at32f4xx_rcc.c ****   tmpreg &= ~RCC_CFG_APB1PSC;
 470              		.loc 1 447 0
 471 0004 23F4E063 		bic	r3, r3, #1792
 472              	.LVL28:
 448:../Libraries/AT32F4xx_StdPeriph_Driver/src/at32f4xx_rcc.c ****   /* Set APB1PSC[2:0] bits according to RCC_HCLK_Div value */
 449:../Libraries/AT32F4xx_StdPeriph_Driver/src/at32f4xx_rcc.c ****   tmpreg |= RCC_HCLK_Div;
 473              		.loc 1 449 0
 474 0008 1843     		orrs	r0, r0, r3
 475              	.LVL29:
 450:../Libraries/AT32F4xx_StdPeriph_Driver/src/at32f4xx_rcc.c ****   /* Store the new value */
 451:../Libraries/AT32F4xx_StdPeriph_Driver/src/at32f4xx_rcc.c ****   RCC->CFG = tmpreg;
 476              		.loc 1 451 0
 477 000a 5060     		str	r0, [r2, #4]
 452:../Libraries/AT32F4xx_StdPeriph_Driver/src/at32f4xx_rcc.c **** }
 478              		.loc 1 452 0
 479 000c 7047     		bx	lr
 480              	.L37:
 481 000e 00BF     		.align	2
ARM GAS  /var/folders/l3/4y5292px21b4835bsnjwqc7w009kq1/T//ccVOQnT7.s 			page 17


 482              	.L36:
 483 0010 00100240 		.word	1073876992
 484              		.cfi_endproc
 485              	.LFE134:
 486              		.cantunwind
 487              		.fnend
 489              		.section	.text.RCC_APB2CLKConfig,"ax",%progbits
 490              		.align	1
 491              		.global	RCC_APB2CLKConfig
 492              		.syntax unified
 493              		.thumb
 494              		.thumb_func
 495              		.fpu fpv4-sp-d16
 497              	RCC_APB2CLKConfig:
 498              		.fnstart
 499              	.LFB135:
 453:../Libraries/AT32F4xx_StdPeriph_Driver/src/at32f4xx_rcc.c **** 
 454:../Libraries/AT32F4xx_StdPeriph_Driver/src/at32f4xx_rcc.c **** /**
 455:../Libraries/AT32F4xx_StdPeriph_Driver/src/at32f4xx_rcc.c ****   * @brief  Configures the High Speed APB clock (PCLK2).
 456:../Libraries/AT32F4xx_StdPeriph_Driver/src/at32f4xx_rcc.c ****   * @param  RCC_HCLK_Div: defines the APB2 clock divider. This clock is derived from
 457:../Libraries/AT32F4xx_StdPeriph_Driver/src/at32f4xx_rcc.c ****   *   the AHB clock (HCLK).
 458:../Libraries/AT32F4xx_StdPeriph_Driver/src/at32f4xx_rcc.c ****   *   This parameter can be one of the following values:
 459:../Libraries/AT32F4xx_StdPeriph_Driver/src/at32f4xx_rcc.c ****   *     @arg RCC_AHBCLK_Div1: APB2 clock = HCLK
 460:../Libraries/AT32F4xx_StdPeriph_Driver/src/at32f4xx_rcc.c ****   *     @arg RCC_AHBCLK_Div2: APB2 clock = HCLK/2
 461:../Libraries/AT32F4xx_StdPeriph_Driver/src/at32f4xx_rcc.c ****   *     @arg RCC_AHBCLK_Div4: APB2 clock = HCLK/4
 462:../Libraries/AT32F4xx_StdPeriph_Driver/src/at32f4xx_rcc.c ****   *     @arg RCC_AHBCLK_Div8: APB2 clock = HCLK/8
 463:../Libraries/AT32F4xx_StdPeriph_Driver/src/at32f4xx_rcc.c ****   *     @arg RCC_AHBCLK_Div16: APB2 clock = HCLK/16
 464:../Libraries/AT32F4xx_StdPeriph_Driver/src/at32f4xx_rcc.c ****   * @retval None
 465:../Libraries/AT32F4xx_StdPeriph_Driver/src/at32f4xx_rcc.c ****   */
 466:../Libraries/AT32F4xx_StdPeriph_Driver/src/at32f4xx_rcc.c **** void RCC_APB2CLKConfig(uint32_t RCC_HCLK_Div)
 467:../Libraries/AT32F4xx_StdPeriph_Driver/src/at32f4xx_rcc.c **** {
 500              		.loc 1 467 0
 501              		.cfi_startproc
 502              		@ args = 0, pretend = 0, frame = 0
 503              		@ frame_needed = 0, uses_anonymous_args = 0
 504              		@ link register save eliminated.
 505              	.LVL30:
 468:../Libraries/AT32F4xx_StdPeriph_Driver/src/at32f4xx_rcc.c ****   uint32_t tmpreg = 0;
 469:../Libraries/AT32F4xx_StdPeriph_Driver/src/at32f4xx_rcc.c ****   /* Check the parameters */
 470:../Libraries/AT32F4xx_StdPeriph_Driver/src/at32f4xx_rcc.c ****   assert_param(IS_RCC_APBCLK(RCC_HCLK_Div));
 471:../Libraries/AT32F4xx_StdPeriph_Driver/src/at32f4xx_rcc.c ****   tmpreg = RCC->CFG;
 506              		.loc 1 471 0
 507 0000 034A     		ldr	r2, .L39
 508 0002 5368     		ldr	r3, [r2, #4]
 509              	.LVL31:
 472:../Libraries/AT32F4xx_StdPeriph_Driver/src/at32f4xx_rcc.c ****   /* Clear APB2PSC[2:0] bits */
 473:../Libraries/AT32F4xx_StdPeriph_Driver/src/at32f4xx_rcc.c ****   tmpreg &= ~RCC_CFG_APB2PSC;
 510              		.loc 1 473 0
 511 0004 23F46053 		bic	r3, r3, #14336
 512              	.LVL32:
 474:../Libraries/AT32F4xx_StdPeriph_Driver/src/at32f4xx_rcc.c ****   /* Set APB2PSC[2:0] bits according to RCC_HCLK_Div value */
 475:../Libraries/AT32F4xx_StdPeriph_Driver/src/at32f4xx_rcc.c ****   tmpreg |= RCC_HCLK_Div << 3;
 513              		.loc 1 475 0
 514 0008 43EAC000 		orr	r0, r3, r0, lsl #3
 515              	.LVL33:
 476:../Libraries/AT32F4xx_StdPeriph_Driver/src/at32f4xx_rcc.c ****   /* Store the new value */
 477:../Libraries/AT32F4xx_StdPeriph_Driver/src/at32f4xx_rcc.c ****   RCC->CFG = tmpreg;
ARM GAS  /var/folders/l3/4y5292px21b4835bsnjwqc7w009kq1/T//ccVOQnT7.s 			page 18


 516              		.loc 1 477 0
 517 000c 5060     		str	r0, [r2, #4]
 478:../Libraries/AT32F4xx_StdPeriph_Driver/src/at32f4xx_rcc.c **** }
 518              		.loc 1 478 0
 519 000e 7047     		bx	lr
 520              	.L40:
 521              		.align	2
 522              	.L39:
 523 0010 00100240 		.word	1073876992
 524              		.cfi_endproc
 525              	.LFE135:
 526              		.cantunwind
 527              		.fnend
 529              		.section	.text.RCC_INTConfig,"ax",%progbits
 530              		.align	1
 531              		.global	RCC_INTConfig
 532              		.syntax unified
 533              		.thumb
 534              		.thumb_func
 535              		.fpu fpv4-sp-d16
 537              	RCC_INTConfig:
 538              		.fnstart
 539              	.LFB136:
 479:../Libraries/AT32F4xx_StdPeriph_Driver/src/at32f4xx_rcc.c **** 
 480:../Libraries/AT32F4xx_StdPeriph_Driver/src/at32f4xx_rcc.c **** /**
 481:../Libraries/AT32F4xx_StdPeriph_Driver/src/at32f4xx_rcc.c ****   * @brief  Enables or disables the specified RCC interrupts.
 482:../Libraries/AT32F4xx_StdPeriph_Driver/src/at32f4xx_rcc.c ****   * @param  RCC_INT: specifies the RCC interrupt sources to be enabled or disabled.
 483:../Libraries/AT32F4xx_StdPeriph_Driver/src/at32f4xx_rcc.c ****   *   this parameter can be any combination of the following values.
 484:../Libraries/AT32F4xx_StdPeriph_Driver/src/at32f4xx_rcc.c ****   *     @arg RCC_INT_LSISTBL: LSI ready interrupt
 485:../Libraries/AT32F4xx_StdPeriph_Driver/src/at32f4xx_rcc.c ****   *     @arg RCC_INT_LSESTBL: LSE ready interrupt
 486:../Libraries/AT32F4xx_StdPeriph_Driver/src/at32f4xx_rcc.c ****   *     @arg RCC_INT_HSISTBL: HSI ready interrupt
 487:../Libraries/AT32F4xx_StdPeriph_Driver/src/at32f4xx_rcc.c ****   *     @arg RCC_INT_HSESTBL: HSE ready interrupt
 488:../Libraries/AT32F4xx_StdPeriph_Driver/src/at32f4xx_rcc.c ****   *     @arg RCC_INT_PLLSTBL: PLL ready interrupt
 489:../Libraries/AT32F4xx_StdPeriph_Driver/src/at32f4xx_rcc.c ****   *
 490:../Libraries/AT32F4xx_StdPeriph_Driver/src/at32f4xx_rcc.c ****   * @param  NewState: new state of the specified RCC interrupts.
 491:../Libraries/AT32F4xx_StdPeriph_Driver/src/at32f4xx_rcc.c ****   *   This parameter can be: ENABLE or DISABLE.
 492:../Libraries/AT32F4xx_StdPeriph_Driver/src/at32f4xx_rcc.c ****   * @retval None
 493:../Libraries/AT32F4xx_StdPeriph_Driver/src/at32f4xx_rcc.c ****   */
 494:../Libraries/AT32F4xx_StdPeriph_Driver/src/at32f4xx_rcc.c **** void RCC_INTConfig(uint8_t RCC_INT, FunctionalState NewState)
 495:../Libraries/AT32F4xx_StdPeriph_Driver/src/at32f4xx_rcc.c **** {
 540              		.loc 1 495 0
 541              		.cfi_startproc
 542              		@ args = 0, pretend = 0, frame = 0
 543              		@ frame_needed = 0, uses_anonymous_args = 0
 544              		@ link register save eliminated.
 545              	.LVL34:
 496:../Libraries/AT32F4xx_StdPeriph_Driver/src/at32f4xx_rcc.c ****   /* Check the parameters */
 497:../Libraries/AT32F4xx_StdPeriph_Driver/src/at32f4xx_rcc.c ****   assert_param(IS_RCC_INT_EN(RCC_INT));
 498:../Libraries/AT32F4xx_StdPeriph_Driver/src/at32f4xx_rcc.c ****   assert_param(IS_FUNCTIONAL_STATE(NewState));
 499:../Libraries/AT32F4xx_StdPeriph_Driver/src/at32f4xx_rcc.c **** 
 500:../Libraries/AT32F4xx_StdPeriph_Driver/src/at32f4xx_rcc.c ****   if (NewState != DISABLE)
 546              		.loc 1 500 0
 547 0000 29B9     		cbnz	r1, .L44
 501:../Libraries/AT32F4xx_StdPeriph_Driver/src/at32f4xx_rcc.c ****   {
 502:../Libraries/AT32F4xx_StdPeriph_Driver/src/at32f4xx_rcc.c ****     /* Perform Byte access to RCC_CLKINT bits to enable the selected interrupts */
 503:../Libraries/AT32F4xx_StdPeriph_Driver/src/at32f4xx_rcc.c ****     *(__IO uint8_t *) CLKINT_BYTE2_EN_ADDR |= RCC_INT;
 504:../Libraries/AT32F4xx_StdPeriph_Driver/src/at32f4xx_rcc.c ****   }
ARM GAS  /var/folders/l3/4y5292px21b4835bsnjwqc7w009kq1/T//ccVOQnT7.s 			page 19


 505:../Libraries/AT32F4xx_StdPeriph_Driver/src/at32f4xx_rcc.c ****   else
 506:../Libraries/AT32F4xx_StdPeriph_Driver/src/at32f4xx_rcc.c ****   {
 507:../Libraries/AT32F4xx_StdPeriph_Driver/src/at32f4xx_rcc.c ****     /* Perform Byte access to RCC_CLKINT bits to disable the selected interrupts */
 508:../Libraries/AT32F4xx_StdPeriph_Driver/src/at32f4xx_rcc.c ****     *(__IO uint8_t *) CLKINT_BYTE2_EN_ADDR &= (uint8_t)~RCC_INT;
 548              		.loc 1 508 0
 549 0002 054A     		ldr	r2, .L45
 550 0004 1378     		ldrb	r3, [r2]	@ zero_extendqisi2
 551 0006 23EA0000 		bic	r0, r3, r0
 552              	.LVL35:
 553 000a 1070     		strb	r0, [r2]
 509:../Libraries/AT32F4xx_StdPeriph_Driver/src/at32f4xx_rcc.c ****   }
 510:../Libraries/AT32F4xx_StdPeriph_Driver/src/at32f4xx_rcc.c **** }
 554              		.loc 1 510 0
 555 000c 7047     		bx	lr
 556              	.LVL36:
 557              	.L44:
 503:../Libraries/AT32F4xx_StdPeriph_Driver/src/at32f4xx_rcc.c ****   }
 558              		.loc 1 503 0
 559 000e 024A     		ldr	r2, .L45
 560 0010 1378     		ldrb	r3, [r2]	@ zero_extendqisi2
 561 0012 1843     		orrs	r0, r0, r3
 562              	.LVL37:
 563 0014 1070     		strb	r0, [r2]
 564 0016 7047     		bx	lr
 565              	.L46:
 566              		.align	2
 567              	.L45:
 568 0018 09100240 		.word	1073877001
 569              		.cfi_endproc
 570              	.LFE136:
 571              		.cantunwind
 572              		.fnend
 574              		.section	.text.RCC_USBCLKConfig,"ax",%progbits
 575              		.align	1
 576              		.global	RCC_USBCLKConfig
 577              		.syntax unified
 578              		.thumb
 579              		.thumb_func
 580              		.fpu fpv4-sp-d16
 582              	RCC_USBCLKConfig:
 583              		.fnstart
 584              	.LFB137:
 511:../Libraries/AT32F4xx_StdPeriph_Driver/src/at32f4xx_rcc.c **** 
 512:../Libraries/AT32F4xx_StdPeriph_Driver/src/at32f4xx_rcc.c **** /**
 513:../Libraries/AT32F4xx_StdPeriph_Driver/src/at32f4xx_rcc.c ****   * @brief  Configures the USB clock (USBCLK).
 514:../Libraries/AT32F4xx_StdPeriph_Driver/src/at32f4xx_rcc.c ****   * @param  RCC_USBCLKSelect: specifies the USB clock source. This clock is
 515:../Libraries/AT32F4xx_StdPeriph_Driver/src/at32f4xx_rcc.c ****   *   derived from the PLL output.
 516:../Libraries/AT32F4xx_StdPeriph_Driver/src/at32f4xx_rcc.c ****   *   This parameter can be one of the following values:
 517:../Libraries/AT32F4xx_StdPeriph_Driver/src/at32f4xx_rcc.c ****   *     @arg RCC_USBCLKSelection_PLL_Div1_5:  PLL clock divided by 1.5 selected as USB clock source
 518:../Libraries/AT32F4xx_StdPeriph_Driver/src/at32f4xx_rcc.c ****   *     @arg RCC_USBCLKSelection_PLL_Div1:    PLL clock selected as USB clock source
 519:../Libraries/AT32F4xx_StdPeriph_Driver/src/at32f4xx_rcc.c ****   *     @arg RCC_USBCLKSelection_PLL_Div2_5:  PLL clock divided by 2.5 selected as USB clock source
 520:../Libraries/AT32F4xx_StdPeriph_Driver/src/at32f4xx_rcc.c ****   *     @arg RCC_USBCLKSelection_PLL_Div2:    PLL clock divided by 2 selected as USB clock source
 521:../Libraries/AT32F4xx_StdPeriph_Driver/src/at32f4xx_rcc.c ****   *     @arg RCC_USBCLKSelection_PLL_Div3_5:  PLL clock divided by 3.5 selected as USB clock source
 522:../Libraries/AT32F4xx_StdPeriph_Driver/src/at32f4xx_rcc.c ****   *     @arg RCC_USBCLKSelection_PLL_Div3:    PLL clock divided by 3 selected as USB clock source
 523:../Libraries/AT32F4xx_StdPeriph_Driver/src/at32f4xx_rcc.c ****   *     @arg RCC_USBCLKSelection_PLL_Div4:    PLL clock divided by 4 selected as USB clock source
 524:../Libraries/AT32F4xx_StdPeriph_Driver/src/at32f4xx_rcc.c ****   * @retval None
 525:../Libraries/AT32F4xx_StdPeriph_Driver/src/at32f4xx_rcc.c ****   */
ARM GAS  /var/folders/l3/4y5292px21b4835bsnjwqc7w009kq1/T//ccVOQnT7.s 			page 20


 526:../Libraries/AT32F4xx_StdPeriph_Driver/src/at32f4xx_rcc.c **** void RCC_USBCLKConfig(uint32_t RCC_USBCLKSelect)
 527:../Libraries/AT32F4xx_StdPeriph_Driver/src/at32f4xx_rcc.c **** {
 585              		.loc 1 527 0
 586              		.cfi_startproc
 587              		@ args = 0, pretend = 0, frame = 0
 588              		@ frame_needed = 0, uses_anonymous_args = 0
 589              		@ link register save eliminated.
 590              	.LVL38:
 528:../Libraries/AT32F4xx_StdPeriph_Driver/src/at32f4xx_rcc.c ****   uint32_t tmpreg = 0;
 529:../Libraries/AT32F4xx_StdPeriph_Driver/src/at32f4xx_rcc.c **** 
 530:../Libraries/AT32F4xx_StdPeriph_Driver/src/at32f4xx_rcc.c ****   /* Check the parameters */
 531:../Libraries/AT32F4xx_StdPeriph_Driver/src/at32f4xx_rcc.c ****   assert_param(IS_RCC_USBCLK_CFG(RCC_USBCLKSelect));
 532:../Libraries/AT32F4xx_StdPeriph_Driver/src/at32f4xx_rcc.c **** 
 533:../Libraries/AT32F4xx_StdPeriph_Driver/src/at32f4xx_rcc.c ****   tmpreg = RCC->CFG;
 591              		.loc 1 533 0
 592 0000 034A     		ldr	r2, .L48
 593 0002 5368     		ldr	r3, [r2, #4]
 594              	.LVL39:
 534:../Libraries/AT32F4xx_StdPeriph_Driver/src/at32f4xx_rcc.c ****   /* Clear USBPSC[2:0] bits */
 535:../Libraries/AT32F4xx_StdPeriph_Driver/src/at32f4xx_rcc.c ****   tmpreg &= ~RCC_CFG_USBPSC;
 595              		.loc 1 535 0
 596 0004 23F00C63 		bic	r3, r3, #146800640
 597              	.LVL40:
 536:../Libraries/AT32F4xx_StdPeriph_Driver/src/at32f4xx_rcc.c ****   /* Set USBPSC[2:0] bits according to RCC_USBCLKSelect value */
 537:../Libraries/AT32F4xx_StdPeriph_Driver/src/at32f4xx_rcc.c ****   tmpreg |= RCC_USBCLKSelect;
 598              		.loc 1 537 0
 599 0008 1843     		orrs	r0, r0, r3
 600              	.LVL41:
 538:../Libraries/AT32F4xx_StdPeriph_Driver/src/at32f4xx_rcc.c ****   /* Store the new value */
 539:../Libraries/AT32F4xx_StdPeriph_Driver/src/at32f4xx_rcc.c ****   RCC->CFG = tmpreg;
 601              		.loc 1 539 0
 602 000a 5060     		str	r0, [r2, #4]
 540:../Libraries/AT32F4xx_StdPeriph_Driver/src/at32f4xx_rcc.c **** }
 603              		.loc 1 540 0
 604 000c 7047     		bx	lr
 605              	.L49:
 606 000e 00BF     		.align	2
 607              	.L48:
 608 0010 00100240 		.word	1073876992
 609              		.cfi_endproc
 610              	.LFE137:
 611              		.cantunwind
 612              		.fnend
 614              		.section	.text.RCC_ADCCLKConfig,"ax",%progbits
 615              		.align	1
 616              		.global	RCC_ADCCLKConfig
 617              		.syntax unified
 618              		.thumb
 619              		.thumb_func
 620              		.fpu fpv4-sp-d16
 622              	RCC_ADCCLKConfig:
 623              		.fnstart
 624              	.LFB138:
 541:../Libraries/AT32F4xx_StdPeriph_Driver/src/at32f4xx_rcc.c **** 
 542:../Libraries/AT32F4xx_StdPeriph_Driver/src/at32f4xx_rcc.c **** /**
 543:../Libraries/AT32F4xx_StdPeriph_Driver/src/at32f4xx_rcc.c ****   * @brief  Configures the ADC clock (ADCCLK).
 544:../Libraries/AT32F4xx_StdPeriph_Driver/src/at32f4xx_rcc.c ****   * @param  RCC_PCLK2_Div: defines the ADC clock divider. This clock is derived from
ARM GAS  /var/folders/l3/4y5292px21b4835bsnjwqc7w009kq1/T//ccVOQnT7.s 			page 21


 545:../Libraries/AT32F4xx_StdPeriph_Driver/src/at32f4xx_rcc.c ****   *   the APB2 clock (PCLK2).
 546:../Libraries/AT32F4xx_StdPeriph_Driver/src/at32f4xx_rcc.c ****   *   This parameter can be one of the following values:
 547:../Libraries/AT32F4xx_StdPeriph_Driver/src/at32f4xx_rcc.c ****   *     @arg RCC_APB2CLK_Div2:  ADC clock = PCLK2/2
 548:../Libraries/AT32F4xx_StdPeriph_Driver/src/at32f4xx_rcc.c ****   *     @arg RCC_APB2CLK_Div4:  ADC clock = PCLK2/4
 549:../Libraries/AT32F4xx_StdPeriph_Driver/src/at32f4xx_rcc.c ****   *     @arg RCC_APB2CLK_Div6:  ADC clock = PCLK2/6
 550:../Libraries/AT32F4xx_StdPeriph_Driver/src/at32f4xx_rcc.c ****   *     @arg RCC_APB2CLK_Div8:  ADC clock = PCLK2/8
 551:../Libraries/AT32F4xx_StdPeriph_Driver/src/at32f4xx_rcc.c ****   *     @arg RCC_APB2CLK_Div12: ADC clock = PCLK2/12
 552:../Libraries/AT32F4xx_StdPeriph_Driver/src/at32f4xx_rcc.c ****   *     @arg RCC_APB2CLK_Div16: ADC clock = PCLK2/16
 553:../Libraries/AT32F4xx_StdPeriph_Driver/src/at32f4xx_rcc.c ****   * @retval None
 554:../Libraries/AT32F4xx_StdPeriph_Driver/src/at32f4xx_rcc.c ****   */
 555:../Libraries/AT32F4xx_StdPeriph_Driver/src/at32f4xx_rcc.c **** void RCC_ADCCLKConfig(uint32_t RCC_PCLK2_Div)
 556:../Libraries/AT32F4xx_StdPeriph_Driver/src/at32f4xx_rcc.c **** {
 625              		.loc 1 556 0
 626              		.cfi_startproc
 627              		@ args = 0, pretend = 0, frame = 0
 628              		@ frame_needed = 0, uses_anonymous_args = 0
 629              		@ link register save eliminated.
 630              	.LVL42:
 557:../Libraries/AT32F4xx_StdPeriph_Driver/src/at32f4xx_rcc.c ****   uint32_t tmpreg = 0;
 558:../Libraries/AT32F4xx_StdPeriph_Driver/src/at32f4xx_rcc.c ****   /* Check the parameters */
 559:../Libraries/AT32F4xx_StdPeriph_Driver/src/at32f4xx_rcc.c ****   assert_param(IS_RCC_ADCCLK(RCC_PCLK2_Div));
 560:../Libraries/AT32F4xx_StdPeriph_Driver/src/at32f4xx_rcc.c ****   tmpreg = RCC->CFG;
 631              		.loc 1 560 0
 632 0000 044A     		ldr	r2, .L51
 633 0002 5368     		ldr	r3, [r2, #4]
 634              	.LVL43:
 561:../Libraries/AT32F4xx_StdPeriph_Driver/src/at32f4xx_rcc.c ****   /* Clear ADCPSC[2:0] bits */
 562:../Libraries/AT32F4xx_StdPeriph_Driver/src/at32f4xx_rcc.c ****   tmpreg &= CFG_ADCPSC_Rst_Mask;
 635              		.loc 1 562 0
 636 0004 23F08053 		bic	r3, r3, #268435456
 637              	.LVL44:
 638 0008 23F44043 		bic	r3, r3, #49152
 639              	.LVL45:
 563:../Libraries/AT32F4xx_StdPeriph_Driver/src/at32f4xx_rcc.c ****   /* Set ADCPSC[2:0] bits according to RCC_PCLK2_Div value */
 564:../Libraries/AT32F4xx_StdPeriph_Driver/src/at32f4xx_rcc.c ****   tmpreg |= RCC_PCLK2_Div;
 640              		.loc 1 564 0
 641 000c 1843     		orrs	r0, r0, r3
 642              	.LVL46:
 565:../Libraries/AT32F4xx_StdPeriph_Driver/src/at32f4xx_rcc.c ****   /* Store the new value */
 566:../Libraries/AT32F4xx_StdPeriph_Driver/src/at32f4xx_rcc.c ****   RCC->CFG = tmpreg;
 643              		.loc 1 566 0
 644 000e 5060     		str	r0, [r2, #4]
 567:../Libraries/AT32F4xx_StdPeriph_Driver/src/at32f4xx_rcc.c **** }
 645              		.loc 1 567 0
 646 0010 7047     		bx	lr
 647              	.L52:
 648 0012 00BF     		.align	2
 649              	.L51:
 650 0014 00100240 		.word	1073876992
 651              		.cfi_endproc
 652              	.LFE138:
 653              		.cantunwind
 654              		.fnend
 656              		.section	.text.RCC_LSEConfig,"ax",%progbits
 657              		.align	1
 658              		.global	RCC_LSEConfig
 659              		.syntax unified
ARM GAS  /var/folders/l3/4y5292px21b4835bsnjwqc7w009kq1/T//ccVOQnT7.s 			page 22


 660              		.thumb
 661              		.thumb_func
 662              		.fpu fpv4-sp-d16
 664              	RCC_LSEConfig:
 665              		.fnstart
 666              	.LFB139:
 568:../Libraries/AT32F4xx_StdPeriph_Driver/src/at32f4xx_rcc.c **** 
 569:../Libraries/AT32F4xx_StdPeriph_Driver/src/at32f4xx_rcc.c **** /**
 570:../Libraries/AT32F4xx_StdPeriph_Driver/src/at32f4xx_rcc.c ****   * @brief  Configures the External Low Speed oscillator (LSE).
 571:../Libraries/AT32F4xx_StdPeriph_Driver/src/at32f4xx_rcc.c ****   * @param  RCC_LSE: specifies the new state of the LSE.
 572:../Libraries/AT32F4xx_StdPeriph_Driver/src/at32f4xx_rcc.c ****   *   This parameter can be one of the following values:
 573:../Libraries/AT32F4xx_StdPeriph_Driver/src/at32f4xx_rcc.c ****   *     @arg RCC_LSE_DISABLE: LSE oscillator OFF
 574:../Libraries/AT32F4xx_StdPeriph_Driver/src/at32f4xx_rcc.c ****   *     @arg RCC_LSE_ENABLE:  LSE oscillator ON
 575:../Libraries/AT32F4xx_StdPeriph_Driver/src/at32f4xx_rcc.c ****   *     @arg RCC_LSE_BYPASS:  LSE oscillator bypassed with external clock
 576:../Libraries/AT32F4xx_StdPeriph_Driver/src/at32f4xx_rcc.c ****   * @retval None  
 577:../Libraries/AT32F4xx_StdPeriph_Driver/src/at32f4xx_rcc.c ****   */
 578:../Libraries/AT32F4xx_StdPeriph_Driver/src/at32f4xx_rcc.c **** void RCC_LSEConfig(uint8_t RCC_LSE)
 579:../Libraries/AT32F4xx_StdPeriph_Driver/src/at32f4xx_rcc.c **** {
 667              		.loc 1 579 0
 668              		.cfi_startproc
 669              		@ args = 0, pretend = 0, frame = 0
 670              		@ frame_needed = 0, uses_anonymous_args = 0
 671              		@ link register save eliminated.
 672              	.LVL47:
 580:../Libraries/AT32F4xx_StdPeriph_Driver/src/at32f4xx_rcc.c ****   /* Check the parameters */
 581:../Libraries/AT32F4xx_StdPeriph_Driver/src/at32f4xx_rcc.c ****   assert_param(IS_RCC_LSE(RCC_LSE));
 582:../Libraries/AT32F4xx_StdPeriph_Driver/src/at32f4xx_rcc.c ****   /* Reset LSEEN and LSEBYPS bits before configuring the LSE ------------------*/
 583:../Libraries/AT32F4xx_StdPeriph_Driver/src/at32f4xx_rcc.c ****   /* Reset LSEEN bit */
 584:../Libraries/AT32F4xx_StdPeriph_Driver/src/at32f4xx_rcc.c ****   *(__IO uint8_t *) BDC_BYTE0_LSE_ADDR = RCC_LSE_DISABLE;
 673              		.loc 1 584 0
 674 0000 084B     		ldr	r3, .L57
 675 0002 0022     		movs	r2, #0
 676 0004 1A70     		strb	r2, [r3]
 585:../Libraries/AT32F4xx_StdPeriph_Driver/src/at32f4xx_rcc.c ****   /* Reset LSEBYPS bit */
 586:../Libraries/AT32F4xx_StdPeriph_Driver/src/at32f4xx_rcc.c ****   *(__IO uint8_t *) BDC_BYTE0_LSE_ADDR = RCC_LSE_DISABLE;
 677              		.loc 1 586 0
 678 0006 1A70     		strb	r2, [r3]
 587:../Libraries/AT32F4xx_StdPeriph_Driver/src/at32f4xx_rcc.c **** 
 588:../Libraries/AT32F4xx_StdPeriph_Driver/src/at32f4xx_rcc.c ****   /* Configure LSE (RCC_LSE_DISABLE is already covered by the code section above) */
 589:../Libraries/AT32F4xx_StdPeriph_Driver/src/at32f4xx_rcc.c ****   switch(RCC_LSE)
 679              		.loc 1 589 0
 680 0008 0128     		cmp	r0, #1
 681 000a 02D0     		beq	.L55
 682 000c 0428     		cmp	r0, #4
 683 000e 04D0     		beq	.L56
 684 0010 7047     		bx	lr
 685              	.L55:
 590:../Libraries/AT32F4xx_StdPeriph_Driver/src/at32f4xx_rcc.c ****   {
 591:../Libraries/AT32F4xx_StdPeriph_Driver/src/at32f4xx_rcc.c ****   case RCC_LSE_ENABLE:
 592:../Libraries/AT32F4xx_StdPeriph_Driver/src/at32f4xx_rcc.c ****     /* Set LSEEN bit */
 593:../Libraries/AT32F4xx_StdPeriph_Driver/src/at32f4xx_rcc.c ****     *(__IO uint8_t *) BDC_BYTE0_LSE_ADDR = RCC_LSE_ENABLE;
 686              		.loc 1 593 0
 687 0012 044B     		ldr	r3, .L57
 688 0014 0122     		movs	r2, #1
 689 0016 1A70     		strb	r2, [r3]
 594:../Libraries/AT32F4xx_StdPeriph_Driver/src/at32f4xx_rcc.c ****     break;
 690              		.loc 1 594 0
ARM GAS  /var/folders/l3/4y5292px21b4835bsnjwqc7w009kq1/T//ccVOQnT7.s 			page 23


 691 0018 7047     		bx	lr
 692              	.L56:
 595:../Libraries/AT32F4xx_StdPeriph_Driver/src/at32f4xx_rcc.c **** 
 596:../Libraries/AT32F4xx_StdPeriph_Driver/src/at32f4xx_rcc.c ****   case RCC_LSE_BYPASS:
 597:../Libraries/AT32F4xx_StdPeriph_Driver/src/at32f4xx_rcc.c ****     /* Set LSEBYPS and LSEEN bits */
 598:../Libraries/AT32F4xx_StdPeriph_Driver/src/at32f4xx_rcc.c ****     *(__IO uint8_t *) BDC_BYTE0_LSE_ADDR = RCC_LSE_BYPASS | RCC_LSE_ENABLE;
 693              		.loc 1 598 0
 694 001a 024B     		ldr	r3, .L57
 695 001c 0522     		movs	r2, #5
 696 001e 1A70     		strb	r2, [r3]
 599:../Libraries/AT32F4xx_StdPeriph_Driver/src/at32f4xx_rcc.c ****     break;
 600:../Libraries/AT32F4xx_StdPeriph_Driver/src/at32f4xx_rcc.c **** 
 601:../Libraries/AT32F4xx_StdPeriph_Driver/src/at32f4xx_rcc.c ****   default:
 602:../Libraries/AT32F4xx_StdPeriph_Driver/src/at32f4xx_rcc.c ****     break;
 603:../Libraries/AT32F4xx_StdPeriph_Driver/src/at32f4xx_rcc.c ****   }
 604:../Libraries/AT32F4xx_StdPeriph_Driver/src/at32f4xx_rcc.c **** }
 697              		.loc 1 604 0
 698 0020 7047     		bx	lr
 699              	.L58:
 700 0022 00BF     		.align	2
 701              	.L57:
 702 0024 20100240 		.word	1073877024
 703              		.cfi_endproc
 704              	.LFE139:
 705              		.cantunwind
 706              		.fnend
 708              		.section	.text.RCC_LSICmd,"ax",%progbits
 709              		.align	1
 710              		.global	RCC_LSICmd
 711              		.syntax unified
 712              		.thumb
 713              		.thumb_func
 714              		.fpu fpv4-sp-d16
 716              	RCC_LSICmd:
 717              		.fnstart
 718              	.LFB140:
 605:../Libraries/AT32F4xx_StdPeriph_Driver/src/at32f4xx_rcc.c **** 
 606:../Libraries/AT32F4xx_StdPeriph_Driver/src/at32f4xx_rcc.c **** /**
 607:../Libraries/AT32F4xx_StdPeriph_Driver/src/at32f4xx_rcc.c ****   * @brief  Enables or disables the Internal Low Speed oscillator (LSI).
 608:../Libraries/AT32F4xx_StdPeriph_Driver/src/at32f4xx_rcc.c ****   * @note   LSI can not be disabled if the IWDG is running.
 609:../Libraries/AT32F4xx_StdPeriph_Driver/src/at32f4xx_rcc.c ****   * @param  NewState: new state of the LSI. This parameter can be: ENABLE or DISABLE.
 610:../Libraries/AT32F4xx_StdPeriph_Driver/src/at32f4xx_rcc.c ****   * @retval None
 611:../Libraries/AT32F4xx_StdPeriph_Driver/src/at32f4xx_rcc.c ****   */
 612:../Libraries/AT32F4xx_StdPeriph_Driver/src/at32f4xx_rcc.c **** void RCC_LSICmd(FunctionalState NewState)
 613:../Libraries/AT32F4xx_StdPeriph_Driver/src/at32f4xx_rcc.c **** {
 719              		.loc 1 613 0
 720              		.cfi_startproc
 721              		@ args = 0, pretend = 0, frame = 0
 722              		@ frame_needed = 0, uses_anonymous_args = 0
 723              		@ link register save eliminated.
 724              	.LVL48:
 614:../Libraries/AT32F4xx_StdPeriph_Driver/src/at32f4xx_rcc.c ****   /* Check the parameters */
 615:../Libraries/AT32F4xx_StdPeriph_Driver/src/at32f4xx_rcc.c ****   assert_param(IS_FUNCTIONAL_STATE(NewState));
 616:../Libraries/AT32F4xx_StdPeriph_Driver/src/at32f4xx_rcc.c ****   *(__IO uint32_t *) CTRLSTS_LSIEN_BB = (uint32_t)NewState;
 725              		.loc 1 616 0
 726 0000 014B     		ldr	r3, .L60
 727 0002 1860     		str	r0, [r3]
ARM GAS  /var/folders/l3/4y5292px21b4835bsnjwqc7w009kq1/T//ccVOQnT7.s 			page 24


 617:../Libraries/AT32F4xx_StdPeriph_Driver/src/at32f4xx_rcc.c **** }
 728              		.loc 1 617 0
 729 0004 7047     		bx	lr
 730              	.L61:
 731 0006 00BF     		.align	2
 732              	.L60:
 733 0008 80044242 		.word	1111622784
 734              		.cfi_endproc
 735              	.LFE140:
 736              		.cantunwind
 737              		.fnend
 739              		.section	.text.RCC_RTCCLKConfig,"ax",%progbits
 740              		.align	1
 741              		.global	RCC_RTCCLKConfig
 742              		.syntax unified
 743              		.thumb
 744              		.thumb_func
 745              		.fpu fpv4-sp-d16
 747              	RCC_RTCCLKConfig:
 748              		.fnstart
 749              	.LFB141:
 618:../Libraries/AT32F4xx_StdPeriph_Driver/src/at32f4xx_rcc.c **** 
 619:../Libraries/AT32F4xx_StdPeriph_Driver/src/at32f4xx_rcc.c **** /**
 620:../Libraries/AT32F4xx_StdPeriph_Driver/src/at32f4xx_rcc.c ****   * @brief  Configures the RTC clock (RTCCLK).
 621:../Libraries/AT32F4xx_StdPeriph_Driver/src/at32f4xx_rcc.c ****   * @note   Once the RTC clock is selected it can't be changed unless the Backup domain is reset.
 622:../Libraries/AT32F4xx_StdPeriph_Driver/src/at32f4xx_rcc.c ****   * @param  RCC_RTCCLKSelect: specifies the RTC clock source.
 623:../Libraries/AT32F4xx_StdPeriph_Driver/src/at32f4xx_rcc.c ****   *   This parameter can be one of the following values:
 624:../Libraries/AT32F4xx_StdPeriph_Driver/src/at32f4xx_rcc.c ****   *     @arg RCC_RTCCLKSelection_LSE: LSE selected as RTC clock
 625:../Libraries/AT32F4xx_StdPeriph_Driver/src/at32f4xx_rcc.c ****   *     @arg RCC_RTCCLKSelection_LSI: LSI selected as RTC clock
 626:../Libraries/AT32F4xx_StdPeriph_Driver/src/at32f4xx_rcc.c ****   *     @arg RCC_RTCCLKSelection_HSE_Div128: HSE clock divided by 128 selected as RTC clock
 627:../Libraries/AT32F4xx_StdPeriph_Driver/src/at32f4xx_rcc.c ****   * @retval None
 628:../Libraries/AT32F4xx_StdPeriph_Driver/src/at32f4xx_rcc.c ****   */
 629:../Libraries/AT32F4xx_StdPeriph_Driver/src/at32f4xx_rcc.c **** void RCC_RTCCLKConfig(uint32_t RCC_RTCCLKSelect)
 630:../Libraries/AT32F4xx_StdPeriph_Driver/src/at32f4xx_rcc.c **** {
 750              		.loc 1 630 0
 751              		.cfi_startproc
 752              		@ args = 0, pretend = 0, frame = 0
 753              		@ frame_needed = 0, uses_anonymous_args = 0
 754              		@ link register save eliminated.
 755              	.LVL49:
 631:../Libraries/AT32F4xx_StdPeriph_Driver/src/at32f4xx_rcc.c ****   /* Check the parameters */
 632:../Libraries/AT32F4xx_StdPeriph_Driver/src/at32f4xx_rcc.c ****   assert_param(IS_RCC_RTCCLK_SEL(RCC_RTCCLKSelect));
 633:../Libraries/AT32F4xx_StdPeriph_Driver/src/at32f4xx_rcc.c ****   /* Select the RTC clock source */
 634:../Libraries/AT32F4xx_StdPeriph_Driver/src/at32f4xx_rcc.c ****   RCC->BDC |= RCC_RTCCLKSelect;
 756              		.loc 1 634 0
 757 0000 024A     		ldr	r2, .L63
 758 0002 136A     		ldr	r3, [r2, #32]
 759 0004 1843     		orrs	r0, r0, r3
 760              	.LVL50:
 761 0006 1062     		str	r0, [r2, #32]
 635:../Libraries/AT32F4xx_StdPeriph_Driver/src/at32f4xx_rcc.c **** }
 762              		.loc 1 635 0
 763 0008 7047     		bx	lr
 764              	.L64:
 765 000a 00BF     		.align	2
 766              	.L63:
 767 000c 00100240 		.word	1073876992
ARM GAS  /var/folders/l3/4y5292px21b4835bsnjwqc7w009kq1/T//ccVOQnT7.s 			page 25


 768              		.cfi_endproc
 769              	.LFE141:
 770              		.cantunwind
 771              		.fnend
 773              		.section	.text.RCC_RTCCLKCmd,"ax",%progbits
 774              		.align	1
 775              		.global	RCC_RTCCLKCmd
 776              		.syntax unified
 777              		.thumb
 778              		.thumb_func
 779              		.fpu fpv4-sp-d16
 781              	RCC_RTCCLKCmd:
 782              		.fnstart
 783              	.LFB142:
 636:../Libraries/AT32F4xx_StdPeriph_Driver/src/at32f4xx_rcc.c **** 
 637:../Libraries/AT32F4xx_StdPeriph_Driver/src/at32f4xx_rcc.c **** /**
 638:../Libraries/AT32F4xx_StdPeriph_Driver/src/at32f4xx_rcc.c ****   * @brief  Enables or disables the RTC clock.
 639:../Libraries/AT32F4xx_StdPeriph_Driver/src/at32f4xx_rcc.c ****   * @note   This function must be used only after the RTC clock was selected using the RCC_RTCCLKCo
 640:../Libraries/AT32F4xx_StdPeriph_Driver/src/at32f4xx_rcc.c ****   * @param  NewState: new state of the RTC clock. This parameter can be: ENABLE or DISABLE.
 641:../Libraries/AT32F4xx_StdPeriph_Driver/src/at32f4xx_rcc.c ****   * @retval None
 642:../Libraries/AT32F4xx_StdPeriph_Driver/src/at32f4xx_rcc.c ****   */
 643:../Libraries/AT32F4xx_StdPeriph_Driver/src/at32f4xx_rcc.c **** void RCC_RTCCLKCmd(FunctionalState NewState)
 644:../Libraries/AT32F4xx_StdPeriph_Driver/src/at32f4xx_rcc.c **** {
 784              		.loc 1 644 0
 785              		.cfi_startproc
 786              		@ args = 0, pretend = 0, frame = 0
 787              		@ frame_needed = 0, uses_anonymous_args = 0
 788              		@ link register save eliminated.
 789              	.LVL51:
 645:../Libraries/AT32F4xx_StdPeriph_Driver/src/at32f4xx_rcc.c ****   /* Check the parameters */
 646:../Libraries/AT32F4xx_StdPeriph_Driver/src/at32f4xx_rcc.c ****   assert_param(IS_FUNCTIONAL_STATE(NewState));
 647:../Libraries/AT32F4xx_StdPeriph_Driver/src/at32f4xx_rcc.c ****   *(__IO uint32_t *) BDC_RTCEN_BB = (uint32_t)NewState;
 790              		.loc 1 647 0
 791 0000 014B     		ldr	r3, .L66
 792 0002 1860     		str	r0, [r3]
 648:../Libraries/AT32F4xx_StdPeriph_Driver/src/at32f4xx_rcc.c **** }
 793              		.loc 1 648 0
 794 0004 7047     		bx	lr
 795              	.L67:
 796 0006 00BF     		.align	2
 797              	.L66:
 798 0008 3C044242 		.word	1111622716
 799              		.cfi_endproc
 800              	.LFE142:
 801              		.cantunwind
 802              		.fnend
 804              		.section	.text.RCC_GetClocksFreq,"ax",%progbits
 805              		.align	1
 806              		.global	RCC_GetClocksFreq
 807              		.syntax unified
 808              		.thumb
 809              		.thumb_func
 810              		.fpu fpv4-sp-d16
 812              	RCC_GetClocksFreq:
 813              		.fnstart
 814              	.LFB143:
 649:../Libraries/AT32F4xx_StdPeriph_Driver/src/at32f4xx_rcc.c **** 
ARM GAS  /var/folders/l3/4y5292px21b4835bsnjwqc7w009kq1/T//ccVOQnT7.s 			page 26


 650:../Libraries/AT32F4xx_StdPeriph_Driver/src/at32f4xx_rcc.c **** /**
 651:../Libraries/AT32F4xx_StdPeriph_Driver/src/at32f4xx_rcc.c ****   * @brief  Returns the frequencies of different on chip clocks.
 652:../Libraries/AT32F4xx_StdPeriph_Driver/src/at32f4xx_rcc.c ****   * @param  RCC_Clocks: pointer to a RCC_ClockType structure which will hold
 653:../Libraries/AT32F4xx_StdPeriph_Driver/src/at32f4xx_rcc.c ****   *         the clocks frequencies.
 654:../Libraries/AT32F4xx_StdPeriph_Driver/src/at32f4xx_rcc.c ****   * @note   The result of this function could be not correct when using
 655:../Libraries/AT32F4xx_StdPeriph_Driver/src/at32f4xx_rcc.c ****   *         fractional value for HSE crystal.
 656:../Libraries/AT32F4xx_StdPeriph_Driver/src/at32f4xx_rcc.c ****   * @retval None
 657:../Libraries/AT32F4xx_StdPeriph_Driver/src/at32f4xx_rcc.c ****   */
 658:../Libraries/AT32F4xx_StdPeriph_Driver/src/at32f4xx_rcc.c **** void RCC_GetClocksFreq(RCC_ClockType* RCC_Clocks)
 659:../Libraries/AT32F4xx_StdPeriph_Driver/src/at32f4xx_rcc.c **** {
 815              		.loc 1 659 0
 816              		.cfi_startproc
 817              		@ args = 0, pretend = 0, frame = 0
 818              		@ frame_needed = 0, uses_anonymous_args = 0
 819              		@ link register save eliminated.
 820              	.LVL52:
 821 0000 10B4     		push	{r4}
 822              	.LCFI2:
 823              		.cfi_def_cfa_offset 4
 824              		.cfi_offset 4, -4
 825              	.LVL53:
 660:../Libraries/AT32F4xx_StdPeriph_Driver/src/at32f4xx_rcc.c ****   uint32_t tmp = 0, pllmult = 0, pllrefclk = 0, psc = 0;
 661:../Libraries/AT32F4xx_StdPeriph_Driver/src/at32f4xx_rcc.c **** 
 662:../Libraries/AT32F4xx_StdPeriph_Driver/src/at32f4xx_rcc.c ****   /* Get SYSCLK source -------------------------------------------------------*/
 663:../Libraries/AT32F4xx_StdPeriph_Driver/src/at32f4xx_rcc.c ****   tmp = RCC->CFG & RCC_CFG_SYSCLKSTS;
 826              		.loc 1 663 0
 827 0002 454B     		ldr	r3, .L91
 828 0004 5B68     		ldr	r3, [r3, #4]
 829 0006 03F00C03 		and	r3, r3, #12
 830              	.LVL54:
 664:../Libraries/AT32F4xx_StdPeriph_Driver/src/at32f4xx_rcc.c **** 
 665:../Libraries/AT32F4xx_StdPeriph_Driver/src/at32f4xx_rcc.c ****   switch (tmp)
 831              		.loc 1 665 0
 832 000a 042B     		cmp	r3, #4
 833 000c 44D0     		beq	.L70
 834 000e 082B     		cmp	r3, #8
 835 0010 45D0     		beq	.L71
 836 0012 13B1     		cbz	r3, .L89
 666:../Libraries/AT32F4xx_StdPeriph_Driver/src/at32f4xx_rcc.c ****   {
 667:../Libraries/AT32F4xx_StdPeriph_Driver/src/at32f4xx_rcc.c ****   case 0x00:  /* HSI used as system clock */
 668:../Libraries/AT32F4xx_StdPeriph_Driver/src/at32f4xx_rcc.c ****     RCC_Clocks->SYSCLK_Freq = HSI_VALUE;
 669:../Libraries/AT32F4xx_StdPeriph_Driver/src/at32f4xx_rcc.c ****     break;
 670:../Libraries/AT32F4xx_StdPeriph_Driver/src/at32f4xx_rcc.c **** 
 671:../Libraries/AT32F4xx_StdPeriph_Driver/src/at32f4xx_rcc.c ****   case 0x04:  /* HSE used as system clock */
 672:../Libraries/AT32F4xx_StdPeriph_Driver/src/at32f4xx_rcc.c ****     RCC_Clocks->SYSCLK_Freq = HSE_VALUE;
 673:../Libraries/AT32F4xx_StdPeriph_Driver/src/at32f4xx_rcc.c ****     break;
 674:../Libraries/AT32F4xx_StdPeriph_Driver/src/at32f4xx_rcc.c **** 
 675:../Libraries/AT32F4xx_StdPeriph_Driver/src/at32f4xx_rcc.c ****   case 0x08:  /* PLL used as system clock */
 676:../Libraries/AT32F4xx_StdPeriph_Driver/src/at32f4xx_rcc.c **** 
 677:../Libraries/AT32F4xx_StdPeriph_Driver/src/at32f4xx_rcc.c ****     /* Get PLL clock source and multiplication factor ----------------------*/
 678:../Libraries/AT32F4xx_StdPeriph_Driver/src/at32f4xx_rcc.c ****     pllmult = BIT_READ(RCC->CFG, RCC_CFG_PLLMULT);
 679:../Libraries/AT32F4xx_StdPeriph_Driver/src/at32f4xx_rcc.c ****     pllrefclk = RCC->CFG & RCC_CFG_PLLRC;
 680:../Libraries/AT32F4xx_StdPeriph_Driver/src/at32f4xx_rcc.c ****     pllmult = RCC_GET_PLLMULT(pllmult);
 681:../Libraries/AT32F4xx_StdPeriph_Driver/src/at32f4xx_rcc.c **** 
 682:../Libraries/AT32F4xx_StdPeriph_Driver/src/at32f4xx_rcc.c ****     if (pllrefclk == 0x00)
 683:../Libraries/AT32F4xx_StdPeriph_Driver/src/at32f4xx_rcc.c ****     {
 684:../Libraries/AT32F4xx_StdPeriph_Driver/src/at32f4xx_rcc.c ****       /* HSI oscillator clock divided by 2 selected as PLL clock entry */
ARM GAS  /var/folders/l3/4y5292px21b4835bsnjwqc7w009kq1/T//ccVOQnT7.s 			page 27


 685:../Libraries/AT32F4xx_StdPeriph_Driver/src/at32f4xx_rcc.c ****       RCC_Clocks->SYSCLK_Freq = (HSI_VALUE >> 1) * pllmult;
 686:../Libraries/AT32F4xx_StdPeriph_Driver/src/at32f4xx_rcc.c ****     }
 687:../Libraries/AT32F4xx_StdPeriph_Driver/src/at32f4xx_rcc.c ****     else
 688:../Libraries/AT32F4xx_StdPeriph_Driver/src/at32f4xx_rcc.c ****     {
 689:../Libraries/AT32F4xx_StdPeriph_Driver/src/at32f4xx_rcc.c ****       /* HSE selected as PLL clock entry */
 690:../Libraries/AT32F4xx_StdPeriph_Driver/src/at32f4xx_rcc.c ****       if ((RCC->CFG & RCC_CFG_PLLHSEPSC) != (uint32_t)RESET)
 691:../Libraries/AT32F4xx_StdPeriph_Driver/src/at32f4xx_rcc.c ****       {
 692:../Libraries/AT32F4xx_StdPeriph_Driver/src/at32f4xx_rcc.c ****         /* HSE oscillator clock divided by 2 */
 693:../Libraries/AT32F4xx_StdPeriph_Driver/src/at32f4xx_rcc.c ****         RCC_Clocks->SYSCLK_Freq = (HSE_VALUE >> 1) * pllmult;
 694:../Libraries/AT32F4xx_StdPeriph_Driver/src/at32f4xx_rcc.c ****       }
 695:../Libraries/AT32F4xx_StdPeriph_Driver/src/at32f4xx_rcc.c ****       else
 696:../Libraries/AT32F4xx_StdPeriph_Driver/src/at32f4xx_rcc.c ****       {
 697:../Libraries/AT32F4xx_StdPeriph_Driver/src/at32f4xx_rcc.c ****         RCC_Clocks->SYSCLK_Freq = HSE_VALUE * pllmult;
 698:../Libraries/AT32F4xx_StdPeriph_Driver/src/at32f4xx_rcc.c ****       }
 699:../Libraries/AT32F4xx_StdPeriph_Driver/src/at32f4xx_rcc.c ****     }
 700:../Libraries/AT32F4xx_StdPeriph_Driver/src/at32f4xx_rcc.c **** 
 701:../Libraries/AT32F4xx_StdPeriph_Driver/src/at32f4xx_rcc.c ****     if (((RCC->CFG & RCC_CFG_PLLRANGE) == 0) && (RCC_Clocks->SYSCLK_Freq > RCC_PLL_RANGE))
 702:../Libraries/AT32F4xx_StdPeriph_Driver/src/at32f4xx_rcc.c ****     {
 703:../Libraries/AT32F4xx_StdPeriph_Driver/src/at32f4xx_rcc.c ****       /* Not setup PLLRANGE, fixed in 72 MHz */
 704:../Libraries/AT32F4xx_StdPeriph_Driver/src/at32f4xx_rcc.c ****       RCC_Clocks->SYSCLK_Freq = RCC_PLL_RANGE;
 705:../Libraries/AT32F4xx_StdPeriph_Driver/src/at32f4xx_rcc.c ****     }
 706:../Libraries/AT32F4xx_StdPeriph_Driver/src/at32f4xx_rcc.c **** 
 707:../Libraries/AT32F4xx_StdPeriph_Driver/src/at32f4xx_rcc.c ****     break;
 708:../Libraries/AT32F4xx_StdPeriph_Driver/src/at32f4xx_rcc.c **** 
 709:../Libraries/AT32F4xx_StdPeriph_Driver/src/at32f4xx_rcc.c ****   default:
 710:../Libraries/AT32F4xx_StdPeriph_Driver/src/at32f4xx_rcc.c ****     RCC_Clocks->SYSCLK_Freq = HSI_VALUE;
 837              		.loc 1 710 0
 838 0014 414B     		ldr	r3, .L91+4
 839              	.LVL55:
 840 0016 0360     		str	r3, [r0]
 711:../Libraries/AT32F4xx_StdPeriph_Driver/src/at32f4xx_rcc.c ****     break;
 841              		.loc 1 711 0
 842 0018 01E0     		b	.L73
 843              	.LVL56:
 844              	.L89:
 668:../Libraries/AT32F4xx_StdPeriph_Driver/src/at32f4xx_rcc.c ****     break;
 845              		.loc 1 668 0
 846 001a 404B     		ldr	r3, .L91+4
 847              	.LVL57:
 848 001c 0360     		str	r3, [r0]
 849              	.LVL58:
 850              	.L73:
 712:../Libraries/AT32F4xx_StdPeriph_Driver/src/at32f4xx_rcc.c ****   }
 713:../Libraries/AT32F4xx_StdPeriph_Driver/src/at32f4xx_rcc.c **** 
 714:../Libraries/AT32F4xx_StdPeriph_Driver/src/at32f4xx_rcc.c ****   /* Compute HCLK, PCLK1, PCLK2 and ADCCLK clocks frequencies ----------------*/
 715:../Libraries/AT32F4xx_StdPeriph_Driver/src/at32f4xx_rcc.c ****   /* Get HCLK prescaler */
 716:../Libraries/AT32F4xx_StdPeriph_Driver/src/at32f4xx_rcc.c ****   tmp = (RCC->CFG & (RCC_CFG_AHBPSC ^ RCC_CFG_AHBPSC_3)) >> 4;
 851              		.loc 1 716 0
 852 001e 3E4A     		ldr	r2, .L91
 853 0020 5368     		ldr	r3, [r2, #4]
 854 0022 C3F30213 		ubfx	r3, r3, #4, #3
 855              	.LVL59:
 717:../Libraries/AT32F4xx_StdPeriph_Driver/src/at32f4xx_rcc.c ****   psc = (RCC->CFG & RCC_CFG_AHBPSC_3) ? APBAHBPscTable[tmp] : 0;
 856              		.loc 1 717 0
 857 0026 5268     		ldr	r2, [r2, #4]
 858 0028 12F0800F 		tst	r2, #128
 859 002c 6ED0     		beq	.L84
ARM GAS  /var/folders/l3/4y5292px21b4835bsnjwqc7w009kq1/T//ccVOQnT7.s 			page 28


 860              		.loc 1 717 0 is_stmt 0 discriminator 1
 861 002e 3C4A     		ldr	r2, .L91+8
 862 0030 D35C     		ldrb	r3, [r2, r3]	@ zero_extendqisi2
 863              	.LVL60:
 864 0032 DBB2     		uxtb	r3, r3
 865              	.L78:
 866              	.LVL61:
 718:../Libraries/AT32F4xx_StdPeriph_Driver/src/at32f4xx_rcc.c **** 
 719:../Libraries/AT32F4xx_StdPeriph_Driver/src/at32f4xx_rcc.c ****   /* HCLK clock frequency */
 720:../Libraries/AT32F4xx_StdPeriph_Driver/src/at32f4xx_rcc.c ****   RCC_Clocks->AHBCLK_Freq = RCC_Clocks->SYSCLK_Freq >> psc;
 867              		.loc 1 720 0 is_stmt 1 discriminator 4
 868 0034 0268     		ldr	r2, [r0]
 869 0036 22FA03F3 		lsr	r3, r2, r3
 870              	.LVL62:
 871 003a 4360     		str	r3, [r0, #4]
 721:../Libraries/AT32F4xx_StdPeriph_Driver/src/at32f4xx_rcc.c ****   /* Get PCLK1 prescaler */
 722:../Libraries/AT32F4xx_StdPeriph_Driver/src/at32f4xx_rcc.c ****   tmp = (RCC->CFG & (RCC_CFG_APB1PSC ^ RCC_CFG_APB1PSC_2)) >> 8;
 872              		.loc 1 722 0 discriminator 4
 873 003c 3649     		ldr	r1, .L91
 874 003e 4A68     		ldr	r2, [r1, #4]
 875 0040 C2F30122 		ubfx	r2, r2, #8, #2
 876              	.LVL63:
 723:../Libraries/AT32F4xx_StdPeriph_Driver/src/at32f4xx_rcc.c ****   psc = (RCC->CFG & RCC_CFG_APB1PSC_2) ? APBAHBPscTable[tmp] : 0;
 877              		.loc 1 723 0 discriminator 4
 878 0044 4968     		ldr	r1, [r1, #4]
 879 0046 11F4806F 		tst	r1, #1024
 880 004a 61D0     		beq	.L85
 881              		.loc 1 723 0 is_stmt 0 discriminator 1
 882 004c 3449     		ldr	r1, .L91+8
 883 004e 8A5C     		ldrb	r2, [r1, r2]	@ zero_extendqisi2
 884              	.LVL64:
 885 0050 D2B2     		uxtb	r2, r2
 886              	.L79:
 887              	.LVL65:
 724:../Libraries/AT32F4xx_StdPeriph_Driver/src/at32f4xx_rcc.c ****   /* PCLK1 clock frequency */
 725:../Libraries/AT32F4xx_StdPeriph_Driver/src/at32f4xx_rcc.c ****   RCC_Clocks->APB1CLK_Freq = RCC_Clocks->AHBCLK_Freq >> psc;
 888              		.loc 1 725 0 is_stmt 1 discriminator 4
 889 0052 23FA02F2 		lsr	r2, r3, r2
 890              	.LVL66:
 891 0056 8260     		str	r2, [r0, #8]
 726:../Libraries/AT32F4xx_StdPeriph_Driver/src/at32f4xx_rcc.c ****   /* Get PCLK2 prescaler */
 727:../Libraries/AT32F4xx_StdPeriph_Driver/src/at32f4xx_rcc.c ****   tmp = (RCC->CFG & (RCC_CFG_APB2PSC ^ RCC_CFG_APB2PSC_2)) >> 11;
 892              		.loc 1 727 0 discriminator 4
 893 0058 2F49     		ldr	r1, .L91
 894 005a 4A68     		ldr	r2, [r1, #4]
 895 005c C2F3C122 		ubfx	r2, r2, #11, #2
 896              	.LVL67:
 728:../Libraries/AT32F4xx_StdPeriph_Driver/src/at32f4xx_rcc.c ****   psc = (RCC->CFG & RCC_CFG_APB2PSC_2) ? APBAHBPscTable[tmp] : 0;
 897              		.loc 1 728 0 discriminator 4
 898 0060 4968     		ldr	r1, [r1, #4]
 899 0062 11F4005F 		tst	r1, #8192
 900 0066 55D0     		beq	.L86
 901              		.loc 1 728 0 is_stmt 0 discriminator 1
 902 0068 2D49     		ldr	r1, .L91+8
 903 006a 8A5C     		ldrb	r2, [r1, r2]	@ zero_extendqisi2
 904              	.LVL68:
 905 006c D2B2     		uxtb	r2, r2
ARM GAS  /var/folders/l3/4y5292px21b4835bsnjwqc7w009kq1/T//ccVOQnT7.s 			page 29


 906              	.L80:
 907              	.LVL69:
 729:../Libraries/AT32F4xx_StdPeriph_Driver/src/at32f4xx_rcc.c ****   /* PCLK2 clock frequency */
 730:../Libraries/AT32F4xx_StdPeriph_Driver/src/at32f4xx_rcc.c ****   RCC_Clocks->APB2CLK_Freq = RCC_Clocks->AHBCLK_Freq >> psc;
 908              		.loc 1 730 0 is_stmt 1 discriminator 4
 909 006e D340     		lsrs	r3, r3, r2
 910 0070 C360     		str	r3, [r0, #12]
 731:../Libraries/AT32F4xx_StdPeriph_Driver/src/at32f4xx_rcc.c **** 
 732:../Libraries/AT32F4xx_StdPeriph_Driver/src/at32f4xx_rcc.c ****   /* Get ADCCLK prescaler */
 733:../Libraries/AT32F4xx_StdPeriph_Driver/src/at32f4xx_rcc.c ****   tmp = (RCC->CFG & CFG_ADCPSC_Set_Mask) >> CFG_ADCPSC_Pos;
 911              		.loc 1 733 0 discriminator 4
 912 0072 2949     		ldr	r1, .L91
 913 0074 4A68     		ldr	r2, [r1, #4]
 914              	.LVL70:
 915 0076 C2F38132 		ubfx	r2, r2, #14, #2
 916              	.LVL71:
 734:../Libraries/AT32F4xx_StdPeriph_Driver/src/at32f4xx_rcc.c **** 
 735:../Libraries/AT32F4xx_StdPeriph_Driver/src/at32f4xx_rcc.c ****   if (RCC->CFG & CFG_ADCPSCBit2_Set_Mask)
 917              		.loc 1 735 0 discriminator 4
 918 007a 4968     		ldr	r1, [r1, #4]
 919 007c 11F0805F 		tst	r1, #268435456
 920 0080 01D0     		beq	.L81
 736:../Libraries/AT32F4xx_StdPeriph_Driver/src/at32f4xx_rcc.c ****   {
 737:../Libraries/AT32F4xx_StdPeriph_Driver/src/at32f4xx_rcc.c ****     tmp |= CFG_ADCPSCBit2_IdxMask;
 921              		.loc 1 737 0
 922 0082 42F00402 		orr	r2, r2, #4
 923              	.LVL72:
 924              	.L81:
 738:../Libraries/AT32F4xx_StdPeriph_Driver/src/at32f4xx_rcc.c ****   }
 739:../Libraries/AT32F4xx_StdPeriph_Driver/src/at32f4xx_rcc.c **** 
 740:../Libraries/AT32F4xx_StdPeriph_Driver/src/at32f4xx_rcc.c ****   psc = ADCPscTable[tmp];
 925              		.loc 1 740 0
 926 0086 2749     		ldr	r1, .L91+12
 927 0088 8A5C     		ldrb	r2, [r1, r2]	@ zero_extendqisi2
 928              	.LVL73:
 929 008a D2B2     		uxtb	r2, r2
 930              	.LVL74:
 741:../Libraries/AT32F4xx_StdPeriph_Driver/src/at32f4xx_rcc.c ****   /* ADCCLK clock frequency */
 742:../Libraries/AT32F4xx_StdPeriph_Driver/src/at32f4xx_rcc.c ****   RCC_Clocks->ADCCLK_Freq = RCC_Clocks->APB2CLK_Freq / psc;
 931              		.loc 1 742 0
 932 008c B3FBF2F3 		udiv	r3, r3, r2
 933 0090 0361     		str	r3, [r0, #16]
 743:../Libraries/AT32F4xx_StdPeriph_Driver/src/at32f4xx_rcc.c **** }
 934              		.loc 1 743 0
 935 0092 5DF8044B 		ldr	r4, [sp], #4
 936              	.LCFI3:
 937              		.cfi_remember_state
 938              		.cfi_restore 4
 939              		.cfi_def_cfa_offset 0
 940 0096 7047     		bx	lr
 941              	.LVL75:
 942              	.L70:
 943              	.LCFI4:
 944              		.cfi_restore_state
 672:../Libraries/AT32F4xx_StdPeriph_Driver/src/at32f4xx_rcc.c ****     break;
 945              		.loc 1 672 0
 946 0098 204B     		ldr	r3, .L91+4
ARM GAS  /var/folders/l3/4y5292px21b4835bsnjwqc7w009kq1/T//ccVOQnT7.s 			page 30


 947              	.LVL76:
 948 009a 0360     		str	r3, [r0]
 673:../Libraries/AT32F4xx_StdPeriph_Driver/src/at32f4xx_rcc.c **** 
 949              		.loc 1 673 0
 950 009c BFE7     		b	.L73
 951              	.LVL77:
 952              	.L71:
 678:../Libraries/AT32F4xx_StdPeriph_Driver/src/at32f4xx_rcc.c ****     pllrefclk = RCC->CFG & RCC_CFG_PLLRC;
 953              		.loc 1 678 0
 954 009e 1E4B     		ldr	r3, .L91
 955              	.LVL78:
 956 00a0 5A68     		ldr	r2, [r3, #4]
 957 00a2 214C     		ldr	r4, .L91+16
 958 00a4 1440     		ands	r4, r4, r2
 959              	.LVL79:
 679:../Libraries/AT32F4xx_StdPeriph_Driver/src/at32f4xx_rcc.c ****     pllmult = RCC_GET_PLLMULT(pllmult);
 960              		.loc 1 679 0
 961 00a6 5968     		ldr	r1, [r3, #4]
 962 00a8 01F48031 		and	r1, r1, #65536
 963              	.LVL80:
 680:../Libraries/AT32F4xx_StdPeriph_Driver/src/at32f4xx_rcc.c **** 
 964              		.loc 1 680 0
 965 00ac C4F38343 		ubfx	r3, r4, #18, #4
 966 00b0 43EA5463 		orr	r3, r3, r4, lsr #25
 967 00b4 12F0C04F 		tst	r2, #1610612736
 968 00b8 08D1     		bne	.L82
 680:../Libraries/AT32F4xx_StdPeriph_Driver/src/at32f4xx_rcc.c **** 
 969              		.loc 1 680 0 is_stmt 0 discriminator 1
 970 00ba 02F47012 		and	r2, r2, #3932160
 971 00be B2F5701F 		cmp	r2, #3932160
 972 00c2 01D0     		beq	.L90
 680:../Libraries/AT32F4xx_StdPeriph_Driver/src/at32f4xx_rcc.c **** 
 973              		.loc 1 680 0
 974 00c4 0222     		movs	r2, #2
 975 00c6 02E0     		b	.L74
 976              	.L90:
 977 00c8 0122     		movs	r2, #1
 978 00ca 00E0     		b	.L74
 979              	.L82:
 980 00cc 0122     		movs	r2, #1
 981              	.L74:
 680:../Libraries/AT32F4xx_StdPeriph_Driver/src/at32f4xx_rcc.c **** 
 982              		.loc 1 680 0 discriminator 6
 983 00ce 1344     		add	r3, r3, r2
 984              	.LVL81:
 682:../Libraries/AT32F4xx_StdPeriph_Driver/src/at32f4xx_rcc.c ****     {
 985              		.loc 1 682 0 is_stmt 1 discriminator 6
 986 00d0 69B9     		cbnz	r1, .L75
 685:../Libraries/AT32F4xx_StdPeriph_Driver/src/at32f4xx_rcc.c ****     }
 987              		.loc 1 685 0
 988 00d2 164A     		ldr	r2, .L91+20
 989 00d4 02FB03F3 		mul	r3, r2, r3
 990              	.LVL82:
 991 00d8 0360     		str	r3, [r0]
 992              	.L76:
 701:../Libraries/AT32F4xx_StdPeriph_Driver/src/at32f4xx_rcc.c ****     {
 993              		.loc 1 701 0
ARM GAS  /var/folders/l3/4y5292px21b4835bsnjwqc7w009kq1/T//ccVOQnT7.s 			page 31


 994 00da 0F4B     		ldr	r3, .L91
 995 00dc 5B68     		ldr	r3, [r3, #4]
 996 00de 002B     		cmp	r3, #0
 997 00e0 9DDB     		blt	.L73
 701:../Libraries/AT32F4xx_StdPeriph_Driver/src/at32f4xx_rcc.c ****     {
 998              		.loc 1 701 0 is_stmt 0 discriminator 1
 999 00e2 0268     		ldr	r2, [r0]
 1000 00e4 124B     		ldr	r3, .L91+24
 1001 00e6 9A42     		cmp	r2, r3
 1002 00e8 99D9     		bls	.L73
 704:../Libraries/AT32F4xx_StdPeriph_Driver/src/at32f4xx_rcc.c ****     }
 1003              		.loc 1 704 0 is_stmt 1
 1004 00ea 0360     		str	r3, [r0]
 1005 00ec 97E7     		b	.L73
 1006              	.LVL83:
 1007              	.L75:
 690:../Libraries/AT32F4xx_StdPeriph_Driver/src/at32f4xx_rcc.c ****       {
 1008              		.loc 1 690 0
 1009 00ee 0A4A     		ldr	r2, .L91
 1010 00f0 5268     		ldr	r2, [r2, #4]
 1011 00f2 12F4003F 		tst	r2, #131072
 1012 00f6 04D0     		beq	.L77
 693:../Libraries/AT32F4xx_StdPeriph_Driver/src/at32f4xx_rcc.c ****       }
 1013              		.loc 1 693 0
 1014 00f8 0C4A     		ldr	r2, .L91+20
 1015 00fa 02FB03F3 		mul	r3, r2, r3
 1016              	.LVL84:
 1017 00fe 0360     		str	r3, [r0]
 1018 0100 EBE7     		b	.L76
 1019              	.LVL85:
 1020              	.L77:
 697:../Libraries/AT32F4xx_StdPeriph_Driver/src/at32f4xx_rcc.c ****       }
 1021              		.loc 1 697 0
 1022 0102 064A     		ldr	r2, .L91+4
 1023 0104 02FB03F3 		mul	r3, r2, r3
 1024              	.LVL86:
 1025 0108 0360     		str	r3, [r0]
 1026 010a E6E7     		b	.L76
 1027              	.LVL87:
 1028              	.L84:
 717:../Libraries/AT32F4xx_StdPeriph_Driver/src/at32f4xx_rcc.c **** 
 1029              		.loc 1 717 0
 1030 010c 0023     		movs	r3, #0
 1031              	.LVL88:
 1032 010e 91E7     		b	.L78
 1033              	.LVL89:
 1034              	.L85:
 723:../Libraries/AT32F4xx_StdPeriph_Driver/src/at32f4xx_rcc.c ****   /* PCLK1 clock frequency */
 1035              		.loc 1 723 0
 1036 0110 0022     		movs	r2, #0
 1037              	.LVL90:
 1038 0112 9EE7     		b	.L79
 1039              	.LVL91:
 1040              	.L86:
 728:../Libraries/AT32F4xx_StdPeriph_Driver/src/at32f4xx_rcc.c ****   /* PCLK2 clock frequency */
 1041              		.loc 1 728 0
 1042 0114 0022     		movs	r2, #0
ARM GAS  /var/folders/l3/4y5292px21b4835bsnjwqc7w009kq1/T//ccVOQnT7.s 			page 32


 1043              	.LVL92:
 1044 0116 AAE7     		b	.L80
 1045              	.L92:
 1046              		.align	2
 1047              	.L91:
 1048 0118 00100240 		.word	1073876992
 1049 011c 00127A00 		.word	8000000
 1050 0120 00000000 		.word	.LANCHOR0
 1051 0124 00000000 		.word	.LANCHOR1
 1052 0128 00003C60 		.word	1614544896
 1053 012c 00093D00 		.word	4000000
 1054 0130 00A24A04 		.word	72000000
 1055              		.cfi_endproc
 1056              	.LFE143:
 1057              		.cantunwind
 1058              		.fnend
 1060              		.section	.text.RCC_AHBPeriphClockCmd,"ax",%progbits
 1061              		.align	1
 1062              		.global	RCC_AHBPeriphClockCmd
 1063              		.syntax unified
 1064              		.thumb
 1065              		.thumb_func
 1066              		.fpu fpv4-sp-d16
 1068              	RCC_AHBPeriphClockCmd:
 1069              		.fnstart
 1070              	.LFB144:
 744:../Libraries/AT32F4xx_StdPeriph_Driver/src/at32f4xx_rcc.c **** 
 745:../Libraries/AT32F4xx_StdPeriph_Driver/src/at32f4xx_rcc.c **** /**
 746:../Libraries/AT32F4xx_StdPeriph_Driver/src/at32f4xx_rcc.c ****   * @brief  Enables or disables the AHB peripheral clock.
 747:../Libraries/AT32F4xx_StdPeriph_Driver/src/at32f4xx_rcc.c ****   * @param  RCC_AHBPeriph: specifies the AHB peripheral to gates its clock.
 748:../Libraries/AT32F4xx_StdPeriph_Driver/src/at32f4xx_rcc.c ****   *   This parameter can be any combination of the
 749:../Libraries/AT32F4xx_StdPeriph_Driver/src/at32f4xx_rcc.c ****   *   following values:
 750:../Libraries/AT32F4xx_StdPeriph_Driver/src/at32f4xx_rcc.c ****   *     @arg RCC_AHBPERIPH_DMA1
 751:../Libraries/AT32F4xx_StdPeriph_Driver/src/at32f4xx_rcc.c ****   *     @arg RCC_AHBPERIPH_DMA2
 752:../Libraries/AT32F4xx_StdPeriph_Driver/src/at32f4xx_rcc.c ****   *     @arg RCC_AHBPERIPH_SRAM
 753:../Libraries/AT32F4xx_StdPeriph_Driver/src/at32f4xx_rcc.c ****   *     @arg RCC_AHBPERIPH_FLASH
 754:../Libraries/AT32F4xx_StdPeriph_Driver/src/at32f4xx_rcc.c ****   *     @arg RCC_AHBPERIPH_CRC
 755:../Libraries/AT32F4xx_StdPeriph_Driver/src/at32f4xx_rcc.c ****   *     @arg RCC_AHBPERIPH_XMC
 756:../Libraries/AT32F4xx_StdPeriph_Driver/src/at32f4xx_rcc.c ****   *     @arg RCC_AHBPERIPH_SDIO1
 757:../Libraries/AT32F4xx_StdPeriph_Driver/src/at32f4xx_rcc.c ****   *     @arg RCC_AHBPERIPH_SDIO2
 758:../Libraries/AT32F4xx_StdPeriph_Driver/src/at32f4xx_rcc.c ****   *
 759:../Libraries/AT32F4xx_StdPeriph_Driver/src/at32f4xx_rcc.c ****   * @note SRAM and FLASH clock can be disabled only during sleep mode.
 760:../Libraries/AT32F4xx_StdPeriph_Driver/src/at32f4xx_rcc.c ****   * @param  NewState: new state of the specified peripheral clock.
 761:../Libraries/AT32F4xx_StdPeriph_Driver/src/at32f4xx_rcc.c ****   *   This parameter can be: ENABLE or DISABLE.
 762:../Libraries/AT32F4xx_StdPeriph_Driver/src/at32f4xx_rcc.c ****   * @retval None
 763:../Libraries/AT32F4xx_StdPeriph_Driver/src/at32f4xx_rcc.c ****   */
 764:../Libraries/AT32F4xx_StdPeriph_Driver/src/at32f4xx_rcc.c **** void RCC_AHBPeriphClockCmd(uint32_t RCC_AHBPeriph, FunctionalState NewState)
 765:../Libraries/AT32F4xx_StdPeriph_Driver/src/at32f4xx_rcc.c **** {
 1071              		.loc 1 765 0
 1072              		.cfi_startproc
 1073              		@ args = 0, pretend = 0, frame = 0
 1074              		@ frame_needed = 0, uses_anonymous_args = 0
 1075              		@ link register save eliminated.
 1076              	.LVL93:
 766:../Libraries/AT32F4xx_StdPeriph_Driver/src/at32f4xx_rcc.c ****   /* Check the parameters */
 767:../Libraries/AT32F4xx_StdPeriph_Driver/src/at32f4xx_rcc.c ****   assert_param(IS_RCC_AHB_PERIPH(RCC_AHBPeriph));
 768:../Libraries/AT32F4xx_StdPeriph_Driver/src/at32f4xx_rcc.c ****   assert_param(IS_FUNCTIONAL_STATE(NewState));
ARM GAS  /var/folders/l3/4y5292px21b4835bsnjwqc7w009kq1/T//ccVOQnT7.s 			page 33


 769:../Libraries/AT32F4xx_StdPeriph_Driver/src/at32f4xx_rcc.c **** 
 770:../Libraries/AT32F4xx_StdPeriph_Driver/src/at32f4xx_rcc.c ****   if (NewState != DISABLE)
 1077              		.loc 1 770 0
 1078 0000 29B9     		cbnz	r1, .L96
 771:../Libraries/AT32F4xx_StdPeriph_Driver/src/at32f4xx_rcc.c ****   {
 772:../Libraries/AT32F4xx_StdPeriph_Driver/src/at32f4xx_rcc.c ****     RCC->AHBEN |= RCC_AHBPeriph;
 773:../Libraries/AT32F4xx_StdPeriph_Driver/src/at32f4xx_rcc.c ****   }
 774:../Libraries/AT32F4xx_StdPeriph_Driver/src/at32f4xx_rcc.c ****   else
 775:../Libraries/AT32F4xx_StdPeriph_Driver/src/at32f4xx_rcc.c ****   {
 776:../Libraries/AT32F4xx_StdPeriph_Driver/src/at32f4xx_rcc.c ****     RCC->AHBEN &= ~RCC_AHBPeriph;
 1079              		.loc 1 776 0
 1080 0002 054A     		ldr	r2, .L97
 1081 0004 5369     		ldr	r3, [r2, #20]
 1082 0006 23EA0000 		bic	r0, r3, r0
 1083              	.LVL94:
 1084 000a 5061     		str	r0, [r2, #20]
 777:../Libraries/AT32F4xx_StdPeriph_Driver/src/at32f4xx_rcc.c ****   }
 778:../Libraries/AT32F4xx_StdPeriph_Driver/src/at32f4xx_rcc.c **** }
 1085              		.loc 1 778 0
 1086 000c 7047     		bx	lr
 1087              	.LVL95:
 1088              	.L96:
 772:../Libraries/AT32F4xx_StdPeriph_Driver/src/at32f4xx_rcc.c ****   }
 1089              		.loc 1 772 0
 1090 000e 024A     		ldr	r2, .L97
 1091 0010 5369     		ldr	r3, [r2, #20]
 1092 0012 1843     		orrs	r0, r0, r3
 1093              	.LVL96:
 1094 0014 5061     		str	r0, [r2, #20]
 1095 0016 7047     		bx	lr
 1096              	.L98:
 1097              		.align	2
 1098              	.L97:
 1099 0018 00100240 		.word	1073876992
 1100              		.cfi_endproc
 1101              	.LFE144:
 1102              		.cantunwind
 1103              		.fnend
 1105              		.section	.text.RCC_APB2PeriphClockCmd,"ax",%progbits
 1106              		.align	1
 1107              		.global	RCC_APB2PeriphClockCmd
 1108              		.syntax unified
 1109              		.thumb
 1110              		.thumb_func
 1111              		.fpu fpv4-sp-d16
 1113              	RCC_APB2PeriphClockCmd:
 1114              		.fnstart
 1115              	.LFB145:
 779:../Libraries/AT32F4xx_StdPeriph_Driver/src/at32f4xx_rcc.c **** 
 780:../Libraries/AT32F4xx_StdPeriph_Driver/src/at32f4xx_rcc.c **** /**
 781:../Libraries/AT32F4xx_StdPeriph_Driver/src/at32f4xx_rcc.c ****   * @brief  Enables or disables the High Speed APB (APB2) peripheral clock.
 782:../Libraries/AT32F4xx_StdPeriph_Driver/src/at32f4xx_rcc.c ****   * @param  RCC_APB2Periph: specifies the APB2 peripheral to gates its clock.
 783:../Libraries/AT32F4xx_StdPeriph_Driver/src/at32f4xx_rcc.c ****   *   This parameter can be any combination of the following values:
 784:../Libraries/AT32F4xx_StdPeriph_Driver/src/at32f4xx_rcc.c ****   *     @arg RCC_APB2PERIPH_AFIO,   RCC_APB2PERIPH_GPIOA,   RCC_APB2PERIPH_GPIOB,
 785:../Libraries/AT32F4xx_StdPeriph_Driver/src/at32f4xx_rcc.c ****   *          RCC_APB2PERIPH_GPIOC,  RCC_APB2PERIPH_GPIOD,   RCC_APB2PERIPH_GPIOE,
 786:../Libraries/AT32F4xx_StdPeriph_Driver/src/at32f4xx_rcc.c ****   *          RCC_APB2PERIPH_GPIOF,  RCC_APB2PERIPH_GPIOG,   RCC_APB2PERIPH_ADC1,
 787:../Libraries/AT32F4xx_StdPeriph_Driver/src/at32f4xx_rcc.c ****   *          RCC_APB2PERIPH_ADC2,   RCC_APB2PERIPH_TMR1,    RCC_APB2PERIPH_SPI1,
ARM GAS  /var/folders/l3/4y5292px21b4835bsnjwqc7w009kq1/T//ccVOQnT7.s 			page 34


 788:../Libraries/AT32F4xx_StdPeriph_Driver/src/at32f4xx_rcc.c ****   *          RCC_APB2PERIPH_TMR8,   RCC_APB2PERIPH_USART1,  RCC_APB2PERIPH_ADC3,
 789:../Libraries/AT32F4xx_StdPeriph_Driver/src/at32f4xx_rcc.c ****   *          RCC_APB2PERIPH_TMR15,  RCC_APB2PERIPH_TMR9,    RCC_APB2PERIPH_TMR10,
 790:../Libraries/AT32F4xx_StdPeriph_Driver/src/at32f4xx_rcc.c ****   *          RCC_APB2PERIPH_TMR11
 791:../Libraries/AT32F4xx_StdPeriph_Driver/src/at32f4xx_rcc.c ****   * @param  NewState: new state of the specified peripheral clock.
 792:../Libraries/AT32F4xx_StdPeriph_Driver/src/at32f4xx_rcc.c ****   *   This parameter can be: ENABLE or DISABLE.
 793:../Libraries/AT32F4xx_StdPeriph_Driver/src/at32f4xx_rcc.c ****   * @retval None
 794:../Libraries/AT32F4xx_StdPeriph_Driver/src/at32f4xx_rcc.c ****   */
 795:../Libraries/AT32F4xx_StdPeriph_Driver/src/at32f4xx_rcc.c **** void RCC_APB2PeriphClockCmd(uint32_t RCC_APB2Periph, FunctionalState NewState)
 796:../Libraries/AT32F4xx_StdPeriph_Driver/src/at32f4xx_rcc.c **** {
 1116              		.loc 1 796 0
 1117              		.cfi_startproc
 1118              		@ args = 0, pretend = 0, frame = 0
 1119              		@ frame_needed = 0, uses_anonymous_args = 0
 1120              		@ link register save eliminated.
 1121              	.LVL97:
 797:../Libraries/AT32F4xx_StdPeriph_Driver/src/at32f4xx_rcc.c ****   /* Check the parameters */
 798:../Libraries/AT32F4xx_StdPeriph_Driver/src/at32f4xx_rcc.c ****   assert_param(IS_RCC_APB2_PERIPH(RCC_APB2Periph));
 799:../Libraries/AT32F4xx_StdPeriph_Driver/src/at32f4xx_rcc.c ****   assert_param(IS_FUNCTIONAL_STATE(NewState));
 800:../Libraries/AT32F4xx_StdPeriph_Driver/src/at32f4xx_rcc.c **** 
 801:../Libraries/AT32F4xx_StdPeriph_Driver/src/at32f4xx_rcc.c ****   if (NewState != DISABLE)
 1122              		.loc 1 801 0
 1123 0000 29B9     		cbnz	r1, .L102
 802:../Libraries/AT32F4xx_StdPeriph_Driver/src/at32f4xx_rcc.c ****   {
 803:../Libraries/AT32F4xx_StdPeriph_Driver/src/at32f4xx_rcc.c ****     RCC->APB2EN |= RCC_APB2Periph;
 804:../Libraries/AT32F4xx_StdPeriph_Driver/src/at32f4xx_rcc.c ****   }
 805:../Libraries/AT32F4xx_StdPeriph_Driver/src/at32f4xx_rcc.c ****   else
 806:../Libraries/AT32F4xx_StdPeriph_Driver/src/at32f4xx_rcc.c ****   {
 807:../Libraries/AT32F4xx_StdPeriph_Driver/src/at32f4xx_rcc.c ****     RCC->APB2EN &= ~RCC_APB2Periph;
 1124              		.loc 1 807 0
 1125 0002 054A     		ldr	r2, .L103
 1126 0004 9369     		ldr	r3, [r2, #24]
 1127 0006 23EA0000 		bic	r0, r3, r0
 1128              	.LVL98:
 1129 000a 9061     		str	r0, [r2, #24]
 808:../Libraries/AT32F4xx_StdPeriph_Driver/src/at32f4xx_rcc.c ****   }
 809:../Libraries/AT32F4xx_StdPeriph_Driver/src/at32f4xx_rcc.c **** }
 1130              		.loc 1 809 0
 1131 000c 7047     		bx	lr
 1132              	.LVL99:
 1133              	.L102:
 803:../Libraries/AT32F4xx_StdPeriph_Driver/src/at32f4xx_rcc.c ****   }
 1134              		.loc 1 803 0
 1135 000e 024A     		ldr	r2, .L103
 1136 0010 9369     		ldr	r3, [r2, #24]
 1137 0012 1843     		orrs	r0, r0, r3
 1138              	.LVL100:
 1139 0014 9061     		str	r0, [r2, #24]
 1140 0016 7047     		bx	lr
 1141              	.L104:
 1142              		.align	2
 1143              	.L103:
 1144 0018 00100240 		.word	1073876992
 1145              		.cfi_endproc
 1146              	.LFE145:
 1147              		.cantunwind
 1148              		.fnend
 1150              		.section	.text.RCC_APB1PeriphClockCmd,"ax",%progbits
ARM GAS  /var/folders/l3/4y5292px21b4835bsnjwqc7w009kq1/T//ccVOQnT7.s 			page 35


 1151              		.align	1
 1152              		.global	RCC_APB1PeriphClockCmd
 1153              		.syntax unified
 1154              		.thumb
 1155              		.thumb_func
 1156              		.fpu fpv4-sp-d16
 1158              	RCC_APB1PeriphClockCmd:
 1159              		.fnstart
 1160              	.LFB146:
 810:../Libraries/AT32F4xx_StdPeriph_Driver/src/at32f4xx_rcc.c **** 
 811:../Libraries/AT32F4xx_StdPeriph_Driver/src/at32f4xx_rcc.c **** /**
 812:../Libraries/AT32F4xx_StdPeriph_Driver/src/at32f4xx_rcc.c ****   * @brief  Enables or disables the Low Speed APB (APB1) peripheral clock.
 813:../Libraries/AT32F4xx_StdPeriph_Driver/src/at32f4xx_rcc.c ****   * @param  RCC_APB1Periph: specifies the APB1 peripheral to gates its clock.
 814:../Libraries/AT32F4xx_StdPeriph_Driver/src/at32f4xx_rcc.c ****   *   This parameter can be any combination of the following values:
 815:../Libraries/AT32F4xx_StdPeriph_Driver/src/at32f4xx_rcc.c ****   *     @arg RCC_APB1PERIPH_TMR2,   RCC_APB1PERIPH_TMR3,   RCC_APB1PERIPH_TMR4,
 816:../Libraries/AT32F4xx_StdPeriph_Driver/src/at32f4xx_rcc.c ****   *          RCC_APB1PERIPH_TMR5,   RCC_APB1PERIPH_TMR6,   RCC_APB1PERIPH_TMR7,
 817:../Libraries/AT32F4xx_StdPeriph_Driver/src/at32f4xx_rcc.c ****   *          RCC_APB1PERIPH_WWDG,   RCC_APB1PERIPH_SPI2,   RCC_APB1PERIPH_SPI3,
 818:../Libraries/AT32F4xx_StdPeriph_Driver/src/at32f4xx_rcc.c ****   *          RCC_APB1PERIPH_SPI4,   RCC_APB1PERIPH_USART2, RCC_APB1PERIPH_USART3,
 819:../Libraries/AT32F4xx_StdPeriph_Driver/src/at32f4xx_rcc.c ****   *          RCC_APB1Periph_USART4, RCC_APB1Periph_USART5, RCC_APB1PERIPH_I2C1,
 820:../Libraries/AT32F4xx_StdPeriph_Driver/src/at32f4xx_rcc.c ****   *          RCC_APB1PERIPH_I2C2,   RCC_APB1PERIPH_I2C3,   RCC_APB1PERIPH_USB,
 821:../Libraries/AT32F4xx_StdPeriph_Driver/src/at32f4xx_rcc.c ****   *          RCC_APB1PERIPH_CAN1,   RCC_APB1PERIPH_BKP,    RCC_APB1PERIPH_PWR,
 822:../Libraries/AT32F4xx_StdPeriph_Driver/src/at32f4xx_rcc.c ****   *          RCC_APB1PERIPH_DAC,    RCC_APB1PERIPH_TMR12,  RCC_APB1PERIPH_TMR13,
 823:../Libraries/AT32F4xx_StdPeriph_Driver/src/at32f4xx_rcc.c ****   *          RCC_APB1PERIPH_TMR14
 824:../Libraries/AT32F4xx_StdPeriph_Driver/src/at32f4xx_rcc.c ****   * @param  NewState: new state of the specified peripheral clock.
 825:../Libraries/AT32F4xx_StdPeriph_Driver/src/at32f4xx_rcc.c ****   *   This parameter can be: ENABLE or DISABLE.
 826:../Libraries/AT32F4xx_StdPeriph_Driver/src/at32f4xx_rcc.c ****   * @retval None
 827:../Libraries/AT32F4xx_StdPeriph_Driver/src/at32f4xx_rcc.c ****   */
 828:../Libraries/AT32F4xx_StdPeriph_Driver/src/at32f4xx_rcc.c **** void RCC_APB1PeriphClockCmd(uint32_t RCC_APB1Periph, FunctionalState NewState)
 829:../Libraries/AT32F4xx_StdPeriph_Driver/src/at32f4xx_rcc.c **** {
 1161              		.loc 1 829 0
 1162              		.cfi_startproc
 1163              		@ args = 0, pretend = 0, frame = 0
 1164              		@ frame_needed = 0, uses_anonymous_args = 0
 1165              		@ link register save eliminated.
 1166              	.LVL101:
 830:../Libraries/AT32F4xx_StdPeriph_Driver/src/at32f4xx_rcc.c ****   /* Check the parameters */
 831:../Libraries/AT32F4xx_StdPeriph_Driver/src/at32f4xx_rcc.c ****   assert_param(IS_RCC_APB1_PERIPH(RCC_APB1Periph));
 832:../Libraries/AT32F4xx_StdPeriph_Driver/src/at32f4xx_rcc.c ****   assert_param(IS_FUNCTIONAL_STATE(NewState));
 833:../Libraries/AT32F4xx_StdPeriph_Driver/src/at32f4xx_rcc.c **** 
 834:../Libraries/AT32F4xx_StdPeriph_Driver/src/at32f4xx_rcc.c ****   if (NewState != DISABLE)
 1167              		.loc 1 834 0
 1168 0000 29B9     		cbnz	r1, .L108
 835:../Libraries/AT32F4xx_StdPeriph_Driver/src/at32f4xx_rcc.c ****   {
 836:../Libraries/AT32F4xx_StdPeriph_Driver/src/at32f4xx_rcc.c ****     RCC->APB1EN |= RCC_APB1Periph;
 837:../Libraries/AT32F4xx_StdPeriph_Driver/src/at32f4xx_rcc.c ****   }
 838:../Libraries/AT32F4xx_StdPeriph_Driver/src/at32f4xx_rcc.c ****   else
 839:../Libraries/AT32F4xx_StdPeriph_Driver/src/at32f4xx_rcc.c ****   {
 840:../Libraries/AT32F4xx_StdPeriph_Driver/src/at32f4xx_rcc.c ****     RCC->APB1EN &= ~RCC_APB1Periph;
 1169              		.loc 1 840 0
 1170 0002 054A     		ldr	r2, .L109
 1171 0004 D369     		ldr	r3, [r2, #28]
 1172 0006 23EA0000 		bic	r0, r3, r0
 1173              	.LVL102:
 1174 000a D061     		str	r0, [r2, #28]
 841:../Libraries/AT32F4xx_StdPeriph_Driver/src/at32f4xx_rcc.c ****   }
 842:../Libraries/AT32F4xx_StdPeriph_Driver/src/at32f4xx_rcc.c **** }
 1175              		.loc 1 842 0
ARM GAS  /var/folders/l3/4y5292px21b4835bsnjwqc7w009kq1/T//ccVOQnT7.s 			page 36


 1176 000c 7047     		bx	lr
 1177              	.LVL103:
 1178              	.L108:
 836:../Libraries/AT32F4xx_StdPeriph_Driver/src/at32f4xx_rcc.c ****   }
 1179              		.loc 1 836 0
 1180 000e 024A     		ldr	r2, .L109
 1181 0010 D369     		ldr	r3, [r2, #28]
 1182 0012 1843     		orrs	r0, r0, r3
 1183              	.LVL104:
 1184 0014 D061     		str	r0, [r2, #28]
 1185 0016 7047     		bx	lr
 1186              	.L110:
 1187              		.align	2
 1188              	.L109:
 1189 0018 00100240 		.word	1073876992
 1190              		.cfi_endproc
 1191              	.LFE146:
 1192              		.cantunwind
 1193              		.fnend
 1195              		.section	.text.RCC_APB2PeriphResetCmd,"ax",%progbits
 1196              		.align	1
 1197              		.global	RCC_APB2PeriphResetCmd
 1198              		.syntax unified
 1199              		.thumb
 1200              		.thumb_func
 1201              		.fpu fpv4-sp-d16
 1203              	RCC_APB2PeriphResetCmd:
 1204              		.fnstart
 1205              	.LFB147:
 843:../Libraries/AT32F4xx_StdPeriph_Driver/src/at32f4xx_rcc.c **** 
 844:../Libraries/AT32F4xx_StdPeriph_Driver/src/at32f4xx_rcc.c **** /**
 845:../Libraries/AT32F4xx_StdPeriph_Driver/src/at32f4xx_rcc.c ****   * @brief  Forces or releases High Speed APB (APB2) peripheral reset.
 846:../Libraries/AT32F4xx_StdPeriph_Driver/src/at32f4xx_rcc.c ****   * @param  RCC_APB2Periph: specifies the APB2 peripheral to reset.
 847:../Libraries/AT32F4xx_StdPeriph_Driver/src/at32f4xx_rcc.c ****   *   This parameter can be any combination of the following values:
 848:../Libraries/AT32F4xx_StdPeriph_Driver/src/at32f4xx_rcc.c ****   *     @arg RCC_APB2PERIPH_AFIO,  RCC_APB2PERIPH_GPIOA,  RCC_APB2PERIPH_GPIOB,
 849:../Libraries/AT32F4xx_StdPeriph_Driver/src/at32f4xx_rcc.c ****   *          RCC_APB2PERIPH_GPIOC, RCC_APB2PERIPH_GPIOD,  RCC_APB2PERIPH_GPIOE,
 850:../Libraries/AT32F4xx_StdPeriph_Driver/src/at32f4xx_rcc.c ****   *          RCC_APB2PERIPH_GPIOF, RCC_APB2PERIPH_GPIOG,  RCC_APB2PERIPH_ADC1,
 851:../Libraries/AT32F4xx_StdPeriph_Driver/src/at32f4xx_rcc.c ****   *          RCC_APB2PERIPH_ADC2,  RCC_APB2PERIPH_TMR1,   RCC_APB2PERIPH_SPI1,
 852:../Libraries/AT32F4xx_StdPeriph_Driver/src/at32f4xx_rcc.c ****   *          RCC_APB2PERIPH_TMR8,  RCC_APB2PERIPH_USART1, RCC_APB2PERIPH_ADC3,
 853:../Libraries/AT32F4xx_StdPeriph_Driver/src/at32f4xx_rcc.c ****   *          RCC_APB2PERIPH_TMR15, RCC_APB2PERIPH_TMR9,   RCC_APB2PERIPH_TMR10,
 854:../Libraries/AT32F4xx_StdPeriph_Driver/src/at32f4xx_rcc.c ****   *          RCC_APB2PERIPH_TMR11
 855:../Libraries/AT32F4xx_StdPeriph_Driver/src/at32f4xx_rcc.c ****   * @param  NewState: new state of the specified peripheral reset.
 856:../Libraries/AT32F4xx_StdPeriph_Driver/src/at32f4xx_rcc.c ****   *   This parameter can be: ENABLE or DISABLE.
 857:../Libraries/AT32F4xx_StdPeriph_Driver/src/at32f4xx_rcc.c ****   * @retval None
 858:../Libraries/AT32F4xx_StdPeriph_Driver/src/at32f4xx_rcc.c ****   */
 859:../Libraries/AT32F4xx_StdPeriph_Driver/src/at32f4xx_rcc.c **** void RCC_APB2PeriphResetCmd(uint32_t RCC_APB2Periph, FunctionalState NewState)
 860:../Libraries/AT32F4xx_StdPeriph_Driver/src/at32f4xx_rcc.c **** {
 1206              		.loc 1 860 0
 1207              		.cfi_startproc
 1208              		@ args = 0, pretend = 0, frame = 0
 1209              		@ frame_needed = 0, uses_anonymous_args = 0
 1210              		@ link register save eliminated.
 1211              	.LVL105:
 861:../Libraries/AT32F4xx_StdPeriph_Driver/src/at32f4xx_rcc.c ****   /* Check the parameters */
 862:../Libraries/AT32F4xx_StdPeriph_Driver/src/at32f4xx_rcc.c ****   assert_param(IS_RCC_APB2_PERIPH(RCC_APB2Periph));
 863:../Libraries/AT32F4xx_StdPeriph_Driver/src/at32f4xx_rcc.c ****   assert_param(IS_FUNCTIONAL_STATE(NewState));
 864:../Libraries/AT32F4xx_StdPeriph_Driver/src/at32f4xx_rcc.c **** 
ARM GAS  /var/folders/l3/4y5292px21b4835bsnjwqc7w009kq1/T//ccVOQnT7.s 			page 37


 865:../Libraries/AT32F4xx_StdPeriph_Driver/src/at32f4xx_rcc.c ****   if (NewState != DISABLE)
 1212              		.loc 1 865 0
 1213 0000 29B9     		cbnz	r1, .L114
 866:../Libraries/AT32F4xx_StdPeriph_Driver/src/at32f4xx_rcc.c ****   {
 867:../Libraries/AT32F4xx_StdPeriph_Driver/src/at32f4xx_rcc.c ****     RCC->APB2RST |= RCC_APB2Periph;
 868:../Libraries/AT32F4xx_StdPeriph_Driver/src/at32f4xx_rcc.c ****   }
 869:../Libraries/AT32F4xx_StdPeriph_Driver/src/at32f4xx_rcc.c ****   else
 870:../Libraries/AT32F4xx_StdPeriph_Driver/src/at32f4xx_rcc.c ****   {
 871:../Libraries/AT32F4xx_StdPeriph_Driver/src/at32f4xx_rcc.c ****     RCC->APB2RST &= ~RCC_APB2Periph;
 1214              		.loc 1 871 0
 1215 0002 054A     		ldr	r2, .L115
 1216 0004 D368     		ldr	r3, [r2, #12]
 1217 0006 23EA0000 		bic	r0, r3, r0
 1218              	.LVL106:
 1219 000a D060     		str	r0, [r2, #12]
 872:../Libraries/AT32F4xx_StdPeriph_Driver/src/at32f4xx_rcc.c ****   }
 873:../Libraries/AT32F4xx_StdPeriph_Driver/src/at32f4xx_rcc.c **** }
 1220              		.loc 1 873 0
 1221 000c 7047     		bx	lr
 1222              	.LVL107:
 1223              	.L114:
 867:../Libraries/AT32F4xx_StdPeriph_Driver/src/at32f4xx_rcc.c ****   }
 1224              		.loc 1 867 0
 1225 000e 024A     		ldr	r2, .L115
 1226 0010 D368     		ldr	r3, [r2, #12]
 1227 0012 1843     		orrs	r0, r0, r3
 1228              	.LVL108:
 1229 0014 D060     		str	r0, [r2, #12]
 1230 0016 7047     		bx	lr
 1231              	.L116:
 1232              		.align	2
 1233              	.L115:
 1234 0018 00100240 		.word	1073876992
 1235              		.cfi_endproc
 1236              	.LFE147:
 1237              		.cantunwind
 1238              		.fnend
 1240              		.section	.text.RCC_APB1PeriphResetCmd,"ax",%progbits
 1241              		.align	1
 1242              		.global	RCC_APB1PeriphResetCmd
 1243              		.syntax unified
 1244              		.thumb
 1245              		.thumb_func
 1246              		.fpu fpv4-sp-d16
 1248              	RCC_APB1PeriphResetCmd:
 1249              		.fnstart
 1250              	.LFB148:
 874:../Libraries/AT32F4xx_StdPeriph_Driver/src/at32f4xx_rcc.c **** 
 875:../Libraries/AT32F4xx_StdPeriph_Driver/src/at32f4xx_rcc.c **** /**
 876:../Libraries/AT32F4xx_StdPeriph_Driver/src/at32f4xx_rcc.c ****   * @brief  Forces or releases Low Speed APB (APB1) peripheral reset.
 877:../Libraries/AT32F4xx_StdPeriph_Driver/src/at32f4xx_rcc.c ****   * @param  RCC_APB1Periph: specifies the APB1 peripheral to reset.
 878:../Libraries/AT32F4xx_StdPeriph_Driver/src/at32f4xx_rcc.c ****   *   This parameter can be any combination of the following values:
 879:../Libraries/AT32F4xx_StdPeriph_Driver/src/at32f4xx_rcc.c ****   *     @arg RCC_APB1PERIPH_TMR2,   RCC_APB1PERIPH_TMR3,   RCC_APB1PERIPH_TMR4,
 880:../Libraries/AT32F4xx_StdPeriph_Driver/src/at32f4xx_rcc.c ****   *          RCC_APB1PERIPH_TMR5,   RCC_APB1PERIPH_TMR6,   RCC_APB1PERIPH_TMR7,
 881:../Libraries/AT32F4xx_StdPeriph_Driver/src/at32f4xx_rcc.c ****   *          RCC_APB1PERIPH_WWDG,   RCC_APB1PERIPH_SPI2,   RCC_APB1PERIPH_SPI3,
 882:../Libraries/AT32F4xx_StdPeriph_Driver/src/at32f4xx_rcc.c ****   *          RCC_APB1PERIPH_SPI4,   RCC_APB1PERIPH_USART2, RCC_APB1PERIPH_USART3,
 883:../Libraries/AT32F4xx_StdPeriph_Driver/src/at32f4xx_rcc.c ****   *          RCC_APB1Periph_USART4, RCC_APB1Periph_USART5, RCC_APB1PERIPH_I2C1,
ARM GAS  /var/folders/l3/4y5292px21b4835bsnjwqc7w009kq1/T//ccVOQnT7.s 			page 38


 884:../Libraries/AT32F4xx_StdPeriph_Driver/src/at32f4xx_rcc.c ****   *          RCC_APB1PERIPH_I2C2,   RCC_APB1PERIPH_I2C3,   RCC_APB1PERIPH_USB,
 885:../Libraries/AT32F4xx_StdPeriph_Driver/src/at32f4xx_rcc.c ****   *          RCC_APB1PERIPH_CAN1,   RCC_APB1PERIPH_BKP,    RCC_APB1PERIPH_PWR,
 886:../Libraries/AT32F4xx_StdPeriph_Driver/src/at32f4xx_rcc.c ****   *          RCC_APB1PERIPH_DAC,    RCC_APB1PERIPH_TMR12,  RCC_APB1PERIPH_TMR13,
 887:../Libraries/AT32F4xx_StdPeriph_Driver/src/at32f4xx_rcc.c ****   *          RCC_APB1PERIPH_TMR14
 888:../Libraries/AT32F4xx_StdPeriph_Driver/src/at32f4xx_rcc.c ****   * @param  NewState: new state of the specified peripheral clock.
 889:../Libraries/AT32F4xx_StdPeriph_Driver/src/at32f4xx_rcc.c ****   *   This parameter can be: ENABLE or DISABLE.
 890:../Libraries/AT32F4xx_StdPeriph_Driver/src/at32f4xx_rcc.c ****   * @retval None
 891:../Libraries/AT32F4xx_StdPeriph_Driver/src/at32f4xx_rcc.c ****   */
 892:../Libraries/AT32F4xx_StdPeriph_Driver/src/at32f4xx_rcc.c **** void RCC_APB1PeriphResetCmd(uint32_t RCC_APB1Periph, FunctionalState NewState)
 893:../Libraries/AT32F4xx_StdPeriph_Driver/src/at32f4xx_rcc.c **** {
 1251              		.loc 1 893 0
 1252              		.cfi_startproc
 1253              		@ args = 0, pretend = 0, frame = 0
 1254              		@ frame_needed = 0, uses_anonymous_args = 0
 1255              		@ link register save eliminated.
 1256              	.LVL109:
 894:../Libraries/AT32F4xx_StdPeriph_Driver/src/at32f4xx_rcc.c ****   /* Check the parameters */
 895:../Libraries/AT32F4xx_StdPeriph_Driver/src/at32f4xx_rcc.c ****   assert_param(IS_RCC_APB1_PERIPH(RCC_APB1Periph));
 896:../Libraries/AT32F4xx_StdPeriph_Driver/src/at32f4xx_rcc.c ****   assert_param(IS_FUNCTIONAL_STATE(NewState));
 897:../Libraries/AT32F4xx_StdPeriph_Driver/src/at32f4xx_rcc.c **** 
 898:../Libraries/AT32F4xx_StdPeriph_Driver/src/at32f4xx_rcc.c ****   if (NewState != DISABLE)
 1257              		.loc 1 898 0
 1258 0000 29B9     		cbnz	r1, .L120
 899:../Libraries/AT32F4xx_StdPeriph_Driver/src/at32f4xx_rcc.c ****   {
 900:../Libraries/AT32F4xx_StdPeriph_Driver/src/at32f4xx_rcc.c ****     RCC->APB1RST |= RCC_APB1Periph;
 901:../Libraries/AT32F4xx_StdPeriph_Driver/src/at32f4xx_rcc.c ****   }
 902:../Libraries/AT32F4xx_StdPeriph_Driver/src/at32f4xx_rcc.c ****   else
 903:../Libraries/AT32F4xx_StdPeriph_Driver/src/at32f4xx_rcc.c ****   {
 904:../Libraries/AT32F4xx_StdPeriph_Driver/src/at32f4xx_rcc.c ****     RCC->APB1RST &= ~RCC_APB1Periph;
 1259              		.loc 1 904 0
 1260 0002 054A     		ldr	r2, .L121
 1261 0004 1369     		ldr	r3, [r2, #16]
 1262 0006 23EA0000 		bic	r0, r3, r0
 1263              	.LVL110:
 1264 000a 1061     		str	r0, [r2, #16]
 905:../Libraries/AT32F4xx_StdPeriph_Driver/src/at32f4xx_rcc.c ****   }
 906:../Libraries/AT32F4xx_StdPeriph_Driver/src/at32f4xx_rcc.c **** }
 1265              		.loc 1 906 0
 1266 000c 7047     		bx	lr
 1267              	.LVL111:
 1268              	.L120:
 900:../Libraries/AT32F4xx_StdPeriph_Driver/src/at32f4xx_rcc.c ****   }
 1269              		.loc 1 900 0
 1270 000e 024A     		ldr	r2, .L121
 1271 0010 1369     		ldr	r3, [r2, #16]
 1272 0012 1843     		orrs	r0, r0, r3
 1273              	.LVL112:
 1274 0014 1061     		str	r0, [r2, #16]
 1275 0016 7047     		bx	lr
 1276              	.L122:
 1277              		.align	2
 1278              	.L121:
 1279 0018 00100240 		.word	1073876992
 1280              		.cfi_endproc
 1281              	.LFE148:
 1282              		.cantunwind
 1283              		.fnend
ARM GAS  /var/folders/l3/4y5292px21b4835bsnjwqc7w009kq1/T//ccVOQnT7.s 			page 39


 1285              		.section	.text.RCC_BackupResetCmd,"ax",%progbits
 1286              		.align	1
 1287              		.global	RCC_BackupResetCmd
 1288              		.syntax unified
 1289              		.thumb
 1290              		.thumb_func
 1291              		.fpu fpv4-sp-d16
 1293              	RCC_BackupResetCmd:
 1294              		.fnstart
 1295              	.LFB149:
 907:../Libraries/AT32F4xx_StdPeriph_Driver/src/at32f4xx_rcc.c **** 
 908:../Libraries/AT32F4xx_StdPeriph_Driver/src/at32f4xx_rcc.c **** /**
 909:../Libraries/AT32F4xx_StdPeriph_Driver/src/at32f4xx_rcc.c ****   * @brief  Forces or releases the Backup domain reset.
 910:../Libraries/AT32F4xx_StdPeriph_Driver/src/at32f4xx_rcc.c ****   * @param  NewState: new state of the Backup domain reset.
 911:../Libraries/AT32F4xx_StdPeriph_Driver/src/at32f4xx_rcc.c ****   *   This parameter can be: ENABLE or DISABLE.
 912:../Libraries/AT32F4xx_StdPeriph_Driver/src/at32f4xx_rcc.c ****   * @retval None
 913:../Libraries/AT32F4xx_StdPeriph_Driver/src/at32f4xx_rcc.c ****   */
 914:../Libraries/AT32F4xx_StdPeriph_Driver/src/at32f4xx_rcc.c **** void RCC_BackupResetCmd(FunctionalState NewState)
 915:../Libraries/AT32F4xx_StdPeriph_Driver/src/at32f4xx_rcc.c **** {
 1296              		.loc 1 915 0
 1297              		.cfi_startproc
 1298              		@ args = 0, pretend = 0, frame = 0
 1299              		@ frame_needed = 0, uses_anonymous_args = 0
 1300              		@ link register save eliminated.
 1301              	.LVL113:
 916:../Libraries/AT32F4xx_StdPeriph_Driver/src/at32f4xx_rcc.c ****   /* Check the parameters */
 917:../Libraries/AT32F4xx_StdPeriph_Driver/src/at32f4xx_rcc.c ****   assert_param(IS_FUNCTIONAL_STATE(NewState));
 918:../Libraries/AT32F4xx_StdPeriph_Driver/src/at32f4xx_rcc.c ****   *(__IO uint32_t *) BDC_BDRST_BB = (uint32_t)NewState;
 1302              		.loc 1 918 0
 1303 0000 014B     		ldr	r3, .L124
 1304 0002 1860     		str	r0, [r3]
 919:../Libraries/AT32F4xx_StdPeriph_Driver/src/at32f4xx_rcc.c **** }
 1305              		.loc 1 919 0
 1306 0004 7047     		bx	lr
 1307              	.L125:
 1308 0006 00BF     		.align	2
 1309              	.L124:
 1310 0008 40044242 		.word	1111622720
 1311              		.cfi_endproc
 1312              	.LFE149:
 1313              		.cantunwind
 1314              		.fnend
 1316              		.section	.text.RCC_HSEClockFailureDetectorCmd,"ax",%progbits
 1317              		.align	1
 1318              		.global	RCC_HSEClockFailureDetectorCmd
 1319              		.syntax unified
 1320              		.thumb
 1321              		.thumb_func
 1322              		.fpu fpv4-sp-d16
 1324              	RCC_HSEClockFailureDetectorCmd:
 1325              		.fnstart
 1326              	.LFB150:
 920:../Libraries/AT32F4xx_StdPeriph_Driver/src/at32f4xx_rcc.c **** 
 921:../Libraries/AT32F4xx_StdPeriph_Driver/src/at32f4xx_rcc.c **** /**
 922:../Libraries/AT32F4xx_StdPeriph_Driver/src/at32f4xx_rcc.c ****   * @brief  Enables or disables the Clock Security System.
 923:../Libraries/AT32F4xx_StdPeriph_Driver/src/at32f4xx_rcc.c ****   * @param  NewState: new state of the Clock Security System..
 924:../Libraries/AT32F4xx_StdPeriph_Driver/src/at32f4xx_rcc.c ****   *   This parameter can be: ENABLE or DISABLE.
ARM GAS  /var/folders/l3/4y5292px21b4835bsnjwqc7w009kq1/T//ccVOQnT7.s 			page 40


 925:../Libraries/AT32F4xx_StdPeriph_Driver/src/at32f4xx_rcc.c ****   * @retval None
 926:../Libraries/AT32F4xx_StdPeriph_Driver/src/at32f4xx_rcc.c ****   */
 927:../Libraries/AT32F4xx_StdPeriph_Driver/src/at32f4xx_rcc.c **** void RCC_HSEClockFailureDetectorCmd(FunctionalState NewState)
 928:../Libraries/AT32F4xx_StdPeriph_Driver/src/at32f4xx_rcc.c **** {
 1327              		.loc 1 928 0
 1328              		.cfi_startproc
 1329              		@ args = 0, pretend = 0, frame = 0
 1330              		@ frame_needed = 0, uses_anonymous_args = 0
 1331              		@ link register save eliminated.
 1332              	.LVL114:
 929:../Libraries/AT32F4xx_StdPeriph_Driver/src/at32f4xx_rcc.c ****   /* Check the parameters */
 930:../Libraries/AT32F4xx_StdPeriph_Driver/src/at32f4xx_rcc.c ****   assert_param(IS_FUNCTIONAL_STATE(NewState));
 931:../Libraries/AT32F4xx_StdPeriph_Driver/src/at32f4xx_rcc.c ****   *(__IO uint32_t *) CTRL_HSECFDEN_BB = (uint32_t)NewState;
 1333              		.loc 1 931 0
 1334 0000 014B     		ldr	r3, .L127
 1335 0002 1860     		str	r0, [r3]
 932:../Libraries/AT32F4xx_StdPeriph_Driver/src/at32f4xx_rcc.c **** }
 1336              		.loc 1 932 0
 1337 0004 7047     		bx	lr
 1338              	.L128:
 1339 0006 00BF     		.align	2
 1340              	.L127:
 1341 0008 4C004242 		.word	1111621708
 1342              		.cfi_endproc
 1343              	.LFE150:
 1344              		.cantunwind
 1345              		.fnend
 1347              		.section	.text.RCC_CLKOUTConfig,"ax",%progbits
 1348              		.align	1
 1349              		.global	RCC_CLKOUTConfig
 1350              		.syntax unified
 1351              		.thumb
 1352              		.thumb_func
 1353              		.fpu fpv4-sp-d16
 1355              	RCC_CLKOUTConfig:
 1356              		.fnstart
 1357              	.LFB151:
 933:../Libraries/AT32F4xx_StdPeriph_Driver/src/at32f4xx_rcc.c **** 
 934:../Libraries/AT32F4xx_StdPeriph_Driver/src/at32f4xx_rcc.c **** /**
 935:../Libraries/AT32F4xx_StdPeriph_Driver/src/at32f4xx_rcc.c ****   * @brief  Selects the clock source to output on CLKOUT pin.
 936:../Libraries/AT32F4xx_StdPeriph_Driver/src/at32f4xx_rcc.c ****   * @param  RCC_CLKOUT: specifies the clock source to output.
 937:../Libraries/AT32F4xx_StdPeriph_Driver/src/at32f4xx_rcc.c ****   *   This parameter can be one of the following values:
 938:../Libraries/AT32F4xx_StdPeriph_Driver/src/at32f4xx_rcc.c ****   *     @arg RCC_CLKOUT_NOCLK:    No clock selected
 939:../Libraries/AT32F4xx_StdPeriph_Driver/src/at32f4xx_rcc.c ****   *     @arg RCC_CLKOUT_SYSCLK:   System clock selected
 940:../Libraries/AT32F4xx_StdPeriph_Driver/src/at32f4xx_rcc.c ****   *     @arg RCC_CLKOUT_HSI:      HSI oscillator clock selected
 941:../Libraries/AT32F4xx_StdPeriph_Driver/src/at32f4xx_rcc.c ****   *     @arg RCC_CLKOUT_HSE:      HSE oscillator clock selected
 942:../Libraries/AT32F4xx_StdPeriph_Driver/src/at32f4xx_rcc.c ****   *     @arg RCC_CLKOUT_PLL_Div2: PLL clock divided by 2 selected
 943:../Libraries/AT32F4xx_StdPeriph_Driver/src/at32f4xx_rcc.c ****   *     @arg RCC_CLKOUT_PLL_Div4: PLL clock divided by 4 selected
 944:../Libraries/AT32F4xx_StdPeriph_Driver/src/at32f4xx_rcc.c ****   *     @arg RCC_CLKOUT_USB:      USB clock selected
 945:../Libraries/AT32F4xx_StdPeriph_Driver/src/at32f4xx_rcc.c ****   *     @arg RCC_CLKOUT_ADC:      ADC clock selected
 946:../Libraries/AT32F4xx_StdPeriph_Driver/src/at32f4xx_rcc.c ****   *     @arg RCC_CLKOUT_LSI:      LSI clock selected
 947:../Libraries/AT32F4xx_StdPeriph_Driver/src/at32f4xx_rcc.c ****   *     @arg RCC_CLKOUT_LSE:      LSE clock selected
 948:../Libraries/AT32F4xx_StdPeriph_Driver/src/at32f4xx_rcc.c ****   *     @arg RCC_CLKOUT_AHB:      AHB clock selected
 949:../Libraries/AT32F4xx_StdPeriph_Driver/src/at32f4xx_rcc.c ****   *     @arg RCC_CLKOUT_APB1:     APB1 clock selected
 950:../Libraries/AT32F4xx_StdPeriph_Driver/src/at32f4xx_rcc.c ****   *     @arg RCC_CLKOUT_APB2:     APB2 clock selected
 951:../Libraries/AT32F4xx_StdPeriph_Driver/src/at32f4xx_rcc.c ****   *     @arg RCC_CLKOUT_TIM1:     TIM1 clock selected
 952:../Libraries/AT32F4xx_StdPeriph_Driver/src/at32f4xx_rcc.c ****   *     @arg RCC_CLKOUT_TIM2:     TIM2 clock selected
ARM GAS  /var/folders/l3/4y5292px21b4835bsnjwqc7w009kq1/T//ccVOQnT7.s 			page 41


 953:../Libraries/AT32F4xx_StdPeriph_Driver/src/at32f4xx_rcc.c ****   *
 954:../Libraries/AT32F4xx_StdPeriph_Driver/src/at32f4xx_rcc.c ****   * @retval None
 955:../Libraries/AT32F4xx_StdPeriph_Driver/src/at32f4xx_rcc.c ****   */
 956:../Libraries/AT32F4xx_StdPeriph_Driver/src/at32f4xx_rcc.c **** void RCC_CLKOUTConfig(uint32_t RCC_CLKOUT)
 957:../Libraries/AT32F4xx_StdPeriph_Driver/src/at32f4xx_rcc.c **** {
 1358              		.loc 1 957 0
 1359              		.cfi_startproc
 1360              		@ args = 0, pretend = 0, frame = 0
 1361              		@ frame_needed = 0, uses_anonymous_args = 0
 1362              		@ link register save eliminated.
 1363              	.LVL115:
 958:../Libraries/AT32F4xx_StdPeriph_Driver/src/at32f4xx_rcc.c ****     uint32_t tmpreg = 0;
 959:../Libraries/AT32F4xx_StdPeriph_Driver/src/at32f4xx_rcc.c **** 
 960:../Libraries/AT32F4xx_StdPeriph_Driver/src/at32f4xx_rcc.c **** 		/* Check the parameters */
 961:../Libraries/AT32F4xx_StdPeriph_Driver/src/at32f4xx_rcc.c **** 		assert_param(IS_RCC_CLKOUT(RCC_CLKOUT));
 962:../Libraries/AT32F4xx_StdPeriph_Driver/src/at32f4xx_rcc.c **** 	
 963:../Libraries/AT32F4xx_StdPeriph_Driver/src/at32f4xx_rcc.c ****     if((RCC_CLKOUT >> 28) == 0)
 1364              		.loc 1 963 0
 1365 0000 030F     		lsrs	r3, r0, #28
 1366 0002 02D0     		beq	.L132
 964:../Libraries/AT32F4xx_StdPeriph_Driver/src/at32f4xx_rcc.c **** 		{
 965:../Libraries/AT32F4xx_StdPeriph_Driver/src/at32f4xx_rcc.c **** 			// Clear CLKOUT[3];
 966:../Libraries/AT32F4xx_StdPeriph_Driver/src/at32f4xx_rcc.c **** 			RCC->MISC &= ~RCC_MISC_CLKOUT_3;
 967:../Libraries/AT32F4xx_StdPeriph_Driver/src/at32f4xx_rcc.c **** 
 968:../Libraries/AT32F4xx_StdPeriph_Driver/src/at32f4xx_rcc.c **** 			tmpreg = RCC->CFG;
 969:../Libraries/AT32F4xx_StdPeriph_Driver/src/at32f4xx_rcc.c **** 			/* Clear CLKOUT[2:0] bits */
 970:../Libraries/AT32F4xx_StdPeriph_Driver/src/at32f4xx_rcc.c **** 			tmpreg &= ~RCC_CFG_CLKOUT;
 971:../Libraries/AT32F4xx_StdPeriph_Driver/src/at32f4xx_rcc.c **** 			/* Set CLKOUT[2:0] bits according to RCC_CLKOUT value */
 972:../Libraries/AT32F4xx_StdPeriph_Driver/src/at32f4xx_rcc.c **** 			tmpreg |= RCC_CLKOUT;
 973:../Libraries/AT32F4xx_StdPeriph_Driver/src/at32f4xx_rcc.c **** 			/* Store the new value */
 974:../Libraries/AT32F4xx_StdPeriph_Driver/src/at32f4xx_rcc.c **** 			RCC->CFG = tmpreg;
 975:../Libraries/AT32F4xx_StdPeriph_Driver/src/at32f4xx_rcc.c **** 		}
 976:../Libraries/AT32F4xx_StdPeriph_Driver/src/at32f4xx_rcc.c **** 		else if((RCC_CLKOUT >> 28) == 1)
 1367              		.loc 1 976 0
 1368 0004 012B     		cmp	r3, #1
 1369 0006 0BD0     		beq	.L133
 1370              	.LVL116:
 1371              	.L129:
 977:../Libraries/AT32F4xx_StdPeriph_Driver/src/at32f4xx_rcc.c **** 		{
 978:../Libraries/AT32F4xx_StdPeriph_Driver/src/at32f4xx_rcc.c **** 			// Set CLKOUT[3];
 979:../Libraries/AT32F4xx_StdPeriph_Driver/src/at32f4xx_rcc.c **** 			RCC->MISC &= ~RCC_MISC_CLKOUT_3;
 980:../Libraries/AT32F4xx_StdPeriph_Driver/src/at32f4xx_rcc.c **** 			RCC->MISC |= RCC_MISC_CLKOUT_3;
 981:../Libraries/AT32F4xx_StdPeriph_Driver/src/at32f4xx_rcc.c **** 
 982:../Libraries/AT32F4xx_StdPeriph_Driver/src/at32f4xx_rcc.c **** 			tmpreg = RCC->CFG;
 983:../Libraries/AT32F4xx_StdPeriph_Driver/src/at32f4xx_rcc.c **** 			/* Clear CLKOUT[2:0] bits */
 984:../Libraries/AT32F4xx_StdPeriph_Driver/src/at32f4xx_rcc.c **** 			tmpreg &= ~RCC_CFG_CLKOUT;
 985:../Libraries/AT32F4xx_StdPeriph_Driver/src/at32f4xx_rcc.c **** 			/* Set CLKOUT[2:0] bits according to RCC_CLKOUT value */
 986:../Libraries/AT32F4xx_StdPeriph_Driver/src/at32f4xx_rcc.c **** 			tmpreg |= (RCC_CLKOUT & 0xFFFFFFF);
 987:../Libraries/AT32F4xx_StdPeriph_Driver/src/at32f4xx_rcc.c **** 			/* Store the new value */
 988:../Libraries/AT32F4xx_StdPeriph_Driver/src/at32f4xx_rcc.c **** 			RCC->CFG = tmpreg;
 989:../Libraries/AT32F4xx_StdPeriph_Driver/src/at32f4xx_rcc.c **** 		}
 990:../Libraries/AT32F4xx_StdPeriph_Driver/src/at32f4xx_rcc.c **** #ifdef AT32F413xx
 991:../Libraries/AT32F4xx_StdPeriph_Driver/src/at32f4xx_rcc.c **** 		else if((RCC_CLKOUT >> 28) == 2)
 992:../Libraries/AT32F4xx_StdPeriph_Driver/src/at32f4xx_rcc.c **** 		{
 993:../Libraries/AT32F4xx_StdPeriph_Driver/src/at32f4xx_rcc.c **** 			// Set CLKOUT[2:0] = 0x1, use CLKOUT_SEL;
 994:../Libraries/AT32F4xx_StdPeriph_Driver/src/at32f4xx_rcc.c **** 			RCC->MISC &= ~RCC_MISC_CLKOUT_3;
 995:../Libraries/AT32F4xx_StdPeriph_Driver/src/at32f4xx_rcc.c **** 
ARM GAS  /var/folders/l3/4y5292px21b4835bsnjwqc7w009kq1/T//ccVOQnT7.s 			page 42


 996:../Libraries/AT32F4xx_StdPeriph_Driver/src/at32f4xx_rcc.c **** 			RCC->CFG &= ~RCC_CFG_CLKOUT;
 997:../Libraries/AT32F4xx_StdPeriph_Driver/src/at32f4xx_rcc.c **** 			RCC->CFG |= RCC_CFG_CLKOUT_0;
 998:../Libraries/AT32F4xx_StdPeriph_Driver/src/at32f4xx_rcc.c **** 
 999:../Libraries/AT32F4xx_StdPeriph_Driver/src/at32f4xx_rcc.c **** 			/* Set CLKOUT_SEL bits according to RCC_CLKOUT value */
1000:../Libraries/AT32F4xx_StdPeriph_Driver/src/at32f4xx_rcc.c **** 			tmpreg = RCC->TEST;
1001:../Libraries/AT32F4xx_StdPeriph_Driver/src/at32f4xx_rcc.c **** 			/* Clear CLKOUT_SEL[2:0] bits */
1002:../Libraries/AT32F4xx_StdPeriph_Driver/src/at32f4xx_rcc.c **** 			tmpreg &= ~RCC_TEST_CLKOUT_SEL;
1003:../Libraries/AT32F4xx_StdPeriph_Driver/src/at32f4xx_rcc.c **** 			/* Set CLKOUT_SEL[2:0] bits */
1004:../Libraries/AT32F4xx_StdPeriph_Driver/src/at32f4xx_rcc.c **** 			tmpreg |= (RCC_CLKOUT & 0xFFFFFFF);
1005:../Libraries/AT32F4xx_StdPeriph_Driver/src/at32f4xx_rcc.c **** 			/* Store the new value */
1006:../Libraries/AT32F4xx_StdPeriph_Driver/src/at32f4xx_rcc.c **** 			RCC->TEST = tmpreg;
1007:../Libraries/AT32F4xx_StdPeriph_Driver/src/at32f4xx_rcc.c **** 		}
1008:../Libraries/AT32F4xx_StdPeriph_Driver/src/at32f4xx_rcc.c **** #endif
1009:../Libraries/AT32F4xx_StdPeriph_Driver/src/at32f4xx_rcc.c **** }
 1372              		.loc 1 1009 0
 1373 0008 7047     		bx	lr
 1374              	.LVL117:
 1375              	.L132:
 966:../Libraries/AT32F4xx_StdPeriph_Driver/src/at32f4xx_rcc.c **** 
 1376              		.loc 1 966 0
 1377 000a 0E4B     		ldr	r3, .L134
 1378 000c 1A6B     		ldr	r2, [r3, #48]
 1379 000e 22F48032 		bic	r2, r2, #65536
 1380 0012 1A63     		str	r2, [r3, #48]
 968:../Libraries/AT32F4xx_StdPeriph_Driver/src/at32f4xx_rcc.c **** 			/* Clear CLKOUT[2:0] bits */
 1381              		.loc 1 968 0
 1382 0014 5A68     		ldr	r2, [r3, #4]
 1383              	.LVL118:
 970:../Libraries/AT32F4xx_StdPeriph_Driver/src/at32f4xx_rcc.c **** 			/* Set CLKOUT[2:0] bits according to RCC_CLKOUT value */
 1384              		.loc 1 970 0
 1385 0016 22F0E062 		bic	r2, r2, #117440512
 1386              	.LVL119:
 972:../Libraries/AT32F4xx_StdPeriph_Driver/src/at32f4xx_rcc.c **** 			/* Store the new value */
 1387              		.loc 1 972 0
 1388 001a 1043     		orrs	r0, r0, r2
 1389              	.LVL120:
 974:../Libraries/AT32F4xx_StdPeriph_Driver/src/at32f4xx_rcc.c **** 		}
 1390              		.loc 1 974 0
 1391 001c 5860     		str	r0, [r3, #4]
 1392 001e 7047     		bx	lr
 1393              	.LVL121:
 1394              	.L133:
 979:../Libraries/AT32F4xx_StdPeriph_Driver/src/at32f4xx_rcc.c **** 			RCC->MISC |= RCC_MISC_CLKOUT_3;
 1395              		.loc 1 979 0
 1396 0020 084B     		ldr	r3, .L134
 1397 0022 1A6B     		ldr	r2, [r3, #48]
 1398 0024 22F48032 		bic	r2, r2, #65536
 1399 0028 1A63     		str	r2, [r3, #48]
 980:../Libraries/AT32F4xx_StdPeriph_Driver/src/at32f4xx_rcc.c **** 
 1400              		.loc 1 980 0
 1401 002a 1A6B     		ldr	r2, [r3, #48]
 1402 002c 42F48032 		orr	r2, r2, #65536
 1403 0030 1A63     		str	r2, [r3, #48]
 982:../Libraries/AT32F4xx_StdPeriph_Driver/src/at32f4xx_rcc.c **** 			/* Clear CLKOUT[2:0] bits */
 1404              		.loc 1 982 0
 1405 0032 5A68     		ldr	r2, [r3, #4]
 1406              	.LVL122:
ARM GAS  /var/folders/l3/4y5292px21b4835bsnjwqc7w009kq1/T//ccVOQnT7.s 			page 43


 984:../Libraries/AT32F4xx_StdPeriph_Driver/src/at32f4xx_rcc.c **** 			/* Set CLKOUT[2:0] bits according to RCC_CLKOUT value */
 1407              		.loc 1 984 0
 1408 0034 22F0E062 		bic	r2, r2, #117440512
 1409              	.LVL123:
 986:../Libraries/AT32F4xx_StdPeriph_Driver/src/at32f4xx_rcc.c **** 			/* Store the new value */
 1410              		.loc 1 986 0
 1411 0038 20F07040 		bic	r0, r0, #-268435456
 1412              	.LVL124:
 1413 003c 1043     		orrs	r0, r0, r2
 1414              	.LVL125:
 988:../Libraries/AT32F4xx_StdPeriph_Driver/src/at32f4xx_rcc.c **** 		}
 1415              		.loc 1 988 0
 1416 003e 5860     		str	r0, [r3, #4]
 1417              		.loc 1 1009 0
 1418 0040 E2E7     		b	.L129
 1419              	.L135:
 1420 0042 00BF     		.align	2
 1421              	.L134:
 1422 0044 00100240 		.word	1073876992
 1423              		.cfi_endproc
 1424              	.LFE151:
 1425              		.cantunwind
 1426              		.fnend
 1428              		.section	.text.RCC_GetFlagStatus,"ax",%progbits
 1429              		.align	1
 1430              		.global	RCC_GetFlagStatus
 1431              		.syntax unified
 1432              		.thumb
 1433              		.thumb_func
 1434              		.fpu fpv4-sp-d16
 1436              	RCC_GetFlagStatus:
 1437              		.fnstart
 1438              	.LFB152:
1010:../Libraries/AT32F4xx_StdPeriph_Driver/src/at32f4xx_rcc.c **** 
1011:../Libraries/AT32F4xx_StdPeriph_Driver/src/at32f4xx_rcc.c **** /**
1012:../Libraries/AT32F4xx_StdPeriph_Driver/src/at32f4xx_rcc.c ****   * @brief  Checks whether the specified RCC flag is set or not.
1013:../Libraries/AT32F4xx_StdPeriph_Driver/src/at32f4xx_rcc.c ****   * @param  RCC_Flag: specifies the flag to check.
1014:../Libraries/AT32F4xx_StdPeriph_Driver/src/at32f4xx_rcc.c ****   *   This parameter can be one of the following values:
1015:../Libraries/AT32F4xx_StdPeriph_Driver/src/at32f4xx_rcc.c ****   *     @arg RCC_FLAG_HSISTBL:  HSI oscillator clock ready
1016:../Libraries/AT32F4xx_StdPeriph_Driver/src/at32f4xx_rcc.c ****   *     @arg RCC_FLAG_HSESTBL:  HSE oscillator clock ready
1017:../Libraries/AT32F4xx_StdPeriph_Driver/src/at32f4xx_rcc.c ****   *     @arg RCC_FLAG_PLLSTBL:  PLL clock ready
1018:../Libraries/AT32F4xx_StdPeriph_Driver/src/at32f4xx_rcc.c ****   *     @arg RCC_FLAG_LSESTBL:  LSE oscillator clock ready
1019:../Libraries/AT32F4xx_StdPeriph_Driver/src/at32f4xx_rcc.c ****   *     @arg RCC_FLAG_LSISTBL:  LSI oscillator clock ready
1020:../Libraries/AT32F4xx_StdPeriph_Driver/src/at32f4xx_rcc.c ****   *     @arg RCC_FLAG_PINRST:   Pin reset
1021:../Libraries/AT32F4xx_StdPeriph_Driver/src/at32f4xx_rcc.c ****   *     @arg RCC_FLAG_PORST:    POR/PDR reset
1022:../Libraries/AT32F4xx_StdPeriph_Driver/src/at32f4xx_rcc.c ****   *     @arg RCC_FLAG_SWRST:    Software reset
1023:../Libraries/AT32F4xx_StdPeriph_Driver/src/at32f4xx_rcc.c ****   *     @arg RCC_FLAG_IWDGRST:  Independent Watchdog reset
1024:../Libraries/AT32F4xx_StdPeriph_Driver/src/at32f4xx_rcc.c ****   *     @arg RCC_FLAG_WWDGRST:  Window Watchdog reset
1025:../Libraries/AT32F4xx_StdPeriph_Driver/src/at32f4xx_rcc.c ****   *     @arg RCC_FLAG_LPRST:    Low Power reset
1026:../Libraries/AT32F4xx_StdPeriph_Driver/src/at32f4xx_rcc.c ****   *
1027:../Libraries/AT32F4xx_StdPeriph_Driver/src/at32f4xx_rcc.c ****   * @retval The new state of RCC_Flag (SET or RESET).
1028:../Libraries/AT32F4xx_StdPeriph_Driver/src/at32f4xx_rcc.c ****   */
1029:../Libraries/AT32F4xx_StdPeriph_Driver/src/at32f4xx_rcc.c **** FlagStatus RCC_GetFlagStatus(uint8_t RCC_Flag)
1030:../Libraries/AT32F4xx_StdPeriph_Driver/src/at32f4xx_rcc.c **** {
 1439              		.loc 1 1030 0
 1440              		.cfi_startproc
 1441              		@ args = 0, pretend = 0, frame = 0
ARM GAS  /var/folders/l3/4y5292px21b4835bsnjwqc7w009kq1/T//ccVOQnT7.s 			page 44


 1442              		@ frame_needed = 0, uses_anonymous_args = 0
 1443              		@ link register save eliminated.
 1444              	.LVL126:
1031:../Libraries/AT32F4xx_StdPeriph_Driver/src/at32f4xx_rcc.c ****   uint32_t tmp = 0;
1032:../Libraries/AT32F4xx_StdPeriph_Driver/src/at32f4xx_rcc.c ****   uint32_t statusreg = 0;
1033:../Libraries/AT32F4xx_StdPeriph_Driver/src/at32f4xx_rcc.c ****   FlagStatus bitstatus = RESET;
1034:../Libraries/AT32F4xx_StdPeriph_Driver/src/at32f4xx_rcc.c ****   /* Check the parameters */
1035:../Libraries/AT32F4xx_StdPeriph_Driver/src/at32f4xx_rcc.c ****   assert_param(IS_RCC_FLAG(RCC_Flag));
1036:../Libraries/AT32F4xx_StdPeriph_Driver/src/at32f4xx_rcc.c **** 
1037:../Libraries/AT32F4xx_StdPeriph_Driver/src/at32f4xx_rcc.c ****   /* Get the RCC register index */
1038:../Libraries/AT32F4xx_StdPeriph_Driver/src/at32f4xx_rcc.c ****   tmp = RCC_Flag >> 5;
 1445              		.loc 1 1038 0
 1446 0000 4311     		asrs	r3, r0, #5
 1447              	.LVL127:
1039:../Libraries/AT32F4xx_StdPeriph_Driver/src/at32f4xx_rcc.c **** 
1040:../Libraries/AT32F4xx_StdPeriph_Driver/src/at32f4xx_rcc.c ****   if (tmp == 1)               /* The flag to check is in CTRL register */
 1448              		.loc 1 1040 0
 1449 0002 012B     		cmp	r3, #1
 1450 0004 0CD0     		beq	.L142
1041:../Libraries/AT32F4xx_StdPeriph_Driver/src/at32f4xx_rcc.c ****   {
1042:../Libraries/AT32F4xx_StdPeriph_Driver/src/at32f4xx_rcc.c ****     statusreg = RCC->CTRL;
1043:../Libraries/AT32F4xx_StdPeriph_Driver/src/at32f4xx_rcc.c ****   }
1044:../Libraries/AT32F4xx_StdPeriph_Driver/src/at32f4xx_rcc.c ****   else if (tmp == 2)          /* The flag to check is in BDC register */
 1451              		.loc 1 1044 0
 1452 0006 022B     		cmp	r3, #2
 1453 0008 0DD0     		beq	.L143
1045:../Libraries/AT32F4xx_StdPeriph_Driver/src/at32f4xx_rcc.c ****   {
1046:../Libraries/AT32F4xx_StdPeriph_Driver/src/at32f4xx_rcc.c ****     statusreg = RCC->BDC;
1047:../Libraries/AT32F4xx_StdPeriph_Driver/src/at32f4xx_rcc.c ****   }
1048:../Libraries/AT32F4xx_StdPeriph_Driver/src/at32f4xx_rcc.c ****   else                       /* The flag to check is in CTRLSTS register */
1049:../Libraries/AT32F4xx_StdPeriph_Driver/src/at32f4xx_rcc.c ****   {
1050:../Libraries/AT32F4xx_StdPeriph_Driver/src/at32f4xx_rcc.c ****     statusreg = RCC->CTRLSTS;
 1454              		.loc 1 1050 0
 1455 000a 094B     		ldr	r3, .L145
 1456              	.LVL128:
 1457 000c 5B6A     		ldr	r3, [r3, #36]
 1458              	.LVL129:
 1459              	.L138:
1051:../Libraries/AT32F4xx_StdPeriph_Driver/src/at32f4xx_rcc.c ****   }
1052:../Libraries/AT32F4xx_StdPeriph_Driver/src/at32f4xx_rcc.c **** 
1053:../Libraries/AT32F4xx_StdPeriph_Driver/src/at32f4xx_rcc.c ****   /* Get the flag position */
1054:../Libraries/AT32F4xx_StdPeriph_Driver/src/at32f4xx_rcc.c ****   tmp = RCC_Flag & FLAG_Mask;
 1460              		.loc 1 1054 0
 1461 000e 00F01F00 		and	r0, r0, #31
 1462              	.LVL130:
1055:../Libraries/AT32F4xx_StdPeriph_Driver/src/at32f4xx_rcc.c **** 
1056:../Libraries/AT32F4xx_StdPeriph_Driver/src/at32f4xx_rcc.c ****   if ((statusreg & ((uint32_t)1 << tmp)) != (uint32_t)RESET)
 1463              		.loc 1 1056 0
 1464 0012 23FA00F0 		lsr	r0, r3, r0
 1465              	.LVL131:
 1466 0016 10F0010F 		tst	r0, #1
 1467 001a 07D1     		bne	.L144
1057:../Libraries/AT32F4xx_StdPeriph_Driver/src/at32f4xx_rcc.c ****   {
1058:../Libraries/AT32F4xx_StdPeriph_Driver/src/at32f4xx_rcc.c ****     bitstatus = SET;
1059:../Libraries/AT32F4xx_StdPeriph_Driver/src/at32f4xx_rcc.c ****   }
1060:../Libraries/AT32F4xx_StdPeriph_Driver/src/at32f4xx_rcc.c ****   else
1061:../Libraries/AT32F4xx_StdPeriph_Driver/src/at32f4xx_rcc.c ****   {
ARM GAS  /var/folders/l3/4y5292px21b4835bsnjwqc7w009kq1/T//ccVOQnT7.s 			page 45


1062:../Libraries/AT32F4xx_StdPeriph_Driver/src/at32f4xx_rcc.c ****     bitstatus = RESET;
 1468              		.loc 1 1062 0
 1469 001c 0020     		movs	r0, #0
 1470              	.LVL132:
1063:../Libraries/AT32F4xx_StdPeriph_Driver/src/at32f4xx_rcc.c ****   }
1064:../Libraries/AT32F4xx_StdPeriph_Driver/src/at32f4xx_rcc.c **** 
1065:../Libraries/AT32F4xx_StdPeriph_Driver/src/at32f4xx_rcc.c ****   /* Return the flag status */
1066:../Libraries/AT32F4xx_StdPeriph_Driver/src/at32f4xx_rcc.c ****   return bitstatus;
1067:../Libraries/AT32F4xx_StdPeriph_Driver/src/at32f4xx_rcc.c **** }
 1471              		.loc 1 1067 0
 1472 001e 7047     		bx	lr
 1473              	.LVL133:
 1474              	.L142:
1042:../Libraries/AT32F4xx_StdPeriph_Driver/src/at32f4xx_rcc.c ****   }
 1475              		.loc 1 1042 0
 1476 0020 034B     		ldr	r3, .L145
 1477              	.LVL134:
 1478 0022 1B68     		ldr	r3, [r3]
 1479              	.LVL135:
 1480 0024 F3E7     		b	.L138
 1481              	.LVL136:
 1482              	.L143:
1046:../Libraries/AT32F4xx_StdPeriph_Driver/src/at32f4xx_rcc.c ****   }
 1483              		.loc 1 1046 0
 1484 0026 024B     		ldr	r3, .L145
 1485              	.LVL137:
 1486 0028 1B6A     		ldr	r3, [r3, #32]
 1487              	.LVL138:
 1488 002a F0E7     		b	.L138
 1489              	.LVL139:
 1490              	.L144:
1058:../Libraries/AT32F4xx_StdPeriph_Driver/src/at32f4xx_rcc.c ****   }
 1491              		.loc 1 1058 0
 1492 002c 0120     		movs	r0, #1
 1493 002e 7047     		bx	lr
 1494              	.L146:
 1495              		.align	2
 1496              	.L145:
 1497 0030 00100240 		.word	1073876992
 1498              		.cfi_endproc
 1499              	.LFE152:
 1500              		.cantunwind
 1501              		.fnend
 1503              		.section	.text.RCC_WaitForHSEStable,"ax",%progbits
 1504              		.align	1
 1505              		.global	RCC_WaitForHSEStable
 1506              		.syntax unified
 1507              		.thumb
 1508              		.thumb_func
 1509              		.fpu fpv4-sp-d16
 1511              	RCC_WaitForHSEStable:
 1512              		.fnstart
 1513              	.LFB125:
 224:../Libraries/AT32F4xx_StdPeriph_Driver/src/at32f4xx_rcc.c ****   __IO uint32_t StartUpCounter = 0;
 1514              		.loc 1 224 0
 1515              		.cfi_startproc
 1516              		@ args = 0, pretend = 0, frame = 8
ARM GAS  /var/folders/l3/4y5292px21b4835bsnjwqc7w009kq1/T//ccVOQnT7.s 			page 46


 1517              		@ frame_needed = 0, uses_anonymous_args = 0
 1518 0000 00B5     		push	{lr}
 1519              	.LCFI5:
 1520              		.cfi_def_cfa_offset 4
 1521              		.cfi_offset 14, -4
 1522 0002 83B0     		sub	sp, sp, #12
 1523              	.LCFI6:
 1524              		.cfi_def_cfa_offset 16
 225:../Libraries/AT32F4xx_StdPeriph_Driver/src/at32f4xx_rcc.c ****   ErrorStatus status = ERROR;
 1525              		.loc 1 225 0
 1526 0004 0023     		movs	r3, #0
 1527 0006 0193     		str	r3, [sp, #4]
 1528              	.LVL140:
 1529              	.L149:
 232:../Libraries/AT32F4xx_StdPeriph_Driver/src/at32f4xx_rcc.c ****     StartUpCounter++;
 1530              		.loc 1 232 0
 1531 0008 3120     		movs	r0, #49
 1532 000a FFF7FEFF 		bl	RCC_GetFlagStatus
 1533              	.LVL141:
 233:../Libraries/AT32F4xx_StdPeriph_Driver/src/at32f4xx_rcc.c ****   }
 1534              		.loc 1 233 0
 1535 000e 019B     		ldr	r3, [sp, #4]
 1536 0010 0133     		adds	r3, r3, #1
 1537 0012 0193     		str	r3, [sp, #4]
 235:../Libraries/AT32F4xx_StdPeriph_Driver/src/at32f4xx_rcc.c ****   
 1538              		.loc 1 235 0
 1539 0014 019B     		ldr	r3, [sp, #4]
 1540 0016 B3F5A06F 		cmp	r3, #1280
 1541 001a 01D0     		beq	.L148
 235:../Libraries/AT32F4xx_StdPeriph_Driver/src/at32f4xx_rcc.c ****   
 1542              		.loc 1 235 0 is_stmt 0 discriminator 1
 1543 001c 0028     		cmp	r0, #0
 1544 001e F3D0     		beq	.L149
 1545              	.L148:
 240:../Libraries/AT32F4xx_StdPeriph_Driver/src/at32f4xx_rcc.c ****   {
 1546              		.loc 1 240 0 is_stmt 1
 1547 0020 3120     		movs	r0, #49
 1548              	.LVL142:
 1549 0022 FFF7FEFF 		bl	RCC_GetFlagStatus
 1550              	.LVL143:
 1551 0026 18B9     		cbnz	r0, .L153
 246:../Libraries/AT32F4xx_StdPeriph_Driver/src/at32f4xx_rcc.c ****   }
 1552              		.loc 1 246 0
 1553 0028 0020     		movs	r0, #0
 1554              	.L150:
 1555              	.LVL144:
 250:../Libraries/AT32F4xx_StdPeriph_Driver/src/at32f4xx_rcc.c **** 
 1556              		.loc 1 250 0
 1557 002a 03B0     		add	sp, sp, #12
 1558              	.LCFI7:
 1559              		.cfi_remember_state
 1560              		.cfi_def_cfa_offset 4
 1561              		@ sp needed
 1562 002c 5DF804FB 		ldr	pc, [sp], #4
 1563              	.LVL145:
 1564              	.L153:
 1565              	.LCFI8:
ARM GAS  /var/folders/l3/4y5292px21b4835bsnjwqc7w009kq1/T//ccVOQnT7.s 			page 47


 1566              		.cfi_restore_state
 242:../Libraries/AT32F4xx_StdPeriph_Driver/src/at32f4xx_rcc.c ****   }
 1567              		.loc 1 242 0
 1568 0030 0120     		movs	r0, #1
 1569 0032 FAE7     		b	.L150
 1570              		.cfi_endproc
 1571              	.LFE125:
 1572              		.cantunwind
 1573              		.fnend
 1575              		.section	.text.RCC_ClearFlag,"ax",%progbits
 1576              		.align	1
 1577              		.global	RCC_ClearFlag
 1578              		.syntax unified
 1579              		.thumb
 1580              		.thumb_func
 1581              		.fpu fpv4-sp-d16
 1583              	RCC_ClearFlag:
 1584              		.fnstart
 1585              	.LFB153:
1068:../Libraries/AT32F4xx_StdPeriph_Driver/src/at32f4xx_rcc.c **** 
1069:../Libraries/AT32F4xx_StdPeriph_Driver/src/at32f4xx_rcc.c **** /**
1070:../Libraries/AT32F4xx_StdPeriph_Driver/src/at32f4xx_rcc.c ****   * @brief  Clears the RCC reset flags.
1071:../Libraries/AT32F4xx_StdPeriph_Driver/src/at32f4xx_rcc.c ****   * @note   The reset flags are: RCC_FLAG_PINRST, RCC_FLAG_PORST, RCC_FLAG_SWRST,
1072:../Libraries/AT32F4xx_StdPeriph_Driver/src/at32f4xx_rcc.c ****   *   RCC_FLAG_IWDGRST, RCC_FLAG_WWDGRST, RCC_FLAG_LPRST
1073:../Libraries/AT32F4xx_StdPeriph_Driver/src/at32f4xx_rcc.c ****   * @param  None
1074:../Libraries/AT32F4xx_StdPeriph_Driver/src/at32f4xx_rcc.c ****   * @retval None
1075:../Libraries/AT32F4xx_StdPeriph_Driver/src/at32f4xx_rcc.c ****   */
1076:../Libraries/AT32F4xx_StdPeriph_Driver/src/at32f4xx_rcc.c **** void RCC_ClearFlag(void)
1077:../Libraries/AT32F4xx_StdPeriph_Driver/src/at32f4xx_rcc.c **** {
 1586              		.loc 1 1077 0
 1587              		.cfi_startproc
 1588              		@ args = 0, pretend = 0, frame = 0
 1589              		@ frame_needed = 0, uses_anonymous_args = 0
 1590              		@ link register save eliminated.
1078:../Libraries/AT32F4xx_StdPeriph_Driver/src/at32f4xx_rcc.c ****   /* Set RSTFC bit to clear the reset flags */
1079:../Libraries/AT32F4xx_StdPeriph_Driver/src/at32f4xx_rcc.c ****   RCC->CTRLSTS |= RCC_CTRLSTS_RSTFC;
 1591              		.loc 1 1079 0
 1592 0000 024A     		ldr	r2, .L155
 1593 0002 536A     		ldr	r3, [r2, #36]
 1594 0004 43F08073 		orr	r3, r3, #16777216
 1595 0008 5362     		str	r3, [r2, #36]
1080:../Libraries/AT32F4xx_StdPeriph_Driver/src/at32f4xx_rcc.c **** }
 1596              		.loc 1 1080 0
 1597 000a 7047     		bx	lr
 1598              	.L156:
 1599              		.align	2
 1600              	.L155:
 1601 000c 00100240 		.word	1073876992
 1602              		.cfi_endproc
 1603              	.LFE153:
 1604              		.cantunwind
 1605              		.fnend
 1607              		.section	.text.RCC_GetINTStatus,"ax",%progbits
 1608              		.align	1
 1609              		.global	RCC_GetINTStatus
 1610              		.syntax unified
 1611              		.thumb
ARM GAS  /var/folders/l3/4y5292px21b4835bsnjwqc7w009kq1/T//ccVOQnT7.s 			page 48


 1612              		.thumb_func
 1613              		.fpu fpv4-sp-d16
 1615              	RCC_GetINTStatus:
 1616              		.fnstart
 1617              	.LFB154:
1081:../Libraries/AT32F4xx_StdPeriph_Driver/src/at32f4xx_rcc.c **** 
1082:../Libraries/AT32F4xx_StdPeriph_Driver/src/at32f4xx_rcc.c **** /**
1083:../Libraries/AT32F4xx_StdPeriph_Driver/src/at32f4xx_rcc.c ****   * @brief  Checks whether the specified RCC interrupt has occurred or not.
1084:../Libraries/AT32F4xx_StdPeriph_Driver/src/at32f4xx_rcc.c ****   * @param  RCC_INT: specifies the RCC interrupt source to check.
1085:../Libraries/AT32F4xx_StdPeriph_Driver/src/at32f4xx_rcc.c ****   *   This parameter can be one of the following values:
1086:../Libraries/AT32F4xx_StdPeriph_Driver/src/at32f4xx_rcc.c ****   *     @arg RCC_INT_LSISTBL: LSI ready interrupt
1087:../Libraries/AT32F4xx_StdPeriph_Driver/src/at32f4xx_rcc.c ****   *     @arg RCC_INT_LSESTBL: LSE ready interrupt
1088:../Libraries/AT32F4xx_StdPeriph_Driver/src/at32f4xx_rcc.c ****   *     @arg RCC_INT_HSISTBL: HSI ready interrupt
1089:../Libraries/AT32F4xx_StdPeriph_Driver/src/at32f4xx_rcc.c ****   *     @arg RCC_INT_HSESTBL: HSE ready interrupt
1090:../Libraries/AT32F4xx_StdPeriph_Driver/src/at32f4xx_rcc.c ****   *     @arg RCC_INT_PLLSTBL: PLL ready interrupt
1091:../Libraries/AT32F4xx_StdPeriph_Driver/src/at32f4xx_rcc.c ****   *     @arg RCC_INT_HSECFD:  Clock Security System interrupt
1092:../Libraries/AT32F4xx_StdPeriph_Driver/src/at32f4xx_rcc.c ****   *
1093:../Libraries/AT32F4xx_StdPeriph_Driver/src/at32f4xx_rcc.c ****   * @retval The new state of RCC_INT (SET or RESET).
1094:../Libraries/AT32F4xx_StdPeriph_Driver/src/at32f4xx_rcc.c ****   */
1095:../Libraries/AT32F4xx_StdPeriph_Driver/src/at32f4xx_rcc.c **** ITStatus RCC_GetINTStatus(uint8_t RCC_INT)
1096:../Libraries/AT32F4xx_StdPeriph_Driver/src/at32f4xx_rcc.c **** {
 1618              		.loc 1 1096 0
 1619              		.cfi_startproc
 1620              		@ args = 0, pretend = 0, frame = 0
 1621              		@ frame_needed = 0, uses_anonymous_args = 0
 1622              		@ link register save eliminated.
 1623              	.LVL146:
1097:../Libraries/AT32F4xx_StdPeriph_Driver/src/at32f4xx_rcc.c ****   ITStatus bitstatus = RESET;
1098:../Libraries/AT32F4xx_StdPeriph_Driver/src/at32f4xx_rcc.c ****   /* Check the parameters */
1099:../Libraries/AT32F4xx_StdPeriph_Driver/src/at32f4xx_rcc.c ****   assert_param(IS_RCC_INT_STS(RCC_INT));
1100:../Libraries/AT32F4xx_StdPeriph_Driver/src/at32f4xx_rcc.c **** 
1101:../Libraries/AT32F4xx_StdPeriph_Driver/src/at32f4xx_rcc.c ****   /* Check the status of the specified RCC interrupt */
1102:../Libraries/AT32F4xx_StdPeriph_Driver/src/at32f4xx_rcc.c ****   if ((RCC->CLKINT & RCC_INT) != (uint32_t)RESET)
 1624              		.loc 1 1102 0
 1625 0000 034B     		ldr	r3, .L161
 1626 0002 9B68     		ldr	r3, [r3, #8]
 1627 0004 1842     		tst	r0, r3
 1628 0006 01D1     		bne	.L160
1103:../Libraries/AT32F4xx_StdPeriph_Driver/src/at32f4xx_rcc.c ****   {
1104:../Libraries/AT32F4xx_StdPeriph_Driver/src/at32f4xx_rcc.c ****     bitstatus = SET;
1105:../Libraries/AT32F4xx_StdPeriph_Driver/src/at32f4xx_rcc.c ****   }
1106:../Libraries/AT32F4xx_StdPeriph_Driver/src/at32f4xx_rcc.c ****   else
1107:../Libraries/AT32F4xx_StdPeriph_Driver/src/at32f4xx_rcc.c ****   {
1108:../Libraries/AT32F4xx_StdPeriph_Driver/src/at32f4xx_rcc.c ****     bitstatus = RESET;
 1629              		.loc 1 1108 0
 1630 0008 0020     		movs	r0, #0
 1631              	.LVL147:
1109:../Libraries/AT32F4xx_StdPeriph_Driver/src/at32f4xx_rcc.c ****   }
1110:../Libraries/AT32F4xx_StdPeriph_Driver/src/at32f4xx_rcc.c **** 
1111:../Libraries/AT32F4xx_StdPeriph_Driver/src/at32f4xx_rcc.c ****   /* Return the RCC_INT status */
1112:../Libraries/AT32F4xx_StdPeriph_Driver/src/at32f4xx_rcc.c ****   return  bitstatus;
1113:../Libraries/AT32F4xx_StdPeriph_Driver/src/at32f4xx_rcc.c **** }
 1632              		.loc 1 1113 0
 1633 000a 7047     		bx	lr
 1634              	.LVL148:
 1635              	.L160:
1104:../Libraries/AT32F4xx_StdPeriph_Driver/src/at32f4xx_rcc.c ****   }
ARM GAS  /var/folders/l3/4y5292px21b4835bsnjwqc7w009kq1/T//ccVOQnT7.s 			page 49


 1636              		.loc 1 1104 0
 1637 000c 0120     		movs	r0, #1
 1638              	.LVL149:
 1639 000e 7047     		bx	lr
 1640              	.L162:
 1641              		.align	2
 1642              	.L161:
 1643 0010 00100240 		.word	1073876992
 1644              		.cfi_endproc
 1645              	.LFE154:
 1646              		.cantunwind
 1647              		.fnend
 1649              		.section	.text.RCC_ClearINTPendingBit,"ax",%progbits
 1650              		.align	1
 1651              		.global	RCC_ClearINTPendingBit
 1652              		.syntax unified
 1653              		.thumb
 1654              		.thumb_func
 1655              		.fpu fpv4-sp-d16
 1657              	RCC_ClearINTPendingBit:
 1658              		.fnstart
 1659              	.LFB155:
1114:../Libraries/AT32F4xx_StdPeriph_Driver/src/at32f4xx_rcc.c **** 
1115:../Libraries/AT32F4xx_StdPeriph_Driver/src/at32f4xx_rcc.c **** /**
1116:../Libraries/AT32F4xx_StdPeriph_Driver/src/at32f4xx_rcc.c ****   * @brief  Clears the RCC's interrupt pending bits.
1117:../Libraries/AT32F4xx_StdPeriph_Driver/src/at32f4xx_rcc.c ****   * @param  RCC_INT: specifies the interrupt pending bit to clear.
1118:../Libraries/AT32F4xx_StdPeriph_Driver/src/at32f4xx_rcc.c ****   *   This parameter can be any combination of the
1119:../Libraries/AT32F4xx_StdPeriph_Driver/src/at32f4xx_rcc.c ****   *   following values:
1120:../Libraries/AT32F4xx_StdPeriph_Driver/src/at32f4xx_rcc.c ****   *     @arg RCC_INT_LSISTBL: LSI ready interrupt
1121:../Libraries/AT32F4xx_StdPeriph_Driver/src/at32f4xx_rcc.c ****   *     @arg RCC_INT_LSESTBL: LSE ready interrupt
1122:../Libraries/AT32F4xx_StdPeriph_Driver/src/at32f4xx_rcc.c ****   *     @arg RCC_INT_HSISTBL: HSI ready interrupt
1123:../Libraries/AT32F4xx_StdPeriph_Driver/src/at32f4xx_rcc.c ****   *     @arg RCC_INT_HSESTBL: HSE ready interrupt
1124:../Libraries/AT32F4xx_StdPeriph_Driver/src/at32f4xx_rcc.c ****   *     @arg RCC_INT_PLLSTBL: PLL ready interrupt
1125:../Libraries/AT32F4xx_StdPeriph_Driver/src/at32f4xx_rcc.c ****   *
1126:../Libraries/AT32F4xx_StdPeriph_Driver/src/at32f4xx_rcc.c ****   *     @arg RCC_INT_HSECFD: Clock Security System interrupt
1127:../Libraries/AT32F4xx_StdPeriph_Driver/src/at32f4xx_rcc.c ****   * @retval None
1128:../Libraries/AT32F4xx_StdPeriph_Driver/src/at32f4xx_rcc.c ****   */
1129:../Libraries/AT32F4xx_StdPeriph_Driver/src/at32f4xx_rcc.c **** void RCC_ClearINTPendingBit(uint8_t RCC_INT)
1130:../Libraries/AT32F4xx_StdPeriph_Driver/src/at32f4xx_rcc.c **** {
 1660              		.loc 1 1130 0
 1661              		.cfi_startproc
 1662              		@ args = 0, pretend = 0, frame = 0
 1663              		@ frame_needed = 0, uses_anonymous_args = 0
 1664              		@ link register save eliminated.
 1665              	.LVL150:
1131:../Libraries/AT32F4xx_StdPeriph_Driver/src/at32f4xx_rcc.c ****   /* Check the parameters */
1132:../Libraries/AT32F4xx_StdPeriph_Driver/src/at32f4xx_rcc.c ****   assert_param(IS_RCC_INT_CLR(RCC_INT));
1133:../Libraries/AT32F4xx_StdPeriph_Driver/src/at32f4xx_rcc.c **** 
1134:../Libraries/AT32F4xx_StdPeriph_Driver/src/at32f4xx_rcc.c ****   /* Perform Byte access to RCC_CLKINT[23:16] bits to clear the selected interrupt
1135:../Libraries/AT32F4xx_StdPeriph_Driver/src/at32f4xx_rcc.c ****      pending bits */
1136:../Libraries/AT32F4xx_StdPeriph_Driver/src/at32f4xx_rcc.c ****   *(__IO uint8_t *) CLKINT_BYTE3_CLR_ADDR = RCC_INT;
 1666              		.loc 1 1136 0
 1667 0000 014B     		ldr	r3, .L164
 1668 0002 1870     		strb	r0, [r3]
1137:../Libraries/AT32F4xx_StdPeriph_Driver/src/at32f4xx_rcc.c **** }
 1669              		.loc 1 1137 0
 1670 0004 7047     		bx	lr
ARM GAS  /var/folders/l3/4y5292px21b4835bsnjwqc7w009kq1/T//ccVOQnT7.s 			page 50


 1671              	.L165:
 1672 0006 00BF     		.align	2
 1673              	.L164:
 1674 0008 0A100240 		.word	1073877002
 1675              		.cfi_endproc
 1676              	.LFE155:
 1677              		.cantunwind
 1678              		.fnend
 1680              		.section	.data._ZL11ADCPscTable,"aw",%progbits
 1681              		.align	2
 1682              		.set	.LANCHOR1,. + 0
 1685              	_ZL11ADCPscTable:
 1686 0000 02       		.byte	2
 1687 0001 04       		.byte	4
 1688 0002 06       		.byte	6
 1689 0003 08       		.byte	8
 1690 0004 02       		.byte	2
 1691 0005 0C       		.byte	12
 1692 0006 08       		.byte	8
 1693 0007 10       		.byte	16
 1694              		.section	.data._ZL14APBAHBPscTable,"aw",%progbits
 1695              		.align	2
 1696              		.set	.LANCHOR0,. + 0
 1699              	_ZL14APBAHBPscTable:
 1700 0000 01       		.byte	1
 1701 0001 02       		.byte	2
 1702 0002 03       		.byte	3
 1703 0003 04       		.byte	4
 1704 0004 06       		.byte	6
 1705 0005 07       		.byte	7
 1706 0006 08       		.byte	8
 1707 0007 09       		.byte	9
 1708              		.text
 1709              	.Letext0:
 1710              		.file 2 "/usr/local/Cellar/gcc-arm-none-eabi/20180627/arm-none-eabi/include/machine/_default_types
 1711              		.file 3 "/usr/local/Cellar/gcc-arm-none-eabi/20180627/arm-none-eabi/include/sys/_stdint.h"
 1712              		.file 4 "../Libraries/CMSIS/CM4/CoreSupport/core_cm4.h"
 1713              		.file 5 "../Libraries/CMSIS/CM4/DeviceSupport/system_at32f4xx.h"
 1714              		.file 6 "../Libraries/CMSIS/CM4/DeviceSupport/at32f4xx.h"
 1715              		.file 7 "../Libraries/AT32F4xx_StdPeriph_Driver/inc/at32f4xx_rcc.h"
ARM GAS  /var/folders/l3/4y5292px21b4835bsnjwqc7w009kq1/T//ccVOQnT7.s 			page 51

