ARM GAS  /var/folders/l3/4y5292px21b4835bsnjwqc7w009kq1/T//ccQxGGuu.s 			page 1


   1              		.cpu cortex-m4
   2              		.eabi_attribute 27, 1
   3              		.eabi_attribute 20, 1
   4              		.eabi_attribute 21, 1
   5              		.eabi_attribute 23, 3
   6              		.eabi_attribute 24, 1
   7              		.eabi_attribute 25, 1
   8              		.eabi_attribute 26, 1
   9              		.eabi_attribute 30, 1
  10              		.eabi_attribute 34, 1
  11              		.eabi_attribute 18, 4
  12              		.file	"at32f4xx_gpio.c"
  13              		.text
  14              	.Ltext0:
  15              		.cfi_sections	.debug_frame
  16              		.section	.text.GPIO_Reset,"ax",%progbits
  17              		.align	1
  18              		.global	GPIO_Reset
  19              		.syntax unified
  20              		.thumb
  21              		.thumb_func
  22              		.fpu fpv4-sp-d16
  24              	GPIO_Reset:
  25              		.fnstart
  26              	.LFB123:
  27              		.file 1 "../Libraries/AT32F4xx_StdPeriph_Driver/src/at32f4xx_gpio.c"
   1:../Libraries/AT32F4xx_StdPeriph_Driver/src/at32f4xx_gpio.c **** /**
   2:../Libraries/AT32F4xx_StdPeriph_Driver/src/at32f4xx_gpio.c ****  **************************************************************************
   3:../Libraries/AT32F4xx_StdPeriph_Driver/src/at32f4xx_gpio.c ****  * File Name    : at32f4xx_gpio.c
   4:../Libraries/AT32F4xx_StdPeriph_Driver/src/at32f4xx_gpio.c ****  * Description  : at32f4xx GPIO source file
   5:../Libraries/AT32F4xx_StdPeriph_Driver/src/at32f4xx_gpio.c ****  * Date         : 2018-10-08
   6:../Libraries/AT32F4xx_StdPeriph_Driver/src/at32f4xx_gpio.c ****  * Version      : V1.0.5
   7:../Libraries/AT32F4xx_StdPeriph_Driver/src/at32f4xx_gpio.c ****  **************************************************************************
   8:../Libraries/AT32F4xx_StdPeriph_Driver/src/at32f4xx_gpio.c ****  */
   9:../Libraries/AT32F4xx_StdPeriph_Driver/src/at32f4xx_gpio.c **** 
  10:../Libraries/AT32F4xx_StdPeriph_Driver/src/at32f4xx_gpio.c **** 
  11:../Libraries/AT32F4xx_StdPeriph_Driver/src/at32f4xx_gpio.c **** /* Includes ------------------------------------------------------------------*/
  12:../Libraries/AT32F4xx_StdPeriph_Driver/src/at32f4xx_gpio.c **** #include "at32f4xx_gpio.h"
  13:../Libraries/AT32F4xx_StdPeriph_Driver/src/at32f4xx_gpio.c **** #include "at32f4xx_rcc.h"
  14:../Libraries/AT32F4xx_StdPeriph_Driver/src/at32f4xx_gpio.c **** 
  15:../Libraries/AT32F4xx_StdPeriph_Driver/src/at32f4xx_gpio.c **** /** @addtogroup at32f4xx_StdPeriph_Driver
  16:../Libraries/AT32F4xx_StdPeriph_Driver/src/at32f4xx_gpio.c ****   * @{
  17:../Libraries/AT32F4xx_StdPeriph_Driver/src/at32f4xx_gpio.c ****   */
  18:../Libraries/AT32F4xx_StdPeriph_Driver/src/at32f4xx_gpio.c **** 
  19:../Libraries/AT32F4xx_StdPeriph_Driver/src/at32f4xx_gpio.c **** /** @defgroup GPIO
  20:../Libraries/AT32F4xx_StdPeriph_Driver/src/at32f4xx_gpio.c ****   * @brief GPIO driver modules
  21:../Libraries/AT32F4xx_StdPeriph_Driver/src/at32f4xx_gpio.c ****   * @{
  22:../Libraries/AT32F4xx_StdPeriph_Driver/src/at32f4xx_gpio.c ****   */
  23:../Libraries/AT32F4xx_StdPeriph_Driver/src/at32f4xx_gpio.c **** 
  24:../Libraries/AT32F4xx_StdPeriph_Driver/src/at32f4xx_gpio.c **** /** @defgroup GPIO_Private_TypesDefinitions
  25:../Libraries/AT32F4xx_StdPeriph_Driver/src/at32f4xx_gpio.c ****   * @{
  26:../Libraries/AT32F4xx_StdPeriph_Driver/src/at32f4xx_gpio.c ****   */
  27:../Libraries/AT32F4xx_StdPeriph_Driver/src/at32f4xx_gpio.c **** 
  28:../Libraries/AT32F4xx_StdPeriph_Driver/src/at32f4xx_gpio.c **** /**
  29:../Libraries/AT32F4xx_StdPeriph_Driver/src/at32f4xx_gpio.c ****   * @}
  30:../Libraries/AT32F4xx_StdPeriph_Driver/src/at32f4xx_gpio.c ****   */
  31:../Libraries/AT32F4xx_StdPeriph_Driver/src/at32f4xx_gpio.c **** 
ARM GAS  /var/folders/l3/4y5292px21b4835bsnjwqc7w009kq1/T//ccQxGGuu.s 			page 2


  32:../Libraries/AT32F4xx_StdPeriph_Driver/src/at32f4xx_gpio.c **** /** @defgroup GPIO_Private_Defines
  33:../Libraries/AT32F4xx_StdPeriph_Driver/src/at32f4xx_gpio.c ****   * @{
  34:../Libraries/AT32F4xx_StdPeriph_Driver/src/at32f4xx_gpio.c ****   */
  35:../Libraries/AT32F4xx_StdPeriph_Driver/src/at32f4xx_gpio.c **** 
  36:../Libraries/AT32F4xx_StdPeriph_Driver/src/at32f4xx_gpio.c **** /* ------------ RCC registers bit address in the alias region ----------------*/
  37:../Libraries/AT32F4xx_StdPeriph_Driver/src/at32f4xx_gpio.c **** #define AFIO_OFFSET                 (AFIO_BASE - PERIPH_BASE)
  38:../Libraries/AT32F4xx_StdPeriph_Driver/src/at32f4xx_gpio.c **** 
  39:../Libraries/AT32F4xx_StdPeriph_Driver/src/at32f4xx_gpio.c **** /* --- EVENTCR Register -----*/
  40:../Libraries/AT32F4xx_StdPeriph_Driver/src/at32f4xx_gpio.c **** 
  41:../Libraries/AT32F4xx_StdPeriph_Driver/src/at32f4xx_gpio.c **** /* Alias word address of EVOE bit */
  42:../Libraries/AT32F4xx_StdPeriph_Driver/src/at32f4xx_gpio.c **** #define EVCR_OFFSET                 (AFIO_OFFSET + 0x00)
  43:../Libraries/AT32F4xx_StdPeriph_Driver/src/at32f4xx_gpio.c **** #define EVOE_BitNumber              ((uint8_t)0x07)
  44:../Libraries/AT32F4xx_StdPeriph_Driver/src/at32f4xx_gpio.c **** #define EVCR_EVOE_BB                (PERIPH_BB_BASE + (EVCR_OFFSET * 32) + (EVOE_BitNumber * 4))
  45:../Libraries/AT32F4xx_StdPeriph_Driver/src/at32f4xx_gpio.c **** 
  46:../Libraries/AT32F4xx_StdPeriph_Driver/src/at32f4xx_gpio.c **** 
  47:../Libraries/AT32F4xx_StdPeriph_Driver/src/at32f4xx_gpio.c **** /* ---  MAPR Register ---*/
  48:../Libraries/AT32F4xx_StdPeriph_Driver/src/at32f4xx_gpio.c **** /* Alias word address of MII_RMII_SEL bit */
  49:../Libraries/AT32F4xx_StdPeriph_Driver/src/at32f4xx_gpio.c **** #define MAP_OFFSET                 (AFIO_OFFSET + 0x04)
  50:../Libraries/AT32F4xx_StdPeriph_Driver/src/at32f4xx_gpio.c **** #define MII_RMII_SEL_BitNumber      ((u8)0x17)
  51:../Libraries/AT32F4xx_StdPeriph_Driver/src/at32f4xx_gpio.c **** #define MAPR_MII_RMII_SEL_BB        (PERIPH_BB_BASE + (MAP_OFFSET * 32) + (MII_RMII_SEL_BitNumber *
  52:../Libraries/AT32F4xx_StdPeriph_Driver/src/at32f4xx_gpio.c **** 
  53:../Libraries/AT32F4xx_StdPeriph_Driver/src/at32f4xx_gpio.c **** 
  54:../Libraries/AT32F4xx_StdPeriph_Driver/src/at32f4xx_gpio.c **** #define EVCR_PORTPINCONFIG_MASK     ((uint16_t)0xFF80)
  55:../Libraries/AT32F4xx_StdPeriph_Driver/src/at32f4xx_gpio.c **** #define LSB_MASK                    ((uint16_t)0xFFFF)
  56:../Libraries/AT32F4xx_StdPeriph_Driver/src/at32f4xx_gpio.c **** #define DBGAFR_POSITION_MASK        ((uint32_t)0x000F0000)
  57:../Libraries/AT32F4xx_StdPeriph_Driver/src/at32f4xx_gpio.c **** #define DBGAFR_SWJCONF_MASK          ((uint32_t)0xF0FFFFFF)
  58:../Libraries/AT32F4xx_StdPeriph_Driver/src/at32f4xx_gpio.c **** #define DBGAFR_LOCATION_MASK        ((uint32_t)0x00200000)
  59:../Libraries/AT32F4xx_StdPeriph_Driver/src/at32f4xx_gpio.c **** #define DBGAFR_NUMBITS_MASK         ((uint32_t)0x00100000)
  60:../Libraries/AT32F4xx_StdPeriph_Driver/src/at32f4xx_gpio.c **** /**
  61:../Libraries/AT32F4xx_StdPeriph_Driver/src/at32f4xx_gpio.c ****   * @}
  62:../Libraries/AT32F4xx_StdPeriph_Driver/src/at32f4xx_gpio.c ****   */
  63:../Libraries/AT32F4xx_StdPeriph_Driver/src/at32f4xx_gpio.c **** 
  64:../Libraries/AT32F4xx_StdPeriph_Driver/src/at32f4xx_gpio.c **** /** @defgroup GPIO_Private_Macros
  65:../Libraries/AT32F4xx_StdPeriph_Driver/src/at32f4xx_gpio.c ****   * @{
  66:../Libraries/AT32F4xx_StdPeriph_Driver/src/at32f4xx_gpio.c ****   */
  67:../Libraries/AT32F4xx_StdPeriph_Driver/src/at32f4xx_gpio.c **** 
  68:../Libraries/AT32F4xx_StdPeriph_Driver/src/at32f4xx_gpio.c **** /**
  69:../Libraries/AT32F4xx_StdPeriph_Driver/src/at32f4xx_gpio.c ****   * @}
  70:../Libraries/AT32F4xx_StdPeriph_Driver/src/at32f4xx_gpio.c ****   */
  71:../Libraries/AT32F4xx_StdPeriph_Driver/src/at32f4xx_gpio.c **** 
  72:../Libraries/AT32F4xx_StdPeriph_Driver/src/at32f4xx_gpio.c **** /** @defgroup GPIO_Private_Variables
  73:../Libraries/AT32F4xx_StdPeriph_Driver/src/at32f4xx_gpio.c ****   * @{
  74:../Libraries/AT32F4xx_StdPeriph_Driver/src/at32f4xx_gpio.c ****   */
  75:../Libraries/AT32F4xx_StdPeriph_Driver/src/at32f4xx_gpio.c **** 
  76:../Libraries/AT32F4xx_StdPeriph_Driver/src/at32f4xx_gpio.c **** /**
  77:../Libraries/AT32F4xx_StdPeriph_Driver/src/at32f4xx_gpio.c ****   * @}
  78:../Libraries/AT32F4xx_StdPeriph_Driver/src/at32f4xx_gpio.c ****   */
  79:../Libraries/AT32F4xx_StdPeriph_Driver/src/at32f4xx_gpio.c **** 
  80:../Libraries/AT32F4xx_StdPeriph_Driver/src/at32f4xx_gpio.c **** /** @defgroup GPIO_Private_FunctionPrototypes
  81:../Libraries/AT32F4xx_StdPeriph_Driver/src/at32f4xx_gpio.c ****   * @{
  82:../Libraries/AT32F4xx_StdPeriph_Driver/src/at32f4xx_gpio.c ****   */
  83:../Libraries/AT32F4xx_StdPeriph_Driver/src/at32f4xx_gpio.c **** 
  84:../Libraries/AT32F4xx_StdPeriph_Driver/src/at32f4xx_gpio.c **** /**
  85:../Libraries/AT32F4xx_StdPeriph_Driver/src/at32f4xx_gpio.c ****   * @}
  86:../Libraries/AT32F4xx_StdPeriph_Driver/src/at32f4xx_gpio.c ****   */
  87:../Libraries/AT32F4xx_StdPeriph_Driver/src/at32f4xx_gpio.c **** 
  88:../Libraries/AT32F4xx_StdPeriph_Driver/src/at32f4xx_gpio.c **** /** @defgroup GPIO_Private_Functions
ARM GAS  /var/folders/l3/4y5292px21b4835bsnjwqc7w009kq1/T//ccQxGGuu.s 			page 3


  89:../Libraries/AT32F4xx_StdPeriph_Driver/src/at32f4xx_gpio.c ****   * @{
  90:../Libraries/AT32F4xx_StdPeriph_Driver/src/at32f4xx_gpio.c ****   */
  91:../Libraries/AT32F4xx_StdPeriph_Driver/src/at32f4xx_gpio.c **** 
  92:../Libraries/AT32F4xx_StdPeriph_Driver/src/at32f4xx_gpio.c **** /**
  93:../Libraries/AT32F4xx_StdPeriph_Driver/src/at32f4xx_gpio.c ****   * @brief  Deinitializes the GPIOx peripheral registers to their default reset values.
  94:../Libraries/AT32F4xx_StdPeriph_Driver/src/at32f4xx_gpio.c ****   * @param  GPIOx: where x can be (A..G) to select the GPIO peripheral.
  95:../Libraries/AT32F4xx_StdPeriph_Driver/src/at32f4xx_gpio.c ****   * @retval None
  96:../Libraries/AT32F4xx_StdPeriph_Driver/src/at32f4xx_gpio.c ****   */
  97:../Libraries/AT32F4xx_StdPeriph_Driver/src/at32f4xx_gpio.c **** void GPIO_Reset(GPIO_Type* GPIOx)
  98:../Libraries/AT32F4xx_StdPeriph_Driver/src/at32f4xx_gpio.c **** {
  28              		.loc 1 98 0
  29              		.cfi_startproc
  30              		@ args = 0, pretend = 0, frame = 0
  31              		@ frame_needed = 0, uses_anonymous_args = 0
  32              	.LVL0:
  33 0000 08B5     		push	{r3, lr}
  34              		.save {r3, lr}
  35              	.LCFI0:
  36              		.cfi_def_cfa_offset 8
  37              		.cfi_offset 3, -8
  38              		.cfi_offset 14, -4
  99:../Libraries/AT32F4xx_StdPeriph_Driver/src/at32f4xx_gpio.c ****   /* Check the parameters */
 100:../Libraries/AT32F4xx_StdPeriph_Driver/src/at32f4xx_gpio.c ****   assert_param(IS_GPIO_ALL_PERIPH(GPIOx));
 101:../Libraries/AT32F4xx_StdPeriph_Driver/src/at32f4xx_gpio.c **** 
 102:../Libraries/AT32F4xx_StdPeriph_Driver/src/at32f4xx_gpio.c ****   if (GPIOx == GPIOA)
  39              		.loc 1 102 0
  40 0002 2B4B     		ldr	r3, .L17
  41 0004 9842     		cmp	r0, r3
  42 0006 12D0     		beq	.L10
 103:../Libraries/AT32F4xx_StdPeriph_Driver/src/at32f4xx_gpio.c ****   {
 104:../Libraries/AT32F4xx_StdPeriph_Driver/src/at32f4xx_gpio.c ****     RCC_APB2PeriphResetCmd(RCC_APB2PERIPH_GPIOA, ENABLE);
 105:../Libraries/AT32F4xx_StdPeriph_Driver/src/at32f4xx_gpio.c ****     RCC_APB2PeriphResetCmd(RCC_APB2PERIPH_GPIOA, DISABLE);
 106:../Libraries/AT32F4xx_StdPeriph_Driver/src/at32f4xx_gpio.c ****   }
 107:../Libraries/AT32F4xx_StdPeriph_Driver/src/at32f4xx_gpio.c ****   else if (GPIOx == GPIOB)
  43              		.loc 1 107 0
  44 0008 2A4B     		ldr	r3, .L17+4
  45 000a 9842     		cmp	r0, r3
  46 000c 18D0     		beq	.L11
 108:../Libraries/AT32F4xx_StdPeriph_Driver/src/at32f4xx_gpio.c ****   {
 109:../Libraries/AT32F4xx_StdPeriph_Driver/src/at32f4xx_gpio.c ****     RCC_APB2PeriphResetCmd(RCC_APB2PERIPH_GPIOB, ENABLE);
 110:../Libraries/AT32F4xx_StdPeriph_Driver/src/at32f4xx_gpio.c ****     RCC_APB2PeriphResetCmd(RCC_APB2PERIPH_GPIOB, DISABLE);
 111:../Libraries/AT32F4xx_StdPeriph_Driver/src/at32f4xx_gpio.c ****   }
 112:../Libraries/AT32F4xx_StdPeriph_Driver/src/at32f4xx_gpio.c ****   else if (GPIOx == GPIOC)
  47              		.loc 1 112 0
  48 000e 2A4B     		ldr	r3, .L17+8
  49 0010 9842     		cmp	r0, r3
  50 0012 1ED0     		beq	.L12
 113:../Libraries/AT32F4xx_StdPeriph_Driver/src/at32f4xx_gpio.c ****   {
 114:../Libraries/AT32F4xx_StdPeriph_Driver/src/at32f4xx_gpio.c ****     RCC_APB2PeriphResetCmd(RCC_APB2PERIPH_GPIOC, ENABLE);
 115:../Libraries/AT32F4xx_StdPeriph_Driver/src/at32f4xx_gpio.c ****     RCC_APB2PeriphResetCmd(RCC_APB2PERIPH_GPIOC, DISABLE);
 116:../Libraries/AT32F4xx_StdPeriph_Driver/src/at32f4xx_gpio.c ****   }
 117:../Libraries/AT32F4xx_StdPeriph_Driver/src/at32f4xx_gpio.c ****   else if (GPIOx == GPIOD)
  51              		.loc 1 117 0
  52 0014 294B     		ldr	r3, .L17+12
  53 0016 9842     		cmp	r0, r3
  54 0018 24D0     		beq	.L13
 118:../Libraries/AT32F4xx_StdPeriph_Driver/src/at32f4xx_gpio.c ****   {
ARM GAS  /var/folders/l3/4y5292px21b4835bsnjwqc7w009kq1/T//ccQxGGuu.s 			page 4


 119:../Libraries/AT32F4xx_StdPeriph_Driver/src/at32f4xx_gpio.c ****     RCC_APB2PeriphResetCmd(RCC_APB2PERIPH_GPIOD, ENABLE);
 120:../Libraries/AT32F4xx_StdPeriph_Driver/src/at32f4xx_gpio.c ****     RCC_APB2PeriphResetCmd(RCC_APB2PERIPH_GPIOD, DISABLE);
 121:../Libraries/AT32F4xx_StdPeriph_Driver/src/at32f4xx_gpio.c ****   }
 122:../Libraries/AT32F4xx_StdPeriph_Driver/src/at32f4xx_gpio.c **** #ifdef AT32F403xx
 123:../Libraries/AT32F4xx_StdPeriph_Driver/src/at32f4xx_gpio.c ****   else if (GPIOx == GPIOE)
  55              		.loc 1 123 0
  56 001a 294B     		ldr	r3, .L17+16
  57 001c 9842     		cmp	r0, r3
  58 001e 2AD0     		beq	.L14
 124:../Libraries/AT32F4xx_StdPeriph_Driver/src/at32f4xx_gpio.c ****   {
 125:../Libraries/AT32F4xx_StdPeriph_Driver/src/at32f4xx_gpio.c ****     RCC_APB2PeriphResetCmd(RCC_APB2PERIPH_GPIOE, ENABLE);
 126:../Libraries/AT32F4xx_StdPeriph_Driver/src/at32f4xx_gpio.c ****     RCC_APB2PeriphResetCmd(RCC_APB2PERIPH_GPIOE, DISABLE);
 127:../Libraries/AT32F4xx_StdPeriph_Driver/src/at32f4xx_gpio.c ****   }
 128:../Libraries/AT32F4xx_StdPeriph_Driver/src/at32f4xx_gpio.c **** #endif
 129:../Libraries/AT32F4xx_StdPeriph_Driver/src/at32f4xx_gpio.c ****   else if (GPIOx == GPIOF)
  59              		.loc 1 129 0
  60 0020 284B     		ldr	r3, .L17+20
  61 0022 9842     		cmp	r0, r3
  62 0024 30D0     		beq	.L15
 130:../Libraries/AT32F4xx_StdPeriph_Driver/src/at32f4xx_gpio.c ****   {
 131:../Libraries/AT32F4xx_StdPeriph_Driver/src/at32f4xx_gpio.c ****     RCC_APB2PeriphResetCmd(RCC_APB2PERIPH_GPIOF, ENABLE);
 132:../Libraries/AT32F4xx_StdPeriph_Driver/src/at32f4xx_gpio.c ****     RCC_APB2PeriphResetCmd(RCC_APB2PERIPH_GPIOF, DISABLE);
 133:../Libraries/AT32F4xx_StdPeriph_Driver/src/at32f4xx_gpio.c ****   }
 134:../Libraries/AT32F4xx_StdPeriph_Driver/src/at32f4xx_gpio.c **** #ifdef AT32F403xx
 135:../Libraries/AT32F4xx_StdPeriph_Driver/src/at32f4xx_gpio.c ****   else if (GPIOx == GPIOG)
  63              		.loc 1 135 0
  64 0026 284B     		ldr	r3, .L17+24
  65 0028 9842     		cmp	r0, r3
  66 002a 36D0     		beq	.L16
  67              	.LVL1:
  68              	.L1:
 136:../Libraries/AT32F4xx_StdPeriph_Driver/src/at32f4xx_gpio.c ****   {
 137:../Libraries/AT32F4xx_StdPeriph_Driver/src/at32f4xx_gpio.c ****     RCC_APB2PeriphResetCmd(RCC_APB2PERIPH_GPIOG, ENABLE);
 138:../Libraries/AT32F4xx_StdPeriph_Driver/src/at32f4xx_gpio.c ****     RCC_APB2PeriphResetCmd(RCC_APB2PERIPH_GPIOG, DISABLE);
 139:../Libraries/AT32F4xx_StdPeriph_Driver/src/at32f4xx_gpio.c ****   }
 140:../Libraries/AT32F4xx_StdPeriph_Driver/src/at32f4xx_gpio.c **** #endif
 141:../Libraries/AT32F4xx_StdPeriph_Driver/src/at32f4xx_gpio.c **** }
  69              		.loc 1 141 0
  70 002c 08BD     		pop	{r3, pc}
  71              	.LVL2:
  72              	.L10:
 104:../Libraries/AT32F4xx_StdPeriph_Driver/src/at32f4xx_gpio.c ****     RCC_APB2PeriphResetCmd(RCC_APB2PERIPH_GPIOA, DISABLE);
  73              		.loc 1 104 0
  74 002e 0121     		movs	r1, #1
  75 0030 0420     		movs	r0, #4
  76              	.LVL3:
  77 0032 FFF7FEFF 		bl	RCC_APB2PeriphResetCmd
  78              	.LVL4:
 105:../Libraries/AT32F4xx_StdPeriph_Driver/src/at32f4xx_gpio.c ****   }
  79              		.loc 1 105 0
  80 0036 0021     		movs	r1, #0
  81 0038 0420     		movs	r0, #4
  82 003a FFF7FEFF 		bl	RCC_APB2PeriphResetCmd
  83              	.LVL5:
  84 003e F5E7     		b	.L1
  85              	.LVL6:
  86              	.L11:
ARM GAS  /var/folders/l3/4y5292px21b4835bsnjwqc7w009kq1/T//ccQxGGuu.s 			page 5


 109:../Libraries/AT32F4xx_StdPeriph_Driver/src/at32f4xx_gpio.c ****     RCC_APB2PeriphResetCmd(RCC_APB2PERIPH_GPIOB, DISABLE);
  87              		.loc 1 109 0
  88 0040 0121     		movs	r1, #1
  89 0042 0820     		movs	r0, #8
  90              	.LVL7:
  91 0044 FFF7FEFF 		bl	RCC_APB2PeriphResetCmd
  92              	.LVL8:
 110:../Libraries/AT32F4xx_StdPeriph_Driver/src/at32f4xx_gpio.c ****   }
  93              		.loc 1 110 0
  94 0048 0021     		movs	r1, #0
  95 004a 0820     		movs	r0, #8
  96 004c FFF7FEFF 		bl	RCC_APB2PeriphResetCmd
  97              	.LVL9:
  98 0050 ECE7     		b	.L1
  99              	.LVL10:
 100              	.L12:
 114:../Libraries/AT32F4xx_StdPeriph_Driver/src/at32f4xx_gpio.c ****     RCC_APB2PeriphResetCmd(RCC_APB2PERIPH_GPIOC, DISABLE);
 101              		.loc 1 114 0
 102 0052 0121     		movs	r1, #1
 103 0054 1020     		movs	r0, #16
 104              	.LVL11:
 105 0056 FFF7FEFF 		bl	RCC_APB2PeriphResetCmd
 106              	.LVL12:
 115:../Libraries/AT32F4xx_StdPeriph_Driver/src/at32f4xx_gpio.c ****   }
 107              		.loc 1 115 0
 108 005a 0021     		movs	r1, #0
 109 005c 1020     		movs	r0, #16
 110 005e FFF7FEFF 		bl	RCC_APB2PeriphResetCmd
 111              	.LVL13:
 112 0062 E3E7     		b	.L1
 113              	.LVL14:
 114              	.L13:
 119:../Libraries/AT32F4xx_StdPeriph_Driver/src/at32f4xx_gpio.c ****     RCC_APB2PeriphResetCmd(RCC_APB2PERIPH_GPIOD, DISABLE);
 115              		.loc 1 119 0
 116 0064 0121     		movs	r1, #1
 117 0066 2020     		movs	r0, #32
 118              	.LVL15:
 119 0068 FFF7FEFF 		bl	RCC_APB2PeriphResetCmd
 120              	.LVL16:
 120:../Libraries/AT32F4xx_StdPeriph_Driver/src/at32f4xx_gpio.c ****   }
 121              		.loc 1 120 0
 122 006c 0021     		movs	r1, #0
 123 006e 2020     		movs	r0, #32
 124 0070 FFF7FEFF 		bl	RCC_APB2PeriphResetCmd
 125              	.LVL17:
 126 0074 DAE7     		b	.L1
 127              	.LVL18:
 128              	.L14:
 125:../Libraries/AT32F4xx_StdPeriph_Driver/src/at32f4xx_gpio.c ****     RCC_APB2PeriphResetCmd(RCC_APB2PERIPH_GPIOE, DISABLE);
 129              		.loc 1 125 0
 130 0076 0121     		movs	r1, #1
 131 0078 4020     		movs	r0, #64
 132              	.LVL19:
 133 007a FFF7FEFF 		bl	RCC_APB2PeriphResetCmd
 134              	.LVL20:
 126:../Libraries/AT32F4xx_StdPeriph_Driver/src/at32f4xx_gpio.c ****   }
 135              		.loc 1 126 0
ARM GAS  /var/folders/l3/4y5292px21b4835bsnjwqc7w009kq1/T//ccQxGGuu.s 			page 6


 136 007e 0021     		movs	r1, #0
 137 0080 4020     		movs	r0, #64
 138 0082 FFF7FEFF 		bl	RCC_APB2PeriphResetCmd
 139              	.LVL21:
 140 0086 D1E7     		b	.L1
 141              	.LVL22:
 142              	.L15:
 131:../Libraries/AT32F4xx_StdPeriph_Driver/src/at32f4xx_gpio.c ****     RCC_APB2PeriphResetCmd(RCC_APB2PERIPH_GPIOF, DISABLE);
 143              		.loc 1 131 0
 144 0088 0121     		movs	r1, #1
 145 008a 8020     		movs	r0, #128
 146              	.LVL23:
 147 008c FFF7FEFF 		bl	RCC_APB2PeriphResetCmd
 148              	.LVL24:
 132:../Libraries/AT32F4xx_StdPeriph_Driver/src/at32f4xx_gpio.c ****   }
 149              		.loc 1 132 0
 150 0090 0021     		movs	r1, #0
 151 0092 8020     		movs	r0, #128
 152 0094 FFF7FEFF 		bl	RCC_APB2PeriphResetCmd
 153              	.LVL25:
 154 0098 C8E7     		b	.L1
 155              	.LVL26:
 156              	.L16:
 137:../Libraries/AT32F4xx_StdPeriph_Driver/src/at32f4xx_gpio.c ****     RCC_APB2PeriphResetCmd(RCC_APB2PERIPH_GPIOG, DISABLE);
 157              		.loc 1 137 0
 158 009a 0121     		movs	r1, #1
 159 009c 4FF48070 		mov	r0, #256
 160              	.LVL27:
 161 00a0 FFF7FEFF 		bl	RCC_APB2PeriphResetCmd
 162              	.LVL28:
 138:../Libraries/AT32F4xx_StdPeriph_Driver/src/at32f4xx_gpio.c ****   }
 163              		.loc 1 138 0
 164 00a4 0021     		movs	r1, #0
 165 00a6 4FF48070 		mov	r0, #256
 166 00aa FFF7FEFF 		bl	RCC_APB2PeriphResetCmd
 167              	.LVL29:
 168              		.loc 1 141 0
 169 00ae BDE7     		b	.L1
 170              	.L18:
 171              		.align	2
 172              	.L17:
 173 00b0 00080140 		.word	1073809408
 174 00b4 000C0140 		.word	1073810432
 175 00b8 00100140 		.word	1073811456
 176 00bc 00140140 		.word	1073812480
 177 00c0 00180140 		.word	1073813504
 178 00c4 001C0140 		.word	1073814528
 179 00c8 00200140 		.word	1073815552
 180              		.cfi_endproc
 181              	.LFE123:
 182              		.fnend
 184              		.section	.text.GPIO_AFIOReset,"ax",%progbits
 185              		.align	1
 186              		.global	GPIO_AFIOReset
 187              		.syntax unified
 188              		.thumb
 189              		.thumb_func
ARM GAS  /var/folders/l3/4y5292px21b4835bsnjwqc7w009kq1/T//ccQxGGuu.s 			page 7


 190              		.fpu fpv4-sp-d16
 192              	GPIO_AFIOReset:
 193              		.fnstart
 194              	.LFB124:
 142:../Libraries/AT32F4xx_StdPeriph_Driver/src/at32f4xx_gpio.c **** 
 143:../Libraries/AT32F4xx_StdPeriph_Driver/src/at32f4xx_gpio.c **** /**
 144:../Libraries/AT32F4xx_StdPeriph_Driver/src/at32f4xx_gpio.c ****   * @brief  Deinitializes the Alternate Functions (remap, event control
 145:../Libraries/AT32F4xx_StdPeriph_Driver/src/at32f4xx_gpio.c ****   *   and EXTI configuration) registers to their default reset values.
 146:../Libraries/AT32F4xx_StdPeriph_Driver/src/at32f4xx_gpio.c ****   * @param  None
 147:../Libraries/AT32F4xx_StdPeriph_Driver/src/at32f4xx_gpio.c ****   * @retval None
 148:../Libraries/AT32F4xx_StdPeriph_Driver/src/at32f4xx_gpio.c ****   */
 149:../Libraries/AT32F4xx_StdPeriph_Driver/src/at32f4xx_gpio.c **** void GPIO_AFIOReset(void)
 150:../Libraries/AT32F4xx_StdPeriph_Driver/src/at32f4xx_gpio.c **** {
 195              		.loc 1 150 0
 196              		.cfi_startproc
 197              		@ args = 0, pretend = 0, frame = 0
 198              		@ frame_needed = 0, uses_anonymous_args = 0
 199 0000 08B5     		push	{r3, lr}
 200              		.save {r3, lr}
 201              	.LCFI1:
 202              		.cfi_def_cfa_offset 8
 203              		.cfi_offset 3, -8
 204              		.cfi_offset 14, -4
 151:../Libraries/AT32F4xx_StdPeriph_Driver/src/at32f4xx_gpio.c ****   RCC_APB2PeriphResetCmd(RCC_APB2PERIPH_AFIO, ENABLE);
 205              		.loc 1 151 0
 206 0002 0121     		movs	r1, #1
 207 0004 0846     		mov	r0, r1
 208 0006 FFF7FEFF 		bl	RCC_APB2PeriphResetCmd
 209              	.LVL30:
 152:../Libraries/AT32F4xx_StdPeriph_Driver/src/at32f4xx_gpio.c ****   RCC_APB2PeriphResetCmd(RCC_APB2PERIPH_AFIO, DISABLE);
 210              		.loc 1 152 0
 211 000a 0021     		movs	r1, #0
 212 000c 0120     		movs	r0, #1
 213 000e FFF7FEFF 		bl	RCC_APB2PeriphResetCmd
 214              	.LVL31:
 153:../Libraries/AT32F4xx_StdPeriph_Driver/src/at32f4xx_gpio.c **** }
 215              		.loc 1 153 0
 216 0012 08BD     		pop	{r3, pc}
 217              		.cfi_endproc
 218              	.LFE124:
 219              		.fnend
 221              		.section	.text.GPIO_Init,"ax",%progbits
 222              		.align	1
 223              		.global	GPIO_Init
 224              		.syntax unified
 225              		.thumb
 226              		.thumb_func
 227              		.fpu fpv4-sp-d16
 229              	GPIO_Init:
 230              		.fnstart
 231              	.LFB125:
 154:../Libraries/AT32F4xx_StdPeriph_Driver/src/at32f4xx_gpio.c **** 
 155:../Libraries/AT32F4xx_StdPeriph_Driver/src/at32f4xx_gpio.c **** /**
 156:../Libraries/AT32F4xx_StdPeriph_Driver/src/at32f4xx_gpio.c ****   * @brief  Initializes the GPIOx peripheral according to the specified
 157:../Libraries/AT32F4xx_StdPeriph_Driver/src/at32f4xx_gpio.c ****   *         parameters in the GPIO_InitStruct.
 158:../Libraries/AT32F4xx_StdPeriph_Driver/src/at32f4xx_gpio.c ****   * @param  GPIOx: where x can be (A..G) to select the GPIO peripheral.
 159:../Libraries/AT32F4xx_StdPeriph_Driver/src/at32f4xx_gpio.c ****   * @param  GPIO_InitStruct: pointer to a GPIO_InitType structure that
ARM GAS  /var/folders/l3/4y5292px21b4835bsnjwqc7w009kq1/T//ccQxGGuu.s 			page 8


 160:../Libraries/AT32F4xx_StdPeriph_Driver/src/at32f4xx_gpio.c ****   *         contains the configuration information for the specified GPIO peripheral.
 161:../Libraries/AT32F4xx_StdPeriph_Driver/src/at32f4xx_gpio.c ****   * @retval None
 162:../Libraries/AT32F4xx_StdPeriph_Driver/src/at32f4xx_gpio.c ****   */
 163:../Libraries/AT32F4xx_StdPeriph_Driver/src/at32f4xx_gpio.c **** void GPIO_Init(GPIO_Type* GPIOx, GPIO_InitType* GPIO_InitStruct)
 164:../Libraries/AT32F4xx_StdPeriph_Driver/src/at32f4xx_gpio.c **** {
 232              		.loc 1 164 0
 233              		.cfi_startproc
 234              		@ args = 0, pretend = 0, frame = 0
 235              		@ frame_needed = 0, uses_anonymous_args = 0
 236              		@ link register save eliminated.
 237              	.LVL32:
 238 0000 F0B4     		push	{r4, r5, r6, r7}
 239              	.LCFI2:
 240              		.cfi_def_cfa_offset 16
 241              		.cfi_offset 4, -16
 242              		.cfi_offset 5, -12
 243              		.cfi_offset 6, -8
 244              		.cfi_offset 7, -4
 245              	.LVL33:
 165:../Libraries/AT32F4xx_StdPeriph_Driver/src/at32f4xx_gpio.c ****   uint32_t currentmode = 0x00, currentpin = 0x00, pinpos = 0x00, pos = 0x00;
 166:../Libraries/AT32F4xx_StdPeriph_Driver/src/at32f4xx_gpio.c ****   uint32_t tmpreg = 0x00, pinmask = 0x00;
 167:../Libraries/AT32F4xx_StdPeriph_Driver/src/at32f4xx_gpio.c ****   /* Check the parameters */
 168:../Libraries/AT32F4xx_StdPeriph_Driver/src/at32f4xx_gpio.c ****   assert_param(IS_GPIO_ALL_PERIPH(GPIOx));
 169:../Libraries/AT32F4xx_StdPeriph_Driver/src/at32f4xx_gpio.c ****   assert_param(IS_GPIO_MDE(GPIO_InitStruct->GPIO_Mode));
 170:../Libraries/AT32F4xx_StdPeriph_Driver/src/at32f4xx_gpio.c ****   assert_param(IS_GPIO_PINS(GPIO_InitStruct->GPIO_Pins));
 171:../Libraries/AT32F4xx_StdPeriph_Driver/src/at32f4xx_gpio.c **** 
 172:../Libraries/AT32F4xx_StdPeriph_Driver/src/at32f4xx_gpio.c ****   /*---------------------------- GPIO Mode Configuration -----------------------*/
 173:../Libraries/AT32F4xx_StdPeriph_Driver/src/at32f4xx_gpio.c ****   currentmode = ((uint32_t)GPIO_InitStruct->GPIO_Mode) & ((uint32_t)0x0F);
 246              		.loc 1 173 0
 247 0002 CB78     		ldrb	r3, [r1, #3]	@ zero_extendqisi2
 248 0004 03F00F02 		and	r2, r3, #15
 249 0008 1546     		mov	r5, r2
 250              	.LVL34:
 174:../Libraries/AT32F4xx_StdPeriph_Driver/src/at32f4xx_gpio.c **** 
 175:../Libraries/AT32F4xx_StdPeriph_Driver/src/at32f4xx_gpio.c ****   if ((((uint32_t)GPIO_InitStruct->GPIO_Mode) & ((uint32_t)0x10)) != 0x00)
 251              		.loc 1 175 0
 252 000a 13F0100F 		tst	r3, #16
 253 000e 01D0     		beq	.L22
 176:../Libraries/AT32F4xx_StdPeriph_Driver/src/at32f4xx_gpio.c ****   {
 177:../Libraries/AT32F4xx_StdPeriph_Driver/src/at32f4xx_gpio.c ****     /* Check the parameters */
 178:../Libraries/AT32F4xx_StdPeriph_Driver/src/at32f4xx_gpio.c ****     assert_param(IS_GPIO_MAXSPEED(GPIO_InitStruct->GPIO_MaxSpeed));
 179:../Libraries/AT32F4xx_StdPeriph_Driver/src/at32f4xx_gpio.c ****     /* Output mode */
 180:../Libraries/AT32F4xx_StdPeriph_Driver/src/at32f4xx_gpio.c ****     currentmode |= (uint32_t)GPIO_InitStruct->GPIO_MaxSpeed;
 254              		.loc 1 180 0
 255 0010 8D78     		ldrb	r5, [r1, #2]	@ zero_extendqisi2
 256 0012 1543     		orrs	r5, r5, r2
 257              	.LVL35:
 258              	.L22:
 181:../Libraries/AT32F4xx_StdPeriph_Driver/src/at32f4xx_gpio.c ****   }
 182:../Libraries/AT32F4xx_StdPeriph_Driver/src/at32f4xx_gpio.c **** 
 183:../Libraries/AT32F4xx_StdPeriph_Driver/src/at32f4xx_gpio.c ****   /*---------------------------- GPIO CRL Configuration ------------------------*/
 184:../Libraries/AT32F4xx_StdPeriph_Driver/src/at32f4xx_gpio.c ****   /* Configure the eight low port pins */
 185:../Libraries/AT32F4xx_StdPeriph_Driver/src/at32f4xx_gpio.c ****   if (((uint32_t)GPIO_InitStruct->GPIO_Pins & ((uint32_t)0x00FF)) != 0x00)
 259              		.loc 1 185 0
 260 0014 0B78     		ldrb	r3, [r1]	@ zero_extendqisi2
 261 0016 E3B1     		cbz	r3, .L23
 186:../Libraries/AT32F4xx_StdPeriph_Driver/src/at32f4xx_gpio.c ****   {
ARM GAS  /var/folders/l3/4y5292px21b4835bsnjwqc7w009kq1/T//ccQxGGuu.s 			page 9


 187:../Libraries/AT32F4xx_StdPeriph_Driver/src/at32f4xx_gpio.c ****     tmpreg = GPIOx->CTRLL;
 262              		.loc 1 187 0
 263 0018 0668     		ldr	r6, [r0]
 264              	.LVL36:
 188:../Libraries/AT32F4xx_StdPeriph_Driver/src/at32f4xx_gpio.c **** 
 189:../Libraries/AT32F4xx_StdPeriph_Driver/src/at32f4xx_gpio.c ****     for (pinpos = 0x00; pinpos < 0x08; pinpos++)
 265              		.loc 1 189 0
 266 001a 0023     		movs	r3, #0
 267 001c 01E0     		b	.L27
 268              	.LVL37:
 269              	.L34:
 190:../Libraries/AT32F4xx_StdPeriph_Driver/src/at32f4xx_gpio.c ****     {
 191:../Libraries/AT32F4xx_StdPeriph_Driver/src/at32f4xx_gpio.c ****       pos = ((uint32_t)0x01) << pinpos;
 192:../Libraries/AT32F4xx_StdPeriph_Driver/src/at32f4xx_gpio.c ****       /* Get the port pins position */
 193:../Libraries/AT32F4xx_StdPeriph_Driver/src/at32f4xx_gpio.c ****       currentpin = (GPIO_InitStruct->GPIO_Pins) & pos;
 194:../Libraries/AT32F4xx_StdPeriph_Driver/src/at32f4xx_gpio.c **** 
 195:../Libraries/AT32F4xx_StdPeriph_Driver/src/at32f4xx_gpio.c ****       if (currentpin == pos)
 196:../Libraries/AT32F4xx_StdPeriph_Driver/src/at32f4xx_gpio.c ****       {
 197:../Libraries/AT32F4xx_StdPeriph_Driver/src/at32f4xx_gpio.c ****         pos = pinpos << 2;
 198:../Libraries/AT32F4xx_StdPeriph_Driver/src/at32f4xx_gpio.c ****         /* Clear the corresponding low control register bits */
 199:../Libraries/AT32F4xx_StdPeriph_Driver/src/at32f4xx_gpio.c ****         pinmask = ((uint32_t)0x0F) << pos;
 200:../Libraries/AT32F4xx_StdPeriph_Driver/src/at32f4xx_gpio.c ****         tmpreg &= ~pinmask;
 201:../Libraries/AT32F4xx_StdPeriph_Driver/src/at32f4xx_gpio.c ****         /* Write the mode configuration in the corresponding bits */
 202:../Libraries/AT32F4xx_StdPeriph_Driver/src/at32f4xx_gpio.c ****         tmpreg |= (currentmode << pos);
 203:../Libraries/AT32F4xx_StdPeriph_Driver/src/at32f4xx_gpio.c **** 
 204:../Libraries/AT32F4xx_StdPeriph_Driver/src/at32f4xx_gpio.c ****         /* Reset the corresponding ODR bit */
 205:../Libraries/AT32F4xx_StdPeriph_Driver/src/at32f4xx_gpio.c ****         if (GPIO_InitStruct->GPIO_Mode == GPIO_Mode_IN_PD)
 206:../Libraries/AT32F4xx_StdPeriph_Driver/src/at32f4xx_gpio.c ****         {
 207:../Libraries/AT32F4xx_StdPeriph_Driver/src/at32f4xx_gpio.c ****           GPIOx->BRE = (((uint32_t)0x01) << pinpos);
 270              		.loc 1 207 0
 271 001e 4261     		str	r2, [r0, #20]
 272              	.LVL38:
 273              	.L25:
 189:../Libraries/AT32F4xx_StdPeriph_Driver/src/at32f4xx_gpio.c ****     {
 274              		.loc 1 189 0 discriminator 2
 275 0020 0133     		adds	r3, r3, #1
 276              	.LVL39:
 277              	.L27:
 189:../Libraries/AT32F4xx_StdPeriph_Driver/src/at32f4xx_gpio.c ****     {
 278              		.loc 1 189 0 is_stmt 0 discriminator 1
 279 0022 072B     		cmp	r3, #7
 280 0024 14D8     		bhi	.L24
 191:../Libraries/AT32F4xx_StdPeriph_Driver/src/at32f4xx_gpio.c ****       /* Get the port pins position */
 281              		.loc 1 191 0 is_stmt 1
 282 0026 0122     		movs	r2, #1
 283 0028 9A40     		lsls	r2, r2, r3
 284              	.LVL40:
 193:../Libraries/AT32F4xx_StdPeriph_Driver/src/at32f4xx_gpio.c **** 
 285              		.loc 1 193 0
 286 002a 0C88     		ldrh	r4, [r1]
 287              	.LVL41:
 195:../Libraries/AT32F4xx_StdPeriph_Driver/src/at32f4xx_gpio.c ****       {
 288              		.loc 1 195 0
 289 002c 32EA0404 		bics	r4, r2, r4
 290              	.LVL42:
 291 0030 F6D1     		bne	.L25
 197:../Libraries/AT32F4xx_StdPeriph_Driver/src/at32f4xx_gpio.c ****         /* Clear the corresponding low control register bits */
ARM GAS  /var/folders/l3/4y5292px21b4835bsnjwqc7w009kq1/T//ccQxGGuu.s 			page 10


 292              		.loc 1 197 0
 293 0032 9C00     		lsls	r4, r3, #2
 294              	.LVL43:
 199:../Libraries/AT32F4xx_StdPeriph_Driver/src/at32f4xx_gpio.c ****         tmpreg &= ~pinmask;
 295              		.loc 1 199 0
 296 0034 0F27     		movs	r7, #15
 297 0036 A740     		lsls	r7, r7, r4
 298              	.LVL44:
 200:../Libraries/AT32F4xx_StdPeriph_Driver/src/at32f4xx_gpio.c ****         /* Write the mode configuration in the corresponding bits */
 299              		.loc 1 200 0
 300 0038 26EA0706 		bic	r6, r6, r7
 301              	.LVL45:
 202:../Libraries/AT32F4xx_StdPeriph_Driver/src/at32f4xx_gpio.c **** 
 302              		.loc 1 202 0
 303 003c 05FA04F4 		lsl	r4, r5, r4
 304              	.LVL46:
 305 0040 2643     		orrs	r6, r6, r4
 306              	.LVL47:
 205:../Libraries/AT32F4xx_StdPeriph_Driver/src/at32f4xx_gpio.c ****         {
 307              		.loc 1 205 0
 308 0042 CC78     		ldrb	r4, [r1, #3]	@ zero_extendqisi2
 309 0044 282C     		cmp	r4, #40
 310 0046 EAD0     		beq	.L34
 208:../Libraries/AT32F4xx_StdPeriph_Driver/src/at32f4xx_gpio.c ****         }
 209:../Libraries/AT32F4xx_StdPeriph_Driver/src/at32f4xx_gpio.c ****         else
 210:../Libraries/AT32F4xx_StdPeriph_Driver/src/at32f4xx_gpio.c ****         {
 211:../Libraries/AT32F4xx_StdPeriph_Driver/src/at32f4xx_gpio.c ****           /* Set the corresponding ODR bit */
 212:../Libraries/AT32F4xx_StdPeriph_Driver/src/at32f4xx_gpio.c ****           if (GPIO_InitStruct->GPIO_Mode == GPIO_Mode_IN_PU)
 311              		.loc 1 212 0
 312 0048 482C     		cmp	r4, #72
 313 004a E9D1     		bne	.L25
 213:../Libraries/AT32F4xx_StdPeriph_Driver/src/at32f4xx_gpio.c ****           {
 214:../Libraries/AT32F4xx_StdPeriph_Driver/src/at32f4xx_gpio.c ****             GPIOx->BSRE = (((uint32_t)0x01) << pinpos);
 314              		.loc 1 214 0
 315 004c 0261     		str	r2, [r0, #16]
 316              	.LVL48:
 317 004e E7E7     		b	.L25
 318              	.LVL49:
 319              	.L24:
 215:../Libraries/AT32F4xx_StdPeriph_Driver/src/at32f4xx_gpio.c ****           }
 216:../Libraries/AT32F4xx_StdPeriph_Driver/src/at32f4xx_gpio.c ****         }
 217:../Libraries/AT32F4xx_StdPeriph_Driver/src/at32f4xx_gpio.c ****       }
 218:../Libraries/AT32F4xx_StdPeriph_Driver/src/at32f4xx_gpio.c ****     }
 219:../Libraries/AT32F4xx_StdPeriph_Driver/src/at32f4xx_gpio.c **** 
 220:../Libraries/AT32F4xx_StdPeriph_Driver/src/at32f4xx_gpio.c ****     GPIOx->CTRLL = tmpreg;
 320              		.loc 1 220 0
 321 0050 0660     		str	r6, [r0]
 322              	.LVL50:
 323              	.L23:
 221:../Libraries/AT32F4xx_StdPeriph_Driver/src/at32f4xx_gpio.c ****   }
 222:../Libraries/AT32F4xx_StdPeriph_Driver/src/at32f4xx_gpio.c **** 
 223:../Libraries/AT32F4xx_StdPeriph_Driver/src/at32f4xx_gpio.c ****   /*---------------------------- GPIO CRH Configuration ------------------------*/
 224:../Libraries/AT32F4xx_StdPeriph_Driver/src/at32f4xx_gpio.c ****   /* Configure the eight high port pins */
 225:../Libraries/AT32F4xx_StdPeriph_Driver/src/at32f4xx_gpio.c ****   if (GPIO_InitStruct->GPIO_Pins > 0x00FF)
 324              		.loc 1 225 0
 325 0052 0B88     		ldrh	r3, [r1]
 326 0054 FF2B     		cmp	r3, #255
ARM GAS  /var/folders/l3/4y5292px21b4835bsnjwqc7w009kq1/T//ccQxGGuu.s 			page 11


 327 0056 20D9     		bls	.L21
 226:../Libraries/AT32F4xx_StdPeriph_Driver/src/at32f4xx_gpio.c ****   {
 227:../Libraries/AT32F4xx_StdPeriph_Driver/src/at32f4xx_gpio.c ****     tmpreg = GPIOx->CTRLH;
 328              		.loc 1 227 0
 329 0058 4668     		ldr	r6, [r0, #4]
 330              	.LVL51:
 228:../Libraries/AT32F4xx_StdPeriph_Driver/src/at32f4xx_gpio.c **** 
 229:../Libraries/AT32F4xx_StdPeriph_Driver/src/at32f4xx_gpio.c ****     for (pinpos = 0x00; pinpos < 0x08; pinpos++)
 331              		.loc 1 229 0
 332 005a 0023     		movs	r3, #0
 333 005c 03E0     		b	.L32
 334              	.LVL52:
 335              	.L35:
 230:../Libraries/AT32F4xx_StdPeriph_Driver/src/at32f4xx_gpio.c ****     {
 231:../Libraries/AT32F4xx_StdPeriph_Driver/src/at32f4xx_gpio.c ****       pos = (((uint32_t)0x01) << (pinpos + 0x08));
 232:../Libraries/AT32F4xx_StdPeriph_Driver/src/at32f4xx_gpio.c ****       /* Get the port pins position */
 233:../Libraries/AT32F4xx_StdPeriph_Driver/src/at32f4xx_gpio.c ****       currentpin = ((GPIO_InitStruct->GPIO_Pins) & pos);
 234:../Libraries/AT32F4xx_StdPeriph_Driver/src/at32f4xx_gpio.c **** 
 235:../Libraries/AT32F4xx_StdPeriph_Driver/src/at32f4xx_gpio.c ****       if (currentpin == pos)
 236:../Libraries/AT32F4xx_StdPeriph_Driver/src/at32f4xx_gpio.c ****       {
 237:../Libraries/AT32F4xx_StdPeriph_Driver/src/at32f4xx_gpio.c ****         pos = pinpos << 2;
 238:../Libraries/AT32F4xx_StdPeriph_Driver/src/at32f4xx_gpio.c ****         /* Clear the corresponding high control register bits */
 239:../Libraries/AT32F4xx_StdPeriph_Driver/src/at32f4xx_gpio.c ****         pinmask = ((uint32_t)0x0F) << pos;
 240:../Libraries/AT32F4xx_StdPeriph_Driver/src/at32f4xx_gpio.c ****         tmpreg &= ~pinmask;
 241:../Libraries/AT32F4xx_StdPeriph_Driver/src/at32f4xx_gpio.c ****         /* Write the mode configuration in the corresponding bits */
 242:../Libraries/AT32F4xx_StdPeriph_Driver/src/at32f4xx_gpio.c ****         tmpreg |= (currentmode << pos);
 243:../Libraries/AT32F4xx_StdPeriph_Driver/src/at32f4xx_gpio.c **** 
 244:../Libraries/AT32F4xx_StdPeriph_Driver/src/at32f4xx_gpio.c ****         /* Reset the corresponding ODR bit */
 245:../Libraries/AT32F4xx_StdPeriph_Driver/src/at32f4xx_gpio.c ****         if (GPIO_InitStruct->GPIO_Mode == GPIO_Mode_IN_PD)
 246:../Libraries/AT32F4xx_StdPeriph_Driver/src/at32f4xx_gpio.c ****         {
 247:../Libraries/AT32F4xx_StdPeriph_Driver/src/at32f4xx_gpio.c ****           GPIOx->BRE = (((uint32_t)0x01) << (pinpos + 0x08));
 336              		.loc 1 247 0
 337 005e 4261     		str	r2, [r0, #20]
 338              	.LVL53:
 339 0060 16E0     		b	.L31
 340              	.L36:
 248:../Libraries/AT32F4xx_StdPeriph_Driver/src/at32f4xx_gpio.c ****         }
 249:../Libraries/AT32F4xx_StdPeriph_Driver/src/at32f4xx_gpio.c **** 
 250:../Libraries/AT32F4xx_StdPeriph_Driver/src/at32f4xx_gpio.c ****         /* Set the corresponding ODR bit */
 251:../Libraries/AT32F4xx_StdPeriph_Driver/src/at32f4xx_gpio.c ****         if (GPIO_InitStruct->GPIO_Mode == GPIO_Mode_IN_PU)
 252:../Libraries/AT32F4xx_StdPeriph_Driver/src/at32f4xx_gpio.c ****         {
 253:../Libraries/AT32F4xx_StdPeriph_Driver/src/at32f4xx_gpio.c ****           GPIOx->BSRE = (((uint32_t)0x01) << (pinpos + 0x08));
 341              		.loc 1 253 0
 342 0062 0261     		str	r2, [r0, #16]
 343              	.LVL54:
 344              	.L30:
 229:../Libraries/AT32F4xx_StdPeriph_Driver/src/at32f4xx_gpio.c ****     {
 345              		.loc 1 229 0 discriminator 2
 346 0064 0133     		adds	r3, r3, #1
 347              	.LVL55:
 348              	.L32:
 229:../Libraries/AT32F4xx_StdPeriph_Driver/src/at32f4xx_gpio.c ****     {
 349              		.loc 1 229 0 is_stmt 0 discriminator 1
 350 0066 072B     		cmp	r3, #7
 351 0068 16D8     		bhi	.L29
 231:../Libraries/AT32F4xx_StdPeriph_Driver/src/at32f4xx_gpio.c ****       /* Get the port pins position */
 352              		.loc 1 231 0 is_stmt 1
ARM GAS  /var/folders/l3/4y5292px21b4835bsnjwqc7w009kq1/T//ccQxGGuu.s 			page 12


 353 006a 03F10804 		add	r4, r3, #8
 354 006e 0122     		movs	r2, #1
 355 0070 A240     		lsls	r2, r2, r4
 356              	.LVL56:
 233:../Libraries/AT32F4xx_StdPeriph_Driver/src/at32f4xx_gpio.c **** 
 357              		.loc 1 233 0
 358 0072 0C88     		ldrh	r4, [r1]
 359              	.LVL57:
 235:../Libraries/AT32F4xx_StdPeriph_Driver/src/at32f4xx_gpio.c ****       {
 360              		.loc 1 235 0
 361 0074 32EA0404 		bics	r4, r2, r4
 362              	.LVL58:
 363 0078 F4D1     		bne	.L30
 237:../Libraries/AT32F4xx_StdPeriph_Driver/src/at32f4xx_gpio.c ****         /* Clear the corresponding high control register bits */
 364              		.loc 1 237 0
 365 007a 9C00     		lsls	r4, r3, #2
 366              	.LVL59:
 239:../Libraries/AT32F4xx_StdPeriph_Driver/src/at32f4xx_gpio.c ****         tmpreg &= ~pinmask;
 367              		.loc 1 239 0
 368 007c 0F27     		movs	r7, #15
 369 007e A740     		lsls	r7, r7, r4
 370              	.LVL60:
 240:../Libraries/AT32F4xx_StdPeriph_Driver/src/at32f4xx_gpio.c ****         /* Write the mode configuration in the corresponding bits */
 371              		.loc 1 240 0
 372 0080 26EA0706 		bic	r6, r6, r7
 373              	.LVL61:
 242:../Libraries/AT32F4xx_StdPeriph_Driver/src/at32f4xx_gpio.c **** 
 374              		.loc 1 242 0
 375 0084 05FA04F4 		lsl	r4, r5, r4
 376              	.LVL62:
 377 0088 2643     		orrs	r6, r6, r4
 378              	.LVL63:
 245:../Libraries/AT32F4xx_StdPeriph_Driver/src/at32f4xx_gpio.c ****         {
 379              		.loc 1 245 0
 380 008a CC78     		ldrb	r4, [r1, #3]	@ zero_extendqisi2
 381 008c 282C     		cmp	r4, #40
 382 008e E6D0     		beq	.L35
 383              	.LVL64:
 384              	.L31:
 251:../Libraries/AT32F4xx_StdPeriph_Driver/src/at32f4xx_gpio.c ****         {
 385              		.loc 1 251 0
 386 0090 CC78     		ldrb	r4, [r1, #3]	@ zero_extendqisi2
 387 0092 482C     		cmp	r4, #72
 388 0094 E6D1     		bne	.L30
 389 0096 E4E7     		b	.L36
 390              	.LVL65:
 391              	.L29:
 254:../Libraries/AT32F4xx_StdPeriph_Driver/src/at32f4xx_gpio.c ****         }
 255:../Libraries/AT32F4xx_StdPeriph_Driver/src/at32f4xx_gpio.c ****       }
 256:../Libraries/AT32F4xx_StdPeriph_Driver/src/at32f4xx_gpio.c ****     }
 257:../Libraries/AT32F4xx_StdPeriph_Driver/src/at32f4xx_gpio.c **** 
 258:../Libraries/AT32F4xx_StdPeriph_Driver/src/at32f4xx_gpio.c ****     GPIOx->CTRLH = tmpreg;
 392              		.loc 1 258 0
 393 0098 4660     		str	r6, [r0, #4]
 394              	.LVL66:
 395              	.L21:
 259:../Libraries/AT32F4xx_StdPeriph_Driver/src/at32f4xx_gpio.c ****   }
ARM GAS  /var/folders/l3/4y5292px21b4835bsnjwqc7w009kq1/T//ccQxGGuu.s 			page 13


 260:../Libraries/AT32F4xx_StdPeriph_Driver/src/at32f4xx_gpio.c **** }
 396              		.loc 1 260 0
 397 009a F0BC     		pop	{r4, r5, r6, r7}
 398              	.LCFI3:
 399              		.cfi_restore 7
 400              		.cfi_restore 6
 401              		.cfi_restore 5
 402              		.cfi_restore 4
 403              		.cfi_def_cfa_offset 0
 404              	.LVL67:
 405 009c 7047     		bx	lr
 406              		.cfi_endproc
 407              	.LFE125:
 408              		.cantunwind
 409              		.fnend
 411              		.section	.text.GPIO_StructInit,"ax",%progbits
 412              		.align	1
 413              		.global	GPIO_StructInit
 414              		.syntax unified
 415              		.thumb
 416              		.thumb_func
 417              		.fpu fpv4-sp-d16
 419              	GPIO_StructInit:
 420              		.fnstart
 421              	.LFB126:
 261:../Libraries/AT32F4xx_StdPeriph_Driver/src/at32f4xx_gpio.c **** 
 262:../Libraries/AT32F4xx_StdPeriph_Driver/src/at32f4xx_gpio.c **** /**
 263:../Libraries/AT32F4xx_StdPeriph_Driver/src/at32f4xx_gpio.c ****   * @brief  Fills each GPIO_InitStruct member with its default value.
 264:../Libraries/AT32F4xx_StdPeriph_Driver/src/at32f4xx_gpio.c ****   * @param  GPIO_InitStruct : pointer to a GPIO_InitType structure which will
 265:../Libraries/AT32F4xx_StdPeriph_Driver/src/at32f4xx_gpio.c ****   *         be initialized.
 266:../Libraries/AT32F4xx_StdPeriph_Driver/src/at32f4xx_gpio.c ****   * @retval None
 267:../Libraries/AT32F4xx_StdPeriph_Driver/src/at32f4xx_gpio.c ****   */
 268:../Libraries/AT32F4xx_StdPeriph_Driver/src/at32f4xx_gpio.c **** void GPIO_StructInit(GPIO_InitType* GPIO_InitStruct)
 269:../Libraries/AT32F4xx_StdPeriph_Driver/src/at32f4xx_gpio.c **** {
 422              		.loc 1 269 0
 423              		.cfi_startproc
 424              		@ args = 0, pretend = 0, frame = 0
 425              		@ frame_needed = 0, uses_anonymous_args = 0
 426              		@ link register save eliminated.
 427              	.LVL68:
 270:../Libraries/AT32F4xx_StdPeriph_Driver/src/at32f4xx_gpio.c ****   /* Reset GPIO init structure parameters values */
 271:../Libraries/AT32F4xx_StdPeriph_Driver/src/at32f4xx_gpio.c ****   GPIO_InitStruct->GPIO_Pins  = GPIO_Pins_All;
 428              		.loc 1 271 0
 429 0000 4FF6FF73 		movw	r3, #65535
 430 0004 0380     		strh	r3, [r0]	@ movhi
 272:../Libraries/AT32F4xx_StdPeriph_Driver/src/at32f4xx_gpio.c ****   GPIO_InitStruct->GPIO_MaxSpeed = GPIO_MaxSpeed_2MHz;
 431              		.loc 1 272 0
 432 0006 0223     		movs	r3, #2
 433 0008 8370     		strb	r3, [r0, #2]
 273:../Libraries/AT32F4xx_StdPeriph_Driver/src/at32f4xx_gpio.c ****   GPIO_InitStruct->GPIO_Mode = GPIO_Mode_IN_FLOATING;
 434              		.loc 1 273 0
 435 000a 0423     		movs	r3, #4
 436 000c C370     		strb	r3, [r0, #3]
 274:../Libraries/AT32F4xx_StdPeriph_Driver/src/at32f4xx_gpio.c **** }
 437              		.loc 1 274 0
 438 000e 7047     		bx	lr
 439              		.cfi_endproc
ARM GAS  /var/folders/l3/4y5292px21b4835bsnjwqc7w009kq1/T//ccQxGGuu.s 			page 14


 440              	.LFE126:
 441              		.cantunwind
 442              		.fnend
 444              		.section	.text.GPIO_ReadInputDataBit,"ax",%progbits
 445              		.align	1
 446              		.global	GPIO_ReadInputDataBit
 447              		.syntax unified
 448              		.thumb
 449              		.thumb_func
 450              		.fpu fpv4-sp-d16
 452              	GPIO_ReadInputDataBit:
 453              		.fnstart
 454              	.LFB127:
 275:../Libraries/AT32F4xx_StdPeriph_Driver/src/at32f4xx_gpio.c **** 
 276:../Libraries/AT32F4xx_StdPeriph_Driver/src/at32f4xx_gpio.c **** /**
 277:../Libraries/AT32F4xx_StdPeriph_Driver/src/at32f4xx_gpio.c ****   * @brief  Reads the specified input port pin.
 278:../Libraries/AT32F4xx_StdPeriph_Driver/src/at32f4xx_gpio.c ****   * @param  GPIOx: where x can be (A..G) to select the GPIO peripheral.
 279:../Libraries/AT32F4xx_StdPeriph_Driver/src/at32f4xx_gpio.c ****   * @param  GPIO_Pin:  specifies the port bit to read.
 280:../Libraries/AT32F4xx_StdPeriph_Driver/src/at32f4xx_gpio.c ****   *   This parameter can be GPIO_Pin_x where x can be (0..15).
 281:../Libraries/AT32F4xx_StdPeriph_Driver/src/at32f4xx_gpio.c ****   * @retval The input port pin value.
 282:../Libraries/AT32F4xx_StdPeriph_Driver/src/at32f4xx_gpio.c ****   */
 283:../Libraries/AT32F4xx_StdPeriph_Driver/src/at32f4xx_gpio.c **** uint8_t GPIO_ReadInputDataBit(GPIO_Type* GPIOx, uint16_t GPIO_Pin)
 284:../Libraries/AT32F4xx_StdPeriph_Driver/src/at32f4xx_gpio.c **** {
 455              		.loc 1 284 0
 456              		.cfi_startproc
 457              		@ args = 0, pretend = 0, frame = 0
 458              		@ frame_needed = 0, uses_anonymous_args = 0
 459              		@ link register save eliminated.
 460              	.LVL69:
 285:../Libraries/AT32F4xx_StdPeriph_Driver/src/at32f4xx_gpio.c ****   uint8_t bitstatus = 0x00;
 286:../Libraries/AT32F4xx_StdPeriph_Driver/src/at32f4xx_gpio.c **** 
 287:../Libraries/AT32F4xx_StdPeriph_Driver/src/at32f4xx_gpio.c ****   /* Check the parameters */
 288:../Libraries/AT32F4xx_StdPeriph_Driver/src/at32f4xx_gpio.c ****   assert_param(IS_GPIO_ALL_PERIPH(GPIOx));
 289:../Libraries/AT32F4xx_StdPeriph_Driver/src/at32f4xx_gpio.c ****   assert_param(IS_GET_GPIO_PINS(GPIO_Pin));
 290:../Libraries/AT32F4xx_StdPeriph_Driver/src/at32f4xx_gpio.c **** 
 291:../Libraries/AT32F4xx_StdPeriph_Driver/src/at32f4xx_gpio.c ****   if ((GPIOx->IPTDT & GPIO_Pin) != (uint32_t)Bit_RESET)
 461              		.loc 1 291 0
 462 0000 8368     		ldr	r3, [r0, #8]
 463 0002 1942     		tst	r1, r3
 464 0004 01D1     		bne	.L41
 292:../Libraries/AT32F4xx_StdPeriph_Driver/src/at32f4xx_gpio.c ****   {
 293:../Libraries/AT32F4xx_StdPeriph_Driver/src/at32f4xx_gpio.c ****     bitstatus = (uint8_t)Bit_SET;
 294:../Libraries/AT32F4xx_StdPeriph_Driver/src/at32f4xx_gpio.c ****   }
 295:../Libraries/AT32F4xx_StdPeriph_Driver/src/at32f4xx_gpio.c ****   else
 296:../Libraries/AT32F4xx_StdPeriph_Driver/src/at32f4xx_gpio.c ****   {
 297:../Libraries/AT32F4xx_StdPeriph_Driver/src/at32f4xx_gpio.c ****     bitstatus = (uint8_t)Bit_RESET;
 465              		.loc 1 297 0
 466 0006 0020     		movs	r0, #0
 467              	.LVL70:
 298:../Libraries/AT32F4xx_StdPeriph_Driver/src/at32f4xx_gpio.c ****   }
 299:../Libraries/AT32F4xx_StdPeriph_Driver/src/at32f4xx_gpio.c **** 
 300:../Libraries/AT32F4xx_StdPeriph_Driver/src/at32f4xx_gpio.c ****   return bitstatus;
 301:../Libraries/AT32F4xx_StdPeriph_Driver/src/at32f4xx_gpio.c **** }
 468              		.loc 1 301 0
 469 0008 7047     		bx	lr
 470              	.LVL71:
 471              	.L41:
ARM GAS  /var/folders/l3/4y5292px21b4835bsnjwqc7w009kq1/T//ccQxGGuu.s 			page 15


 293:../Libraries/AT32F4xx_StdPeriph_Driver/src/at32f4xx_gpio.c ****   }
 472              		.loc 1 293 0
 473 000a 0120     		movs	r0, #1
 474              	.LVL72:
 475 000c 7047     		bx	lr
 476              		.cfi_endproc
 477              	.LFE127:
 478              		.cantunwind
 479              		.fnend
 481              		.section	.text.GPIO_ReadInputData,"ax",%progbits
 482              		.align	1
 483              		.global	GPIO_ReadInputData
 484              		.syntax unified
 485              		.thumb
 486              		.thumb_func
 487              		.fpu fpv4-sp-d16
 489              	GPIO_ReadInputData:
 490              		.fnstart
 491              	.LFB128:
 302:../Libraries/AT32F4xx_StdPeriph_Driver/src/at32f4xx_gpio.c **** 
 303:../Libraries/AT32F4xx_StdPeriph_Driver/src/at32f4xx_gpio.c **** /**
 304:../Libraries/AT32F4xx_StdPeriph_Driver/src/at32f4xx_gpio.c ****   * @brief  Reads the specified GPIO input data port.
 305:../Libraries/AT32F4xx_StdPeriph_Driver/src/at32f4xx_gpio.c ****   * @param  GPIOx: where x can be (A..G) to select the GPIO peripheral.
 306:../Libraries/AT32F4xx_StdPeriph_Driver/src/at32f4xx_gpio.c ****   * @retval GPIO input data port value.
 307:../Libraries/AT32F4xx_StdPeriph_Driver/src/at32f4xx_gpio.c ****   */
 308:../Libraries/AT32F4xx_StdPeriph_Driver/src/at32f4xx_gpio.c **** uint16_t GPIO_ReadInputData(GPIO_Type* GPIOx)
 309:../Libraries/AT32F4xx_StdPeriph_Driver/src/at32f4xx_gpio.c **** {
 492              		.loc 1 309 0
 493              		.cfi_startproc
 494              		@ args = 0, pretend = 0, frame = 0
 495              		@ frame_needed = 0, uses_anonymous_args = 0
 496              		@ link register save eliminated.
 497              	.LVL73:
 310:../Libraries/AT32F4xx_StdPeriph_Driver/src/at32f4xx_gpio.c ****   /* Check the parameters */
 311:../Libraries/AT32F4xx_StdPeriph_Driver/src/at32f4xx_gpio.c ****   assert_param(IS_GPIO_ALL_PERIPH(GPIOx));
 312:../Libraries/AT32F4xx_StdPeriph_Driver/src/at32f4xx_gpio.c **** 
 313:../Libraries/AT32F4xx_StdPeriph_Driver/src/at32f4xx_gpio.c ****   return ((uint16_t)GPIOx->IPTDT);
 498              		.loc 1 313 0
 499 0000 8068     		ldr	r0, [r0, #8]
 500              	.LVL74:
 314:../Libraries/AT32F4xx_StdPeriph_Driver/src/at32f4xx_gpio.c **** }
 501              		.loc 1 314 0
 502 0002 80B2     		uxth	r0, r0
 503 0004 7047     		bx	lr
 504              		.cfi_endproc
 505              	.LFE128:
 506              		.cantunwind
 507              		.fnend
 509              		.section	.text.GPIO_ReadOutputDataBit,"ax",%progbits
 510              		.align	1
 511              		.global	GPIO_ReadOutputDataBit
 512              		.syntax unified
 513              		.thumb
 514              		.thumb_func
 515              		.fpu fpv4-sp-d16
 517              	GPIO_ReadOutputDataBit:
 518              		.fnstart
ARM GAS  /var/folders/l3/4y5292px21b4835bsnjwqc7w009kq1/T//ccQxGGuu.s 			page 16


 519              	.LFB129:
 315:../Libraries/AT32F4xx_StdPeriph_Driver/src/at32f4xx_gpio.c **** 
 316:../Libraries/AT32F4xx_StdPeriph_Driver/src/at32f4xx_gpio.c **** /**
 317:../Libraries/AT32F4xx_StdPeriph_Driver/src/at32f4xx_gpio.c ****   * @brief  Reads the specified output data port bit.
 318:../Libraries/AT32F4xx_StdPeriph_Driver/src/at32f4xx_gpio.c ****   * @param  GPIOx: where x can be (A..G) to select the GPIO peripheral.
 319:../Libraries/AT32F4xx_StdPeriph_Driver/src/at32f4xx_gpio.c ****   * @param  GPIO_Pin:  specifies the port bit to read.
 320:../Libraries/AT32F4xx_StdPeriph_Driver/src/at32f4xx_gpio.c ****   *   This parameter can be GPIO_Pin_x where x can be (0..15).
 321:../Libraries/AT32F4xx_StdPeriph_Driver/src/at32f4xx_gpio.c ****   * @retval The output port pin value.
 322:../Libraries/AT32F4xx_StdPeriph_Driver/src/at32f4xx_gpio.c ****   */
 323:../Libraries/AT32F4xx_StdPeriph_Driver/src/at32f4xx_gpio.c **** uint8_t GPIO_ReadOutputDataBit(GPIO_Type* GPIOx, uint16_t GPIO_Pin)
 324:../Libraries/AT32F4xx_StdPeriph_Driver/src/at32f4xx_gpio.c **** {
 520              		.loc 1 324 0
 521              		.cfi_startproc
 522              		@ args = 0, pretend = 0, frame = 0
 523              		@ frame_needed = 0, uses_anonymous_args = 0
 524              		@ link register save eliminated.
 525              	.LVL75:
 325:../Libraries/AT32F4xx_StdPeriph_Driver/src/at32f4xx_gpio.c ****   uint8_t bitstatus = 0x00;
 326:../Libraries/AT32F4xx_StdPeriph_Driver/src/at32f4xx_gpio.c ****   /* Check the parameters */
 327:../Libraries/AT32F4xx_StdPeriph_Driver/src/at32f4xx_gpio.c ****   assert_param(IS_GPIO_ALL_PERIPH(GPIOx));
 328:../Libraries/AT32F4xx_StdPeriph_Driver/src/at32f4xx_gpio.c ****   assert_param(IS_GET_GPIO_PINS(GPIO_Pin));
 329:../Libraries/AT32F4xx_StdPeriph_Driver/src/at32f4xx_gpio.c **** 
 330:../Libraries/AT32F4xx_StdPeriph_Driver/src/at32f4xx_gpio.c ****   if ((GPIOx->OPTDT & GPIO_Pin) != (uint32_t)Bit_RESET)
 526              		.loc 1 330 0
 527 0000 C368     		ldr	r3, [r0, #12]
 528 0002 1942     		tst	r1, r3
 529 0004 01D1     		bne	.L46
 331:../Libraries/AT32F4xx_StdPeriph_Driver/src/at32f4xx_gpio.c ****   {
 332:../Libraries/AT32F4xx_StdPeriph_Driver/src/at32f4xx_gpio.c ****     bitstatus = (uint8_t)Bit_SET;
 333:../Libraries/AT32F4xx_StdPeriph_Driver/src/at32f4xx_gpio.c ****   }
 334:../Libraries/AT32F4xx_StdPeriph_Driver/src/at32f4xx_gpio.c ****   else
 335:../Libraries/AT32F4xx_StdPeriph_Driver/src/at32f4xx_gpio.c ****   {
 336:../Libraries/AT32F4xx_StdPeriph_Driver/src/at32f4xx_gpio.c ****     bitstatus = (uint8_t)Bit_RESET;
 530              		.loc 1 336 0
 531 0006 0020     		movs	r0, #0
 532              	.LVL76:
 337:../Libraries/AT32F4xx_StdPeriph_Driver/src/at32f4xx_gpio.c ****   }
 338:../Libraries/AT32F4xx_StdPeriph_Driver/src/at32f4xx_gpio.c **** 
 339:../Libraries/AT32F4xx_StdPeriph_Driver/src/at32f4xx_gpio.c ****   return bitstatus;
 340:../Libraries/AT32F4xx_StdPeriph_Driver/src/at32f4xx_gpio.c **** }
 533              		.loc 1 340 0
 534 0008 7047     		bx	lr
 535              	.LVL77:
 536              	.L46:
 332:../Libraries/AT32F4xx_StdPeriph_Driver/src/at32f4xx_gpio.c ****   }
 537              		.loc 1 332 0
 538 000a 0120     		movs	r0, #1
 539              	.LVL78:
 540 000c 7047     		bx	lr
 541              		.cfi_endproc
 542              	.LFE129:
 543              		.cantunwind
 544              		.fnend
 546              		.section	.text.GPIO_ReadOutputData,"ax",%progbits
 547              		.align	1
 548              		.global	GPIO_ReadOutputData
 549              		.syntax unified
ARM GAS  /var/folders/l3/4y5292px21b4835bsnjwqc7w009kq1/T//ccQxGGuu.s 			page 17


 550              		.thumb
 551              		.thumb_func
 552              		.fpu fpv4-sp-d16
 554              	GPIO_ReadOutputData:
 555              		.fnstart
 556              	.LFB130:
 341:../Libraries/AT32F4xx_StdPeriph_Driver/src/at32f4xx_gpio.c **** 
 342:../Libraries/AT32F4xx_StdPeriph_Driver/src/at32f4xx_gpio.c **** /**
 343:../Libraries/AT32F4xx_StdPeriph_Driver/src/at32f4xx_gpio.c ****   * @brief  Reads the specified GPIO output data port.
 344:../Libraries/AT32F4xx_StdPeriph_Driver/src/at32f4xx_gpio.c ****   * @param  GPIOx: where x can be (A..G) to select the GPIO peripheral.
 345:../Libraries/AT32F4xx_StdPeriph_Driver/src/at32f4xx_gpio.c ****   * @retval GPIO output data port value.
 346:../Libraries/AT32F4xx_StdPeriph_Driver/src/at32f4xx_gpio.c ****   */
 347:../Libraries/AT32F4xx_StdPeriph_Driver/src/at32f4xx_gpio.c **** uint16_t GPIO_ReadOutputData(GPIO_Type* GPIOx)
 348:../Libraries/AT32F4xx_StdPeriph_Driver/src/at32f4xx_gpio.c **** {
 557              		.loc 1 348 0
 558              		.cfi_startproc
 559              		@ args = 0, pretend = 0, frame = 0
 560              		@ frame_needed = 0, uses_anonymous_args = 0
 561              		@ link register save eliminated.
 562              	.LVL79:
 349:../Libraries/AT32F4xx_StdPeriph_Driver/src/at32f4xx_gpio.c ****   /* Check the parameters */
 350:../Libraries/AT32F4xx_StdPeriph_Driver/src/at32f4xx_gpio.c ****   assert_param(IS_GPIO_ALL_PERIPH(GPIOx));
 351:../Libraries/AT32F4xx_StdPeriph_Driver/src/at32f4xx_gpio.c **** 
 352:../Libraries/AT32F4xx_StdPeriph_Driver/src/at32f4xx_gpio.c ****   return ((uint16_t)GPIOx->OPTDT);
 563              		.loc 1 352 0
 564 0000 C068     		ldr	r0, [r0, #12]
 565              	.LVL80:
 353:../Libraries/AT32F4xx_StdPeriph_Driver/src/at32f4xx_gpio.c **** }
 566              		.loc 1 353 0
 567 0002 80B2     		uxth	r0, r0
 568 0004 7047     		bx	lr
 569              		.cfi_endproc
 570              	.LFE130:
 571              		.cantunwind
 572              		.fnend
 574              		.section	.text.GPIO_SetBits,"ax",%progbits
 575              		.align	1
 576              		.global	GPIO_SetBits
 577              		.syntax unified
 578              		.thumb
 579              		.thumb_func
 580              		.fpu fpv4-sp-d16
 582              	GPIO_SetBits:
 583              		.fnstart
 584              	.LFB131:
 354:../Libraries/AT32F4xx_StdPeriph_Driver/src/at32f4xx_gpio.c **** 
 355:../Libraries/AT32F4xx_StdPeriph_Driver/src/at32f4xx_gpio.c **** /**
 356:../Libraries/AT32F4xx_StdPeriph_Driver/src/at32f4xx_gpio.c ****   * @brief  Sets the selected data port bits.
 357:../Libraries/AT32F4xx_StdPeriph_Driver/src/at32f4xx_gpio.c ****   * @param  GPIOx: where x can be (A..G) to select the GPIO peripheral.
 358:../Libraries/AT32F4xx_StdPeriph_Driver/src/at32f4xx_gpio.c ****   * @param  GPIO_Pin: specifies the port bits to be written.
 359:../Libraries/AT32F4xx_StdPeriph_Driver/src/at32f4xx_gpio.c ****   *   This parameter can be any combination of GPIO_Pin_x where x can be (0..15).
 360:../Libraries/AT32F4xx_StdPeriph_Driver/src/at32f4xx_gpio.c ****   * @retval None
 361:../Libraries/AT32F4xx_StdPeriph_Driver/src/at32f4xx_gpio.c ****   */
 362:../Libraries/AT32F4xx_StdPeriph_Driver/src/at32f4xx_gpio.c **** void GPIO_SetBits(GPIO_Type* GPIOx, uint16_t GPIO_Pin)
 363:../Libraries/AT32F4xx_StdPeriph_Driver/src/at32f4xx_gpio.c **** {
 585              		.loc 1 363 0
 586              		.cfi_startproc
ARM GAS  /var/folders/l3/4y5292px21b4835bsnjwqc7w009kq1/T//ccQxGGuu.s 			page 18


 587              		@ args = 0, pretend = 0, frame = 0
 588              		@ frame_needed = 0, uses_anonymous_args = 0
 589              		@ link register save eliminated.
 590              	.LVL81:
 364:../Libraries/AT32F4xx_StdPeriph_Driver/src/at32f4xx_gpio.c ****   /* Check the parameters */
 365:../Libraries/AT32F4xx_StdPeriph_Driver/src/at32f4xx_gpio.c ****   assert_param(IS_GPIO_ALL_PERIPH(GPIOx));
 366:../Libraries/AT32F4xx_StdPeriph_Driver/src/at32f4xx_gpio.c ****   assert_param(IS_GPIO_PINS(GPIO_Pin));
 367:../Libraries/AT32F4xx_StdPeriph_Driver/src/at32f4xx_gpio.c **** 
 368:../Libraries/AT32F4xx_StdPeriph_Driver/src/at32f4xx_gpio.c ****   GPIOx->BSRE = GPIO_Pin;
 591              		.loc 1 368 0
 592 0000 0161     		str	r1, [r0, #16]
 369:../Libraries/AT32F4xx_StdPeriph_Driver/src/at32f4xx_gpio.c **** }
 593              		.loc 1 369 0
 594 0002 7047     		bx	lr
 595              		.cfi_endproc
 596              	.LFE131:
 597              		.cantunwind
 598              		.fnend
 600              		.section	.text.GPIO_ResetBits,"ax",%progbits
 601              		.align	1
 602              		.global	GPIO_ResetBits
 603              		.syntax unified
 604              		.thumb
 605              		.thumb_func
 606              		.fpu fpv4-sp-d16
 608              	GPIO_ResetBits:
 609              		.fnstart
 610              	.LFB132:
 370:../Libraries/AT32F4xx_StdPeriph_Driver/src/at32f4xx_gpio.c **** 
 371:../Libraries/AT32F4xx_StdPeriph_Driver/src/at32f4xx_gpio.c **** /**
 372:../Libraries/AT32F4xx_StdPeriph_Driver/src/at32f4xx_gpio.c ****   * @brief  Clears the selected data port bits.
 373:../Libraries/AT32F4xx_StdPeriph_Driver/src/at32f4xx_gpio.c ****   * @param  GPIOx: where x can be (A..G) to select the GPIO peripheral.
 374:../Libraries/AT32F4xx_StdPeriph_Driver/src/at32f4xx_gpio.c ****   * @param  GPIO_Pin: specifies the port bits to be written.
 375:../Libraries/AT32F4xx_StdPeriph_Driver/src/at32f4xx_gpio.c ****   *   This parameter can be any combination of GPIO_Pin_x where x can be (0..15).
 376:../Libraries/AT32F4xx_StdPeriph_Driver/src/at32f4xx_gpio.c ****   * @retval None
 377:../Libraries/AT32F4xx_StdPeriph_Driver/src/at32f4xx_gpio.c ****   */
 378:../Libraries/AT32F4xx_StdPeriph_Driver/src/at32f4xx_gpio.c **** void GPIO_ResetBits(GPIO_Type* GPIOx, uint16_t GPIO_Pin)
 379:../Libraries/AT32F4xx_StdPeriph_Driver/src/at32f4xx_gpio.c **** {
 611              		.loc 1 379 0
 612              		.cfi_startproc
 613              		@ args = 0, pretend = 0, frame = 0
 614              		@ frame_needed = 0, uses_anonymous_args = 0
 615              		@ link register save eliminated.
 616              	.LVL82:
 380:../Libraries/AT32F4xx_StdPeriph_Driver/src/at32f4xx_gpio.c ****   /* Check the parameters */
 381:../Libraries/AT32F4xx_StdPeriph_Driver/src/at32f4xx_gpio.c ****   assert_param(IS_GPIO_ALL_PERIPH(GPIOx));
 382:../Libraries/AT32F4xx_StdPeriph_Driver/src/at32f4xx_gpio.c ****   assert_param(IS_GPIO_PINS(GPIO_Pin));
 383:../Libraries/AT32F4xx_StdPeriph_Driver/src/at32f4xx_gpio.c **** 
 384:../Libraries/AT32F4xx_StdPeriph_Driver/src/at32f4xx_gpio.c ****   GPIOx->BRE = GPIO_Pin;
 617              		.loc 1 384 0
 618 0000 4161     		str	r1, [r0, #20]
 385:../Libraries/AT32F4xx_StdPeriph_Driver/src/at32f4xx_gpio.c **** }
 619              		.loc 1 385 0
 620 0002 7047     		bx	lr
 621              		.cfi_endproc
 622              	.LFE132:
 623              		.cantunwind
ARM GAS  /var/folders/l3/4y5292px21b4835bsnjwqc7w009kq1/T//ccQxGGuu.s 			page 19


 624              		.fnend
 626              		.section	.text.GPIO_WriteBit,"ax",%progbits
 627              		.align	1
 628              		.global	GPIO_WriteBit
 629              		.syntax unified
 630              		.thumb
 631              		.thumb_func
 632              		.fpu fpv4-sp-d16
 634              	GPIO_WriteBit:
 635              		.fnstart
 636              	.LFB133:
 386:../Libraries/AT32F4xx_StdPeriph_Driver/src/at32f4xx_gpio.c **** 
 387:../Libraries/AT32F4xx_StdPeriph_Driver/src/at32f4xx_gpio.c **** /**
 388:../Libraries/AT32F4xx_StdPeriph_Driver/src/at32f4xx_gpio.c ****   * @brief  Sets or clears the selected data port bit.
 389:../Libraries/AT32F4xx_StdPeriph_Driver/src/at32f4xx_gpio.c ****   * @param  GPIOx: where x can be (A..G) to select the GPIO peripheral.
 390:../Libraries/AT32F4xx_StdPeriph_Driver/src/at32f4xx_gpio.c ****   * @param  GPIO_Pin: specifies the port bit to be written.
 391:../Libraries/AT32F4xx_StdPeriph_Driver/src/at32f4xx_gpio.c ****   *   This parameter can be one of GPIO_Pin_x where x can be (0..15).
 392:../Libraries/AT32F4xx_StdPeriph_Driver/src/at32f4xx_gpio.c ****   * @param  BitVal: specifies the value to be written to the selected bit.
 393:../Libraries/AT32F4xx_StdPeriph_Driver/src/at32f4xx_gpio.c ****   *   This parameter can be one of the BitState enum values:
 394:../Libraries/AT32F4xx_StdPeriph_Driver/src/at32f4xx_gpio.c ****   *     @arg Bit_RESET: to clear the port pin
 395:../Libraries/AT32F4xx_StdPeriph_Driver/src/at32f4xx_gpio.c ****   *     @arg Bit_SET: to set the port pin
 396:../Libraries/AT32F4xx_StdPeriph_Driver/src/at32f4xx_gpio.c ****   * @retval None
 397:../Libraries/AT32F4xx_StdPeriph_Driver/src/at32f4xx_gpio.c ****   */
 398:../Libraries/AT32F4xx_StdPeriph_Driver/src/at32f4xx_gpio.c **** void GPIO_WriteBit(GPIO_Type* GPIOx, uint16_t GPIO_Pin, BitState BitVal)
 399:../Libraries/AT32F4xx_StdPeriph_Driver/src/at32f4xx_gpio.c **** {
 637              		.loc 1 399 0
 638              		.cfi_startproc
 639              		@ args = 0, pretend = 0, frame = 0
 640              		@ frame_needed = 0, uses_anonymous_args = 0
 641              		@ link register save eliminated.
 642              	.LVL83:
 400:../Libraries/AT32F4xx_StdPeriph_Driver/src/at32f4xx_gpio.c ****   /* Check the parameters */
 401:../Libraries/AT32F4xx_StdPeriph_Driver/src/at32f4xx_gpio.c ****   assert_param(IS_GPIO_ALL_PERIPH(GPIOx));
 402:../Libraries/AT32F4xx_StdPeriph_Driver/src/at32f4xx_gpio.c ****   assert_param(IS_GET_GPIO_PINS(GPIO_Pin));
 403:../Libraries/AT32F4xx_StdPeriph_Driver/src/at32f4xx_gpio.c ****   assert_param(IS_GPIO_BIT_STATE(BitVal));
 404:../Libraries/AT32F4xx_StdPeriph_Driver/src/at32f4xx_gpio.c **** 
 405:../Libraries/AT32F4xx_StdPeriph_Driver/src/at32f4xx_gpio.c ****   if (BitVal != Bit_RESET)
 643              		.loc 1 405 0
 644 0000 0AB9     		cbnz	r2, .L53
 406:../Libraries/AT32F4xx_StdPeriph_Driver/src/at32f4xx_gpio.c ****   {
 407:../Libraries/AT32F4xx_StdPeriph_Driver/src/at32f4xx_gpio.c ****     GPIOx->BSRE = GPIO_Pin;
 408:../Libraries/AT32F4xx_StdPeriph_Driver/src/at32f4xx_gpio.c ****   }
 409:../Libraries/AT32F4xx_StdPeriph_Driver/src/at32f4xx_gpio.c ****   else
 410:../Libraries/AT32F4xx_StdPeriph_Driver/src/at32f4xx_gpio.c ****   {
 411:../Libraries/AT32F4xx_StdPeriph_Driver/src/at32f4xx_gpio.c ****     GPIOx->BRE = GPIO_Pin;
 645              		.loc 1 411 0
 646 0002 4161     		str	r1, [r0, #20]
 412:../Libraries/AT32F4xx_StdPeriph_Driver/src/at32f4xx_gpio.c ****   }
 413:../Libraries/AT32F4xx_StdPeriph_Driver/src/at32f4xx_gpio.c **** }
 647              		.loc 1 413 0
 648 0004 7047     		bx	lr
 649              	.L53:
 407:../Libraries/AT32F4xx_StdPeriph_Driver/src/at32f4xx_gpio.c ****   }
 650              		.loc 1 407 0
 651 0006 0161     		str	r1, [r0, #16]
 652 0008 7047     		bx	lr
 653              		.cfi_endproc
ARM GAS  /var/folders/l3/4y5292px21b4835bsnjwqc7w009kq1/T//ccQxGGuu.s 			page 20


 654              	.LFE133:
 655              		.cantunwind
 656              		.fnend
 658              		.section	.text.GPIO_Write,"ax",%progbits
 659              		.align	1
 660              		.global	GPIO_Write
 661              		.syntax unified
 662              		.thumb
 663              		.thumb_func
 664              		.fpu fpv4-sp-d16
 666              	GPIO_Write:
 667              		.fnstart
 668              	.LFB134:
 414:../Libraries/AT32F4xx_StdPeriph_Driver/src/at32f4xx_gpio.c **** 
 415:../Libraries/AT32F4xx_StdPeriph_Driver/src/at32f4xx_gpio.c **** /**
 416:../Libraries/AT32F4xx_StdPeriph_Driver/src/at32f4xx_gpio.c ****   * @brief  Writes data to the specified GPIO data port.
 417:../Libraries/AT32F4xx_StdPeriph_Driver/src/at32f4xx_gpio.c ****   * @param  GPIOx: where x can be (A..G) to select the GPIO peripheral.
 418:../Libraries/AT32F4xx_StdPeriph_Driver/src/at32f4xx_gpio.c ****   * @param  PortVal: specifies the value to be written to the port output data register.
 419:../Libraries/AT32F4xx_StdPeriph_Driver/src/at32f4xx_gpio.c ****   * @retval None
 420:../Libraries/AT32F4xx_StdPeriph_Driver/src/at32f4xx_gpio.c ****   */
 421:../Libraries/AT32F4xx_StdPeriph_Driver/src/at32f4xx_gpio.c **** void GPIO_Write(GPIO_Type* GPIOx, uint16_t PortVal)
 422:../Libraries/AT32F4xx_StdPeriph_Driver/src/at32f4xx_gpio.c **** {
 669              		.loc 1 422 0
 670              		.cfi_startproc
 671              		@ args = 0, pretend = 0, frame = 0
 672              		@ frame_needed = 0, uses_anonymous_args = 0
 673              		@ link register save eliminated.
 674              	.LVL84:
 423:../Libraries/AT32F4xx_StdPeriph_Driver/src/at32f4xx_gpio.c ****   /* Check the parameters */
 424:../Libraries/AT32F4xx_StdPeriph_Driver/src/at32f4xx_gpio.c ****   assert_param(IS_GPIO_ALL_PERIPH(GPIOx));
 425:../Libraries/AT32F4xx_StdPeriph_Driver/src/at32f4xx_gpio.c **** 
 426:../Libraries/AT32F4xx_StdPeriph_Driver/src/at32f4xx_gpio.c ****   GPIOx->OPTDT = PortVal;
 675              		.loc 1 426 0
 676 0000 C160     		str	r1, [r0, #12]
 427:../Libraries/AT32F4xx_StdPeriph_Driver/src/at32f4xx_gpio.c **** }
 677              		.loc 1 427 0
 678 0002 7047     		bx	lr
 679              		.cfi_endproc
 680              	.LFE134:
 681              		.cantunwind
 682              		.fnend
 684              		.section	.text.GPIO_PinsLockConfig,"ax",%progbits
 685              		.align	1
 686              		.global	GPIO_PinsLockConfig
 687              		.syntax unified
 688              		.thumb
 689              		.thumb_func
 690              		.fpu fpv4-sp-d16
 692              	GPIO_PinsLockConfig:
 693              		.fnstart
 694              	.LFB135:
 428:../Libraries/AT32F4xx_StdPeriph_Driver/src/at32f4xx_gpio.c **** 
 429:../Libraries/AT32F4xx_StdPeriph_Driver/src/at32f4xx_gpio.c **** /**
 430:../Libraries/AT32F4xx_StdPeriph_Driver/src/at32f4xx_gpio.c ****   * @brief  Locks GPIO Pins configuration registers.
 431:../Libraries/AT32F4xx_StdPeriph_Driver/src/at32f4xx_gpio.c ****   * @param  GPIOx: where x can be (A..G) to select the GPIO peripheral.
 432:../Libraries/AT32F4xx_StdPeriph_Driver/src/at32f4xx_gpio.c ****   * @param  GPIO_Pin: specifies the port bit to be written.
 433:../Libraries/AT32F4xx_StdPeriph_Driver/src/at32f4xx_gpio.c ****   *   This parameter can be any combination of GPIO_Pin_x where x can be (0..15).
ARM GAS  /var/folders/l3/4y5292px21b4835bsnjwqc7w009kq1/T//ccQxGGuu.s 			page 21


 434:../Libraries/AT32F4xx_StdPeriph_Driver/src/at32f4xx_gpio.c ****   * @retval None
 435:../Libraries/AT32F4xx_StdPeriph_Driver/src/at32f4xx_gpio.c ****   */
 436:../Libraries/AT32F4xx_StdPeriph_Driver/src/at32f4xx_gpio.c **** void GPIO_PinsLockConfig(GPIO_Type* GPIOx, uint16_t GPIO_Pin)
 437:../Libraries/AT32F4xx_StdPeriph_Driver/src/at32f4xx_gpio.c **** {
 695              		.loc 1 437 0
 696              		.cfi_startproc
 697              		@ args = 0, pretend = 0, frame = 0
 698              		@ frame_needed = 0, uses_anonymous_args = 0
 699              		@ link register save eliminated.
 700              	.LVL85:
 438:../Libraries/AT32F4xx_StdPeriph_Driver/src/at32f4xx_gpio.c ****   uint32_t tmp = 0x00010000;
 439:../Libraries/AT32F4xx_StdPeriph_Driver/src/at32f4xx_gpio.c **** 
 440:../Libraries/AT32F4xx_StdPeriph_Driver/src/at32f4xx_gpio.c ****   /* Check the parameters */
 441:../Libraries/AT32F4xx_StdPeriph_Driver/src/at32f4xx_gpio.c ****   assert_param(IS_GPIO_ALL_PERIPH(GPIOx));
 442:../Libraries/AT32F4xx_StdPeriph_Driver/src/at32f4xx_gpio.c ****   assert_param(IS_GPIO_PINS(GPIO_Pin));
 443:../Libraries/AT32F4xx_StdPeriph_Driver/src/at32f4xx_gpio.c **** 
 444:../Libraries/AT32F4xx_StdPeriph_Driver/src/at32f4xx_gpio.c ****   tmp |= GPIO_Pin;
 701              		.loc 1 444 0
 702 0000 41F48033 		orr	r3, r1, #65536
 703              	.LVL86:
 445:../Libraries/AT32F4xx_StdPeriph_Driver/src/at32f4xx_gpio.c ****   /* Set LCKK bit */
 446:../Libraries/AT32F4xx_StdPeriph_Driver/src/at32f4xx_gpio.c ****   GPIOx->LOCK = tmp;
 704              		.loc 1 446 0
 705 0004 8361     		str	r3, [r0, #24]
 447:../Libraries/AT32F4xx_StdPeriph_Driver/src/at32f4xx_gpio.c ****   /* Reset LCKK bit */
 448:../Libraries/AT32F4xx_StdPeriph_Driver/src/at32f4xx_gpio.c ****   GPIOx->LOCK =  GPIO_Pin;
 706              		.loc 1 448 0
 707 0006 8161     		str	r1, [r0, #24]
 449:../Libraries/AT32F4xx_StdPeriph_Driver/src/at32f4xx_gpio.c ****   /* Set LCKK bit */
 450:../Libraries/AT32F4xx_StdPeriph_Driver/src/at32f4xx_gpio.c ****   GPIOx->LOCK = tmp;
 708              		.loc 1 450 0
 709 0008 8361     		str	r3, [r0, #24]
 451:../Libraries/AT32F4xx_StdPeriph_Driver/src/at32f4xx_gpio.c ****   /* Read LCKK bit*/
 452:../Libraries/AT32F4xx_StdPeriph_Driver/src/at32f4xx_gpio.c ****   tmp = GPIOx->LOCK;
 710              		.loc 1 452 0
 711 000a 8369     		ldr	r3, [r0, #24]
 712              	.LVL87:
 453:../Libraries/AT32F4xx_StdPeriph_Driver/src/at32f4xx_gpio.c ****   /* Read LCKK bit*/
 454:../Libraries/AT32F4xx_StdPeriph_Driver/src/at32f4xx_gpio.c ****   tmp = GPIOx->LOCK;
 713              		.loc 1 454 0
 714 000c 8369     		ldr	r3, [r0, #24]
 455:../Libraries/AT32F4xx_StdPeriph_Driver/src/at32f4xx_gpio.c **** }
 715              		.loc 1 455 0
 716 000e 7047     		bx	lr
 717              		.cfi_endproc
 718              	.LFE135:
 719              		.cantunwind
 720              		.fnend
 722              		.section	.text.GPIO_EventOutputConfig,"ax",%progbits
 723              		.align	1
 724              		.global	GPIO_EventOutputConfig
 725              		.syntax unified
 726              		.thumb
 727              		.thumb_func
 728              		.fpu fpv4-sp-d16
 730              	GPIO_EventOutputConfig:
 731              		.fnstart
ARM GAS  /var/folders/l3/4y5292px21b4835bsnjwqc7w009kq1/T//ccQxGGuu.s 			page 22


 732              	.LFB136:
 456:../Libraries/AT32F4xx_StdPeriph_Driver/src/at32f4xx_gpio.c **** 
 457:../Libraries/AT32F4xx_StdPeriph_Driver/src/at32f4xx_gpio.c **** /**
 458:../Libraries/AT32F4xx_StdPeriph_Driver/src/at32f4xx_gpio.c ****   * @brief  Selects the GPIO pin used as Event output.
 459:../Libraries/AT32F4xx_StdPeriph_Driver/src/at32f4xx_gpio.c ****   * @param  GPIO_PortSource: selects the GPIO port to be used as source
 460:../Libraries/AT32F4xx_StdPeriph_Driver/src/at32f4xx_gpio.c ****   *   for Event output.
 461:../Libraries/AT32F4xx_StdPeriph_Driver/src/at32f4xx_gpio.c ****   *   This parameter can be GPIO_PortSourceGPIOx where x can be (A..E).
 462:../Libraries/AT32F4xx_StdPeriph_Driver/src/at32f4xx_gpio.c ****   * @param  GPIO_PinSource: specifies the pin for the Event output.
 463:../Libraries/AT32F4xx_StdPeriph_Driver/src/at32f4xx_gpio.c ****   *   This parameter can be GPIO_PinSourcex where x can be (0..15).
 464:../Libraries/AT32F4xx_StdPeriph_Driver/src/at32f4xx_gpio.c ****   * @retval None
 465:../Libraries/AT32F4xx_StdPeriph_Driver/src/at32f4xx_gpio.c ****   */
 466:../Libraries/AT32F4xx_StdPeriph_Driver/src/at32f4xx_gpio.c **** void GPIO_EventOutputConfig(uint8_t GPIO_PortSource, uint8_t GPIO_PinSource)
 467:../Libraries/AT32F4xx_StdPeriph_Driver/src/at32f4xx_gpio.c **** {
 733              		.loc 1 467 0
 734              		.cfi_startproc
 735              		@ args = 0, pretend = 0, frame = 0
 736              		@ frame_needed = 0, uses_anonymous_args = 0
 737              		@ link register save eliminated.
 738              	.LVL88:
 468:../Libraries/AT32F4xx_StdPeriph_Driver/src/at32f4xx_gpio.c ****   uint32_t tmpreg = 0x00;
 469:../Libraries/AT32F4xx_StdPeriph_Driver/src/at32f4xx_gpio.c ****   /* Check the parameters */
 470:../Libraries/AT32F4xx_StdPeriph_Driver/src/at32f4xx_gpio.c ****   assert_param(IS_GPIO_EVENTOUT_PORT_SOURCE(GPIO_PortSource));
 471:../Libraries/AT32F4xx_StdPeriph_Driver/src/at32f4xx_gpio.c ****   assert_param(IS_GPIO_PINS_SOURCE(GPIO_PinSource));
 472:../Libraries/AT32F4xx_StdPeriph_Driver/src/at32f4xx_gpio.c **** 
 473:../Libraries/AT32F4xx_StdPeriph_Driver/src/at32f4xx_gpio.c ****   tmpreg = AFIO->EVCTRL;
 739              		.loc 1 473 0
 740 0000 054A     		ldr	r2, .L57
 741 0002 1368     		ldr	r3, [r2]
 742              	.LVL89:
 474:../Libraries/AT32F4xx_StdPeriph_Driver/src/at32f4xx_gpio.c ****   /* Clear the PORT[6:4] and PIN[3:0] bits */
 475:../Libraries/AT32F4xx_StdPeriph_Driver/src/at32f4xx_gpio.c ****   tmpreg &= EVCR_PORTPINCONFIG_MASK;
 743              		.loc 1 475 0
 744 0004 23F07F03 		bic	r3, r3, #127
 745              	.LVL90:
 746 0008 1B04     		lsls	r3, r3, #16
 747 000a 1B0C     		lsrs	r3, r3, #16
 748              	.LVL91:
 476:../Libraries/AT32F4xx_StdPeriph_Driver/src/at32f4xx_gpio.c ****   tmpreg |= (uint32_t)GPIO_PortSource << 0x04;
 749              		.loc 1 476 0
 750 000c 43EA0010 		orr	r0, r3, r0, lsl #4
 751              	.LVL92:
 477:../Libraries/AT32F4xx_StdPeriph_Driver/src/at32f4xx_gpio.c ****   tmpreg |= GPIO_PinSource;
 752              		.loc 1 477 0
 753 0010 0843     		orrs	r0, r0, r1
 754              	.LVL93:
 478:../Libraries/AT32F4xx_StdPeriph_Driver/src/at32f4xx_gpio.c ****   AFIO->EVCTRL = tmpreg;
 755              		.loc 1 478 0
 756 0012 1060     		str	r0, [r2]
 479:../Libraries/AT32F4xx_StdPeriph_Driver/src/at32f4xx_gpio.c **** }
 757              		.loc 1 479 0
 758 0014 7047     		bx	lr
 759              	.L58:
 760 0016 00BF     		.align	2
 761              	.L57:
 762 0018 00000140 		.word	1073807360
 763              		.cfi_endproc
 764              	.LFE136:
ARM GAS  /var/folders/l3/4y5292px21b4835bsnjwqc7w009kq1/T//ccQxGGuu.s 			page 23


 765              		.cantunwind
 766              		.fnend
 768              		.section	.text.GPIO_EventOutputCmd,"ax",%progbits
 769              		.align	1
 770              		.global	GPIO_EventOutputCmd
 771              		.syntax unified
 772              		.thumb
 773              		.thumb_func
 774              		.fpu fpv4-sp-d16
 776              	GPIO_EventOutputCmd:
 777              		.fnstart
 778              	.LFB137:
 480:../Libraries/AT32F4xx_StdPeriph_Driver/src/at32f4xx_gpio.c **** 
 481:../Libraries/AT32F4xx_StdPeriph_Driver/src/at32f4xx_gpio.c **** /**
 482:../Libraries/AT32F4xx_StdPeriph_Driver/src/at32f4xx_gpio.c ****   * @brief  Enables or disables the Event Output.
 483:../Libraries/AT32F4xx_StdPeriph_Driver/src/at32f4xx_gpio.c ****   * @param  NewState: new state of the Event output.
 484:../Libraries/AT32F4xx_StdPeriph_Driver/src/at32f4xx_gpio.c ****   *   This parameter can be: ENABLE or DISABLE.
 485:../Libraries/AT32F4xx_StdPeriph_Driver/src/at32f4xx_gpio.c ****   * @retval None
 486:../Libraries/AT32F4xx_StdPeriph_Driver/src/at32f4xx_gpio.c ****   */
 487:../Libraries/AT32F4xx_StdPeriph_Driver/src/at32f4xx_gpio.c **** void GPIO_EventOutputCmd(FunctionalState NewState)
 488:../Libraries/AT32F4xx_StdPeriph_Driver/src/at32f4xx_gpio.c **** {
 779              		.loc 1 488 0
 780              		.cfi_startproc
 781              		@ args = 0, pretend = 0, frame = 0
 782              		@ frame_needed = 0, uses_anonymous_args = 0
 783              		@ link register save eliminated.
 784              	.LVL94:
 489:../Libraries/AT32F4xx_StdPeriph_Driver/src/at32f4xx_gpio.c ****   /* Check the parameters */
 490:../Libraries/AT32F4xx_StdPeriph_Driver/src/at32f4xx_gpio.c ****   assert_param(IS_FUNCTIONAL_STATE(NewState));
 491:../Libraries/AT32F4xx_StdPeriph_Driver/src/at32f4xx_gpio.c **** 
 492:../Libraries/AT32F4xx_StdPeriph_Driver/src/at32f4xx_gpio.c ****   *(__IO uint32_t *) EVCR_EVOE_BB = (uint32_t)NewState;
 785              		.loc 1 492 0
 786 0000 014B     		ldr	r3, .L60
 787 0002 1860     		str	r0, [r3]
 493:../Libraries/AT32F4xx_StdPeriph_Driver/src/at32f4xx_gpio.c **** }
 788              		.loc 1 493 0
 789 0004 7047     		bx	lr
 790              	.L61:
 791 0006 00BF     		.align	2
 792              	.L60:
 793 0008 1C002042 		.word	1109393436
 794              		.cfi_endproc
 795              	.LFE137:
 796              		.cantunwind
 797              		.fnend
 799              		.section	.text.GPIO_PinsRemapConfig,"ax",%progbits
 800              		.align	1
 801              		.global	GPIO_PinsRemapConfig
 802              		.syntax unified
 803              		.thumb
 804              		.thumb_func
 805              		.fpu fpv4-sp-d16
 807              	GPIO_PinsRemapConfig:
 808              		.fnstart
 809              	.LFB138:
 494:../Libraries/AT32F4xx_StdPeriph_Driver/src/at32f4xx_gpio.c **** 
 495:../Libraries/AT32F4xx_StdPeriph_Driver/src/at32f4xx_gpio.c **** /**
ARM GAS  /var/folders/l3/4y5292px21b4835bsnjwqc7w009kq1/T//ccQxGGuu.s 			page 24


 496:../Libraries/AT32F4xx_StdPeriph_Driver/src/at32f4xx_gpio.c ****   * @brief  Changes the mapping of the specified pin.
 497:../Libraries/AT32F4xx_StdPeriph_Driver/src/at32f4xx_gpio.c ****   * @param  GPIO_Remap: selects the pin to remap.
 498:../Libraries/AT32F4xx_StdPeriph_Driver/src/at32f4xx_gpio.c ****   *   This parameter can be one of the following values:
 499:../Libraries/AT32F4xx_StdPeriph_Driver/src/at32f4xx_gpio.c ****   *     @arg GPIO_Remap01_SPI1           : SPI1 Alternate Function mapping01
 500:../Libraries/AT32F4xx_StdPeriph_Driver/src/at32f4xx_gpio.c ****   *     @arg GPIO_Remap10_SPI1           : SPI1 Alternate Function mapping10
 501:../Libraries/AT32F4xx_StdPeriph_Driver/src/at32f4xx_gpio.c ****   *     @arg GPIO_Remap_I2C1             : I2C1 Alternate Function mapping
 502:../Libraries/AT32F4xx_StdPeriph_Driver/src/at32f4xx_gpio.c ****   *     @arg GPIO_Remap_USART1           : USART1 Alternate Function mapping
 503:../Libraries/AT32F4xx_StdPeriph_Driver/src/at32f4xx_gpio.c ****   *     @arg GPIO_Remap_USART2           : USART2 Alternate Function mapping
 504:../Libraries/AT32F4xx_StdPeriph_Driver/src/at32f4xx_gpio.c ****   *     @arg GPIO_PartialRemap_USART3    : USART3 Partial Alternate Function mapping
 505:../Libraries/AT32F4xx_StdPeriph_Driver/src/at32f4xx_gpio.c ****   *     @arg GPIO_FullRemap_USART3       : USART3 Full Alternate Function mapping
 506:../Libraries/AT32F4xx_StdPeriph_Driver/src/at32f4xx_gpio.c ****   *     @arg GPIO_PartialRemap_TMR1      : TMR1 Partial Alternate Function mapping
 507:../Libraries/AT32F4xx_StdPeriph_Driver/src/at32f4xx_gpio.c ****   *     @arg GPIO_FullRemap_TMR1         : TMR1 Full Alternate Function mapping
 508:../Libraries/AT32F4xx_StdPeriph_Driver/src/at32f4xx_gpio.c ****   *     @arg GPIO_PartialRemap1_TMR2     : TMR2 Partial1 Alternate Function mapping
 509:../Libraries/AT32F4xx_StdPeriph_Driver/src/at32f4xx_gpio.c ****   *     @arg GPIO_PartialRemap2_TMR2     : TMR2 Partial2 Alternate Function mapping
 510:../Libraries/AT32F4xx_StdPeriph_Driver/src/at32f4xx_gpio.c ****   *     @arg GPIO_FullRemap_TMR2         : TMR2 Full Alternate Function mapping
 511:../Libraries/AT32F4xx_StdPeriph_Driver/src/at32f4xx_gpio.c ****   *     @arg GPIO_PartialRemap_TMR3      : TMR3 Partial Alternate Function mapping
 512:../Libraries/AT32F4xx_StdPeriph_Driver/src/at32f4xx_gpio.c ****   *     @arg GPIO_FullRemap_TMR3         : TMR3 Full Alternate Function mapping
 513:../Libraries/AT32F4xx_StdPeriph_Driver/src/at32f4xx_gpio.c ****   *     @arg GPIO_Remap_TMR4             : TMR4 Alternate Function mapping
 514:../Libraries/AT32F4xx_StdPeriph_Driver/src/at32f4xx_gpio.c ****   *     @arg GPIO_Remap1_CAN1            : CAN1 Alternate Function mapping
 515:../Libraries/AT32F4xx_StdPeriph_Driver/src/at32f4xx_gpio.c ****   *     @arg GPIO_Remap2_CAN1            : CAN1 Alternate Function mapping
 516:../Libraries/AT32F4xx_StdPeriph_Driver/src/at32f4xx_gpio.c ****   *     @arg GPIO_Remap_PTD01            : PD01 Alternate Function mapping
 517:../Libraries/AT32F4xx_StdPeriph_Driver/src/at32f4xx_gpio.c ****   *     @arg GPIO_Remap_TMR5CH4_LSI      : LSI connected to TMR5 Channel4 input capture for calibra
 518:../Libraries/AT32F4xx_StdPeriph_Driver/src/at32f4xx_gpio.c ****   *     @arg GPIO_Remap_ADC1_EXTRGINJ    : ADC1 External Trigger Injected Conversion remapping
 519:../Libraries/AT32F4xx_StdPeriph_Driver/src/at32f4xx_gpio.c ****   *     @arg GPIO_Remap_ADC1_EXTRGREG    : ADC1 External Trigger Regular Conversion remapping
 520:../Libraries/AT32F4xx_StdPeriph_Driver/src/at32f4xx_gpio.c ****   *     @arg GPIO_Remap_ADC2_EXTRGINJ    : ADC2 External Trigger Injected Conversion remapping
 521:../Libraries/AT32F4xx_StdPeriph_Driver/src/at32f4xx_gpio.c ****   *     @arg GPIO_Remap_ADC2_EXTRGREG    : ADC2 External Trigger Regular Conversion remapping
 522:../Libraries/AT32F4xx_StdPeriph_Driver/src/at32f4xx_gpio.c ****   *     @arg GPIO_Remap_SWJ_NoJNTRST     : Full SWJ Enabled (JTAG-DP + SW-DP) but without JTRST
 523:../Libraries/AT32F4xx_StdPeriph_Driver/src/at32f4xx_gpio.c ****   *     @arg GPIO_Remap_SWJ_JTAGDisable  : JTAG-DP Disabled and SW-DP Enabled
 524:../Libraries/AT32F4xx_StdPeriph_Driver/src/at32f4xx_gpio.c ****   *     @arg GPIO_Remap_SWJ_AllDisable   : Full SWJ Disabled (JTAG-DP + SW-DP)
 525:../Libraries/AT32F4xx_StdPeriph_Driver/src/at32f4xx_gpio.c ****   *     @arg GPIO_Remap_TMR15            : TMR15 Alternate Function mapping
 526:../Libraries/AT32F4xx_StdPeriph_Driver/src/at32f4xx_gpio.c ****   *     @arg GPIO_Remap_TMR9             : TMR9 Alternate Function mapping
 527:../Libraries/AT32F4xx_StdPeriph_Driver/src/at32f4xx_gpio.c ****   *     @arg GPIO_Remap_TMR10            : TMR10 Alternate Function mapping
 528:../Libraries/AT32F4xx_StdPeriph_Driver/src/at32f4xx_gpio.c ****   *     @arg GPIO_Remap_TMR11            : TMR11 Alternate Function mapping
 529:../Libraries/AT32F4xx_StdPeriph_Driver/src/at32f4xx_gpio.c ****   *     @arg GPIO_Remap_TMR13            : TMR13 Alternate Function mapping
 530:../Libraries/AT32F4xx_StdPeriph_Driver/src/at32f4xx_gpio.c ****   *     @arg GPIO_Remap_TMR14            : TMR14 Alternate Function mapping
 531:../Libraries/AT32F4xx_StdPeriph_Driver/src/at32f4xx_gpio.c ****   *     @arg GPIO_Remap_XMC_NADV         : XMC_NADV Alternate Function mapping
 532:../Libraries/AT32F4xx_StdPeriph_Driver/src/at32f4xx_gpio.c ****   *     @arg GPIO_Remap_SPI4             : SPI4 Alternate Function mapping
 533:../Libraries/AT32F4xx_StdPeriph_Driver/src/at32f4xx_gpio.c ****   *     @arg GPIO_Remap_I2C3             : I2C3 Alternate Function mapping
 534:../Libraries/AT32F4xx_StdPeriph_Driver/src/at32f4xx_gpio.c ****   *     @arg GPIO_Remap01_SDIO2          : SDIO2 Alternate Function mapping 01:CK/CMD Remaped None,
 535:../Libraries/AT32F4xx_StdPeriph_Driver/src/at32f4xx_gpio.c ****   *     @arg GPIO_Remap10_SDIO2          : SDIO2 Alternate Function mapping 10:CK/CMD Remaped to PA
 536:../Libraries/AT32F4xx_StdPeriph_Driver/src/at32f4xx_gpio.c ****   *     @arg GPIO_Remap11_SDIO2          : SDIO2 Alternate Function mapping 11:CK/CMD Remaped to PA
 537:../Libraries/AT32F4xx_StdPeriph_Driver/src/at32f4xx_gpio.c ****   *     @arg GPIO_Remap_EXT_FLASH        : EXT_FLASH Alternate Function mapping
 538:../Libraries/AT32F4xx_StdPeriph_Driver/src/at32f4xx_gpio.c ****   
 539:../Libraries/AT32F4xx_StdPeriph_Driver/src/at32f4xx_gpio.c ****   *     @arg AFIO_MAP3_TMR9_0010         : TMR9 Alternate Function mapping:
 540:../Libraries/AT32F4xx_StdPeriph_Driver/src/at32f4xx_gpio.c ****   *     @arg AFIO_MAP3_TMR10_0010        : TMR10 Alternate Function mapping:
 541:../Libraries/AT32F4xx_StdPeriph_Driver/src/at32f4xx_gpio.c ****   *     @arg AFIO_MAP3_TMR11_0010        : TMR11 Alternate Function mapping:
 542:../Libraries/AT32F4xx_StdPeriph_Driver/src/at32f4xx_gpio.c ****   *     @arg AFIO_MAP4_TMR1_0001         : TMR1 Alternate Function mapping 
 543:../Libraries/AT32F4xx_StdPeriph_Driver/src/at32f4xx_gpio.c ****   *     @arg AFIO_MAP4_TMR2_0001         : TMR2 Alternate Function mapping 0001
 544:../Libraries/AT32F4xx_StdPeriph_Driver/src/at32f4xx_gpio.c ****   *     @arg AFIO_MAP4_TMR2_0010         : TMR2 Alternate Function mapping 0010
 545:../Libraries/AT32F4xx_StdPeriph_Driver/src/at32f4xx_gpio.c ****   *     @arg AFIO_MAP4_TMR2_0011         : TMR2 Alternate Function mapping 0011
 546:../Libraries/AT32F4xx_StdPeriph_Driver/src/at32f4xx_gpio.c ****   *     @arg AFIO_MAP4_TMR3_0010         : TMR3 Alternate Function mapping 0010
 547:../Libraries/AT32F4xx_StdPeriph_Driver/src/at32f4xx_gpio.c ****   *     @arg AFIO_MAP4_TMR3_0011         : TMR3 Alternate Function mapping 0011
 548:../Libraries/AT32F4xx_StdPeriph_Driver/src/at32f4xx_gpio.c ****   *     @arg AFIO_MAP4_TMR5_0001         : TMR5 Alternate Function mapping 0001: CH1/CH2
 549:../Libraries/AT32F4xx_StdPeriph_Driver/src/at32f4xx_gpio.c ****   *     @arg AFIO_MAP4_TMR5_1000         : TMR5 Alternate Function mapping 1000: CH4 
 550:../Libraries/AT32F4xx_StdPeriph_Driver/src/at32f4xx_gpio.c ****   *     @arg AFIO_MAP4_TMR5_1001         : TMR5 Alternate Function mapping 1001: CH1/CH2+CH4 
 551:../Libraries/AT32F4xx_StdPeriph_Driver/src/at32f4xx_gpio.c ****   *     @arg AFIO_MAP5_I2C1_0001         : I2C1 Alternate Function mapping 0001
 552:../Libraries/AT32F4xx_StdPeriph_Driver/src/at32f4xx_gpio.c ****   *     @arg AFIO_MAP5_I2C1_0011         : I2C1 Alternate Function mapping 0011
ARM GAS  /var/folders/l3/4y5292px21b4835bsnjwqc7w009kq1/T//ccQxGGuu.s 			page 25


 553:../Libraries/AT32F4xx_StdPeriph_Driver/src/at32f4xx_gpio.c ****   *     @arg AFIO_MAP5_I2C2_0001         : I2C2 Alternate Function mapping 0001
 554:../Libraries/AT32F4xx_StdPeriph_Driver/src/at32f4xx_gpio.c ****   *     @arg AFIO_MAP5_I2C2_0010         : I2C2 Alternate Function mapping 0010
 555:../Libraries/AT32F4xx_StdPeriph_Driver/src/at32f4xx_gpio.c ****   *     @arg AFIO_MAP5_I2C2_0011         : I2C2 Alternate Function mapping 0011
 556:../Libraries/AT32F4xx_StdPeriph_Driver/src/at32f4xx_gpio.c ****   *     @arg AFIO_MAP5_SPI1_0001         : SPI1 Alternate Function mapping 
 557:../Libraries/AT32F4xx_StdPeriph_Driver/src/at32f4xx_gpio.c ****   *     @arg AFIO_MAP5_SPI2_0001         : SPI2 Alternate Function mapping 
 558:../Libraries/AT32F4xx_StdPeriph_Driver/src/at32f4xx_gpio.c ****   *     @arg AFIO_MAP6_CAN1_0010         : CAN1 Alternate Function mapping 
 559:../Libraries/AT32F4xx_StdPeriph_Driver/src/at32f4xx_gpio.c ****   *     @arg AFIO_MAP6_CAN2_0001         : CAN2 Alternate Function mapping 
 560:../Libraries/AT32F4xx_StdPeriph_Driver/src/at32f4xx_gpio.c ****   *     @arg AFIO_MAP6_SDIO_0100         : SDIO Alternate Function mapping 100 
 561:../Libraries/AT32F4xx_StdPeriph_Driver/src/at32f4xx_gpio.c ****   *     @arg AFIO_MAP6_SDIO_0101         : SDIO Alternate Function mapping 101 
 562:../Libraries/AT32F4xx_StdPeriph_Driver/src/at32f4xx_gpio.c ****   *     @arg AFIO_MAP6_SDIO_0110         : SDIO Alternate Function mapping 110 
 563:../Libraries/AT32F4xx_StdPeriph_Driver/src/at32f4xx_gpio.c ****   *     @arg AFIO_MAP6_SDIO_0111         : SDIO Alternate Function mapping 111 
 564:../Libraries/AT32F4xx_StdPeriph_Driver/src/at32f4xx_gpio.c ****   *     @arg AFIO_MAP6_USART1_0001       : USART1 Alternate Function mapping 
 565:../Libraries/AT32F4xx_StdPeriph_Driver/src/at32f4xx_gpio.c ****   *     @arg AFIO_MAP6_USART3_0001       : USART3 Partial Alternate Function mapping 
 566:../Libraries/AT32F4xx_StdPeriph_Driver/src/at32f4xx_gpio.c ****   *     @arg AFIO_MAP6_UART4_0001        : UART4 Alternate Function mapping 
 567:../Libraries/AT32F4xx_StdPeriph_Driver/src/at32f4xx_gpio.c ****   *     @arg AFIO_MAP7_SPIF_1000         : EXT_FLASH Alternate Function mapping  
 568:../Libraries/AT32F4xx_StdPeriph_Driver/src/at32f4xx_gpio.c ****   *     @arg AFIO_MAP7_SPIF_1001         : EXT_FLASH Alternate Function enable  
 569:../Libraries/AT32F4xx_StdPeriph_Driver/src/at32f4xx_gpio.c ****   *     @arg AFIO_MAP7_ADC1_0001         : ADC1 External Trigger Injected Conversion remapping 
 570:../Libraries/AT32F4xx_StdPeriph_Driver/src/at32f4xx_gpio.c ****   *     @arg AFIO_MAP7_ADC1_0010         : ADC1 External Trigger Regular Conversion remapping 
 571:../Libraries/AT32F4xx_StdPeriph_Driver/src/at32f4xx_gpio.c ****   *     @arg AFIO_MAP7_ADC1_0011         : ADC1 External Trigger Regular & Injected Conversion rema
 572:../Libraries/AT32F4xx_StdPeriph_Driver/src/at32f4xx_gpio.c ****   *     @arg AFIO_MAP7_ADC2_0001         : ADC2 External Trigger Injected Conversion remapping 
 573:../Libraries/AT32F4xx_StdPeriph_Driver/src/at32f4xx_gpio.c ****   *     @arg AFIO_MAP7_ADC2_0010         : ADC2 External Trigger Regular Conversion remapping 
 574:../Libraries/AT32F4xx_StdPeriph_Driver/src/at32f4xx_gpio.c ****   *     @arg AFIO_MAP7_ADC2_0011         : ADC2 External Trigger Regular & Injected Conversion rema
 575:../Libraries/AT32F4xx_StdPeriph_Driver/src/at32f4xx_gpio.c ****   *     @arg AFIO_MAP7_SWJTAG_0001       : Full SWJ Enabled (JTAG-DP + SW-DP) but without JTRST 
 576:../Libraries/AT32F4xx_StdPeriph_Driver/src/at32f4xx_gpio.c ****   *     @arg AFIO_MAP7_SWJTAG_0010       : JTAG-DP Disabled and SW-DP Enabled 
 577:../Libraries/AT32F4xx_StdPeriph_Driver/src/at32f4xx_gpio.c ****   *     @arg AFIO_MAP7_SWJTAG_0100       : Full SWJ Disabled (JTAG-DP + SW-DP) 
 578:../Libraries/AT32F4xx_StdPeriph_Driver/src/at32f4xx_gpio.c ****   *     @arg AFIO_MAP7_PD01_0001         : PD01 Alternate Function mapping 
 579:../Libraries/AT32F4xx_StdPeriph_Driver/src/at32f4xx_gpio.c ****   * @param  NewState: new state of the port pin remapping.
 580:../Libraries/AT32F4xx_StdPeriph_Driver/src/at32f4xx_gpio.c ****   *   This parameter can be: ENABLE or DISABLE.
 581:../Libraries/AT32F4xx_StdPeriph_Driver/src/at32f4xx_gpio.c ****   * @retval None
 582:../Libraries/AT32F4xx_StdPeriph_Driver/src/at32f4xx_gpio.c ****   */
 583:../Libraries/AT32F4xx_StdPeriph_Driver/src/at32f4xx_gpio.c **** void GPIO_PinsRemapConfig(uint32_t GPIO_Remap, FunctionalState NewState)
 584:../Libraries/AT32F4xx_StdPeriph_Driver/src/at32f4xx_gpio.c **** {
 810              		.loc 1 584 0
 811              		.cfi_startproc
 812              		@ args = 0, pretend = 0, frame = 0
 813              		@ frame_needed = 0, uses_anonymous_args = 0
 814              		@ link register save eliminated.
 815              	.LVL95:
 585:../Libraries/AT32F4xx_StdPeriph_Driver/src/at32f4xx_gpio.c **** #ifndef AT32F403xx
 586:../Libraries/AT32F4xx_StdPeriph_Driver/src/at32f4xx_gpio.c ****   if(IS_GREMAP(GPIO_Remap))
 587:../Libraries/AT32F4xx_StdPeriph_Driver/src/at32f4xx_gpio.c ****   {
 588:../Libraries/AT32F4xx_StdPeriph_Driver/src/at32f4xx_gpio.c ****     uint32_t reg_ost = 0x00, bit_ost = 0x00, Remap_Addr, Remap_val;
 589:../Libraries/AT32F4xx_StdPeriph_Driver/src/at32f4xx_gpio.c ****     volatile uint32_t *AFIO_MAPx;
 590:../Libraries/AT32F4xx_StdPeriph_Driver/src/at32f4xx_gpio.c **** 
 591:../Libraries/AT32F4xx_StdPeriph_Driver/src/at32f4xx_gpio.c ****     /* Calculate the remap register value by parameter GPIO_Remap */
 592:../Libraries/AT32F4xx_StdPeriph_Driver/src/at32f4xx_gpio.c ****     Remap_Addr = GPIO_Remap & 0x7FFFFFFF;
 593:../Libraries/AT32F4xx_StdPeriph_Driver/src/at32f4xx_gpio.c ****     reg_ost = Remap_Addr >> 7;
 594:../Libraries/AT32F4xx_StdPeriph_Driver/src/at32f4xx_gpio.c ****     Remap_Addr &= 0x7f;
 595:../Libraries/AT32F4xx_StdPeriph_Driver/src/at32f4xx_gpio.c ****     bit_ost = Remap_Addr >> 4;
 596:../Libraries/AT32F4xx_StdPeriph_Driver/src/at32f4xx_gpio.c ****     Remap_Addr &= 0x0f;
 597:../Libraries/AT32F4xx_StdPeriph_Driver/src/at32f4xx_gpio.c ****     Remap_val = Remap_Addr << (bit_ost * 4);
 598:../Libraries/AT32F4xx_StdPeriph_Driver/src/at32f4xx_gpio.c **** 
 599:../Libraries/AT32F4xx_StdPeriph_Driver/src/at32f4xx_gpio.c ****     switch(reg_ost)
 600:../Libraries/AT32F4xx_StdPeriph_Driver/src/at32f4xx_gpio.c ****     {
 601:../Libraries/AT32F4xx_StdPeriph_Driver/src/at32f4xx_gpio.c ****       case AFIO_MAP3:
 602:../Libraries/AT32F4xx_StdPeriph_Driver/src/at32f4xx_gpio.c ****         AFIO_MAPx = &(AFIO->MAP3);
 603:../Libraries/AT32F4xx_StdPeriph_Driver/src/at32f4xx_gpio.c ****         break;
ARM GAS  /var/folders/l3/4y5292px21b4835bsnjwqc7w009kq1/T//ccQxGGuu.s 			page 26


 604:../Libraries/AT32F4xx_StdPeriph_Driver/src/at32f4xx_gpio.c **** 
 605:../Libraries/AT32F4xx_StdPeriph_Driver/src/at32f4xx_gpio.c ****       case AFIO_MAP4:
 606:../Libraries/AT32F4xx_StdPeriph_Driver/src/at32f4xx_gpio.c ****         AFIO_MAPx = &(AFIO->MAP4);
 607:../Libraries/AT32F4xx_StdPeriph_Driver/src/at32f4xx_gpio.c ****         break;
 608:../Libraries/AT32F4xx_StdPeriph_Driver/src/at32f4xx_gpio.c **** 
 609:../Libraries/AT32F4xx_StdPeriph_Driver/src/at32f4xx_gpio.c ****       case AFIO_MAP5:
 610:../Libraries/AT32F4xx_StdPeriph_Driver/src/at32f4xx_gpio.c ****         AFIO_MAPx = &(AFIO->MAP5);
 611:../Libraries/AT32F4xx_StdPeriph_Driver/src/at32f4xx_gpio.c ****         break;
 612:../Libraries/AT32F4xx_StdPeriph_Driver/src/at32f4xx_gpio.c **** 
 613:../Libraries/AT32F4xx_StdPeriph_Driver/src/at32f4xx_gpio.c ****       case AFIO_MAP6:
 614:../Libraries/AT32F4xx_StdPeriph_Driver/src/at32f4xx_gpio.c ****         AFIO_MAPx = &(AFIO->MAP6);
 615:../Libraries/AT32F4xx_StdPeriph_Driver/src/at32f4xx_gpio.c ****         break;
 616:../Libraries/AT32F4xx_StdPeriph_Driver/src/at32f4xx_gpio.c **** 
 617:../Libraries/AT32F4xx_StdPeriph_Driver/src/at32f4xx_gpio.c ****       case AFIO_MAP7:
 618:../Libraries/AT32F4xx_StdPeriph_Driver/src/at32f4xx_gpio.c ****         AFIO_MAPx = &(AFIO->MAP7);
 619:../Libraries/AT32F4xx_StdPeriph_Driver/src/at32f4xx_gpio.c ****         break;
 620:../Libraries/AT32F4xx_StdPeriph_Driver/src/at32f4xx_gpio.c **** 
 621:../Libraries/AT32F4xx_StdPeriph_Driver/src/at32f4xx_gpio.c ****       default:
 622:../Libraries/AT32F4xx_StdPeriph_Driver/src/at32f4xx_gpio.c ****         break;
 623:../Libraries/AT32F4xx_StdPeriph_Driver/src/at32f4xx_gpio.c ****     }
 624:../Libraries/AT32F4xx_StdPeriph_Driver/src/at32f4xx_gpio.c **** 
 625:../Libraries/AT32F4xx_StdPeriph_Driver/src/at32f4xx_gpio.c ****     if(bit_ost == BITS0)
 626:../Libraries/AT32F4xx_StdPeriph_Driver/src/at32f4xx_gpio.c ****     {
 627:../Libraries/AT32F4xx_StdPeriph_Driver/src/at32f4xx_gpio.c ****       *AFIO_MAPx &= OFFSET_MASK0;
 628:../Libraries/AT32F4xx_StdPeriph_Driver/src/at32f4xx_gpio.c ****     }
 629:../Libraries/AT32F4xx_StdPeriph_Driver/src/at32f4xx_gpio.c ****     else if(bit_ost == BITS1)
 630:../Libraries/AT32F4xx_StdPeriph_Driver/src/at32f4xx_gpio.c ****     {
 631:../Libraries/AT32F4xx_StdPeriph_Driver/src/at32f4xx_gpio.c ****       *AFIO_MAPx &= OFFSET_MASK1;
 632:../Libraries/AT32F4xx_StdPeriph_Driver/src/at32f4xx_gpio.c ****     }
 633:../Libraries/AT32F4xx_StdPeriph_Driver/src/at32f4xx_gpio.c ****     else if(bit_ost == BITS2)
 634:../Libraries/AT32F4xx_StdPeriph_Driver/src/at32f4xx_gpio.c ****     {
 635:../Libraries/AT32F4xx_StdPeriph_Driver/src/at32f4xx_gpio.c ****       *AFIO_MAPx &= OFFSET_MASK2;
 636:../Libraries/AT32F4xx_StdPeriph_Driver/src/at32f4xx_gpio.c ****     }
 637:../Libraries/AT32F4xx_StdPeriph_Driver/src/at32f4xx_gpio.c ****     else if(bit_ost == BITS3)
 638:../Libraries/AT32F4xx_StdPeriph_Driver/src/at32f4xx_gpio.c ****     {
 639:../Libraries/AT32F4xx_StdPeriph_Driver/src/at32f4xx_gpio.c ****       *AFIO_MAPx &= OFFSET_MASK3;
 640:../Libraries/AT32F4xx_StdPeriph_Driver/src/at32f4xx_gpio.c ****     }
 641:../Libraries/AT32F4xx_StdPeriph_Driver/src/at32f4xx_gpio.c ****     else if(bit_ost == BITS4)
 642:../Libraries/AT32F4xx_StdPeriph_Driver/src/at32f4xx_gpio.c ****     {
 643:../Libraries/AT32F4xx_StdPeriph_Driver/src/at32f4xx_gpio.c ****       *AFIO_MAPx &= OFFSET_MASK4;
 644:../Libraries/AT32F4xx_StdPeriph_Driver/src/at32f4xx_gpio.c ****     }
 645:../Libraries/AT32F4xx_StdPeriph_Driver/src/at32f4xx_gpio.c ****     else if(bit_ost == BITS5)
 646:../Libraries/AT32F4xx_StdPeriph_Driver/src/at32f4xx_gpio.c ****     {
 647:../Libraries/AT32F4xx_StdPeriph_Driver/src/at32f4xx_gpio.c ****       *AFIO_MAPx &= OFFSET_MASK5;
 648:../Libraries/AT32F4xx_StdPeriph_Driver/src/at32f4xx_gpio.c ****     }
 649:../Libraries/AT32F4xx_StdPeriph_Driver/src/at32f4xx_gpio.c ****     else if(bit_ost == BITS6)
 650:../Libraries/AT32F4xx_StdPeriph_Driver/src/at32f4xx_gpio.c ****     {
 651:../Libraries/AT32F4xx_StdPeriph_Driver/src/at32f4xx_gpio.c ****       *AFIO_MAPx &= OFFSET_MASK6;
 652:../Libraries/AT32F4xx_StdPeriph_Driver/src/at32f4xx_gpio.c ****     }
 653:../Libraries/AT32F4xx_StdPeriph_Driver/src/at32f4xx_gpio.c ****     else if(bit_ost == BITS7)
 654:../Libraries/AT32F4xx_StdPeriph_Driver/src/at32f4xx_gpio.c ****     {
 655:../Libraries/AT32F4xx_StdPeriph_Driver/src/at32f4xx_gpio.c ****       *AFIO_MAPx &= OFFSET_MASK7;
 656:../Libraries/AT32F4xx_StdPeriph_Driver/src/at32f4xx_gpio.c ****     }
 657:../Libraries/AT32F4xx_StdPeriph_Driver/src/at32f4xx_gpio.c **** 
 658:../Libraries/AT32F4xx_StdPeriph_Driver/src/at32f4xx_gpio.c ****     if(NewState == ENABLE)
 659:../Libraries/AT32F4xx_StdPeriph_Driver/src/at32f4xx_gpio.c ****     {
 660:../Libraries/AT32F4xx_StdPeriph_Driver/src/at32f4xx_gpio.c ****       *AFIO_MAPx |= Remap_val;
ARM GAS  /var/folders/l3/4y5292px21b4835bsnjwqc7w009kq1/T//ccQxGGuu.s 			page 27


 661:../Libraries/AT32F4xx_StdPeriph_Driver/src/at32f4xx_gpio.c ****     }
 662:../Libraries/AT32F4xx_StdPeriph_Driver/src/at32f4xx_gpio.c **** 
 663:../Libraries/AT32F4xx_StdPeriph_Driver/src/at32f4xx_gpio.c ****   }
 664:../Libraries/AT32F4xx_StdPeriph_Driver/src/at32f4xx_gpio.c ****   else
 665:../Libraries/AT32F4xx_StdPeriph_Driver/src/at32f4xx_gpio.c **** #endif
 666:../Libraries/AT32F4xx_StdPeriph_Driver/src/at32f4xx_gpio.c ****   {
 667:../Libraries/AT32F4xx_StdPeriph_Driver/src/at32f4xx_gpio.c ****     /* Check the parameters */
 668:../Libraries/AT32F4xx_StdPeriph_Driver/src/at32f4xx_gpio.c ****     assert_param(IS_GPIO_REMAP(GPIO_Remap));
 669:../Libraries/AT32F4xx_StdPeriph_Driver/src/at32f4xx_gpio.c ****     assert_param(IS_FUNCTIONAL_STATE(NewState));
 670:../Libraries/AT32F4xx_StdPeriph_Driver/src/at32f4xx_gpio.c **** 
 671:../Libraries/AT32F4xx_StdPeriph_Driver/src/at32f4xx_gpio.c ****     switch(GPIO_Remap)
 816              		.loc 1 671 0
 817 0000 B0F5802F 		cmp	r0, #262144
 818 0004 38D0     		beq	.L64
 819 0006 00F29980 		bhi	.L65
 820 000a B0F5007F 		cmp	r0, #512
 821 000e 00F04881 		beq	.L66
 822 0012 4BD8     		bhi	.L67
 823 0014 1028     		cmp	r0, #16
 824 0016 00F01D81 		beq	.L68
 825 001a 15D9     		bls	.L100
 826 001c 4028     		cmp	r0, #64
 827 001e 00F02681 		beq	.L72
 828 0022 33D9     		bls	.L101
 829 0024 C028     		cmp	r0, #192
 830 0026 00F02F81 		beq	.L75
 831 002a B0F5807F 		cmp	r0, #256
 832 002e 3CD1     		bne	.L102
 672:../Libraries/AT32F4xx_StdPeriph_Driver/src/at32f4xx_gpio.c ****     {
 673:../Libraries/AT32F4xx_StdPeriph_Driver/src/at32f4xx_gpio.c ****     case GPIO_Remap_I2C1:
 674:../Libraries/AT32F4xx_StdPeriph_Driver/src/at32f4xx_gpio.c ****     case GPIO_Remap_USART1:
 675:../Libraries/AT32F4xx_StdPeriph_Driver/src/at32f4xx_gpio.c ****     case GPIO_Remap_USART2:
 676:../Libraries/AT32F4xx_StdPeriph_Driver/src/at32f4xx_gpio.c ****     case GPIO_Remap_TMR4:
 677:../Libraries/AT32F4xx_StdPeriph_Driver/src/at32f4xx_gpio.c ****     case GPIO_Remap_PTD01:
 678:../Libraries/AT32F4xx_StdPeriph_Driver/src/at32f4xx_gpio.c ****     case GPIO_Remap_TMR5CH4_LSI:
 679:../Libraries/AT32F4xx_StdPeriph_Driver/src/at32f4xx_gpio.c ****     case GPIO_Remap_ADC1_EXTRGINJ:
 680:../Libraries/AT32F4xx_StdPeriph_Driver/src/at32f4xx_gpio.c ****     case GPIO_Remap_ADC1_EXTRGREG:
 681:../Libraries/AT32F4xx_StdPeriph_Driver/src/at32f4xx_gpio.c ****     case GPIO_Remap_ADC2_EXTRGINJ:
 682:../Libraries/AT32F4xx_StdPeriph_Driver/src/at32f4xx_gpio.c ****     case GPIO_Remap_ADC2_EXTRGREG:
 683:../Libraries/AT32F4xx_StdPeriph_Driver/src/at32f4xx_gpio.c ****       AFIO->MAP &= ~GPIO_Remap;
 684:../Libraries/AT32F4xx_StdPeriph_Driver/src/at32f4xx_gpio.c **** 
 685:../Libraries/AT32F4xx_StdPeriph_Driver/src/at32f4xx_gpio.c ****       if(NewState == ENABLE)
 686:../Libraries/AT32F4xx_StdPeriph_Driver/src/at32f4xx_gpio.c ****       {
 687:../Libraries/AT32F4xx_StdPeriph_Driver/src/at32f4xx_gpio.c ****         AFIO->MAP |= GPIO_Remap;
 688:../Libraries/AT32F4xx_StdPeriph_Driver/src/at32f4xx_gpio.c ****       }
 689:../Libraries/AT32F4xx_StdPeriph_Driver/src/at32f4xx_gpio.c **** 
 690:../Libraries/AT32F4xx_StdPeriph_Driver/src/at32f4xx_gpio.c ****       break;
 691:../Libraries/AT32F4xx_StdPeriph_Driver/src/at32f4xx_gpio.c **** 
 692:../Libraries/AT32F4xx_StdPeriph_Driver/src/at32f4xx_gpio.c ****     case GPIO_Remap01_SPI1:
 693:../Libraries/AT32F4xx_StdPeriph_Driver/src/at32f4xx_gpio.c ****       AFIO->MAP &= 0x7FFFFFFE;
 694:../Libraries/AT32F4xx_StdPeriph_Driver/src/at32f4xx_gpio.c **** 
 695:../Libraries/AT32F4xx_StdPeriph_Driver/src/at32f4xx_gpio.c ****       if(NewState == ENABLE)
 696:../Libraries/AT32F4xx_StdPeriph_Driver/src/at32f4xx_gpio.c ****       {
 697:../Libraries/AT32F4xx_StdPeriph_Driver/src/at32f4xx_gpio.c ****         AFIO->MAP |= GPIO_Remap01_SPI1;
 698:../Libraries/AT32F4xx_StdPeriph_Driver/src/at32f4xx_gpio.c ****       }
 699:../Libraries/AT32F4xx_StdPeriph_Driver/src/at32f4xx_gpio.c **** 
 700:../Libraries/AT32F4xx_StdPeriph_Driver/src/at32f4xx_gpio.c ****       break;
ARM GAS  /var/folders/l3/4y5292px21b4835bsnjwqc7w009kq1/T//ccQxGGuu.s 			page 28


 701:../Libraries/AT32F4xx_StdPeriph_Driver/src/at32f4xx_gpio.c **** 
 702:../Libraries/AT32F4xx_StdPeriph_Driver/src/at32f4xx_gpio.c ****     case GPIO_Remap10_SPI1:
 703:../Libraries/AT32F4xx_StdPeriph_Driver/src/at32f4xx_gpio.c ****       AFIO->MAP &= 0x7FFFFFFE;
 704:../Libraries/AT32F4xx_StdPeriph_Driver/src/at32f4xx_gpio.c **** 
 705:../Libraries/AT32F4xx_StdPeriph_Driver/src/at32f4xx_gpio.c ****       if(NewState == ENABLE)
 706:../Libraries/AT32F4xx_StdPeriph_Driver/src/at32f4xx_gpio.c ****       {
 707:../Libraries/AT32F4xx_StdPeriph_Driver/src/at32f4xx_gpio.c ****         AFIO->MAP |= GPIO_Remap10_SPI1;
 708:../Libraries/AT32F4xx_StdPeriph_Driver/src/at32f4xx_gpio.c ****       }
 709:../Libraries/AT32F4xx_StdPeriph_Driver/src/at32f4xx_gpio.c **** 
 710:../Libraries/AT32F4xx_StdPeriph_Driver/src/at32f4xx_gpio.c ****       break;
 711:../Libraries/AT32F4xx_StdPeriph_Driver/src/at32f4xx_gpio.c **** 
 712:../Libraries/AT32F4xx_StdPeriph_Driver/src/at32f4xx_gpio.c ****     case GPIO_PartialRemap_USART3:
 713:../Libraries/AT32F4xx_StdPeriph_Driver/src/at32f4xx_gpio.c ****       AFIO->MAP &= 0xFFFFFFCF;
 714:../Libraries/AT32F4xx_StdPeriph_Driver/src/at32f4xx_gpio.c **** 
 715:../Libraries/AT32F4xx_StdPeriph_Driver/src/at32f4xx_gpio.c ****       if(NewState == ENABLE)
 716:../Libraries/AT32F4xx_StdPeriph_Driver/src/at32f4xx_gpio.c ****       {
 717:../Libraries/AT32F4xx_StdPeriph_Driver/src/at32f4xx_gpio.c ****         AFIO->MAP |= GPIO_PartialRemap_USART3;
 718:../Libraries/AT32F4xx_StdPeriph_Driver/src/at32f4xx_gpio.c ****       }
 719:../Libraries/AT32F4xx_StdPeriph_Driver/src/at32f4xx_gpio.c **** 
 720:../Libraries/AT32F4xx_StdPeriph_Driver/src/at32f4xx_gpio.c ****       break;
 721:../Libraries/AT32F4xx_StdPeriph_Driver/src/at32f4xx_gpio.c **** 
 722:../Libraries/AT32F4xx_StdPeriph_Driver/src/at32f4xx_gpio.c ****     case GPIO_FullRemap_USART3:
 723:../Libraries/AT32F4xx_StdPeriph_Driver/src/at32f4xx_gpio.c ****       AFIO->MAP &= 0xFFFFFFCF;
 724:../Libraries/AT32F4xx_StdPeriph_Driver/src/at32f4xx_gpio.c **** 
 725:../Libraries/AT32F4xx_StdPeriph_Driver/src/at32f4xx_gpio.c ****       if(NewState == ENABLE)
 726:../Libraries/AT32F4xx_StdPeriph_Driver/src/at32f4xx_gpio.c ****       {
 727:../Libraries/AT32F4xx_StdPeriph_Driver/src/at32f4xx_gpio.c ****         AFIO->MAP |= GPIO_FullRemap_USART3;
 728:../Libraries/AT32F4xx_StdPeriph_Driver/src/at32f4xx_gpio.c ****       }
 729:../Libraries/AT32F4xx_StdPeriph_Driver/src/at32f4xx_gpio.c **** 
 730:../Libraries/AT32F4xx_StdPeriph_Driver/src/at32f4xx_gpio.c ****       break;
 731:../Libraries/AT32F4xx_StdPeriph_Driver/src/at32f4xx_gpio.c **** 
 732:../Libraries/AT32F4xx_StdPeriph_Driver/src/at32f4xx_gpio.c ****     case GPIO_PartialRemap_TMR1:
 733:../Libraries/AT32F4xx_StdPeriph_Driver/src/at32f4xx_gpio.c ****       AFIO->MAP &= 0xFFFFFF3F;
 734:../Libraries/AT32F4xx_StdPeriph_Driver/src/at32f4xx_gpio.c **** 
 735:../Libraries/AT32F4xx_StdPeriph_Driver/src/at32f4xx_gpio.c ****       if(NewState == ENABLE)
 736:../Libraries/AT32F4xx_StdPeriph_Driver/src/at32f4xx_gpio.c ****       {
 737:../Libraries/AT32F4xx_StdPeriph_Driver/src/at32f4xx_gpio.c ****         AFIO->MAP |= GPIO_PartialRemap_TMR1;
 738:../Libraries/AT32F4xx_StdPeriph_Driver/src/at32f4xx_gpio.c ****       }
 739:../Libraries/AT32F4xx_StdPeriph_Driver/src/at32f4xx_gpio.c **** 
 740:../Libraries/AT32F4xx_StdPeriph_Driver/src/at32f4xx_gpio.c ****       break;
 741:../Libraries/AT32F4xx_StdPeriph_Driver/src/at32f4xx_gpio.c **** 
 742:../Libraries/AT32F4xx_StdPeriph_Driver/src/at32f4xx_gpio.c ****     case GPIO_FullRemap_TMR1:
 743:../Libraries/AT32F4xx_StdPeriph_Driver/src/at32f4xx_gpio.c ****       AFIO->MAP &= 0xFFFFFF3F;
 744:../Libraries/AT32F4xx_StdPeriph_Driver/src/at32f4xx_gpio.c **** 
 745:../Libraries/AT32F4xx_StdPeriph_Driver/src/at32f4xx_gpio.c ****       if(NewState == ENABLE)
 746:../Libraries/AT32F4xx_StdPeriph_Driver/src/at32f4xx_gpio.c ****       {
 747:../Libraries/AT32F4xx_StdPeriph_Driver/src/at32f4xx_gpio.c ****         AFIO->MAP |= GPIO_FullRemap_TMR1;
 748:../Libraries/AT32F4xx_StdPeriph_Driver/src/at32f4xx_gpio.c ****       }
 749:../Libraries/AT32F4xx_StdPeriph_Driver/src/at32f4xx_gpio.c **** 
 750:../Libraries/AT32F4xx_StdPeriph_Driver/src/at32f4xx_gpio.c ****       break;
 751:../Libraries/AT32F4xx_StdPeriph_Driver/src/at32f4xx_gpio.c **** 
 752:../Libraries/AT32F4xx_StdPeriph_Driver/src/at32f4xx_gpio.c ****     case GPIO_PartialRemap1_TMR2:
 753:../Libraries/AT32F4xx_StdPeriph_Driver/src/at32f4xx_gpio.c ****       AFIO->MAP &= 0xFFFFFCFF;
 833              		.loc 1 753 0
 834 0030 A94A     		ldr	r2, .L121
 835 0032 5368     		ldr	r3, [r2, #4]
 836 0034 23F44073 		bic	r3, r3, #768
ARM GAS  /var/folders/l3/4y5292px21b4835bsnjwqc7w009kq1/T//ccQxGGuu.s 			page 29


 837 0038 5360     		str	r3, [r2, #4]
 754:../Libraries/AT32F4xx_StdPeriph_Driver/src/at32f4xx_gpio.c **** 
 755:../Libraries/AT32F4xx_StdPeriph_Driver/src/at32f4xx_gpio.c ****       if(NewState == ENABLE)
 838              		.loc 1 755 0
 839 003a 0129     		cmp	r1, #1
 840 003c 24D1     		bne	.L62
 756:../Libraries/AT32F4xx_StdPeriph_Driver/src/at32f4xx_gpio.c ****       {
 757:../Libraries/AT32F4xx_StdPeriph_Driver/src/at32f4xx_gpio.c ****         AFIO->MAP |= GPIO_PartialRemap1_TMR2;
 841              		.loc 1 757 0
 842 003e 5368     		ldr	r3, [r2, #4]
 843 0040 43F48073 		orr	r3, r3, #256
 844 0044 5360     		str	r3, [r2, #4]
 845 0046 7047     		bx	lr
 846              	.L100:
 671:../Libraries/AT32F4xx_StdPeriph_Driver/src/at32f4xx_gpio.c ****     {
 847              		.loc 1 671 0
 848 0048 0228     		cmp	r0, #2
 849 004a 15D0     		beq	.L64
 850 004c 10D8     		bhi	.L70
 851 004e 0128     		cmp	r0, #1
 852 0050 0DD1     		bne	.L103
 693:../Libraries/AT32F4xx_StdPeriph_Driver/src/at32f4xx_gpio.c **** 
 853              		.loc 1 693 0
 854 0052 A14A     		ldr	r2, .L121
 855 0054 5368     		ldr	r3, [r2, #4]
 856 0056 23F00043 		bic	r3, r3, #-2147483648
 857 005a 23F00103 		bic	r3, r3, #1
 858 005e 5360     		str	r3, [r2, #4]
 695:../Libraries/AT32F4xx_StdPeriph_Driver/src/at32f4xx_gpio.c ****       {
 859              		.loc 1 695 0
 860 0060 0129     		cmp	r1, #1
 861 0062 11D1     		bne	.L62
 697:../Libraries/AT32F4xx_StdPeriph_Driver/src/at32f4xx_gpio.c ****       }
 862              		.loc 1 697 0
 863 0064 5368     		ldr	r3, [r2, #4]
 864 0066 43F00103 		orr	r3, r3, #1
 865 006a 5360     		str	r3, [r2, #4]
 866 006c 7047     		bx	lr
 867              	.L103:
 868 006e 7047     		bx	lr
 869              	.L70:
 671:../Libraries/AT32F4xx_StdPeriph_Driver/src/at32f4xx_gpio.c ****     {
 870              		.loc 1 671 0
 871 0070 0428     		cmp	r0, #4
 872 0072 01D0     		beq	.L64
 873 0074 0828     		cmp	r0, #8
 874 0076 08D1     		bne	.L104
 875              	.L64:
 683:../Libraries/AT32F4xx_StdPeriph_Driver/src/at32f4xx_gpio.c **** 
 876              		.loc 1 683 0
 877 0078 974A     		ldr	r2, .L121
 878 007a 5368     		ldr	r3, [r2, #4]
 879 007c 23EA0003 		bic	r3, r3, r0
 880 0080 5360     		str	r3, [r2, #4]
 685:../Libraries/AT32F4xx_StdPeriph_Driver/src/at32f4xx_gpio.c ****       {
 881              		.loc 1 685 0
 882 0082 0129     		cmp	r1, #1
ARM GAS  /var/folders/l3/4y5292px21b4835bsnjwqc7w009kq1/T//ccQxGGuu.s 			page 30


 883 0084 00F0E280 		beq	.L105
 884              	.LVL96:
 885              	.L62:
 758:../Libraries/AT32F4xx_StdPeriph_Driver/src/at32f4xx_gpio.c ****       }
 759:../Libraries/AT32F4xx_StdPeriph_Driver/src/at32f4xx_gpio.c **** 
 760:../Libraries/AT32F4xx_StdPeriph_Driver/src/at32f4xx_gpio.c ****       break;
 761:../Libraries/AT32F4xx_StdPeriph_Driver/src/at32f4xx_gpio.c **** 
 762:../Libraries/AT32F4xx_StdPeriph_Driver/src/at32f4xx_gpio.c ****     case GPIO_PartialRemap2_TMR2:
 763:../Libraries/AT32F4xx_StdPeriph_Driver/src/at32f4xx_gpio.c ****       AFIO->MAP &= 0xFFFFFCFF;
 764:../Libraries/AT32F4xx_StdPeriph_Driver/src/at32f4xx_gpio.c **** 
 765:../Libraries/AT32F4xx_StdPeriph_Driver/src/at32f4xx_gpio.c ****       if(NewState == ENABLE)
 766:../Libraries/AT32F4xx_StdPeriph_Driver/src/at32f4xx_gpio.c ****       {
 767:../Libraries/AT32F4xx_StdPeriph_Driver/src/at32f4xx_gpio.c ****         AFIO->MAP |= GPIO_PartialRemap2_TMR2;
 768:../Libraries/AT32F4xx_StdPeriph_Driver/src/at32f4xx_gpio.c ****       }
 769:../Libraries/AT32F4xx_StdPeriph_Driver/src/at32f4xx_gpio.c **** 
 770:../Libraries/AT32F4xx_StdPeriph_Driver/src/at32f4xx_gpio.c ****       break;
 771:../Libraries/AT32F4xx_StdPeriph_Driver/src/at32f4xx_gpio.c **** 
 772:../Libraries/AT32F4xx_StdPeriph_Driver/src/at32f4xx_gpio.c ****     case GPIO_FullRemap_TMR2:
 773:../Libraries/AT32F4xx_StdPeriph_Driver/src/at32f4xx_gpio.c ****       AFIO->MAP &= 0xFFFFFCFF;
 774:../Libraries/AT32F4xx_StdPeriph_Driver/src/at32f4xx_gpio.c **** 
 775:../Libraries/AT32F4xx_StdPeriph_Driver/src/at32f4xx_gpio.c ****       if(NewState == ENABLE)
 776:../Libraries/AT32F4xx_StdPeriph_Driver/src/at32f4xx_gpio.c ****       {
 777:../Libraries/AT32F4xx_StdPeriph_Driver/src/at32f4xx_gpio.c ****         AFIO->MAP |= GPIO_FullRemap_TMR2;
 778:../Libraries/AT32F4xx_StdPeriph_Driver/src/at32f4xx_gpio.c ****       }
 779:../Libraries/AT32F4xx_StdPeriph_Driver/src/at32f4xx_gpio.c **** 
 780:../Libraries/AT32F4xx_StdPeriph_Driver/src/at32f4xx_gpio.c ****       break;
 781:../Libraries/AT32F4xx_StdPeriph_Driver/src/at32f4xx_gpio.c **** 
 782:../Libraries/AT32F4xx_StdPeriph_Driver/src/at32f4xx_gpio.c ****     case GPIO_PartialRemap_TMR3:
 783:../Libraries/AT32F4xx_StdPeriph_Driver/src/at32f4xx_gpio.c ****       AFIO->MAP &= 0xFFFFF3FF;
 784:../Libraries/AT32F4xx_StdPeriph_Driver/src/at32f4xx_gpio.c **** 
 785:../Libraries/AT32F4xx_StdPeriph_Driver/src/at32f4xx_gpio.c ****       if(NewState == ENABLE)
 786:../Libraries/AT32F4xx_StdPeriph_Driver/src/at32f4xx_gpio.c ****       {
 787:../Libraries/AT32F4xx_StdPeriph_Driver/src/at32f4xx_gpio.c ****         AFIO->MAP |= GPIO_PartialRemap_TMR3;
 788:../Libraries/AT32F4xx_StdPeriph_Driver/src/at32f4xx_gpio.c ****       }
 789:../Libraries/AT32F4xx_StdPeriph_Driver/src/at32f4xx_gpio.c **** 
 790:../Libraries/AT32F4xx_StdPeriph_Driver/src/at32f4xx_gpio.c ****       break;
 791:../Libraries/AT32F4xx_StdPeriph_Driver/src/at32f4xx_gpio.c **** 
 792:../Libraries/AT32F4xx_StdPeriph_Driver/src/at32f4xx_gpio.c ****     case GPIO_FullRemap_TMR3:
 793:../Libraries/AT32F4xx_StdPeriph_Driver/src/at32f4xx_gpio.c ****       AFIO->MAP &= 0xFFFFF3FF;
 794:../Libraries/AT32F4xx_StdPeriph_Driver/src/at32f4xx_gpio.c **** 
 795:../Libraries/AT32F4xx_StdPeriph_Driver/src/at32f4xx_gpio.c ****       if(NewState == ENABLE)
 796:../Libraries/AT32F4xx_StdPeriph_Driver/src/at32f4xx_gpio.c ****       {
 797:../Libraries/AT32F4xx_StdPeriph_Driver/src/at32f4xx_gpio.c ****         AFIO->MAP |= GPIO_FullRemap_TMR3;
 798:../Libraries/AT32F4xx_StdPeriph_Driver/src/at32f4xx_gpio.c ****       }
 799:../Libraries/AT32F4xx_StdPeriph_Driver/src/at32f4xx_gpio.c **** 
 800:../Libraries/AT32F4xx_StdPeriph_Driver/src/at32f4xx_gpio.c ****       break;
 801:../Libraries/AT32F4xx_StdPeriph_Driver/src/at32f4xx_gpio.c **** 
 802:../Libraries/AT32F4xx_StdPeriph_Driver/src/at32f4xx_gpio.c ****     case GPIO_Remap1_CAN1:
 803:../Libraries/AT32F4xx_StdPeriph_Driver/src/at32f4xx_gpio.c ****       AFIO->MAP &= 0xFFFF9FFF;
 804:../Libraries/AT32F4xx_StdPeriph_Driver/src/at32f4xx_gpio.c **** 
 805:../Libraries/AT32F4xx_StdPeriph_Driver/src/at32f4xx_gpio.c ****       if(NewState == ENABLE)
 806:../Libraries/AT32F4xx_StdPeriph_Driver/src/at32f4xx_gpio.c ****       {
 807:../Libraries/AT32F4xx_StdPeriph_Driver/src/at32f4xx_gpio.c ****         AFIO->MAP |= GPIO_Remap1_CAN1;
 808:../Libraries/AT32F4xx_StdPeriph_Driver/src/at32f4xx_gpio.c ****       }
 809:../Libraries/AT32F4xx_StdPeriph_Driver/src/at32f4xx_gpio.c **** 
 810:../Libraries/AT32F4xx_StdPeriph_Driver/src/at32f4xx_gpio.c ****       break;
 811:../Libraries/AT32F4xx_StdPeriph_Driver/src/at32f4xx_gpio.c **** 
ARM GAS  /var/folders/l3/4y5292px21b4835bsnjwqc7w009kq1/T//ccQxGGuu.s 			page 31


 812:../Libraries/AT32F4xx_StdPeriph_Driver/src/at32f4xx_gpio.c ****     case GPIO_Remap2_CAN1:
 813:../Libraries/AT32F4xx_StdPeriph_Driver/src/at32f4xx_gpio.c ****       AFIO->MAP &= 0xFFFF9FFF;
 814:../Libraries/AT32F4xx_StdPeriph_Driver/src/at32f4xx_gpio.c **** 
 815:../Libraries/AT32F4xx_StdPeriph_Driver/src/at32f4xx_gpio.c ****       if(NewState == ENABLE)
 816:../Libraries/AT32F4xx_StdPeriph_Driver/src/at32f4xx_gpio.c ****       {
 817:../Libraries/AT32F4xx_StdPeriph_Driver/src/at32f4xx_gpio.c ****         AFIO->MAP |= GPIO_Remap2_CAN1;
 818:../Libraries/AT32F4xx_StdPeriph_Driver/src/at32f4xx_gpio.c ****       }
 819:../Libraries/AT32F4xx_StdPeriph_Driver/src/at32f4xx_gpio.c **** 
 820:../Libraries/AT32F4xx_StdPeriph_Driver/src/at32f4xx_gpio.c ****       break;
 821:../Libraries/AT32F4xx_StdPeriph_Driver/src/at32f4xx_gpio.c **** 
 822:../Libraries/AT32F4xx_StdPeriph_Driver/src/at32f4xx_gpio.c ****     case GPIO_Remap_SWJ_NoJNTRST:
 823:../Libraries/AT32F4xx_StdPeriph_Driver/src/at32f4xx_gpio.c ****       AFIO->MAP &= 0xF8FFFFFF;
 824:../Libraries/AT32F4xx_StdPeriph_Driver/src/at32f4xx_gpio.c **** 
 825:../Libraries/AT32F4xx_StdPeriph_Driver/src/at32f4xx_gpio.c ****       if(NewState == ENABLE)
 826:../Libraries/AT32F4xx_StdPeriph_Driver/src/at32f4xx_gpio.c ****       {
 827:../Libraries/AT32F4xx_StdPeriph_Driver/src/at32f4xx_gpio.c ****         AFIO->MAP |= GPIO_Remap_SWJ_NoJNTRST;
 828:../Libraries/AT32F4xx_StdPeriph_Driver/src/at32f4xx_gpio.c ****       }
 829:../Libraries/AT32F4xx_StdPeriph_Driver/src/at32f4xx_gpio.c **** 
 830:../Libraries/AT32F4xx_StdPeriph_Driver/src/at32f4xx_gpio.c ****       break;
 831:../Libraries/AT32F4xx_StdPeriph_Driver/src/at32f4xx_gpio.c **** 
 832:../Libraries/AT32F4xx_StdPeriph_Driver/src/at32f4xx_gpio.c ****     case GPIO_Remap_SWJ_JTAGDisable:
 833:../Libraries/AT32F4xx_StdPeriph_Driver/src/at32f4xx_gpio.c ****       AFIO->MAP &= 0xF8FFFFFF;
 834:../Libraries/AT32F4xx_StdPeriph_Driver/src/at32f4xx_gpio.c **** 
 835:../Libraries/AT32F4xx_StdPeriph_Driver/src/at32f4xx_gpio.c ****       if(NewState == ENABLE)
 836:../Libraries/AT32F4xx_StdPeriph_Driver/src/at32f4xx_gpio.c ****       {
 837:../Libraries/AT32F4xx_StdPeriph_Driver/src/at32f4xx_gpio.c ****         AFIO->MAP |= GPIO_Remap_SWJ_JTAGDisable;
 838:../Libraries/AT32F4xx_StdPeriph_Driver/src/at32f4xx_gpio.c ****       }
 839:../Libraries/AT32F4xx_StdPeriph_Driver/src/at32f4xx_gpio.c **** 
 840:../Libraries/AT32F4xx_StdPeriph_Driver/src/at32f4xx_gpio.c ****       break;
 841:../Libraries/AT32F4xx_StdPeriph_Driver/src/at32f4xx_gpio.c **** 
 842:../Libraries/AT32F4xx_StdPeriph_Driver/src/at32f4xx_gpio.c ****     case GPIO_Remap_SWJ_AllDisable:
 843:../Libraries/AT32F4xx_StdPeriph_Driver/src/at32f4xx_gpio.c ****       AFIO->MAP &= 0xF8FFFFFF;
 844:../Libraries/AT32F4xx_StdPeriph_Driver/src/at32f4xx_gpio.c **** 
 845:../Libraries/AT32F4xx_StdPeriph_Driver/src/at32f4xx_gpio.c ****       if(NewState == ENABLE)
 846:../Libraries/AT32F4xx_StdPeriph_Driver/src/at32f4xx_gpio.c ****       {
 847:../Libraries/AT32F4xx_StdPeriph_Driver/src/at32f4xx_gpio.c ****         AFIO->MAP |= GPIO_Remap_SWJ_AllDisable;
 848:../Libraries/AT32F4xx_StdPeriph_Driver/src/at32f4xx_gpio.c ****       }
 849:../Libraries/AT32F4xx_StdPeriph_Driver/src/at32f4xx_gpio.c **** 
 850:../Libraries/AT32F4xx_StdPeriph_Driver/src/at32f4xx_gpio.c ****       break;
 851:../Libraries/AT32F4xx_StdPeriph_Driver/src/at32f4xx_gpio.c **** 
 852:../Libraries/AT32F4xx_StdPeriph_Driver/src/at32f4xx_gpio.c ****     case GPIO_Remap_TMR15:
 853:../Libraries/AT32F4xx_StdPeriph_Driver/src/at32f4xx_gpio.c ****     case GPIO_Remap_TMR9:
 854:../Libraries/AT32F4xx_StdPeriph_Driver/src/at32f4xx_gpio.c ****     case GPIO_Remap_TMR10:
 855:../Libraries/AT32F4xx_StdPeriph_Driver/src/at32f4xx_gpio.c ****     case GPIO_Remap_TMR11:
 856:../Libraries/AT32F4xx_StdPeriph_Driver/src/at32f4xx_gpio.c ****     case GPIO_Remap_TMR13:
 857:../Libraries/AT32F4xx_StdPeriph_Driver/src/at32f4xx_gpio.c ****     case GPIO_Remap_TMR14:
 858:../Libraries/AT32F4xx_StdPeriph_Driver/src/at32f4xx_gpio.c ****     case GPIO_Remap_XMC_NADV:
 859:../Libraries/AT32F4xx_StdPeriph_Driver/src/at32f4xx_gpio.c ****     case GPIO_Remap_SPI4:
 860:../Libraries/AT32F4xx_StdPeriph_Driver/src/at32f4xx_gpio.c ****     case GPIO_Remap_I2C3:
 861:../Libraries/AT32F4xx_StdPeriph_Driver/src/at32f4xx_gpio.c ****     case GPIO_Remap_EXT_FLASH:
 862:../Libraries/AT32F4xx_StdPeriph_Driver/src/at32f4xx_gpio.c ****       AFIO->MAP2 &= ~(GPIO_Remap & 0x003FFFFF);
 863:../Libraries/AT32F4xx_StdPeriph_Driver/src/at32f4xx_gpio.c **** 
 864:../Libraries/AT32F4xx_StdPeriph_Driver/src/at32f4xx_gpio.c ****       if(NewState == ENABLE)
 865:../Libraries/AT32F4xx_StdPeriph_Driver/src/at32f4xx_gpio.c ****       {
 866:../Libraries/AT32F4xx_StdPeriph_Driver/src/at32f4xx_gpio.c ****         AFIO->MAP2 |= (GPIO_Remap & 0x003FFFFF);
 867:../Libraries/AT32F4xx_StdPeriph_Driver/src/at32f4xx_gpio.c ****       }
 868:../Libraries/AT32F4xx_StdPeriph_Driver/src/at32f4xx_gpio.c **** 
ARM GAS  /var/folders/l3/4y5292px21b4835bsnjwqc7w009kq1/T//ccQxGGuu.s 			page 32


 869:../Libraries/AT32F4xx_StdPeriph_Driver/src/at32f4xx_gpio.c ****       break;
 870:../Libraries/AT32F4xx_StdPeriph_Driver/src/at32f4xx_gpio.c **** 
 871:../Libraries/AT32F4xx_StdPeriph_Driver/src/at32f4xx_gpio.c ****     case GPIO_Remap01_SDIO2:
 872:../Libraries/AT32F4xx_StdPeriph_Driver/src/at32f4xx_gpio.c ****       AFIO->MAP2 &= 0xFFE7FFFF;
 873:../Libraries/AT32F4xx_StdPeriph_Driver/src/at32f4xx_gpio.c **** 
 874:../Libraries/AT32F4xx_StdPeriph_Driver/src/at32f4xx_gpio.c ****       if(NewState == ENABLE)
 875:../Libraries/AT32F4xx_StdPeriph_Driver/src/at32f4xx_gpio.c ****       {
 876:../Libraries/AT32F4xx_StdPeriph_Driver/src/at32f4xx_gpio.c ****         AFIO->MAP2 |= (GPIO_Remap01_SDIO2 & 0x003FFFFF);
 877:../Libraries/AT32F4xx_StdPeriph_Driver/src/at32f4xx_gpio.c ****       }
 878:../Libraries/AT32F4xx_StdPeriph_Driver/src/at32f4xx_gpio.c **** 
 879:../Libraries/AT32F4xx_StdPeriph_Driver/src/at32f4xx_gpio.c ****       break;
 880:../Libraries/AT32F4xx_StdPeriph_Driver/src/at32f4xx_gpio.c **** 
 881:../Libraries/AT32F4xx_StdPeriph_Driver/src/at32f4xx_gpio.c ****     case GPIO_Remap10_SDIO2:
 882:../Libraries/AT32F4xx_StdPeriph_Driver/src/at32f4xx_gpio.c ****       AFIO->MAP2 &= 0xFFE7FFFF;
 883:../Libraries/AT32F4xx_StdPeriph_Driver/src/at32f4xx_gpio.c **** 
 884:../Libraries/AT32F4xx_StdPeriph_Driver/src/at32f4xx_gpio.c ****       if(NewState == ENABLE)
 885:../Libraries/AT32F4xx_StdPeriph_Driver/src/at32f4xx_gpio.c ****       {
 886:../Libraries/AT32F4xx_StdPeriph_Driver/src/at32f4xx_gpio.c ****         AFIO->MAP2 |= (GPIO_Remap10_SDIO2 & 0x003FFFFF);
 887:../Libraries/AT32F4xx_StdPeriph_Driver/src/at32f4xx_gpio.c ****       }
 888:../Libraries/AT32F4xx_StdPeriph_Driver/src/at32f4xx_gpio.c **** 
 889:../Libraries/AT32F4xx_StdPeriph_Driver/src/at32f4xx_gpio.c ****       break;
 890:../Libraries/AT32F4xx_StdPeriph_Driver/src/at32f4xx_gpio.c **** 
 891:../Libraries/AT32F4xx_StdPeriph_Driver/src/at32f4xx_gpio.c ****     case GPIO_Remap11_SDIO2:
 892:../Libraries/AT32F4xx_StdPeriph_Driver/src/at32f4xx_gpio.c ****       AFIO->MAP2 &= 0xFFE7FFFF;
 893:../Libraries/AT32F4xx_StdPeriph_Driver/src/at32f4xx_gpio.c **** 
 894:../Libraries/AT32F4xx_StdPeriph_Driver/src/at32f4xx_gpio.c ****       if(NewState == ENABLE)
 895:../Libraries/AT32F4xx_StdPeriph_Driver/src/at32f4xx_gpio.c ****       {
 896:../Libraries/AT32F4xx_StdPeriph_Driver/src/at32f4xx_gpio.c ****         AFIO->MAP2 |= (GPIO_Remap11_SDIO2 & 0x003FFFFF);
 897:../Libraries/AT32F4xx_StdPeriph_Driver/src/at32f4xx_gpio.c ****       }
 898:../Libraries/AT32F4xx_StdPeriph_Driver/src/at32f4xx_gpio.c **** 
 899:../Libraries/AT32F4xx_StdPeriph_Driver/src/at32f4xx_gpio.c ****       break;
 900:../Libraries/AT32F4xx_StdPeriph_Driver/src/at32f4xx_gpio.c **** 
 901:../Libraries/AT32F4xx_StdPeriph_Driver/src/at32f4xx_gpio.c ****     default:
 902:../Libraries/AT32F4xx_StdPeriph_Driver/src/at32f4xx_gpio.c ****       break;
 903:../Libraries/AT32F4xx_StdPeriph_Driver/src/at32f4xx_gpio.c ****     }
 904:../Libraries/AT32F4xx_StdPeriph_Driver/src/at32f4xx_gpio.c ****   }
 905:../Libraries/AT32F4xx_StdPeriph_Driver/src/at32f4xx_gpio.c **** }
 886              		.loc 1 905 0
 887 0088 7047     		bx	lr
 888              	.LVL97:
 889              	.L104:
 890 008a 7047     		bx	lr
 891              	.L101:
 671:../Libraries/AT32F4xx_StdPeriph_Driver/src/at32f4xx_gpio.c ****     {
 892              		.loc 1 671 0
 893 008c 3028     		cmp	r0, #48
 894 008e 0BD1     		bne	.L106
 723:../Libraries/AT32F4xx_StdPeriph_Driver/src/at32f4xx_gpio.c **** 
 895              		.loc 1 723 0
 896 0090 914A     		ldr	r2, .L121
 897 0092 5368     		ldr	r3, [r2, #4]
 898 0094 23F03003 		bic	r3, r3, #48
 899 0098 5360     		str	r3, [r2, #4]
 725:../Libraries/AT32F4xx_StdPeriph_Driver/src/at32f4xx_gpio.c ****       {
 900              		.loc 1 725 0
 901 009a 0129     		cmp	r1, #1
 902 009c F4D1     		bne	.L62
ARM GAS  /var/folders/l3/4y5292px21b4835bsnjwqc7w009kq1/T//ccQxGGuu.s 			page 33


 727:../Libraries/AT32F4xx_StdPeriph_Driver/src/at32f4xx_gpio.c ****       }
 903              		.loc 1 727 0
 904 009e 5368     		ldr	r3, [r2, #4]
 905 00a0 43F03003 		orr	r3, r3, #48
 906 00a4 5360     		str	r3, [r2, #4]
 907 00a6 7047     		bx	lr
 908              	.L106:
 909 00a8 7047     		bx	lr
 910              	.L102:
 911 00aa 7047     		bx	lr
 912              	.L67:
 671:../Libraries/AT32F4xx_StdPeriph_Driver/src/at32f4xx_gpio.c ****     {
 913              		.loc 1 671 0
 914 00ac B0F5804F 		cmp	r0, #16384
 915 00b0 00F02481 		beq	.L77
 916 00b4 27D8     		bhi	.L78
 917 00b6 B0F5006F 		cmp	r0, #2048
 918 00ba 00F0FF80 		beq	.L79
 919 00be 0ED9     		bls	.L107
 920 00c0 B0F5406F 		cmp	r0, #3072
 921 00c4 1BD1     		bne	.L108
 793:../Libraries/AT32F4xx_StdPeriph_Driver/src/at32f4xx_gpio.c **** 
 922              		.loc 1 793 0
 923 00c6 844A     		ldr	r2, .L121
 924 00c8 5368     		ldr	r3, [r2, #4]
 925 00ca 23F44063 		bic	r3, r3, #3072
 926 00ce 5360     		str	r3, [r2, #4]
 795:../Libraries/AT32F4xx_StdPeriph_Driver/src/at32f4xx_gpio.c ****       {
 927              		.loc 1 795 0
 928 00d0 0129     		cmp	r1, #1
 929 00d2 D9D1     		bne	.L62
 797:../Libraries/AT32F4xx_StdPeriph_Driver/src/at32f4xx_gpio.c ****       }
 930              		.loc 1 797 0
 931 00d4 5368     		ldr	r3, [r2, #4]
 932 00d6 43F44063 		orr	r3, r3, #3072
 933 00da 5360     		str	r3, [r2, #4]
 934 00dc 7047     		bx	lr
 935              	.L107:
 671:../Libraries/AT32F4xx_StdPeriph_Driver/src/at32f4xx_gpio.c ****     {
 936              		.loc 1 671 0
 937 00de B0F5407F 		cmp	r0, #768
 938 00e2 0BD1     		bne	.L109
 773:../Libraries/AT32F4xx_StdPeriph_Driver/src/at32f4xx_gpio.c **** 
 939              		.loc 1 773 0
 940 00e4 7C4A     		ldr	r2, .L121
 941 00e6 5368     		ldr	r3, [r2, #4]
 942 00e8 23F44073 		bic	r3, r3, #768
 943 00ec 5360     		str	r3, [r2, #4]
 775:../Libraries/AT32F4xx_StdPeriph_Driver/src/at32f4xx_gpio.c ****       {
 944              		.loc 1 775 0
 945 00ee 0129     		cmp	r1, #1
 946 00f0 CAD1     		bne	.L62
 777:../Libraries/AT32F4xx_StdPeriph_Driver/src/at32f4xx_gpio.c ****       }
 947              		.loc 1 777 0
 948 00f2 5368     		ldr	r3, [r2, #4]
 949 00f4 43F44073 		orr	r3, r3, #768
 950 00f8 5360     		str	r3, [r2, #4]
ARM GAS  /var/folders/l3/4y5292px21b4835bsnjwqc7w009kq1/T//ccQxGGuu.s 			page 34


 951 00fa 7047     		bx	lr
 952              	.L109:
 953 00fc 7047     		bx	lr
 954              	.L108:
 671:../Libraries/AT32F4xx_StdPeriph_Driver/src/at32f4xx_gpio.c ****     {
 955              		.loc 1 671 0
 956 00fe B0F5805F 		cmp	r0, #4096
 957 0102 B9D0     		beq	.L64
 958 0104 7047     		bx	lr
 959              	.L78:
 960 0106 B0F5004F 		cmp	r0, #32768
 961 010a B5D0     		beq	.L64
 962 010c 0FD8     		bhi	.L83
 963 010e B0F5C04F 		cmp	r0, #24576
 964 0112 0BD1     		bne	.L110
 813:../Libraries/AT32F4xx_StdPeriph_Driver/src/at32f4xx_gpio.c **** 
 965              		.loc 1 813 0
 966 0114 704A     		ldr	r2, .L121
 967 0116 5368     		ldr	r3, [r2, #4]
 968 0118 23F4C043 		bic	r3, r3, #24576
 969 011c 5360     		str	r3, [r2, #4]
 815:../Libraries/AT32F4xx_StdPeriph_Driver/src/at32f4xx_gpio.c ****       {
 970              		.loc 1 815 0
 971 011e 0129     		cmp	r1, #1
 972 0120 B2D1     		bne	.L62
 817:../Libraries/AT32F4xx_StdPeriph_Driver/src/at32f4xx_gpio.c ****       }
 973              		.loc 1 817 0
 974 0122 5368     		ldr	r3, [r2, #4]
 975 0124 43F4C043 		orr	r3, r3, #24576
 976 0128 5360     		str	r3, [r2, #4]
 977 012a 7047     		bx	lr
 978              	.L110:
 979 012c 7047     		bx	lr
 980              	.L83:
 671:../Libraries/AT32F4xx_StdPeriph_Driver/src/at32f4xx_gpio.c ****     {
 981              		.loc 1 671 0
 982 012e B0F5803F 		cmp	r0, #65536
 983 0132 A1D0     		beq	.L64
 984 0134 B0F5003F 		cmp	r0, #131072
 985 0138 9ED0     		beq	.L64
 986 013a 7047     		bx	lr
 987              	.L65:
 988 013c 674B     		ldr	r3, .L121+4
 989 013e 9842     		cmp	r0, r3
 990 0140 5CD0     		beq	.L85
 991 0142 1DD9     		bls	.L111
 992 0144 664B     		ldr	r3, .L121+8
 993 0146 9842     		cmp	r0, r3
 994 0148 00F0FF80 		beq	.L93
 995 014c 4BD9     		bls	.L112
 996 014e 654B     		ldr	r3, .L121+12
 997 0150 9842     		cmp	r0, r3
 998 0152 00F00781 		beq	.L96
 999 0156 66D9     		bls	.L113
 1000 0158 634B     		ldr	r3, .L121+16
 1001 015a 9842     		cmp	r0, r3
 1002 015c 4ED0     		beq	.L85
ARM GAS  /var/folders/l3/4y5292px21b4835bsnjwqc7w009kq1/T//ccQxGGuu.s 			page 35


 1003 015e B0F1004F 		cmp	r0, #-2147483648
 1004 0162 72D1     		bne	.L114
 703:../Libraries/AT32F4xx_StdPeriph_Driver/src/at32f4xx_gpio.c **** 
 1005              		.loc 1 703 0
 1006 0164 5C4A     		ldr	r2, .L121
 1007 0166 5368     		ldr	r3, [r2, #4]
 1008 0168 23F00043 		bic	r3, r3, #-2147483648
 1009 016c 23F00103 		bic	r3, r3, #1
 1010 0170 5360     		str	r3, [r2, #4]
 705:../Libraries/AT32F4xx_StdPeriph_Driver/src/at32f4xx_gpio.c ****       {
 1011              		.loc 1 705 0
 1012 0172 0129     		cmp	r1, #1
 1013 0174 88D1     		bne	.L62
 707:../Libraries/AT32F4xx_StdPeriph_Driver/src/at32f4xx_gpio.c ****       }
 1014              		.loc 1 707 0
 1015 0176 5368     		ldr	r3, [r2, #4]
 1016 0178 43F00043 		orr	r3, r3, #-2147483648
 1017 017c 5360     		str	r3, [r2, #4]
 1018 017e 7047     		bx	lr
 1019              	.L111:
 671:../Libraries/AT32F4xx_StdPeriph_Driver/src/at32f4xx_gpio.c ****     {
 1020              		.loc 1 671 0
 1021 0180 B0F1806F 		cmp	r0, #67108864
 1022 0184 00F0D480 		beq	.L87
 1023 0188 1ED8     		bhi	.L88
 1024 018a B0F5801F 		cmp	r0, #1048576
 1025 018e 3FF473AF 		beq	.L64
 1026 0192 13D9     		bls	.L115
 1027 0194 B0F1807F 		cmp	r0, #16777216
 1028 0198 00F0BD80 		beq	.L90
 1029 019c B0F1007F 		cmp	r0, #33554432
 1030 01a0 11D1     		bne	.L116
 833:../Libraries/AT32F4xx_StdPeriph_Driver/src/at32f4xx_gpio.c **** 
 1031              		.loc 1 833 0
 1032 01a2 4D4A     		ldr	r2, .L121
 1033 01a4 5368     		ldr	r3, [r2, #4]
 1034 01a6 23F0E063 		bic	r3, r3, #117440512
 1035 01aa 5360     		str	r3, [r2, #4]
 835:../Libraries/AT32F4xx_StdPeriph_Driver/src/at32f4xx_gpio.c ****       {
 1036              		.loc 1 835 0
 1037 01ac 0129     		cmp	r1, #1
 1038 01ae 7FF46BAF 		bne	.L62
 837:../Libraries/AT32F4xx_StdPeriph_Driver/src/at32f4xx_gpio.c ****       }
 1039              		.loc 1 837 0
 1040 01b2 5368     		ldr	r3, [r2, #4]
 1041 01b4 43F00073 		orr	r3, r3, #33554432
 1042 01b8 5360     		str	r3, [r2, #4]
 1043 01ba 7047     		bx	lr
 1044              	.L115:
 671:../Libraries/AT32F4xx_StdPeriph_Driver/src/at32f4xx_gpio.c ****     {
 1045              		.loc 1 671 0
 1046 01bc B0F5002F 		cmp	r0, #524288
 1047 01c0 3FF45AAF 		beq	.L64
 1048 01c4 7047     		bx	lr
 1049              	.L116:
 1050 01c6 7047     		bx	lr
 1051              	.L88:
ARM GAS  /var/folders/l3/4y5292px21b4835bsnjwqc7w009kq1/T//ccQxGGuu.s 			page 36


 1052 01c8 484B     		ldr	r3, .L121+20
 1053 01ca 9842     		cmp	r0, r3
 1054 01cc 16D0     		beq	.L85
 1055 01ce 06D9     		bls	.L117
 1056 01d0 474B     		ldr	r3, .L121+24
 1057 01d2 9842     		cmp	r0, r3
 1058 01d4 12D0     		beq	.L85
 1059 01d6 4033     		adds	r3, r3, #64
 1060 01d8 9842     		cmp	r0, r3
 1061 01da 0FD0     		beq	.L85
 1062 01dc 7047     		bx	lr
 1063              	.L117:
 1064 01de 1F3B     		subs	r3, r3, #31
 1065 01e0 9842     		cmp	r0, r3
 1066 01e2 0BD0     		beq	.L85
 1067 01e4 7047     		bx	lr
 1068              	.L112:
 1069 01e6 434B     		ldr	r3, .L121+28
 1070 01e8 9842     		cmp	r0, r3
 1071 01ea 07D0     		beq	.L85
 1072 01ec 15D9     		bls	.L118
 1073 01ee 424B     		ldr	r3, .L121+32
 1074 01f0 9842     		cmp	r0, r3
 1075 01f2 03D0     		beq	.L85
 1076 01f4 03F50033 		add	r3, r3, #131072
 1077 01f8 9842     		cmp	r0, r3
 1078 01fa 13D1     		bne	.L119
 1079              	.L85:
 862:../Libraries/AT32F4xx_StdPeriph_Driver/src/at32f4xx_gpio.c **** 
 1080              		.loc 1 862 0
 1081 01fc 364A     		ldr	r2, .L121
 1082 01fe D369     		ldr	r3, [r2, #28]
 1083 0200 C0F31500 		ubfx	r0, r0, #0, #22
 1084              	.LVL98:
 1085 0204 23EA0003 		bic	r3, r3, r0
 1086 0208 D361     		str	r3, [r2, #28]
 864:../Libraries/AT32F4xx_StdPeriph_Driver/src/at32f4xx_gpio.c ****       {
 1087              		.loc 1 864 0
 1088 020a 0129     		cmp	r1, #1
 1089 020c 7FF43CAF 		bne	.L62
 866:../Libraries/AT32F4xx_StdPeriph_Driver/src/at32f4xx_gpio.c ****       }
 1090              		.loc 1 866 0
 1091 0210 1346     		mov	r3, r2
 1092 0212 D269     		ldr	r2, [r2, #28]
 1093 0214 1043     		orrs	r0, r0, r2
 1094 0216 D861     		str	r0, [r3, #28]
 1095 0218 7047     		bx	lr
 1096              	.LVL99:
 1097              	.L118:
 671:../Libraries/AT32F4xx_StdPeriph_Driver/src/at32f4xx_gpio.c ****     {
 1098              		.loc 1 671 0
 1099 021a A3F50073 		sub	r3, r3, #512
 1100 021e 9842     		cmp	r0, r3
 1101 0220 ECD0     		beq	.L85
 1102 0222 7047     		bx	lr
 1103              	.L119:
 1104 0224 7047     		bx	lr
ARM GAS  /var/folders/l3/4y5292px21b4835bsnjwqc7w009kq1/T//ccQxGGuu.s 			page 37


 1105              	.L113:
 1106 0226 A3F50023 		sub	r3, r3, #524288
 1107 022a 9842     		cmp	r0, r3
 1108 022c 0CD1     		bne	.L120
 882:../Libraries/AT32F4xx_StdPeriph_Driver/src/at32f4xx_gpio.c **** 
 1109              		.loc 1 882 0
 1110 022e 2A4A     		ldr	r2, .L121
 1111 0230 D369     		ldr	r3, [r2, #28]
 1112 0232 23F4C013 		bic	r3, r3, #1572864
 1113 0236 D361     		str	r3, [r2, #28]
 884:../Libraries/AT32F4xx_StdPeriph_Driver/src/at32f4xx_gpio.c ****       {
 1114              		.loc 1 884 0
 1115 0238 0129     		cmp	r1, #1
 1116 023a 7FF425AF 		bne	.L62
 886:../Libraries/AT32F4xx_StdPeriph_Driver/src/at32f4xx_gpio.c ****       }
 1117              		.loc 1 886 0
 1118 023e D369     		ldr	r3, [r2, #28]
 1119 0240 43F48013 		orr	r3, r3, #1048576
 1120 0244 D361     		str	r3, [r2, #28]
 1121 0246 7047     		bx	lr
 1122              	.L120:
 1123 0248 7047     		bx	lr
 1124              	.L114:
 1125 024a 7047     		bx	lr
 1126              	.L105:
 687:../Libraries/AT32F4xx_StdPeriph_Driver/src/at32f4xx_gpio.c ****       }
 1127              		.loc 1 687 0
 1128 024c 5368     		ldr	r3, [r2, #4]
 1129 024e 1843     		orrs	r0, r0, r3
 1130              	.LVL100:
 1131 0250 5060     		str	r0, [r2, #4]
 1132 0252 7047     		bx	lr
 1133              	.LVL101:
 1134              	.L68:
 713:../Libraries/AT32F4xx_StdPeriph_Driver/src/at32f4xx_gpio.c **** 
 1135              		.loc 1 713 0
 1136 0254 204A     		ldr	r2, .L121
 1137 0256 5368     		ldr	r3, [r2, #4]
 1138 0258 23F03003 		bic	r3, r3, #48
 1139 025c 5360     		str	r3, [r2, #4]
 715:../Libraries/AT32F4xx_StdPeriph_Driver/src/at32f4xx_gpio.c ****       {
 1140              		.loc 1 715 0
 1141 025e 0129     		cmp	r1, #1
 1142 0260 7FF412AF 		bne	.L62
 717:../Libraries/AT32F4xx_StdPeriph_Driver/src/at32f4xx_gpio.c ****       }
 1143              		.loc 1 717 0
 1144 0264 5368     		ldr	r3, [r2, #4]
 1145 0266 43F01003 		orr	r3, r3, #16
 1146 026a 5360     		str	r3, [r2, #4]
 1147 026c 7047     		bx	lr
 1148              	.L72:
 733:../Libraries/AT32F4xx_StdPeriph_Driver/src/at32f4xx_gpio.c **** 
 1149              		.loc 1 733 0
 1150 026e 1A4A     		ldr	r2, .L121
 1151 0270 5368     		ldr	r3, [r2, #4]
 1152 0272 23F0C003 		bic	r3, r3, #192
 1153 0276 5360     		str	r3, [r2, #4]
ARM GAS  /var/folders/l3/4y5292px21b4835bsnjwqc7w009kq1/T//ccQxGGuu.s 			page 38


 735:../Libraries/AT32F4xx_StdPeriph_Driver/src/at32f4xx_gpio.c ****       {
 1154              		.loc 1 735 0
 1155 0278 0129     		cmp	r1, #1
 1156 027a 7FF405AF 		bne	.L62
 737:../Libraries/AT32F4xx_StdPeriph_Driver/src/at32f4xx_gpio.c ****       }
 1157              		.loc 1 737 0
 1158 027e 5368     		ldr	r3, [r2, #4]
 1159 0280 43F04003 		orr	r3, r3, #64
 1160 0284 5360     		str	r3, [r2, #4]
 1161 0286 7047     		bx	lr
 1162              	.L75:
 743:../Libraries/AT32F4xx_StdPeriph_Driver/src/at32f4xx_gpio.c **** 
 1163              		.loc 1 743 0
 1164 0288 134A     		ldr	r2, .L121
 1165 028a 5368     		ldr	r3, [r2, #4]
 1166 028c 23F0C003 		bic	r3, r3, #192
 1167 0290 5360     		str	r3, [r2, #4]
 745:../Libraries/AT32F4xx_StdPeriph_Driver/src/at32f4xx_gpio.c ****       {
 1168              		.loc 1 745 0
 1169 0292 0129     		cmp	r1, #1
 1170 0294 7FF4F8AE 		bne	.L62
 747:../Libraries/AT32F4xx_StdPeriph_Driver/src/at32f4xx_gpio.c ****       }
 1171              		.loc 1 747 0
 1172 0298 5368     		ldr	r3, [r2, #4]
 1173 029a 43F0C003 		orr	r3, r3, #192
 1174 029e 5360     		str	r3, [r2, #4]
 1175 02a0 7047     		bx	lr
 1176              	.L66:
 763:../Libraries/AT32F4xx_StdPeriph_Driver/src/at32f4xx_gpio.c **** 
 1177              		.loc 1 763 0
 1178 02a2 0D4A     		ldr	r2, .L121
 1179 02a4 5368     		ldr	r3, [r2, #4]
 1180 02a6 23F44073 		bic	r3, r3, #768
 1181 02aa 5360     		str	r3, [r2, #4]
 765:../Libraries/AT32F4xx_StdPeriph_Driver/src/at32f4xx_gpio.c ****       {
 1182              		.loc 1 765 0
 1183 02ac 0129     		cmp	r1, #1
 1184 02ae 7FF4EBAE 		bne	.L62
 767:../Libraries/AT32F4xx_StdPeriph_Driver/src/at32f4xx_gpio.c ****       }
 1185              		.loc 1 767 0
 1186 02b2 5368     		ldr	r3, [r2, #4]
 1187 02b4 43F40073 		orr	r3, r3, #512
 1188 02b8 5360     		str	r3, [r2, #4]
 1189 02ba 7047     		bx	lr
 1190              	.L79:
 783:../Libraries/AT32F4xx_StdPeriph_Driver/src/at32f4xx_gpio.c **** 
 1191              		.loc 1 783 0
 1192 02bc 064A     		ldr	r2, .L121
 1193 02be 5368     		ldr	r3, [r2, #4]
 1194 02c0 23F44063 		bic	r3, r3, #3072
 1195 02c4 5360     		str	r3, [r2, #4]
 785:../Libraries/AT32F4xx_StdPeriph_Driver/src/at32f4xx_gpio.c ****       {
 1196              		.loc 1 785 0
 1197 02c6 0129     		cmp	r1, #1
 1198 02c8 7FF4DEAE 		bne	.L62
 787:../Libraries/AT32F4xx_StdPeriph_Driver/src/at32f4xx_gpio.c ****       }
 1199              		.loc 1 787 0
ARM GAS  /var/folders/l3/4y5292px21b4835bsnjwqc7w009kq1/T//ccQxGGuu.s 			page 39


 1200 02cc 5368     		ldr	r3, [r2, #4]
 1201 02ce 43F40063 		orr	r3, r3, #2048
 1202 02d2 5360     		str	r3, [r2, #4]
 1203 02d4 7047     		bx	lr
 1204              	.L122:
 1205 02d6 00BF     		.align	2
 1206              	.L121:
 1207 02d8 00000140 		.word	1073807360
 1208 02dc 00010040 		.word	1073742080
 1209 02e0 00000840 		.word	1074266112
 1210 02e4 00001840 		.word	1075314688
 1211 02e8 00002040 		.word	1075838976
 1212 02ec 20000040 		.word	1073741856
 1213 02f0 40000040 		.word	1073741888
 1214 02f4 00040040 		.word	1073742848
 1215 02f8 00000240 		.word	1073872896
 1216              	.L77:
 803:../Libraries/AT32F4xx_StdPeriph_Driver/src/at32f4xx_gpio.c **** 
 1217              		.loc 1 803 0
 1218 02fc 204A     		ldr	r2, .L123
 1219 02fe 5368     		ldr	r3, [r2, #4]
 1220 0300 23F4C043 		bic	r3, r3, #24576
 1221 0304 5360     		str	r3, [r2, #4]
 805:../Libraries/AT32F4xx_StdPeriph_Driver/src/at32f4xx_gpio.c ****       {
 1222              		.loc 1 805 0
 1223 0306 0129     		cmp	r1, #1
 1224 0308 7FF4BEAE 		bne	.L62
 807:../Libraries/AT32F4xx_StdPeriph_Driver/src/at32f4xx_gpio.c ****       }
 1225              		.loc 1 807 0
 1226 030c 5368     		ldr	r3, [r2, #4]
 1227 030e 43F48043 		orr	r3, r3, #16384
 1228 0312 5360     		str	r3, [r2, #4]
 1229 0314 7047     		bx	lr
 1230              	.L90:
 823:../Libraries/AT32F4xx_StdPeriph_Driver/src/at32f4xx_gpio.c **** 
 1231              		.loc 1 823 0
 1232 0316 1A4A     		ldr	r2, .L123
 1233 0318 5368     		ldr	r3, [r2, #4]
 1234 031a 23F0E063 		bic	r3, r3, #117440512
 1235 031e 5360     		str	r3, [r2, #4]
 825:../Libraries/AT32F4xx_StdPeriph_Driver/src/at32f4xx_gpio.c ****       {
 1236              		.loc 1 825 0
 1237 0320 0129     		cmp	r1, #1
 1238 0322 7FF4B1AE 		bne	.L62
 827:../Libraries/AT32F4xx_StdPeriph_Driver/src/at32f4xx_gpio.c ****       }
 1239              		.loc 1 827 0
 1240 0326 5368     		ldr	r3, [r2, #4]
 1241 0328 43F08073 		orr	r3, r3, #16777216
 1242 032c 5360     		str	r3, [r2, #4]
 1243 032e 7047     		bx	lr
 1244              	.L87:
 843:../Libraries/AT32F4xx_StdPeriph_Driver/src/at32f4xx_gpio.c **** 
 1245              		.loc 1 843 0
 1246 0330 134A     		ldr	r2, .L123
 1247 0332 5368     		ldr	r3, [r2, #4]
 1248 0334 23F0E063 		bic	r3, r3, #117440512
 1249 0338 5360     		str	r3, [r2, #4]
ARM GAS  /var/folders/l3/4y5292px21b4835bsnjwqc7w009kq1/T//ccQxGGuu.s 			page 40


 845:../Libraries/AT32F4xx_StdPeriph_Driver/src/at32f4xx_gpio.c ****       {
 1250              		.loc 1 845 0
 1251 033a 0129     		cmp	r1, #1
 1252 033c 7FF4A4AE 		bne	.L62
 847:../Libraries/AT32F4xx_StdPeriph_Driver/src/at32f4xx_gpio.c ****       }
 1253              		.loc 1 847 0
 1254 0340 5368     		ldr	r3, [r2, #4]
 1255 0342 43F08063 		orr	r3, r3, #67108864
 1256 0346 5360     		str	r3, [r2, #4]
 1257 0348 7047     		bx	lr
 1258              	.L93:
 872:../Libraries/AT32F4xx_StdPeriph_Driver/src/at32f4xx_gpio.c **** 
 1259              		.loc 1 872 0
 1260 034a 0D4A     		ldr	r2, .L123
 1261 034c D369     		ldr	r3, [r2, #28]
 1262 034e 23F4C013 		bic	r3, r3, #1572864
 1263 0352 D361     		str	r3, [r2, #28]
 874:../Libraries/AT32F4xx_StdPeriph_Driver/src/at32f4xx_gpio.c ****       {
 1264              		.loc 1 874 0
 1265 0354 0129     		cmp	r1, #1
 1266 0356 7FF497AE 		bne	.L62
 876:../Libraries/AT32F4xx_StdPeriph_Driver/src/at32f4xx_gpio.c ****       }
 1267              		.loc 1 876 0
 1268 035a D369     		ldr	r3, [r2, #28]
 1269 035c 43F40023 		orr	r3, r3, #524288
 1270 0360 D361     		str	r3, [r2, #28]
 1271 0362 7047     		bx	lr
 1272              	.L96:
 892:../Libraries/AT32F4xx_StdPeriph_Driver/src/at32f4xx_gpio.c **** 
 1273              		.loc 1 892 0
 1274 0364 064A     		ldr	r2, .L123
 1275 0366 D369     		ldr	r3, [r2, #28]
 1276 0368 23F4C013 		bic	r3, r3, #1572864
 1277 036c D361     		str	r3, [r2, #28]
 894:../Libraries/AT32F4xx_StdPeriph_Driver/src/at32f4xx_gpio.c ****       {
 1278              		.loc 1 894 0
 1279 036e 0129     		cmp	r1, #1
 1280 0370 7FF48AAE 		bne	.L62
 896:../Libraries/AT32F4xx_StdPeriph_Driver/src/at32f4xx_gpio.c ****       }
 1281              		.loc 1 896 0
 1282 0374 D369     		ldr	r3, [r2, #28]
 1283 0376 43F4C013 		orr	r3, r3, #1572864
 1284 037a D361     		str	r3, [r2, #28]
 1285              		.loc 1 905 0
 1286 037c 84E6     		b	.L62
 1287              	.L124:
 1288 037e 00BF     		.align	2
 1289              	.L123:
 1290 0380 00000140 		.word	1073807360
 1291              		.cfi_endproc
 1292              	.LFE138:
 1293              		.cantunwind
 1294              		.fnend
 1296              		.section	.text.GPIO_EXTILineConfig,"ax",%progbits
 1297              		.align	1
 1298              		.global	GPIO_EXTILineConfig
 1299              		.syntax unified
ARM GAS  /var/folders/l3/4y5292px21b4835bsnjwqc7w009kq1/T//ccQxGGuu.s 			page 41


 1300              		.thumb
 1301              		.thumb_func
 1302              		.fpu fpv4-sp-d16
 1304              	GPIO_EXTILineConfig:
 1305              		.fnstart
 1306              	.LFB139:
 906:../Libraries/AT32F4xx_StdPeriph_Driver/src/at32f4xx_gpio.c **** 
 907:../Libraries/AT32F4xx_StdPeriph_Driver/src/at32f4xx_gpio.c **** /**
 908:../Libraries/AT32F4xx_StdPeriph_Driver/src/at32f4xx_gpio.c ****   * @brief  Selects the GPIO pin used as EXTI Line.
 909:../Libraries/AT32F4xx_StdPeriph_Driver/src/at32f4xx_gpio.c ****   * @param  GPIO_PortSource: selects the GPIO port to be used as source for EXTI lines.
 910:../Libraries/AT32F4xx_StdPeriph_Driver/src/at32f4xx_gpio.c ****   *   This parameter can be GPIO_PortSourceGPIOx where x can be (A..G).
 911:../Libraries/AT32F4xx_StdPeriph_Driver/src/at32f4xx_gpio.c ****   * @param  GPIO_PinSource: specifies the EXTI line to be configured.
 912:../Libraries/AT32F4xx_StdPeriph_Driver/src/at32f4xx_gpio.c ****   *   This parameter can be GPIO_PinSourcex where x can be (0..15).
 913:../Libraries/AT32F4xx_StdPeriph_Driver/src/at32f4xx_gpio.c ****   * @retval None
 914:../Libraries/AT32F4xx_StdPeriph_Driver/src/at32f4xx_gpio.c ****   */
 915:../Libraries/AT32F4xx_StdPeriph_Driver/src/at32f4xx_gpio.c **** void GPIO_EXTILineConfig(uint8_t GPIO_PortSource, uint8_t GPIO_PinSource)
 916:../Libraries/AT32F4xx_StdPeriph_Driver/src/at32f4xx_gpio.c **** {
 1307              		.loc 1 916 0
 1308              		.cfi_startproc
 1309              		@ args = 0, pretend = 0, frame = 0
 1310              		@ frame_needed = 0, uses_anonymous_args = 0
 1311              		@ link register save eliminated.
 1312              	.LVL102:
 1313 0000 30B4     		push	{r4, r5}
 1314              	.LCFI4:
 1315              		.cfi_def_cfa_offset 8
 1316              		.cfi_offset 4, -8
 1317              		.cfi_offset 5, -4
 1318              	.LVL103:
 917:../Libraries/AT32F4xx_StdPeriph_Driver/src/at32f4xx_gpio.c ****   uint32_t tmp = 0x00;
 918:../Libraries/AT32F4xx_StdPeriph_Driver/src/at32f4xx_gpio.c ****   /* Check the parameters */
 919:../Libraries/AT32F4xx_StdPeriph_Driver/src/at32f4xx_gpio.c ****   assert_param(IS_GPIO_EXTI_PORT_SOURCE(GPIO_PortSource));
 920:../Libraries/AT32F4xx_StdPeriph_Driver/src/at32f4xx_gpio.c ****   assert_param(IS_GPIO_PINS_SOURCE(GPIO_PinSource));
 921:../Libraries/AT32F4xx_StdPeriph_Driver/src/at32f4xx_gpio.c **** 
 922:../Libraries/AT32F4xx_StdPeriph_Driver/src/at32f4xx_gpio.c ****   tmp = ((uint32_t)0x0F) << (0x04 * (GPIO_PinSource & (uint8_t)0x03));
 1319              		.loc 1 922 0
 1320 0002 01F00303 		and	r3, r1, #3
 1321 0006 9B00     		lsls	r3, r3, #2
 1322 0008 0F24     		movs	r4, #15
 1323 000a 04FA03F5 		lsl	r5, r4, r3
 1324              	.LVL104:
 923:../Libraries/AT32F4xx_StdPeriph_Driver/src/at32f4xx_gpio.c ****   AFIO->EXTIC[GPIO_PinSource >> 0x02] &= ~tmp;
 1325              		.loc 1 923 0
 1326 000e 8910     		asrs	r1, r1, #2
 1327              	.LVL105:
 1328 0010 074A     		ldr	r2, .L127
 1329 0012 0231     		adds	r1, r1, #2
 1330 0014 52F82140 		ldr	r4, [r2, r1, lsl #2]
 1331 0018 24EA0504 		bic	r4, r4, r5
 1332 001c 42F82140 		str	r4, [r2, r1, lsl #2]
 924:../Libraries/AT32F4xx_StdPeriph_Driver/src/at32f4xx_gpio.c ****   AFIO->EXTIC[GPIO_PinSource >> 0x02] |= (((uint32_t)GPIO_PortSource) << (0x04 * (GPIO_PinSource & 
 1333              		.loc 1 924 0
 1334 0020 52F82140 		ldr	r4, [r2, r1, lsl #2]
 1335 0024 9840     		lsls	r0, r0, r3
 1336              	.LVL106:
 1337 0026 2043     		orrs	r0, r0, r4
 1338 0028 42F82100 		str	r0, [r2, r1, lsl #2]
ARM GAS  /var/folders/l3/4y5292px21b4835bsnjwqc7w009kq1/T//ccQxGGuu.s 			page 42


 925:../Libraries/AT32F4xx_StdPeriph_Driver/src/at32f4xx_gpio.c **** }
 1339              		.loc 1 925 0
 1340 002c 30BC     		pop	{r4, r5}
 1341              	.LCFI5:
 1342              		.cfi_restore 5
 1343              		.cfi_restore 4
 1344              		.cfi_def_cfa_offset 0
 1345              	.LVL107:
 1346 002e 7047     		bx	lr
 1347              	.L128:
 1348              		.align	2
 1349              	.L127:
 1350 0030 00000140 		.word	1073807360
 1351              		.cfi_endproc
 1352              	.LFE139:
 1353              		.cantunwind
 1354              		.fnend
 1356              		.text
 1357              	.Letext0:
 1358              		.file 2 "/usr/local/Cellar/gcc-arm-none-eabi/20180627/arm-none-eabi/include/machine/_default_types
 1359              		.file 3 "/usr/local/Cellar/gcc-arm-none-eabi/20180627/arm-none-eabi/include/sys/_stdint.h"
 1360              		.file 4 "../Libraries/CMSIS/CM4/CoreSupport/core_cm4.h"
 1361              		.file 5 "../Libraries/CMSIS/CM4/DeviceSupport/system_at32f4xx.h"
 1362              		.file 6 "../Libraries/CMSIS/CM4/DeviceSupport/at32f4xx.h"
 1363              		.file 7 "../Libraries/AT32F4xx_StdPeriph_Driver/inc/at32f4xx_gpio.h"
 1364              		.file 8 "../Libraries/AT32F4xx_StdPeriph_Driver/inc/at32f4xx_rcc.h"
ARM GAS  /var/folders/l3/4y5292px21b4835bsnjwqc7w009kq1/T//ccQxGGuu.s 			page 43

