ARM GAS  /var/folders/l3/4y5292px21b4835bsnjwqc7w009kq1/T//cc0I0tOZ.s 			page 1


   1              		.cpu cortex-m4
   2              		.eabi_attribute 27, 1
   3              		.eabi_attribute 20, 1
   4              		.eabi_attribute 21, 1
   5              		.eabi_attribute 23, 3
   6              		.eabi_attribute 24, 1
   7              		.eabi_attribute 25, 1
   8              		.eabi_attribute 26, 1
   9              		.eabi_attribute 30, 1
  10              		.eabi_attribute 34, 1
  11              		.eabi_attribute 18, 4
  12              		.file	"bsp_uart_fifo.c"
  13              		.text
  14              	.Ltext0:
  15              		.cfi_sections	.debug_frame
  16              		.section	.text._ZL11UartVarInitv,"ax",%progbits
  17              		.align	1
  18              		.syntax unified
  19              		.thumb
  20              		.thumb_func
  21              		.fpu fpv4-sp-d16
  23              	_ZL11UartVarInitv:
  24              		.fnstart
  25              	.LFB144:
  26              		.file 1 "bsp/src/bsp_uart_fifo.c"
   1:bsp/src/bsp_uart_fifo.c **** /**
   2:bsp/src/bsp_uart_fifo.c ****   ******************************************************************************
   3:bsp/src/bsp_uart_fifo.c ****   * @file    FreeRTOS/bsp/bsp_uart_fifo.c 
   4:bsp/src/bsp_uart_fifo.c ****   * @author  Artery Technology 
   5:bsp/src/bsp_uart_fifo.c ****   * @version V1.1.2
   6:bsp/src/bsp_uart_fifo.c ****   * @date    2019-01-04
   7:bsp/src/bsp_uart_fifo.c ****   * @brief   Bsp Service Routines.
   8:bsp/src/bsp_uart_fifo.c ****   ******************************************************************************
   9:bsp/src/bsp_uart_fifo.c ****   * @attention
  10:bsp/src/bsp_uart_fifo.c ****   *
  11:bsp/src/bsp_uart_fifo.c ****   * THE PRESENT FIRMWARE WHICH IS FOR GUIDANCE ONLY AIMS AT PROVIDING CUSTOMERS
  12:bsp/src/bsp_uart_fifo.c ****   * WITH CODING INFORMATION REGARDING THEIR PRODUCTS IN ORDER FOR THEM TO SAVE
  13:bsp/src/bsp_uart_fifo.c ****   * TIME. AS A RESULT, ARTERYTEK SHALL NOT BE HELD LIABLE FOR ANY
  14:bsp/src/bsp_uart_fifo.c ****   * DIRECT, INDIRECT OR CONSEQUENTIAL DAMAGES WITH RESPECT TO ANY CLAIMS ARISING
  15:bsp/src/bsp_uart_fifo.c ****   * FROM THE CONTENT OF SUCH FIRMWARE AND/OR THE USE MADE BY CUSTOMERS OF THE
  16:bsp/src/bsp_uart_fifo.c ****   * CODING INFORMATION CONTAINED HEREIN IN CONNECTION WITH THEIR PRODUCTS.
  17:bsp/src/bsp_uart_fifo.c ****   *
  18:bsp/src/bsp_uart_fifo.c ****   * <h2><center>&copy; COPYRIGHT 2018 ArteryTek</center></h2>
  19:bsp/src/bsp_uart_fifo.c ****   ******************************************************************************
  20:bsp/src/bsp_uart_fifo.c ****   */ 
  21:bsp/src/bsp_uart_fifo.c **** 
  22:bsp/src/bsp_uart_fifo.c **** /* Includes ------------------------------------------------------------------*/  
  23:bsp/src/bsp_uart_fifo.c **** #include "bsp.h"
  24:bsp/src/bsp_uart_fifo.c **** #include "at32_hoverboard.h"
  25:bsp/src/bsp_uart_fifo.c **** /** @addtogroup AT32F403_StdPeriph_Examples
  26:bsp/src/bsp_uart_fifo.c ****   * @{
  27:bsp/src/bsp_uart_fifo.c ****   */
  28:bsp/src/bsp_uart_fifo.c **** 
  29:bsp/src/bsp_uart_fifo.c **** /** @addtogroup FreeRTOS_ResManagement_SafelyPrint
  30:bsp/src/bsp_uart_fifo.c ****   * @{
  31:bsp/src/bsp_uart_fifo.c ****   */ 
  32:bsp/src/bsp_uart_fifo.c ****   
ARM GAS  /var/folders/l3/4y5292px21b4835bsnjwqc7w009kq1/T//cc0I0tOZ.s 			page 2


  33:bsp/src/bsp_uart_fifo.c **** /* Private typedef -----------------------------------------------------------*/
  34:bsp/src/bsp_uart_fifo.c **** /* Private define ------------------------------------------------------------*/  
  35:bsp/src/bsp_uart_fifo.c **** /* Private macro -------------------------------------------------------------*/
  36:bsp/src/bsp_uart_fifo.c **** /* Private variables ---------------------------------------------------------*/
  37:bsp/src/bsp_uart_fifo.c **** #if UART1_FIFO_EN == 1
  38:bsp/src/bsp_uart_fifo.c **** 	static UART_T g_tUart1;
  39:bsp/src/bsp_uart_fifo.c **** 	static uint8_t g_TxBuf1[UART1_TX_BUF_SIZE];		/* transmit buffer */
  40:bsp/src/bsp_uart_fifo.c **** 	static uint8_t g_RxBuf1[UART1_RX_BUF_SIZE];		/* receive buffer */
  41:bsp/src/bsp_uart_fifo.c **** #endif
  42:bsp/src/bsp_uart_fifo.c **** 
  43:bsp/src/bsp_uart_fifo.c **** /* Private function prototypes -----------------------------------------------*/
  44:bsp/src/bsp_uart_fifo.c **** static void UartVarInit(void);
  45:bsp/src/bsp_uart_fifo.c **** 
  46:bsp/src/bsp_uart_fifo.c **** static void InitHardUart(void);
  47:bsp/src/bsp_uart_fifo.c **** static void UartSend(UART_T *_pUart, uint8_t *_ucaBuf, uint16_t _usLen);
  48:bsp/src/bsp_uart_fifo.c **** static uint8_t UartGetChar(UART_T *_pUart, uint8_t *_pByte);
  49:bsp/src/bsp_uart_fifo.c **** static void UartIRQ(UART_T *_pUart);
  50:bsp/src/bsp_uart_fifo.c **** static void ConfigUartNVIC(void);
  51:bsp/src/bsp_uart_fifo.c **** 
  52:bsp/src/bsp_uart_fifo.c **** /* Private functions ---------------------------------------------------------*/
  53:bsp/src/bsp_uart_fifo.c **** 
  54:bsp/src/bsp_uart_fifo.c **** /**
  55:bsp/src/bsp_uart_fifo.c ****  * @brief   Initialize all hardware included on the AT-STRAT-F403 board
  56:bsp/src/bsp_uart_fifo.c ****  * @param   None
  57:bsp/src/bsp_uart_fifo.c ****  * @retval  None
  58:bsp/src/bsp_uart_fifo.c ****  */
  59:bsp/src/bsp_uart_fifo.c **** void bsp_InitUart(void)
  60:bsp/src/bsp_uart_fifo.c **** {
  61:bsp/src/bsp_uart_fifo.c **** 	UartVarInit();		/* initialize all global parameters */
  62:bsp/src/bsp_uart_fifo.c **** 
  63:bsp/src/bsp_uart_fifo.c **** 	InitHardUart();		/* initialize USART */
  64:bsp/src/bsp_uart_fifo.c **** 
  65:bsp/src/bsp_uart_fifo.c **** 	ConfigUartNVIC();	/* configurate USART interrupts */
  66:bsp/src/bsp_uart_fifo.c **** }
  67:bsp/src/bsp_uart_fifo.c **** 
  68:bsp/src/bsp_uart_fifo.c **** /**
  69:bsp/src/bsp_uart_fifo.c ****  * @brief   change serial number to USART device
  70:bsp/src/bsp_uart_fifo.c ****  * @param   _ucPort: serial number
  71:bsp/src/bsp_uart_fifo.c ****             COM1
  72:bsp/src/bsp_uart_fifo.c ****             COM2
  73:bsp/src/bsp_uart_fifo.c ****             COM3
  74:bsp/src/bsp_uart_fifo.c ****             COM4
  75:bsp/src/bsp_uart_fifo.c ****             COM5
  76:bsp/src/bsp_uart_fifo.c ****             COM6
  77:bsp/src/bsp_uart_fifo.c ****  * @retval  USART device
  78:bsp/src/bsp_uart_fifo.c ****  */
  79:bsp/src/bsp_uart_fifo.c **** 
  80:bsp/src/bsp_uart_fifo.c **** UART_T *ComToUart(COM_PORT_E _ucPort)
  81:bsp/src/bsp_uart_fifo.c **** {
  82:bsp/src/bsp_uart_fifo.c **** 	if (_ucPort == COM1)
  83:bsp/src/bsp_uart_fifo.c **** 	{
  84:bsp/src/bsp_uart_fifo.c **** 		#if UART1_FIFO_EN == 1
  85:bsp/src/bsp_uart_fifo.c **** 			return &g_tUart1;
  86:bsp/src/bsp_uart_fifo.c **** 		#else
  87:bsp/src/bsp_uart_fifo.c **** 			return 0;
  88:bsp/src/bsp_uart_fifo.c **** 		#endif
  89:bsp/src/bsp_uart_fifo.c **** 	}
ARM GAS  /var/folders/l3/4y5292px21b4835bsnjwqc7w009kq1/T//cc0I0tOZ.s 			page 3


  90:bsp/src/bsp_uart_fifo.c **** 	else
  91:bsp/src/bsp_uart_fifo.c **** 	{
  92:bsp/src/bsp_uart_fifo.c **** 		return 0;
  93:bsp/src/bsp_uart_fifo.c **** 	}
  94:bsp/src/bsp_uart_fifo.c **** }
  95:bsp/src/bsp_uart_fifo.c **** 
  96:bsp/src/bsp_uart_fifo.c **** /**
  97:bsp/src/bsp_uart_fifo.c ****  * @brief   send data to TX FIFO,and in fact send out data by ISR
  98:bsp/src/bsp_uart_fifo.c ****  * @param   _ucPort: serial number that send the data
  99:bsp/src/bsp_uart_fifo.c ****                 COM1
 100:bsp/src/bsp_uart_fifo.c ****                 COM2
 101:bsp/src/bsp_uart_fifo.c ****                 COM3
 102:bsp/src/bsp_uart_fifo.c ****                 COM4
 103:bsp/src/bsp_uart_fifo.c ****                 COM5
 104:bsp/src/bsp_uart_fifo.c ****                 COM6
 105:bsp/src/bsp_uart_fifo.c ****             _ucaBuf: buffer contain data that will be sent
 106:bsp/src/bsp_uart_fifo.c ****             _usLen : length of sent data
 107:bsp/src/bsp_uart_fifo.c ****  * @retval  None
 108:bsp/src/bsp_uart_fifo.c ****  */
 109:bsp/src/bsp_uart_fifo.c **** void comSendBuf(COM_PORT_E _ucPort, uint8_t *_ucaBuf, uint16_t _usLen)
 110:bsp/src/bsp_uart_fifo.c **** {
 111:bsp/src/bsp_uart_fifo.c **** 	UART_T *pUart;
 112:bsp/src/bsp_uart_fifo.c **** 
 113:bsp/src/bsp_uart_fifo.c **** 	pUart = ComToUart(_ucPort);
 114:bsp/src/bsp_uart_fifo.c **** 	if (pUart == 0)
 115:bsp/src/bsp_uart_fifo.c **** 	{
 116:bsp/src/bsp_uart_fifo.c **** 		return;
 117:bsp/src/bsp_uart_fifo.c **** 	}
 118:bsp/src/bsp_uart_fifo.c **** 
 119:bsp/src/bsp_uart_fifo.c **** 	if (pUart->SendBefor != 0)
 120:bsp/src/bsp_uart_fifo.c **** 	{
 121:bsp/src/bsp_uart_fifo.c **** 		pUart->SendBefor(); /* changed to TX mode when used as RS485 communication */
 122:bsp/src/bsp_uart_fifo.c **** 	}
 123:bsp/src/bsp_uart_fifo.c **** 
 124:bsp/src/bsp_uart_fifo.c **** 	UartSend(pUart, _ucaBuf, _usLen);
 125:bsp/src/bsp_uart_fifo.c **** }
 126:bsp/src/bsp_uart_fifo.c **** 
 127:bsp/src/bsp_uart_fifo.c **** /**
 128:bsp/src/bsp_uart_fifo.c ****  * @brief   send one byte data to TX FIFO,and in fact send out data by ISR
 129:bsp/src/bsp_uart_fifo.c ****  * @param   _ucPort: serial number that send the data
 130:bsp/src/bsp_uart_fifo.c ****                 COM1
 131:bsp/src/bsp_uart_fifo.c ****                 COM2
 132:bsp/src/bsp_uart_fifo.c ****                 COM3
 133:bsp/src/bsp_uart_fifo.c ****                 COM4
 134:bsp/src/bsp_uart_fifo.c ****                 COM5
 135:bsp/src/bsp_uart_fifo.c ****                 COM6
 136:bsp/src/bsp_uart_fifo.c ****             _ucByte: the sent data
 137:bsp/src/bsp_uart_fifo.c ****  * @retval  None
 138:bsp/src/bsp_uart_fifo.c ****  */
 139:bsp/src/bsp_uart_fifo.c **** 
 140:bsp/src/bsp_uart_fifo.c **** void comSendChar(COM_PORT_E _ucPort, uint8_t _ucByte)
 141:bsp/src/bsp_uart_fifo.c **** {
 142:bsp/src/bsp_uart_fifo.c **** 	comSendBuf(_ucPort, &_ucByte, 1);
 143:bsp/src/bsp_uart_fifo.c **** }
 144:bsp/src/bsp_uart_fifo.c **** 
 145:bsp/src/bsp_uart_fifo.c **** /**
 146:bsp/src/bsp_uart_fifo.c ****  * @brief   obtain one byte data from receive FIFO, none blocked mode
ARM GAS  /var/folders/l3/4y5292px21b4835bsnjwqc7w009kq1/T//cc0I0tOZ.s 			page 4


 147:bsp/src/bsp_uart_fifo.c ****  * @param   _ucPort: serial number that send the data
 148:bsp/src/bsp_uart_fifo.c ****                 COM1
 149:bsp/src/bsp_uart_fifo.c ****                 COM2
 150:bsp/src/bsp_uart_fifo.c ****                 COM3
 151:bsp/src/bsp_uart_fifo.c ****                 COM4
 152:bsp/src/bsp_uart_fifo.c ****                 COM5
 153:bsp/src/bsp_uart_fifo.c ****                 COM6
 154:bsp/src/bsp_uart_fifo.c ****             _ucByte: the received data
 155:bsp/src/bsp_uart_fifo.c ****  * @retval  0: no data 1:obtain the data
 156:bsp/src/bsp_uart_fifo.c ****  */
 157:bsp/src/bsp_uart_fifo.c **** 
 158:bsp/src/bsp_uart_fifo.c **** uint8_t comGetChar(COM_PORT_E _ucPort, uint8_t *_pByte)
 159:bsp/src/bsp_uart_fifo.c **** {
 160:bsp/src/bsp_uart_fifo.c **** 	UART_T *pUart;
 161:bsp/src/bsp_uart_fifo.c **** 
 162:bsp/src/bsp_uart_fifo.c **** 	pUart = ComToUart(_ucPort);
 163:bsp/src/bsp_uart_fifo.c **** 	if (pUart == 0)
 164:bsp/src/bsp_uart_fifo.c **** 	{
 165:bsp/src/bsp_uart_fifo.c **** 		return 0;
 166:bsp/src/bsp_uart_fifo.c **** 	}
 167:bsp/src/bsp_uart_fifo.c **** 
 168:bsp/src/bsp_uart_fifo.c **** 	return UartGetChar(pUart, _pByte);
 169:bsp/src/bsp_uart_fifo.c **** }
 170:bsp/src/bsp_uart_fifo.c **** 
 171:bsp/src/bsp_uart_fifo.c **** /**
 172:bsp/src/bsp_uart_fifo.c ****   * @brief  Clear TX fifo data
 173:bsp/src/bsp_uart_fifo.c ****   * @param  _ucPort: serial number that send the data
 174:bsp/src/bsp_uart_fifo.c ****                 COM1
 175:bsp/src/bsp_uart_fifo.c ****                 COM2
 176:bsp/src/bsp_uart_fifo.c ****                 COM3
 177:bsp/src/bsp_uart_fifo.c ****                 COM4
 178:bsp/src/bsp_uart_fifo.c ****                 COM5
 179:bsp/src/bsp_uart_fifo.c ****                 COM6
 180:bsp/src/bsp_uart_fifo.c ****   * @retval None
 181:bsp/src/bsp_uart_fifo.c ****   */
 182:bsp/src/bsp_uart_fifo.c **** void comClearTxFifo(COM_PORT_E _ucPort)
 183:bsp/src/bsp_uart_fifo.c **** {
 184:bsp/src/bsp_uart_fifo.c **** 	UART_T *pUart;
 185:bsp/src/bsp_uart_fifo.c **** 
 186:bsp/src/bsp_uart_fifo.c **** 	pUart = ComToUart(_ucPort);
 187:bsp/src/bsp_uart_fifo.c **** 	if (pUart == 0)
 188:bsp/src/bsp_uart_fifo.c **** 	{
 189:bsp/src/bsp_uart_fifo.c **** 		return;
 190:bsp/src/bsp_uart_fifo.c **** 	}
 191:bsp/src/bsp_uart_fifo.c **** 
 192:bsp/src/bsp_uart_fifo.c **** 	pUart->usTxWrite = 0;
 193:bsp/src/bsp_uart_fifo.c **** 	pUart->usTxRead = 0;
 194:bsp/src/bsp_uart_fifo.c **** 	pUart->usTxCount = 0;
 195:bsp/src/bsp_uart_fifo.c **** }
 196:bsp/src/bsp_uart_fifo.c **** 
 197:bsp/src/bsp_uart_fifo.c **** /**
 198:bsp/src/bsp_uart_fifo.c ****   * @brief  Clear RX fifo data
 199:bsp/src/bsp_uart_fifo.c ****   * @param  _ucPort: serial number that send the data
 200:bsp/src/bsp_uart_fifo.c ****                 COM1
 201:bsp/src/bsp_uart_fifo.c ****                 COM2
 202:bsp/src/bsp_uart_fifo.c ****                 COM3
 203:bsp/src/bsp_uart_fifo.c ****                 COM4
ARM GAS  /var/folders/l3/4y5292px21b4835bsnjwqc7w009kq1/T//cc0I0tOZ.s 			page 5


 204:bsp/src/bsp_uart_fifo.c ****                 COM5
 205:bsp/src/bsp_uart_fifo.c ****                 COM6
 206:bsp/src/bsp_uart_fifo.c ****   * @retval None
 207:bsp/src/bsp_uart_fifo.c ****   */
 208:bsp/src/bsp_uart_fifo.c **** void comClearRxFifo(COM_PORT_E _ucPort)
 209:bsp/src/bsp_uart_fifo.c **** {
 210:bsp/src/bsp_uart_fifo.c **** 	UART_T *pUart;
 211:bsp/src/bsp_uart_fifo.c **** 
 212:bsp/src/bsp_uart_fifo.c **** 	pUart = ComToUart(_ucPort);
 213:bsp/src/bsp_uart_fifo.c **** 	if (pUart == 0)
 214:bsp/src/bsp_uart_fifo.c **** 	{
 215:bsp/src/bsp_uart_fifo.c **** 		return;
 216:bsp/src/bsp_uart_fifo.c **** 	}
 217:bsp/src/bsp_uart_fifo.c **** 
 218:bsp/src/bsp_uart_fifo.c **** 	pUart->usRxWrite = 0;
 219:bsp/src/bsp_uart_fifo.c **** 	pUart->usRxRead = 0;
 220:bsp/src/bsp_uart_fifo.c **** 	pUart->usRxCount = 0;
 221:bsp/src/bsp_uart_fifo.c **** }
 222:bsp/src/bsp_uart_fifo.c **** 
 223:bsp/src/bsp_uart_fifo.c **** /**
 224:bsp/src/bsp_uart_fifo.c ****  * @brief   reconfigurate the baudrate
 225:bsp/src/bsp_uart_fifo.c ****  * @param   None
 226:bsp/src/bsp_uart_fifo.c ****  * @retval  None
 227:bsp/src/bsp_uart_fifo.c ****  */
 228:bsp/src/bsp_uart_fifo.c **** 
 229:bsp/src/bsp_uart_fifo.c **** void bsp_SetUart1Baud(uint32_t _baud)
 230:bsp/src/bsp_uart_fifo.c **** {
 231:bsp/src/bsp_uart_fifo.c **** 	USART_InitType USART_InitStructure;
 232:bsp/src/bsp_uart_fifo.c **** 
 233:bsp/src/bsp_uart_fifo.c **** 	USART_InitStructure.USART_BaudRate      = _baud;	
 234:bsp/src/bsp_uart_fifo.c **** 	USART_InitStructure.USART_WordLength    = USART_WordLength_8b;
 235:bsp/src/bsp_uart_fifo.c **** 	USART_InitStructure.USART_StopBits      = USART_StopBits_1;
 236:bsp/src/bsp_uart_fifo.c **** 	USART_InitStructure.USART_Parity        = USART_Parity_No ;
 237:bsp/src/bsp_uart_fifo.c **** 	USART_InitStructure.USART_HardwareFlowControl = USART_HardwareFlowControl_None;
 238:bsp/src/bsp_uart_fifo.c **** 	USART_InitStructure.USART_Mode                  = USART_Mode_Rx | USART_Mode_Tx;
 239:bsp/src/bsp_uart_fifo.c **** 	USART_Init(AT32_PRINT_UART, &USART_InitStructure);
 240:bsp/src/bsp_uart_fifo.c **** }
 241:bsp/src/bsp_uart_fifo.c **** 
 242:bsp/src/bsp_uart_fifo.c **** /**
 243:bsp/src/bsp_uart_fifo.c ****   * @brief  Uart parameter initialization
 244:bsp/src/bsp_uart_fifo.c ****   * @param  None
 245:bsp/src/bsp_uart_fifo.c ****   * @retval None
 246:bsp/src/bsp_uart_fifo.c ****   */
 247:bsp/src/bsp_uart_fifo.c **** static void UartVarInit(void)
 248:bsp/src/bsp_uart_fifo.c **** {
  27              		.loc 1 248 0
  28              		.cfi_startproc
  29              		@ args = 0, pretend = 0, frame = 0
  30              		@ frame_needed = 0, uses_anonymous_args = 0
  31              		@ link register save eliminated.
 249:bsp/src/bsp_uart_fifo.c **** #if UART1_FIFO_EN == 1
 250:bsp/src/bsp_uart_fifo.c **** 	g_tUart1.uart           = AT32_PRINT_UART;						
  32              		.loc 1 250 0
  33 0000 0A4B     		ldr	r3, .L2
  34 0002 0B4A     		ldr	r2, .L2+4
  35 0004 1A60     		str	r2, [r3]
 251:bsp/src/bsp_uart_fifo.c **** 	g_tUart1.pTxBuf         = g_TxBuf1;					
ARM GAS  /var/folders/l3/4y5292px21b4835bsnjwqc7w009kq1/T//cc0I0tOZ.s 			page 6


  36              		.loc 1 251 0
  37 0006 0B4A     		ldr	r2, .L2+8
  38 0008 5A60     		str	r2, [r3, #4]
 252:bsp/src/bsp_uart_fifo.c **** 	g_tUart1.pRxBuf         = g_RxBuf1;					
  39              		.loc 1 252 0
  40 000a 0B4A     		ldr	r2, .L2+12
  41 000c 9A60     		str	r2, [r3, #8]
 253:bsp/src/bsp_uart_fifo.c **** 	g_tUart1.usTxBufSize    = UART1_TX_BUF_SIZE;	
  42              		.loc 1 253 0
  43 000e 4FF40062 		mov	r2, #2048
  44 0012 9A81     		strh	r2, [r3, #12]	@ movhi
 254:bsp/src/bsp_uart_fifo.c **** 	g_tUart1.usRxBufSize    = UART1_RX_BUF_SIZE;	
  45              		.loc 1 254 0
  46 0014 DA81     		strh	r2, [r3, #14]	@ movhi
 255:bsp/src/bsp_uart_fifo.c **** 	g_tUart1.usTxWrite      = 0;						
  47              		.loc 1 255 0
  48 0016 0022     		movs	r2, #0
  49 0018 1A82     		strh	r2, [r3, #16]	@ movhi
 256:bsp/src/bsp_uart_fifo.c **** 	g_tUart1.usTxRead       = 0;						
  50              		.loc 1 256 0
  51 001a 5A82     		strh	r2, [r3, #18]	@ movhi
 257:bsp/src/bsp_uart_fifo.c **** 	g_tUart1.usRxWrite      = 0;						
  52              		.loc 1 257 0
  53 001c DA82     		strh	r2, [r3, #22]	@ movhi
 258:bsp/src/bsp_uart_fifo.c **** 	g_tUart1.usRxRead       = 0;						
  54              		.loc 1 258 0
  55 001e 1A83     		strh	r2, [r3, #24]	@ movhi
 259:bsp/src/bsp_uart_fifo.c **** 	g_tUart1.usRxCount      = 0;						
  56              		.loc 1 259 0
  57 0020 5A83     		strh	r2, [r3, #26]	@ movhi
 260:bsp/src/bsp_uart_fifo.c **** 	g_tUart1.usTxCount      = 0;						
  58              		.loc 1 260 0
  59 0022 9A82     		strh	r2, [r3, #20]	@ movhi
 261:bsp/src/bsp_uart_fifo.c **** 	g_tUart1.SendBefor      = 0;						
  60              		.loc 1 261 0
  61 0024 DA61     		str	r2, [r3, #28]
 262:bsp/src/bsp_uart_fifo.c **** 	g_tUart1.SendOver       = 0;						
  62              		.loc 1 262 0
  63 0026 1A62     		str	r2, [r3, #32]
 263:bsp/src/bsp_uart_fifo.c **** 	g_tUart1.ReciveNew      = 0;						
  64              		.loc 1 263 0
  65 0028 5A62     		str	r2, [r3, #36]
 264:bsp/src/bsp_uart_fifo.c **** #endif
 265:bsp/src/bsp_uart_fifo.c **** }
  66              		.loc 1 265 0
  67 002a 7047     		bx	lr
  68              	.L3:
  69              		.align	2
  70              	.L2:
  71 002c 00000000 		.word	.LANCHOR0
  72 0030 00440040 		.word	1073759232
  73 0034 00000000 		.word	.LANCHOR1
  74 0038 00000000 		.word	.LANCHOR2
  75              		.cfi_endproc
  76              	.LFE144:
  77              		.cantunwind
  78              		.fnend
ARM GAS  /var/folders/l3/4y5292px21b4835bsnjwqc7w009kq1/T//cc0I0tOZ.s 			page 7


  80              		.section	.text._ZL12InitHardUartv,"ax",%progbits
  81              		.align	1
  82              		.syntax unified
  83              		.thumb
  84              		.thumb_func
  85              		.fpu fpv4-sp-d16
  87              	_ZL12InitHardUartv:
  88              		.fnstart
  89              	.LFB145:
 266:bsp/src/bsp_uart_fifo.c **** 
 267:bsp/src/bsp_uart_fifo.c **** /**
 268:bsp/src/bsp_uart_fifo.c ****   * @brief  Hard uart initialization
 269:bsp/src/bsp_uart_fifo.c ****   * @param  None
 270:bsp/src/bsp_uart_fifo.c ****   * @retval None
 271:bsp/src/bsp_uart_fifo.c ****   */
 272:bsp/src/bsp_uart_fifo.c **** static void InitHardUart(void)
 273:bsp/src/bsp_uart_fifo.c **** {
  90              		.loc 1 273 0
  91              		.cfi_startproc
  92              		@ args = 0, pretend = 0, frame = 0
  93              		@ frame_needed = 0, uses_anonymous_args = 0
  94 0000 08B5     		push	{r3, lr}
  95              		.save {r3, lr}
  96              	.LCFI0:
  97              		.cfi_def_cfa_offset 8
  98              		.cfi_offset 3, -8
  99              		.cfi_offset 14, -4
 274:bsp/src/bsp_uart_fifo.c **** 	GPIO_InitType GPIO_InitStructure;
 275:bsp/src/bsp_uart_fifo.c **** 	USART_InitType USART_InitStructure;
 276:bsp/src/bsp_uart_fifo.c **** 
 277:bsp/src/bsp_uart_fifo.c **** #if UART1_FIFO_EN == 1	
 278:bsp/src/bsp_uart_fifo.c **** 	UART_Print_Init(UART1_BAUD);
 100              		.loc 1 278 0
 101 0002 4FF4E130 		mov	r0, #115200
 102 0006 FFF7FEFF 		bl	_Z15UART_Print_Initm
 103              	.LVL0:
 279:bsp/src/bsp_uart_fifo.c **** 	USART_ClearFlag(AT32_PRINT_UART, USART_FLAG_TRAC);     /* clear Transmission Complete flag */
 104              		.loc 1 279 0
 105 000a 4021     		movs	r1, #64
 106 000c 0148     		ldr	r0, .L6
 107 000e FFF7FEFF 		bl	USART_ClearFlag
 108              	.LVL1:
 280:bsp/src/bsp_uart_fifo.c **** #endif
 281:bsp/src/bsp_uart_fifo.c **** }
 109              		.loc 1 281 0
 110 0012 08BD     		pop	{r3, pc}
 111              	.L7:
 112              		.align	2
 113              	.L6:
 114 0014 00440040 		.word	1073759232
 115              		.cfi_endproc
 116              	.LFE145:
 117              		.fnend
 119              		.section	.text._ZL14ConfigUartNVICv,"ax",%progbits
 120              		.align	1
 121              		.syntax unified
 122              		.thumb
ARM GAS  /var/folders/l3/4y5292px21b4835bsnjwqc7w009kq1/T//cc0I0tOZ.s 			page 8


 123              		.thumb_func
 124              		.fpu fpv4-sp-d16
 126              	_ZL14ConfigUartNVICv:
 127              		.fnstart
 128              	.LFB146:
 282:bsp/src/bsp_uart_fifo.c **** 
 283:bsp/src/bsp_uart_fifo.c **** /**
 284:bsp/src/bsp_uart_fifo.c ****   * @brief  Uart interrupt config
 285:bsp/src/bsp_uart_fifo.c ****   * @param  None
 286:bsp/src/bsp_uart_fifo.c ****   * @retval None
 287:bsp/src/bsp_uart_fifo.c ****   */
 288:bsp/src/bsp_uart_fifo.c **** static void ConfigUartNVIC(void)
 289:bsp/src/bsp_uart_fifo.c **** {
 129              		.loc 1 289 0
 130              		.cfi_startproc
 131              		@ args = 0, pretend = 0, frame = 8
 132              		@ frame_needed = 0, uses_anonymous_args = 0
 133 0000 00B5     		push	{lr}
 134              		.save {lr}
 135              	.LCFI1:
 136              		.cfi_def_cfa_offset 4
 137              		.cfi_offset 14, -4
 138              		.pad #12
 139 0002 83B0     		sub	sp, sp, #12
 140              	.LCFI2:
 141              		.cfi_def_cfa_offset 16
 290:bsp/src/bsp_uart_fifo.c **** 	NVIC_InitType NVIC_InitStructure;
 291:bsp/src/bsp_uart_fifo.c **** 
 292:bsp/src/bsp_uart_fifo.c **** #if UART1_FIFO_EN == 1
 293:bsp/src/bsp_uart_fifo.c ****     NVIC_InitStructure.NVIC_IRQChannel                      = USARTx_IRQn;  
 142              		.loc 1 293 0
 143 0004 2623     		movs	r3, #38
 144 0006 8DF80430 		strb	r3, [sp, #4]
 294:bsp/src/bsp_uart_fifo.c ****     NVIC_InitStructure.NVIC_IRQChannelPreemptionPriority    = 1;
 145              		.loc 1 294 0
 146 000a 0123     		movs	r3, #1
 147 000c 8DF80530 		strb	r3, [sp, #5]
 295:bsp/src/bsp_uart_fifo.c ****     NVIC_InitStructure.NVIC_IRQChannelSubPriority           = 0;
 148              		.loc 1 295 0
 149 0010 0022     		movs	r2, #0
 150 0012 8DF80620 		strb	r2, [sp, #6]
 296:bsp/src/bsp_uart_fifo.c ****     NVIC_InitStructure.NVIC_IRQChannelCmd                   = ENABLE;
 151              		.loc 1 296 0
 152 0016 8DF80730 		strb	r3, [sp, #7]
 297:bsp/src/bsp_uart_fifo.c ****     NVIC_Init(&NVIC_InitStructure);
 153              		.loc 1 297 0
 154 001a 01A8     		add	r0, sp, #4
 155 001c FFF7FEFF 		bl	NVIC_Init
 156              	.LVL2:
 298:bsp/src/bsp_uart_fifo.c **** #endif
 299:bsp/src/bsp_uart_fifo.c **** }
 157              		.loc 1 299 0
 158 0020 03B0     		add	sp, sp, #12
 159              	.LCFI3:
 160              		.cfi_def_cfa_offset 4
 161              		@ sp needed
 162 0022 5DF804FB 		ldr	pc, [sp], #4
ARM GAS  /var/folders/l3/4y5292px21b4835bsnjwqc7w009kq1/T//cc0I0tOZ.s 			page 9


 163              		.cfi_endproc
 164              	.LFE146:
 165              		.fnend
 167              		.section	.text._ZL11UartGetCharP6UART_TPh,"ax",%progbits
 168              		.align	1
 169              		.syntax unified
 170              		.thumb
 171              		.thumb_func
 172              		.fpu fpv4-sp-d16
 174              	_ZL11UartGetCharP6UART_TPh:
 175              		.fnstart
 176              	.LFB148:
 300:bsp/src/bsp_uart_fifo.c **** 
 301:bsp/src/bsp_uart_fifo.c **** /**
 302:bsp/src/bsp_uart_fifo.c ****   * @brief  Uart interrupt config
 303:bsp/src/bsp_uart_fifo.c ****   * @param  _pUart:Uart to use
 304:bsp/src/bsp_uart_fifo.c ****   * @param  _ucaBuf:buffer contain data that will be sent
 305:bsp/src/bsp_uart_fifo.c ****   * @param  _usLen:length of sent data
 306:bsp/src/bsp_uart_fifo.c ****   * @retval None
 307:bsp/src/bsp_uart_fifo.c ****   */
 308:bsp/src/bsp_uart_fifo.c **** static void UartSend(UART_T *_pUart, uint8_t *_ucaBuf, uint16_t _usLen)
 309:bsp/src/bsp_uart_fifo.c **** {
 310:bsp/src/bsp_uart_fifo.c **** 	uint16_t i;
 311:bsp/src/bsp_uart_fifo.c **** 
 312:bsp/src/bsp_uart_fifo.c **** 	for (i = 0; i < _usLen; i++)
 313:bsp/src/bsp_uart_fifo.c **** 	{
 314:bsp/src/bsp_uart_fifo.c **** 		while (1)//wait forever until tx buffer has sapce
 315:bsp/src/bsp_uart_fifo.c **** 		{
 316:bsp/src/bsp_uart_fifo.c **** 			__IO uint16_t usCount;
 317:bsp/src/bsp_uart_fifo.c **** 
 318:bsp/src/bsp_uart_fifo.c **** 			DISABLE_INT();
 319:bsp/src/bsp_uart_fifo.c **** 			usCount = _pUart->usTxCount;
 320:bsp/src/bsp_uart_fifo.c **** 			ENABLE_INT();
 321:bsp/src/bsp_uart_fifo.c **** 
 322:bsp/src/bsp_uart_fifo.c **** 			if (usCount < _pUart->usTxBufSize)
 323:bsp/src/bsp_uart_fifo.c **** 			{
 324:bsp/src/bsp_uart_fifo.c **** 				break;
 325:bsp/src/bsp_uart_fifo.c **** 			}
 326:bsp/src/bsp_uart_fifo.c **** 		}
 327:bsp/src/bsp_uart_fifo.c **** 
 328:bsp/src/bsp_uart_fifo.c **** 		/* copy data to tx buffer*/
 329:bsp/src/bsp_uart_fifo.c **** 		_pUart->pTxBuf[_pUart->usTxWrite] = _ucaBuf[i];
 330:bsp/src/bsp_uart_fifo.c **** 
 331:bsp/src/bsp_uart_fifo.c **** 		DISABLE_INT();
 332:bsp/src/bsp_uart_fifo.c **** 		if (++_pUart->usTxWrite >= _pUart->usTxBufSize)//the tx write point return to the start while rea
 333:bsp/src/bsp_uart_fifo.c **** 		{
 334:bsp/src/bsp_uart_fifo.c **** 			_pUart->usTxWrite = 0;
 335:bsp/src/bsp_uart_fifo.c **** 		}
 336:bsp/src/bsp_uart_fifo.c **** 		_pUart->usTxCount++;
 337:bsp/src/bsp_uart_fifo.c **** 		ENABLE_INT();
 338:bsp/src/bsp_uart_fifo.c **** 	}
 339:bsp/src/bsp_uart_fifo.c **** 
 340:bsp/src/bsp_uart_fifo.c **** 	USART_INTConfig(_pUart->uart, USART_INT_TDE, ENABLE);//enable transmit empty interrupt
 341:bsp/src/bsp_uart_fifo.c **** }
 342:bsp/src/bsp_uart_fifo.c **** 
 343:bsp/src/bsp_uart_fifo.c **** /**
 344:bsp/src/bsp_uart_fifo.c ****   * @brief  Uart interrupt config
ARM GAS  /var/folders/l3/4y5292px21b4835bsnjwqc7w009kq1/T//cc0I0tOZ.s 			page 10


 345:bsp/src/bsp_uart_fifo.c ****   * @param  _pUart:Uart to use
 346:bsp/src/bsp_uart_fifo.c ****   * @param  _pByte:buffer to receive data
 347:bsp/src/bsp_uart_fifo.c ****   * @retval 0:No data received
 348:bsp/src/bsp_uart_fifo.c ****             1:Data read complete
 349:bsp/src/bsp_uart_fifo.c ****   */
 350:bsp/src/bsp_uart_fifo.c **** static uint8_t UartGetChar(UART_T *_pUart, uint8_t *_pByte)
 351:bsp/src/bsp_uart_fifo.c **** {
 177              		.loc 1 351 0
 178              		.cfi_startproc
 179              		@ args = 0, pretend = 0, frame = 0
 180              		@ frame_needed = 0, uses_anonymous_args = 0
 181              	.LVL3:
 182 0000 70B5     		push	{r4, r5, r6, lr}
 183              		.save {r4, r5, r6, lr}
 184              	.LCFI4:
 185              		.cfi_def_cfa_offset 16
 186              		.cfi_offset 4, -16
 187              		.cfi_offset 5, -12
 188              		.cfi_offset 6, -8
 189              		.cfi_offset 14, -4
 190 0002 0446     		mov	r4, r0
 191 0004 0E46     		mov	r6, r1
 352:bsp/src/bsp_uart_fifo.c **** 	uint16_t usCount;
 353:bsp/src/bsp_uart_fifo.c **** 
 354:bsp/src/bsp_uart_fifo.c **** 	DISABLE_INT();
 192              		.loc 1 354 0
 193 0006 FFF7FEFF 		bl	vPortEnterCritical
 194              	.LVL4:
 355:bsp/src/bsp_uart_fifo.c **** 	usCount = _pUart->usRxCount;
 195              		.loc 1 355 0
 196 000a 658B     		ldrh	r5, [r4, #26]
 197 000c ADB2     		uxth	r5, r5
 198              	.LVL5:
 356:bsp/src/bsp_uart_fifo.c **** 	ENABLE_INT();
 199              		.loc 1 356 0
 200 000e FFF7FEFF 		bl	vPortExitCritical
 201              	.LVL6:
 357:bsp/src/bsp_uart_fifo.c **** 
 358:bsp/src/bsp_uart_fifo.c **** 	
 359:bsp/src/bsp_uart_fifo.c **** 	if (usCount == 0)	
 202              		.loc 1 359 0
 203 0012 0DB9     		cbnz	r5, .L15
 360:bsp/src/bsp_uart_fifo.c **** 	{
 361:bsp/src/bsp_uart_fifo.c **** 		return 0;
 204              		.loc 1 361 0
 205 0014 0020     		movs	r0, #0
 206              	.L11:
 362:bsp/src/bsp_uart_fifo.c **** 	}
 363:bsp/src/bsp_uart_fifo.c **** 	else
 364:bsp/src/bsp_uart_fifo.c **** 	{
 365:bsp/src/bsp_uart_fifo.c **** 		*_pByte = _pUart->pRxBuf[_pUart->usRxRead];		
 366:bsp/src/bsp_uart_fifo.c **** 		
 367:bsp/src/bsp_uart_fifo.c **** 		DISABLE_INT();
 368:bsp/src/bsp_uart_fifo.c **** 		if (++_pUart->usRxRead >= _pUart->usRxBufSize)
 369:bsp/src/bsp_uart_fifo.c **** 		{
 370:bsp/src/bsp_uart_fifo.c **** 			_pUart->usRxRead = 0;
 371:bsp/src/bsp_uart_fifo.c **** 		}
ARM GAS  /var/folders/l3/4y5292px21b4835bsnjwqc7w009kq1/T//cc0I0tOZ.s 			page 11


 372:bsp/src/bsp_uart_fifo.c **** 		_pUart->usRxCount--;
 373:bsp/src/bsp_uart_fifo.c **** 		ENABLE_INT();
 374:bsp/src/bsp_uart_fifo.c **** 		return 1;
 375:bsp/src/bsp_uart_fifo.c **** 	}
 376:bsp/src/bsp_uart_fifo.c **** }
 207              		.loc 1 376 0
 208 0016 70BD     		pop	{r4, r5, r6, pc}
 209              	.LVL7:
 210              	.L15:
 365:bsp/src/bsp_uart_fifo.c **** 		
 211              		.loc 1 365 0
 212 0018 A268     		ldr	r2, [r4, #8]
 213 001a 238B     		ldrh	r3, [r4, #24]
 214 001c 9BB2     		uxth	r3, r3
 215 001e D35C     		ldrb	r3, [r2, r3]	@ zero_extendqisi2
 216 0020 3370     		strb	r3, [r6]
 367:bsp/src/bsp_uart_fifo.c **** 		if (++_pUart->usRxRead >= _pUart->usRxBufSize)
 217              		.loc 1 367 0
 218 0022 FFF7FEFF 		bl	vPortEnterCritical
 219              	.LVL8:
 368:bsp/src/bsp_uart_fifo.c **** 		{
 220              		.loc 1 368 0
 221 0026 238B     		ldrh	r3, [r4, #24]
 222 0028 0133     		adds	r3, r3, #1
 223 002a 9BB2     		uxth	r3, r3
 224 002c 2383     		strh	r3, [r4, #24]	@ movhi
 225 002e E289     		ldrh	r2, [r4, #14]
 226 0030 9342     		cmp	r3, r2
 227 0032 01D3     		bcc	.L12
 370:bsp/src/bsp_uart_fifo.c **** 		}
 228              		.loc 1 370 0
 229 0034 0023     		movs	r3, #0
 230 0036 2383     		strh	r3, [r4, #24]	@ movhi
 231              	.L12:
 372:bsp/src/bsp_uart_fifo.c **** 		ENABLE_INT();
 232              		.loc 1 372 0
 233 0038 638B     		ldrh	r3, [r4, #26]
 234 003a 013B     		subs	r3, r3, #1
 235 003c 9BB2     		uxth	r3, r3
 236 003e 6383     		strh	r3, [r4, #26]	@ movhi
 373:bsp/src/bsp_uart_fifo.c **** 		return 1;
 237              		.loc 1 373 0
 238 0040 FFF7FEFF 		bl	vPortExitCritical
 239              	.LVL9:
 374:bsp/src/bsp_uart_fifo.c **** 	}
 240              		.loc 1 374 0
 241 0044 0120     		movs	r0, #1
 242 0046 E6E7     		b	.L11
 243              		.cfi_endproc
 244              	.LFE148:
 245              		.fnend
 247              		.section	.text._ZL8UartSendP6UART_TPht,"ax",%progbits
 248              		.align	1
 249              		.syntax unified
 250              		.thumb
 251              		.thumb_func
 252              		.fpu fpv4-sp-d16
ARM GAS  /var/folders/l3/4y5292px21b4835bsnjwqc7w009kq1/T//cc0I0tOZ.s 			page 12


 254              	_ZL8UartSendP6UART_TPht:
 255              		.fnstart
 256              	.LFB147:
 309:bsp/src/bsp_uart_fifo.c **** 	uint16_t i;
 257              		.loc 1 309 0
 258              		.cfi_startproc
 259              		@ args = 0, pretend = 0, frame = 8
 260              		@ frame_needed = 0, uses_anonymous_args = 0
 261              	.LVL10:
 262 0000 F0B5     		push	{r4, r5, r6, r7, lr}
 263              		.save {r4, r5, r6, r7, lr}
 264              	.LCFI5:
 265              		.cfi_def_cfa_offset 20
 266              		.cfi_offset 4, -20
 267              		.cfi_offset 5, -16
 268              		.cfi_offset 6, -12
 269              		.cfi_offset 7, -8
 270              		.cfi_offset 14, -4
 271              		.pad #12
 272 0002 83B0     		sub	sp, sp, #12
 273              	.LCFI6:
 274              		.cfi_def_cfa_offset 32
 275 0004 0446     		mov	r4, r0
 276 0006 0F46     		mov	r7, r1
 277 0008 1646     		mov	r6, r2
 278              	.LVL11:
 279              	.LBB2:
 312:bsp/src/bsp_uart_fifo.c **** 	{
 280              		.loc 1 312 0
 281 000a 0025     		movs	r5, #0
 282 000c 07E0     		b	.L20
 283              	.LVL12:
 284              	.L19:
 285              	.LBB3:
 336:bsp/src/bsp_uart_fifo.c **** 		ENABLE_INT();
 286              		.loc 1 336 0 discriminator 2
 287 000e A38A     		ldrh	r3, [r4, #20]
 288 0010 0133     		adds	r3, r3, #1
 289 0012 9BB2     		uxth	r3, r3
 290 0014 A382     		strh	r3, [r4, #20]	@ movhi
 337:bsp/src/bsp_uart_fifo.c **** 	}
 291              		.loc 1 337 0 discriminator 2
 292 0016 FFF7FEFF 		bl	vPortExitCritical
 293              	.LVL13:
 294              	.LBE3:
 312:bsp/src/bsp_uart_fifo.c **** 	{
 295              		.loc 1 312 0 discriminator 2
 296 001a 0135     		adds	r5, r5, #1
 297              	.LVL14:
 298 001c ADB2     		uxth	r5, r5
 299              	.LVL15:
 300              	.L20:
 312:bsp/src/bsp_uart_fifo.c **** 	{
 301              		.loc 1 312 0 is_stmt 0 discriminator 1
 302 001e B542     		cmp	r5, r6
 303 0020 1ED2     		bcs	.L17
 304              	.L18:
ARM GAS  /var/folders/l3/4y5292px21b4835bsnjwqc7w009kq1/T//cc0I0tOZ.s 			page 13


 305              	.LBB5:
 306              	.LBB4:
 318:bsp/src/bsp_uart_fifo.c **** 			usCount = _pUart->usTxCount;
 307              		.loc 1 318 0 is_stmt 1
 308 0022 FFF7FEFF 		bl	vPortEnterCritical
 309              	.LVL16:
 319:bsp/src/bsp_uart_fifo.c **** 			ENABLE_INT();
 310              		.loc 1 319 0
 311 0026 A38A     		ldrh	r3, [r4, #20]
 312 0028 9BB2     		uxth	r3, r3
 313 002a ADF80630 		strh	r3, [sp, #6]	@ movhi
 320:bsp/src/bsp_uart_fifo.c **** 
 314              		.loc 1 320 0
 315 002e FFF7FEFF 		bl	vPortExitCritical
 316              	.LVL17:
 322:bsp/src/bsp_uart_fifo.c **** 			{
 317              		.loc 1 322 0
 318 0032 A289     		ldrh	r2, [r4, #12]
 319 0034 BDF80630 		ldrh	r3, [sp, #6]
 320 0038 9BB2     		uxth	r3, r3
 321 003a 9A42     		cmp	r2, r3
 322 003c F1D9     		bls	.L18
 323              	.LBE4:
 329:bsp/src/bsp_uart_fifo.c **** 
 324              		.loc 1 329 0
 325 003e 6268     		ldr	r2, [r4, #4]
 326 0040 238A     		ldrh	r3, [r4, #16]
 327 0042 9BB2     		uxth	r3, r3
 328 0044 795D     		ldrb	r1, [r7, r5]	@ zero_extendqisi2
 329 0046 D154     		strb	r1, [r2, r3]
 331:bsp/src/bsp_uart_fifo.c **** 		if (++_pUart->usTxWrite >= _pUart->usTxBufSize)//the tx write point return to the start while rea
 330              		.loc 1 331 0
 331 0048 FFF7FEFF 		bl	vPortEnterCritical
 332              	.LVL18:
 332:bsp/src/bsp_uart_fifo.c **** 		{
 333              		.loc 1 332 0
 334 004c 238A     		ldrh	r3, [r4, #16]
 335 004e 0133     		adds	r3, r3, #1
 336 0050 9BB2     		uxth	r3, r3
 337 0052 2382     		strh	r3, [r4, #16]	@ movhi
 338 0054 A289     		ldrh	r2, [r4, #12]
 339 0056 9342     		cmp	r3, r2
 340 0058 D9D3     		bcc	.L19
 334:bsp/src/bsp_uart_fifo.c **** 		}
 341              		.loc 1 334 0
 342 005a 0023     		movs	r3, #0
 343 005c 2382     		strh	r3, [r4, #16]	@ movhi
 344 005e D6E7     		b	.L19
 345              	.L17:
 346              	.LBE5:
 347              	.LBE2:
 340:bsp/src/bsp_uart_fifo.c **** }
 348              		.loc 1 340 0
 349 0060 0122     		movs	r2, #1
 350 0062 40F22771 		movw	r1, #1831
 351 0066 2068     		ldr	r0, [r4]
 352 0068 FFF7FEFF 		bl	USART_INTConfig
ARM GAS  /var/folders/l3/4y5292px21b4835bsnjwqc7w009kq1/T//cc0I0tOZ.s 			page 14


 353              	.LVL19:
 341:bsp/src/bsp_uart_fifo.c **** 
 354              		.loc 1 341 0
 355 006c 03B0     		add	sp, sp, #12
 356              	.LCFI7:
 357              		.cfi_def_cfa_offset 20
 358              		@ sp needed
 359 006e F0BD     		pop	{r4, r5, r6, r7, pc}
 360              		.cfi_endproc
 361              	.LFE147:
 362              		.fnend
 364              		.section	.text._ZL7UartIRQP6UART_T,"ax",%progbits
 365              		.align	1
 366              		.syntax unified
 367              		.thumb
 368              		.thumb_func
 369              		.fpu fpv4-sp-d16
 371              	_ZL7UartIRQP6UART_T:
 372              		.fnstart
 373              	.LFB149:
 377:bsp/src/bsp_uart_fifo.c **** 
 378:bsp/src/bsp_uart_fifo.c **** /**
 379:bsp/src/bsp_uart_fifo.c ****   * @brief  Uart interrupt config
 380:bsp/src/bsp_uart_fifo.c ****   * @param  _pUart:Uart to use
 381:bsp/src/bsp_uart_fifo.c ****   * @retval None
 382:bsp/src/bsp_uart_fifo.c ****   */
 383:bsp/src/bsp_uart_fifo.c **** static void UartIRQ(UART_T *_pUart)
 384:bsp/src/bsp_uart_fifo.c **** {
 374              		.loc 1 384 0
 375              		.cfi_startproc
 376              		@ args = 0, pretend = 0, frame = 0
 377              		@ frame_needed = 0, uses_anonymous_args = 0
 378              	.LVL20:
 379 0000 10B5     		push	{r4, lr}
 380              		.save {r4, lr}
 381              	.LCFI8:
 382              		.cfi_def_cfa_offset 8
 383              		.cfi_offset 4, -8
 384              		.cfi_offset 14, -4
 385 0002 0446     		mov	r4, r0
 386              	.LBB6:
 385:bsp/src/bsp_uart_fifo.c **** 	//receive data process
 386:bsp/src/bsp_uart_fifo.c **** 	if (USART_GetITStatus(_pUart->uart, USART_INT_RDNE) != RESET)
 387              		.loc 1 386 0
 388 0004 40F22551 		movw	r1, #1317
 389 0008 0068     		ldr	r0, [r0]
 390              	.LVL21:
 391 000a FFF7FEFF 		bl	USART_GetITStatus
 392              	.LVL22:
 393 000e F8B9     		cbnz	r0, .L33
 394              	.L23:
 395              	.LBE6:
 387:bsp/src/bsp_uart_fifo.c **** 	{
 388:bsp/src/bsp_uart_fifo.c **** 		uint8_t ch;
 389:bsp/src/bsp_uart_fifo.c **** 
 390:bsp/src/bsp_uart_fifo.c **** 		ch = USART_ReceiveData(_pUart->uart);
 391:bsp/src/bsp_uart_fifo.c **** 		_pUart->pRxBuf[_pUart->usRxWrite] = ch;
ARM GAS  /var/folders/l3/4y5292px21b4835bsnjwqc7w009kq1/T//cc0I0tOZ.s 			page 15


 392:bsp/src/bsp_uart_fifo.c **** 		if (++_pUart->usRxWrite >= _pUart->usRxBufSize)
 393:bsp/src/bsp_uart_fifo.c **** 		{
 394:bsp/src/bsp_uart_fifo.c **** 			_pUart->usRxWrite = 0;
 395:bsp/src/bsp_uart_fifo.c **** 		}
 396:bsp/src/bsp_uart_fifo.c **** 		if (_pUart->usRxCount < _pUart->usRxBufSize)
 397:bsp/src/bsp_uart_fifo.c **** 		{
 398:bsp/src/bsp_uart_fifo.c **** 			_pUart->usRxCount++;
 399:bsp/src/bsp_uart_fifo.c **** 		}
 400:bsp/src/bsp_uart_fifo.c **** 
 401:bsp/src/bsp_uart_fifo.c **** 		//if (_pUart->usRxWrite == _pUart->usRxRead)
 402:bsp/src/bsp_uart_fifo.c **** 		//if (_pUart->usRxCount == 1)
 403:bsp/src/bsp_uart_fifo.c **** 		{
 404:bsp/src/bsp_uart_fifo.c **** 			if (_pUart->ReciveNew)
 405:bsp/src/bsp_uart_fifo.c **** 			{
 406:bsp/src/bsp_uart_fifo.c **** 				_pUart->ReciveNew(ch);
 407:bsp/src/bsp_uart_fifo.c **** 			}
 408:bsp/src/bsp_uart_fifo.c **** 		}
 409:bsp/src/bsp_uart_fifo.c **** 	}
 410:bsp/src/bsp_uart_fifo.c **** 
 411:bsp/src/bsp_uart_fifo.c ****     //transmit data process
 412:bsp/src/bsp_uart_fifo.c **** 	if (USART_GetITStatus(_pUart->uart, USART_INT_TDE) != RESET)
 396              		.loc 1 412 0
 397 0010 40F22771 		movw	r1, #1831
 398 0014 2068     		ldr	r0, [r4]
 399 0016 FFF7FEFF 		bl	USART_GetITStatus
 400              	.LVL23:
 401 001a 0028     		cmp	r0, #0
 402 001c 43D0     		beq	.L26
 413:bsp/src/bsp_uart_fifo.c **** 	{
 414:bsp/src/bsp_uart_fifo.c **** 		//if (_pUart->usTxRead == _pUart->usTxWrite)
 415:bsp/src/bsp_uart_fifo.c **** 		if (_pUart->usTxCount == 0)
 403              		.loc 1 415 0
 404 001e A38A     		ldrh	r3, [r4, #20]
 405 0020 9BB2     		uxth	r3, r3
 406 0022 002B     		cmp	r3, #0
 407 0024 32D0     		beq	.L34
 416:bsp/src/bsp_uart_fifo.c **** 		{
 417:bsp/src/bsp_uart_fifo.c **** 			USART_INTConfig(_pUart->uart, USART_INT_TDE, DISABLE);
 418:bsp/src/bsp_uart_fifo.c **** 			USART_INTConfig(_pUart->uart, USART_INT_TRAC, ENABLE);
 419:bsp/src/bsp_uart_fifo.c **** 		}
 420:bsp/src/bsp_uart_fifo.c **** 		else
 421:bsp/src/bsp_uart_fifo.c **** 		{
 422:bsp/src/bsp_uart_fifo.c **** 			USART_SendData(_pUart->uart, _pUart->pTxBuf[_pUart->usTxRead]);
 408              		.loc 1 422 0
 409 0026 6268     		ldr	r2, [r4, #4]
 410 0028 638A     		ldrh	r3, [r4, #18]
 411 002a 9BB2     		uxth	r3, r3
 412 002c D15C     		ldrb	r1, [r2, r3]	@ zero_extendqisi2
 413 002e 2068     		ldr	r0, [r4]
 414 0030 FFF7FEFF 		bl	USART_SendData
 415              	.LVL24:
 423:bsp/src/bsp_uart_fifo.c **** 			if (++_pUart->usTxRead >= _pUart->usTxBufSize)
 416              		.loc 1 423 0
 417 0034 638A     		ldrh	r3, [r4, #18]
 418 0036 0133     		adds	r3, r3, #1
 419 0038 9BB2     		uxth	r3, r3
 420 003a 6382     		strh	r3, [r4, #18]	@ movhi
ARM GAS  /var/folders/l3/4y5292px21b4835bsnjwqc7w009kq1/T//cc0I0tOZ.s 			page 16


 421 003c A289     		ldrh	r2, [r4, #12]
 422 003e 9342     		cmp	r3, r2
 423 0040 01D3     		bcc	.L29
 424:bsp/src/bsp_uart_fifo.c **** 			{
 425:bsp/src/bsp_uart_fifo.c **** 				_pUart->usTxRead = 0;
 424              		.loc 1 425 0
 425 0042 0023     		movs	r3, #0
 426 0044 6382     		strh	r3, [r4, #18]	@ movhi
 427              	.L29:
 426:bsp/src/bsp_uart_fifo.c **** 			}
 427:bsp/src/bsp_uart_fifo.c **** 			_pUart->usTxCount--;
 428              		.loc 1 427 0
 429 0046 A38A     		ldrh	r3, [r4, #20]
 430 0048 013B     		subs	r3, r3, #1
 431 004a 9BB2     		uxth	r3, r3
 432 004c A382     		strh	r3, [r4, #20]	@ movhi
 433              	.L22:
 428:bsp/src/bsp_uart_fifo.c **** 		}
 429:bsp/src/bsp_uart_fifo.c **** 
 430:bsp/src/bsp_uart_fifo.c **** 	}
 431:bsp/src/bsp_uart_fifo.c **** 	else if (USART_GetITStatus(_pUart->uart, USART_INT_TRAC) != RESET)
 432:bsp/src/bsp_uart_fifo.c **** 	{
 433:bsp/src/bsp_uart_fifo.c **** 		//if (_pUart->usTxRead == _pUart->usTxWrite)
 434:bsp/src/bsp_uart_fifo.c **** 		if (_pUart->usTxCount == 0)
 435:bsp/src/bsp_uart_fifo.c **** 		{
 436:bsp/src/bsp_uart_fifo.c **** 		
 437:bsp/src/bsp_uart_fifo.c **** 			USART_INTConfig(_pUart->uart, USART_INT_TRAC, DISABLE);
 438:bsp/src/bsp_uart_fifo.c **** 
 439:bsp/src/bsp_uart_fifo.c **** 			if (_pUart->SendOver)
 440:bsp/src/bsp_uart_fifo.c **** 			{
 441:bsp/src/bsp_uart_fifo.c **** 				_pUart->SendOver();
 442:bsp/src/bsp_uart_fifo.c **** 			}
 443:bsp/src/bsp_uart_fifo.c **** 		}
 444:bsp/src/bsp_uart_fifo.c **** 		else
 445:bsp/src/bsp_uart_fifo.c **** 		{
 446:bsp/src/bsp_uart_fifo.c **** 			USART_SendData(_pUart->uart, _pUart->pTxBuf[_pUart->usTxRead]);
 447:bsp/src/bsp_uart_fifo.c **** 			if (++_pUart->usTxRead >= _pUart->usTxBufSize)
 448:bsp/src/bsp_uart_fifo.c **** 			{
 449:bsp/src/bsp_uart_fifo.c **** 				_pUart->usTxRead = 0;
 450:bsp/src/bsp_uart_fifo.c **** 			}
 451:bsp/src/bsp_uart_fifo.c **** 			_pUart->usTxCount--;
 452:bsp/src/bsp_uart_fifo.c **** 		}
 453:bsp/src/bsp_uart_fifo.c **** 	}
 454:bsp/src/bsp_uart_fifo.c **** }
 434              		.loc 1 454 0
 435 004e 10BD     		pop	{r4, pc}
 436              	.LVL25:
 437              	.L33:
 438              	.LBB8:
 439              	.LBB7:
 390:bsp/src/bsp_uart_fifo.c **** 		_pUart->pRxBuf[_pUart->usRxWrite] = ch;
 440              		.loc 1 390 0
 441 0050 2068     		ldr	r0, [r4]
 442 0052 FFF7FEFF 		bl	USART_ReceiveData
 443              	.LVL26:
 444 0056 C0B2     		uxtb	r0, r0
 445              	.LVL27:
ARM GAS  /var/folders/l3/4y5292px21b4835bsnjwqc7w009kq1/T//cc0I0tOZ.s 			page 17


 391:bsp/src/bsp_uart_fifo.c **** 		if (++_pUart->usRxWrite >= _pUart->usRxBufSize)
 446              		.loc 1 391 0
 447 0058 A268     		ldr	r2, [r4, #8]
 448 005a E38A     		ldrh	r3, [r4, #22]
 449 005c 9BB2     		uxth	r3, r3
 450 005e D054     		strb	r0, [r2, r3]
 392:bsp/src/bsp_uart_fifo.c **** 		{
 451              		.loc 1 392 0
 452 0060 E38A     		ldrh	r3, [r4, #22]
 453 0062 0133     		adds	r3, r3, #1
 454 0064 9BB2     		uxth	r3, r3
 455 0066 E382     		strh	r3, [r4, #22]	@ movhi
 456 0068 E289     		ldrh	r2, [r4, #14]
 457 006a 9342     		cmp	r3, r2
 458 006c 01D3     		bcc	.L24
 394:bsp/src/bsp_uart_fifo.c **** 		}
 459              		.loc 1 394 0
 460 006e 0023     		movs	r3, #0
 461 0070 E382     		strh	r3, [r4, #22]	@ movhi
 462              	.L24:
 396:bsp/src/bsp_uart_fifo.c **** 		{
 463              		.loc 1 396 0
 464 0072 638B     		ldrh	r3, [r4, #26]
 465 0074 9BB2     		uxth	r3, r3
 466 0076 9A42     		cmp	r2, r3
 467 0078 03D9     		bls	.L25
 398:bsp/src/bsp_uart_fifo.c **** 		}
 468              		.loc 1 398 0
 469 007a 638B     		ldrh	r3, [r4, #26]
 470 007c 0133     		adds	r3, r3, #1
 471 007e 9BB2     		uxth	r3, r3
 472 0080 6383     		strh	r3, [r4, #26]	@ movhi
 473              	.L25:
 404:bsp/src/bsp_uart_fifo.c **** 			{
 474              		.loc 1 404 0
 475 0082 636A     		ldr	r3, [r4, #36]
 476 0084 002B     		cmp	r3, #0
 477 0086 C3D0     		beq	.L23
 406:bsp/src/bsp_uart_fifo.c **** 			}
 478              		.loc 1 406 0
 479 0088 9847     		blx	r3
 480              	.LVL28:
 481 008a C1E7     		b	.L23
 482              	.L34:
 483              	.LBE7:
 484              	.LBE8:
 417:bsp/src/bsp_uart_fifo.c **** 			USART_INTConfig(_pUart->uart, USART_INT_TRAC, ENABLE);
 485              		.loc 1 417 0
 486 008c 0022     		movs	r2, #0
 487 008e 40F22771 		movw	r1, #1831
 488 0092 2068     		ldr	r0, [r4]
 489 0094 FFF7FEFF 		bl	USART_INTConfig
 490              	.LVL29:
 418:bsp/src/bsp_uart_fifo.c **** 		}
 491              		.loc 1 418 0
 492 0098 0122     		movs	r2, #1
 493 009a 40F22661 		movw	r1, #1574
ARM GAS  /var/folders/l3/4y5292px21b4835bsnjwqc7w009kq1/T//cc0I0tOZ.s 			page 18


 494 009e 2068     		ldr	r0, [r4]
 495 00a0 FFF7FEFF 		bl	USART_INTConfig
 496              	.LVL30:
 497 00a4 D3E7     		b	.L22
 498              	.L26:
 431:bsp/src/bsp_uart_fifo.c **** 	{
 499              		.loc 1 431 0
 500 00a6 40F22661 		movw	r1, #1574
 501 00aa 2068     		ldr	r0, [r4]
 502 00ac FFF7FEFF 		bl	USART_GetITStatus
 503              	.LVL31:
 504 00b0 0028     		cmp	r0, #0
 505 00b2 CCD0     		beq	.L22
 434:bsp/src/bsp_uart_fifo.c **** 		{
 506              		.loc 1 434 0
 507 00b4 A38A     		ldrh	r3, [r4, #20]
 508 00b6 9BB2     		uxth	r3, r3
 509 00b8 53B9     		cbnz	r3, .L30
 437:bsp/src/bsp_uart_fifo.c **** 
 510              		.loc 1 437 0
 511 00ba 0022     		movs	r2, #0
 512 00bc 40F22661 		movw	r1, #1574
 513 00c0 2068     		ldr	r0, [r4]
 514 00c2 FFF7FEFF 		bl	USART_INTConfig
 515              	.LVL32:
 439:bsp/src/bsp_uart_fifo.c **** 			{
 516              		.loc 1 439 0
 517 00c6 236A     		ldr	r3, [r4, #32]
 518 00c8 002B     		cmp	r3, #0
 519 00ca C0D0     		beq	.L22
 441:bsp/src/bsp_uart_fifo.c **** 			}
 520              		.loc 1 441 0
 521 00cc 9847     		blx	r3
 522              	.LVL33:
 523 00ce BEE7     		b	.L22
 524              	.L30:
 446:bsp/src/bsp_uart_fifo.c **** 			if (++_pUart->usTxRead >= _pUart->usTxBufSize)
 525              		.loc 1 446 0
 526 00d0 6268     		ldr	r2, [r4, #4]
 527 00d2 638A     		ldrh	r3, [r4, #18]
 528 00d4 9BB2     		uxth	r3, r3
 529 00d6 D15C     		ldrb	r1, [r2, r3]	@ zero_extendqisi2
 530 00d8 2068     		ldr	r0, [r4]
 531 00da FFF7FEFF 		bl	USART_SendData
 532              	.LVL34:
 447:bsp/src/bsp_uart_fifo.c **** 			{
 533              		.loc 1 447 0
 534 00de 638A     		ldrh	r3, [r4, #18]
 535 00e0 0133     		adds	r3, r3, #1
 536 00e2 9BB2     		uxth	r3, r3
 537 00e4 6382     		strh	r3, [r4, #18]	@ movhi
 538 00e6 A289     		ldrh	r2, [r4, #12]
 539 00e8 9342     		cmp	r3, r2
 540 00ea 01D3     		bcc	.L31
 449:bsp/src/bsp_uart_fifo.c **** 			}
 541              		.loc 1 449 0
 542 00ec 0023     		movs	r3, #0
ARM GAS  /var/folders/l3/4y5292px21b4835bsnjwqc7w009kq1/T//cc0I0tOZ.s 			page 19


 543 00ee 6382     		strh	r3, [r4, #18]	@ movhi
 544              	.L31:
 451:bsp/src/bsp_uart_fifo.c **** 		}
 545              		.loc 1 451 0
 546 00f0 A38A     		ldrh	r3, [r4, #20]
 547 00f2 013B     		subs	r3, r3, #1
 548 00f4 9BB2     		uxth	r3, r3
 549 00f6 A382     		strh	r3, [r4, #20]	@ movhi
 550              		.loc 1 454 0
 551 00f8 A9E7     		b	.L22
 552              		.cfi_endproc
 553              	.LFE149:
 554              		.fnend
 556              		.section	.text._Z12bsp_InitUartv,"ax",%progbits
 557              		.align	1
 558              		.global	_Z12bsp_InitUartv
 559              		.syntax unified
 560              		.thumb
 561              		.thumb_func
 562              		.fpu fpv4-sp-d16
 564              	_Z12bsp_InitUartv:
 565              		.fnstart
 566              	.LFB136:
  60:bsp/src/bsp_uart_fifo.c **** 	UartVarInit();		/* initialize all global parameters */
 567              		.loc 1 60 0
 568              		.cfi_startproc
 569              		@ args = 0, pretend = 0, frame = 0
 570              		@ frame_needed = 0, uses_anonymous_args = 0
 571 0000 08B5     		push	{r3, lr}
 572              		.save {r3, lr}
 573              	.LCFI9:
 574              		.cfi_def_cfa_offset 8
 575              		.cfi_offset 3, -8
 576              		.cfi_offset 14, -4
  61:bsp/src/bsp_uart_fifo.c **** 
 577              		.loc 1 61 0
 578 0002 FFF7FEFF 		bl	_ZL11UartVarInitv
 579              	.LVL35:
  63:bsp/src/bsp_uart_fifo.c **** 
 580              		.loc 1 63 0
 581 0006 FFF7FEFF 		bl	_ZL12InitHardUartv
 582              	.LVL36:
  65:bsp/src/bsp_uart_fifo.c **** }
 583              		.loc 1 65 0
 584 000a FFF7FEFF 		bl	_ZL14ConfigUartNVICv
 585              	.LVL37:
  66:bsp/src/bsp_uart_fifo.c **** 
 586              		.loc 1 66 0
 587 000e 08BD     		pop	{r3, pc}
 588              		.cfi_endproc
 589              	.LFE136:
 590              		.fnend
 592              		.section	.text._Z9ComToUart10COM_PORT_E,"ax",%progbits
 593              		.align	1
 594              		.global	_Z9ComToUart10COM_PORT_E
 595              		.syntax unified
 596              		.thumb
ARM GAS  /var/folders/l3/4y5292px21b4835bsnjwqc7w009kq1/T//cc0I0tOZ.s 			page 20


 597              		.thumb_func
 598              		.fpu fpv4-sp-d16
 600              	_Z9ComToUart10COM_PORT_E:
 601              		.fnstart
 602              	.LFB137:
  81:bsp/src/bsp_uart_fifo.c **** 	if (_ucPort == COM1)
 603              		.loc 1 81 0
 604              		.cfi_startproc
 605              		@ args = 0, pretend = 0, frame = 0
 606              		@ frame_needed = 0, uses_anonymous_args = 0
 607              		@ link register save eliminated.
 608              	.LVL38:
  82:bsp/src/bsp_uart_fifo.c **** 	{
 609              		.loc 1 82 0
 610 0000 08B9     		cbnz	r0, .L39
  85:bsp/src/bsp_uart_fifo.c **** 		#else
 611              		.loc 1 85 0
 612 0002 0248     		ldr	r0, .L40
 613              	.LVL39:
 614 0004 7047     		bx	lr
 615              	.LVL40:
 616              	.L39:
  92:bsp/src/bsp_uart_fifo.c **** 	}
 617              		.loc 1 92 0
 618 0006 0020     		movs	r0, #0
 619              	.LVL41:
  94:bsp/src/bsp_uart_fifo.c **** 
 620              		.loc 1 94 0
 621 0008 7047     		bx	lr
 622              	.L41:
 623 000a 00BF     		.align	2
 624              	.L40:
 625 000c 00000000 		.word	.LANCHOR0
 626              		.cfi_endproc
 627              	.LFE137:
 628              		.cantunwind
 629              		.fnend
 631              		.section	.text._Z10comSendBuf10COM_PORT_EPht,"ax",%progbits
 632              		.align	1
 633              		.global	_Z10comSendBuf10COM_PORT_EPht
 634              		.syntax unified
 635              		.thumb
 636              		.thumb_func
 637              		.fpu fpv4-sp-d16
 639              	_Z10comSendBuf10COM_PORT_EPht:
 640              		.fnstart
 641              	.LFB138:
 110:bsp/src/bsp_uart_fifo.c **** 	UART_T *pUart;
 642              		.loc 1 110 0
 643              		.cfi_startproc
 644              		@ args = 0, pretend = 0, frame = 0
 645              		@ frame_needed = 0, uses_anonymous_args = 0
 646              	.LVL42:
 647 0000 70B5     		push	{r4, r5, r6, lr}
 648              		.save {r4, r5, r6, lr}
 649              	.LCFI10:
 650              		.cfi_def_cfa_offset 16
ARM GAS  /var/folders/l3/4y5292px21b4835bsnjwqc7w009kq1/T//cc0I0tOZ.s 			page 21


 651              		.cfi_offset 4, -16
 652              		.cfi_offset 5, -12
 653              		.cfi_offset 6, -8
 654              		.cfi_offset 14, -4
 655 0002 0D46     		mov	r5, r1
 656 0004 1646     		mov	r6, r2
 113:bsp/src/bsp_uart_fifo.c **** 	if (pUart == 0)
 657              		.loc 1 113 0
 658 0006 FFF7FEFF 		bl	_Z9ComToUart10COM_PORT_E
 659              	.LVL43:
 114:bsp/src/bsp_uart_fifo.c **** 	{
 660              		.loc 1 114 0
 661 000a 40B1     		cbz	r0, .L42
 662 000c 0446     		mov	r4, r0
 119:bsp/src/bsp_uart_fifo.c **** 	{
 663              		.loc 1 119 0
 664 000e C369     		ldr	r3, [r0, #28]
 665 0010 03B1     		cbz	r3, .L44
 121:bsp/src/bsp_uart_fifo.c **** 	}
 666              		.loc 1 121 0
 667 0012 9847     		blx	r3
 668              	.LVL44:
 669              	.L44:
 124:bsp/src/bsp_uart_fifo.c **** }
 670              		.loc 1 124 0
 671 0014 3246     		mov	r2, r6
 672 0016 2946     		mov	r1, r5
 673 0018 2046     		mov	r0, r4
 674 001a FFF7FEFF 		bl	_ZL8UartSendP6UART_TPht
 675              	.LVL45:
 676              	.L42:
 125:bsp/src/bsp_uart_fifo.c **** 
 677              		.loc 1 125 0
 678 001e 70BD     		pop	{r4, r5, r6, pc}
 679              		.cfi_endproc
 680              	.LFE138:
 681              		.fnend
 683              		.section	.text._Z11comSendChar10COM_PORT_Eh,"ax",%progbits
 684              		.align	1
 685              		.global	_Z11comSendChar10COM_PORT_Eh
 686              		.syntax unified
 687              		.thumb
 688              		.thumb_func
 689              		.fpu fpv4-sp-d16
 691              	_Z11comSendChar10COM_PORT_Eh:
 692              		.fnstart
 693              	.LFB139:
 141:bsp/src/bsp_uart_fifo.c **** 	comSendBuf(_ucPort, &_ucByte, 1);
 694              		.loc 1 141 0
 695              		.cfi_startproc
 696              		@ args = 0, pretend = 0, frame = 8
 697              		@ frame_needed = 0, uses_anonymous_args = 0
 698              	.LVL46:
 699 0000 00B5     		push	{lr}
 700              		.save {lr}
 701              	.LCFI11:
 702              		.cfi_def_cfa_offset 4
ARM GAS  /var/folders/l3/4y5292px21b4835bsnjwqc7w009kq1/T//cc0I0tOZ.s 			page 22


 703              		.cfi_offset 14, -4
 704              		.pad #12
 705 0002 83B0     		sub	sp, sp, #12
 706              	.LCFI12:
 707              		.cfi_def_cfa_offset 16
 708 0004 02AB     		add	r3, sp, #8
 709 0006 03F8011D 		strb	r1, [r3, #-1]!
 142:bsp/src/bsp_uart_fifo.c **** }
 710              		.loc 1 142 0
 711 000a 0122     		movs	r2, #1
 712 000c 1946     		mov	r1, r3
 713              	.LVL47:
 714 000e FFF7FEFF 		bl	_Z10comSendBuf10COM_PORT_EPht
 715              	.LVL48:
 143:bsp/src/bsp_uart_fifo.c **** 
 716              		.loc 1 143 0
 717 0012 03B0     		add	sp, sp, #12
 718              	.LCFI13:
 719              		.cfi_def_cfa_offset 4
 720              		@ sp needed
 721 0014 5DF804FB 		ldr	pc, [sp], #4
 722              		.cfi_endproc
 723              	.LFE139:
 724              		.fnend
 726              		.section	.text._Z10comGetChar10COM_PORT_EPh,"ax",%progbits
 727              		.align	1
 728              		.global	_Z10comGetChar10COM_PORT_EPh
 729              		.syntax unified
 730              		.thumb
 731              		.thumb_func
 732              		.fpu fpv4-sp-d16
 734              	_Z10comGetChar10COM_PORT_EPh:
 735              		.fnstart
 736              	.LFB140:
 159:bsp/src/bsp_uart_fifo.c **** 	UART_T *pUart;
 737              		.loc 1 159 0
 738              		.cfi_startproc
 739              		@ args = 0, pretend = 0, frame = 0
 740              		@ frame_needed = 0, uses_anonymous_args = 0
 741              	.LVL49:
 742 0000 10B5     		push	{r4, lr}
 743              		.save {r4, lr}
 744              	.LCFI14:
 745              		.cfi_def_cfa_offset 8
 746              		.cfi_offset 4, -8
 747              		.cfi_offset 14, -4
 748 0002 0C46     		mov	r4, r1
 162:bsp/src/bsp_uart_fifo.c **** 	if (pUart == 0)
 749              		.loc 1 162 0
 750 0004 FFF7FEFF 		bl	_Z9ComToUart10COM_PORT_E
 751              	.LVL50:
 163:bsp/src/bsp_uart_fifo.c **** 	{
 752              		.loc 1 163 0
 753 0008 18B1     		cbz	r0, .L50
 168:bsp/src/bsp_uart_fifo.c **** }
 754              		.loc 1 168 0
 755 000a 2146     		mov	r1, r4
ARM GAS  /var/folders/l3/4y5292px21b4835bsnjwqc7w009kq1/T//cc0I0tOZ.s 			page 23


 756 000c FFF7FEFF 		bl	_ZL11UartGetCharP6UART_TPh
 757              	.LVL51:
 758              	.L49:
 169:bsp/src/bsp_uart_fifo.c **** 
 759              		.loc 1 169 0
 760 0010 10BD     		pop	{r4, pc}
 761              	.LVL52:
 762              	.L50:
 165:bsp/src/bsp_uart_fifo.c **** 	}
 763              		.loc 1 165 0
 764 0012 0020     		movs	r0, #0
 765              	.LVL53:
 766 0014 FCE7     		b	.L49
 767              		.cfi_endproc
 768              	.LFE140:
 769              		.fnend
 771              		.section	.text._Z14comClearTxFifo10COM_PORT_E,"ax",%progbits
 772              		.align	1
 773              		.global	_Z14comClearTxFifo10COM_PORT_E
 774              		.syntax unified
 775              		.thumb
 776              		.thumb_func
 777              		.fpu fpv4-sp-d16
 779              	_Z14comClearTxFifo10COM_PORT_E:
 780              		.fnstart
 781              	.LFB141:
 183:bsp/src/bsp_uart_fifo.c **** 	UART_T *pUart;
 782              		.loc 1 183 0
 783              		.cfi_startproc
 784              		@ args = 0, pretend = 0, frame = 0
 785              		@ frame_needed = 0, uses_anonymous_args = 0
 786              	.LVL54:
 787 0000 08B5     		push	{r3, lr}
 788              	.LCFI15:
 789              		.cfi_def_cfa_offset 8
 790              		.cfi_offset 3, -8
 791              		.cfi_offset 14, -4
 186:bsp/src/bsp_uart_fifo.c **** 	if (pUart == 0)
 792              		.loc 1 186 0
 793 0002 FFF7FEFF 		bl	_Z9ComToUart10COM_PORT_E
 794              	.LVL55:
 187:bsp/src/bsp_uart_fifo.c **** 	{
 795              		.loc 1 187 0
 796 0006 18B1     		cbz	r0, .L52
 192:bsp/src/bsp_uart_fifo.c **** 	pUart->usTxRead = 0;
 797              		.loc 1 192 0
 798 0008 0022     		movs	r2, #0
 799 000a 0282     		strh	r2, [r0, #16]	@ movhi
 193:bsp/src/bsp_uart_fifo.c **** 	pUart->usTxCount = 0;
 800              		.loc 1 193 0
 801 000c 4282     		strh	r2, [r0, #18]	@ movhi
 194:bsp/src/bsp_uart_fifo.c **** }
 802              		.loc 1 194 0
 803 000e 8282     		strh	r2, [r0, #20]	@ movhi
 804              	.L52:
 195:bsp/src/bsp_uart_fifo.c **** 
 805              		.loc 1 195 0
ARM GAS  /var/folders/l3/4y5292px21b4835bsnjwqc7w009kq1/T//cc0I0tOZ.s 			page 24


 806 0010 08BD     		pop	{r3, pc}
 807              		.cfi_endproc
 808              	.LFE141:
 809              		.cantunwind
 810              		.fnend
 812              		.section	.text._Z14comClearRxFifo10COM_PORT_E,"ax",%progbits
 813              		.align	1
 814              		.global	_Z14comClearRxFifo10COM_PORT_E
 815              		.syntax unified
 816              		.thumb
 817              		.thumb_func
 818              		.fpu fpv4-sp-d16
 820              	_Z14comClearRxFifo10COM_PORT_E:
 821              		.fnstart
 822              	.LFB142:
 209:bsp/src/bsp_uart_fifo.c **** 	UART_T *pUart;
 823              		.loc 1 209 0
 824              		.cfi_startproc
 825              		@ args = 0, pretend = 0, frame = 0
 826              		@ frame_needed = 0, uses_anonymous_args = 0
 827              	.LVL56:
 828 0000 08B5     		push	{r3, lr}
 829              	.LCFI16:
 830              		.cfi_def_cfa_offset 8
 831              		.cfi_offset 3, -8
 832              		.cfi_offset 14, -4
 212:bsp/src/bsp_uart_fifo.c **** 	if (pUart == 0)
 833              		.loc 1 212 0
 834 0002 FFF7FEFF 		bl	_Z9ComToUart10COM_PORT_E
 835              	.LVL57:
 213:bsp/src/bsp_uart_fifo.c **** 	{
 836              		.loc 1 213 0
 837 0006 18B1     		cbz	r0, .L55
 218:bsp/src/bsp_uart_fifo.c **** 	pUart->usRxRead = 0;
 838              		.loc 1 218 0
 839 0008 0022     		movs	r2, #0
 840 000a C282     		strh	r2, [r0, #22]	@ movhi
 219:bsp/src/bsp_uart_fifo.c **** 	pUart->usRxCount = 0;
 841              		.loc 1 219 0
 842 000c 0283     		strh	r2, [r0, #24]	@ movhi
 220:bsp/src/bsp_uart_fifo.c **** }
 843              		.loc 1 220 0
 844 000e 4283     		strh	r2, [r0, #26]	@ movhi
 845              	.L55:
 221:bsp/src/bsp_uart_fifo.c **** 
 846              		.loc 1 221 0
 847 0010 08BD     		pop	{r3, pc}
 848              		.cfi_endproc
 849              	.LFE142:
 850              		.cantunwind
 851              		.fnend
 853              		.section	.text._Z16bsp_SetUart1Baudm,"ax",%progbits
 854              		.align	1
 855              		.global	_Z16bsp_SetUart1Baudm
 856              		.syntax unified
 857              		.thumb
 858              		.thumb_func
ARM GAS  /var/folders/l3/4y5292px21b4835bsnjwqc7w009kq1/T//cc0I0tOZ.s 			page 25


 859              		.fpu fpv4-sp-d16
 861              	_Z16bsp_SetUart1Baudm:
 862              		.fnstart
 863              	.LFB143:
 230:bsp/src/bsp_uart_fifo.c **** 	USART_InitType USART_InitStructure;
 864              		.loc 1 230 0
 865              		.cfi_startproc
 866              		@ args = 0, pretend = 0, frame = 16
 867              		@ frame_needed = 0, uses_anonymous_args = 0
 868              	.LVL58:
 869 0000 00B5     		push	{lr}
 870              		.save {lr}
 871              	.LCFI17:
 872              		.cfi_def_cfa_offset 4
 873              		.cfi_offset 14, -4
 874              		.pad #20
 875 0002 85B0     		sub	sp, sp, #20
 876              	.LCFI18:
 877              		.cfi_def_cfa_offset 24
 233:bsp/src/bsp_uart_fifo.c **** 	USART_InitStructure.USART_WordLength    = USART_WordLength_8b;
 878              		.loc 1 233 0
 879 0004 0090     		str	r0, [sp]
 234:bsp/src/bsp_uart_fifo.c **** 	USART_InitStructure.USART_StopBits      = USART_StopBits_1;
 880              		.loc 1 234 0
 881 0006 0023     		movs	r3, #0
 882 0008 ADF80430 		strh	r3, [sp, #4]	@ movhi
 235:bsp/src/bsp_uart_fifo.c **** 	USART_InitStructure.USART_Parity        = USART_Parity_No ;
 883              		.loc 1 235 0
 884 000c ADF80630 		strh	r3, [sp, #6]	@ movhi
 236:bsp/src/bsp_uart_fifo.c **** 	USART_InitStructure.USART_HardwareFlowControl = USART_HardwareFlowControl_None;
 885              		.loc 1 236 0
 886 0010 ADF80830 		strh	r3, [sp, #8]	@ movhi
 237:bsp/src/bsp_uart_fifo.c **** 	USART_InitStructure.USART_Mode                  = USART_Mode_Rx | USART_Mode_Tx;
 887              		.loc 1 237 0
 888 0014 ADF80C30 		strh	r3, [sp, #12]	@ movhi
 238:bsp/src/bsp_uart_fifo.c **** 	USART_Init(AT32_PRINT_UART, &USART_InitStructure);
 889              		.loc 1 238 0
 890 0018 0C23     		movs	r3, #12
 891 001a ADF80A30 		strh	r3, [sp, #10]	@ movhi
 239:bsp/src/bsp_uart_fifo.c **** }
 892              		.loc 1 239 0
 893 001e 6946     		mov	r1, sp
 894 0020 0248     		ldr	r0, .L60
 895              	.LVL59:
 896 0022 FFF7FEFF 		bl	USART_Init
 897              	.LVL60:
 240:bsp/src/bsp_uart_fifo.c **** 
 898              		.loc 1 240 0
 899 0026 05B0     		add	sp, sp, #20
 900              	.LCFI19:
 901              		.cfi_def_cfa_offset 4
 902              		@ sp needed
 903 0028 5DF804FB 		ldr	pc, [sp], #4
 904              	.L61:
 905              		.align	2
 906              	.L60:
 907 002c 00440040 		.word	1073759232
ARM GAS  /var/folders/l3/4y5292px21b4835bsnjwqc7w009kq1/T//cc0I0tOZ.s 			page 26


 908              		.cfi_endproc
 909              	.LFE143:
 910              		.fnend
 912              		.section	.text._Z17USART2_IRQHandlerv,"ax",%progbits
 913              		.align	1
 914              		.global	_Z17USART2_IRQHandlerv
 915              		.syntax unified
 916              		.thumb
 917              		.thumb_func
 918              		.fpu fpv4-sp-d16
 920              	_Z17USART2_IRQHandlerv:
 921              		.fnstart
 922              	.LFB150:
 455:bsp/src/bsp_uart_fifo.c **** 
 456:bsp/src/bsp_uart_fifo.c **** /**
 457:bsp/src/bsp_uart_fifo.c ****  * @brief   This function handles USART1 exception
 458:bsp/src/bsp_uart_fifo.c ****  * @param   None
 459:bsp/src/bsp_uart_fifo.c ****  * @retval  None
 460:bsp/src/bsp_uart_fifo.c ****  */
 461:bsp/src/bsp_uart_fifo.c **** 
 462:bsp/src/bsp_uart_fifo.c **** #if UART1_FIFO_EN == 1
 463:bsp/src/bsp_uart_fifo.c **** void USARTx_IRQ_Handler(void)
 464:bsp/src/bsp_uart_fifo.c **** {
 923              		.loc 1 464 0
 924              		.cfi_startproc
 925              		@ args = 0, pretend = 0, frame = 0
 926              		@ frame_needed = 0, uses_anonymous_args = 0
 927 0000 08B5     		push	{r3, lr}
 928              		.save {r3, lr}
 929              	.LCFI20:
 930              		.cfi_def_cfa_offset 8
 931              		.cfi_offset 3, -8
 932              		.cfi_offset 14, -4
 465:bsp/src/bsp_uart_fifo.c **** 	UartIRQ(&g_tUart1);
 933              		.loc 1 465 0
 934 0002 0248     		ldr	r0, .L64
 935 0004 FFF7FEFF 		bl	_ZL7UartIRQP6UART_T
 936              	.LVL61:
 466:bsp/src/bsp_uart_fifo.c **** }
 937              		.loc 1 466 0
 938 0008 08BD     		pop	{r3, pc}
 939              	.L65:
 940 000a 00BF     		.align	2
 941              	.L64:
 942 000c 00000000 		.word	.LANCHOR0
 943              		.cfi_endproc
 944              	.LFE150:
 945              		.fnend
 947              		.section	.text.fgetc,"ax",%progbits
 948              		.align	1
 949              		.global	fgetc
 950              		.syntax unified
 951              		.thumb
 952              		.thumb_func
 953              		.fpu fpv4-sp-d16
 955              	fgetc:
 956              		.fnstart
ARM GAS  /var/folders/l3/4y5292px21b4835bsnjwqc7w009kq1/T//cc0I0tOZ.s 			page 27


 957              	.LFB151:
 467:bsp/src/bsp_uart_fifo.c **** #endif
 468:bsp/src/bsp_uart_fifo.c **** 
 469:bsp/src/bsp_uart_fifo.c **** //int fputc(int ch, FILE *f)
 470:bsp/src/bsp_uart_fifo.c **** //{
 471:bsp/src/bsp_uart_fifo.c **** //#if 0	
 472:bsp/src/bsp_uart_fifo.c **** //	comSendChar(COM1, ch);
 473:bsp/src/bsp_uart_fifo.c **** 
 474:bsp/src/bsp_uart_fifo.c **** //	return ch;
 475:bsp/src/bsp_uart_fifo.c **** //#else	
 476:bsp/src/bsp_uart_fifo.c **** //	USART_SendData(AT32_PRINT_UART, (uint8_t) ch);
 477:bsp/src/bsp_uart_fifo.c **** 
 478:bsp/src/bsp_uart_fifo.c **** //	while (USART_GetFlagStatus(AT32_PRINT_UART, USART_FLAG_TRAC) == RESET)
 479:bsp/src/bsp_uart_fifo.c **** //	{}
 480:bsp/src/bsp_uart_fifo.c **** 
 481:bsp/src/bsp_uart_fifo.c **** //	return ch;
 482:bsp/src/bsp_uart_fifo.c **** //#endif
 483:bsp/src/bsp_uart_fifo.c **** //}
 484:bsp/src/bsp_uart_fifo.c **** 
 485:bsp/src/bsp_uart_fifo.c **** int fgetc(FILE *f)
 486:bsp/src/bsp_uart_fifo.c **** {
 958              		.loc 1 486 0
 959              		.cfi_startproc
 960              		@ args = 0, pretend = 0, frame = 8
 961              		@ frame_needed = 0, uses_anonymous_args = 0
 962              	.LVL62:
 963 0000 00B5     		push	{lr}
 964              		.save {lr}
 965              	.LCFI21:
 966              		.cfi_def_cfa_offset 4
 967              		.cfi_offset 14, -4
 968              		.pad #12
 969 0002 83B0     		sub	sp, sp, #12
 970              	.LCFI22:
 971              		.cfi_def_cfa_offset 16
 972              	.LVL63:
 973              	.L67:
 487:bsp/src/bsp_uart_fifo.c **** #if 1	
 488:bsp/src/bsp_uart_fifo.c **** 	uint8_t ucData;
 489:bsp/src/bsp_uart_fifo.c **** 
 490:bsp/src/bsp_uart_fifo.c **** 	while(comGetChar(COM1, &ucData) == 0);
 974              		.loc 1 490 0
 975 0004 0DF10701 		add	r1, sp, #7
 976 0008 0020     		movs	r0, #0
 977 000a FFF7FEFF 		bl	_Z10comGetChar10COM_PORT_EPh
 978              	.LVL64:
 979 000e 0028     		cmp	r0, #0
 980 0010 F8D0     		beq	.L67
 491:bsp/src/bsp_uart_fifo.c **** 
 492:bsp/src/bsp_uart_fifo.c **** 	return ucData;
 493:bsp/src/bsp_uart_fifo.c **** #else
 494:bsp/src/bsp_uart_fifo.c **** 	while (USART_GetFlagStatus(AT32_PRINT_UART, USART_FLAG_RXNE) == RESET);
 495:bsp/src/bsp_uart_fifo.c **** 
 496:bsp/src/bsp_uart_fifo.c **** 	return (int)USART_ReceiveData(AT32_PRINT_UART);
 497:bsp/src/bsp_uart_fifo.c **** #endif
 498:bsp/src/bsp_uart_fifo.c **** }
 981              		.loc 1 498 0
ARM GAS  /var/folders/l3/4y5292px21b4835bsnjwqc7w009kq1/T//cc0I0tOZ.s 			page 28


 982 0012 9DF80700 		ldrb	r0, [sp, #7]	@ zero_extendqisi2
 983 0016 03B0     		add	sp, sp, #12
 984              	.LCFI23:
 985              		.cfi_def_cfa_offset 4
 986              		@ sp needed
 987 0018 5DF804FB 		ldr	pc, [sp], #4
 988              		.cfi_endproc
 989              	.LFE151:
 990              		.fnend
 992              		.section	.bss._ZL8g_RxBuf1,"aw",%nobits
 993              		.align	2
 994              		.set	.LANCHOR2,. + 0
 997              	_ZL8g_RxBuf1:
 998 0000 00000000 		.space	2048
 998      00000000 
 998      00000000 
 998      00000000 
 998      00000000 
 999              		.section	.bss._ZL8g_TxBuf1,"aw",%nobits
 1000              		.align	2
 1001              		.set	.LANCHOR1,. + 0
 1004              	_ZL8g_TxBuf1:
 1005 0000 00000000 		.space	2048
 1005      00000000 
 1005      00000000 
 1005      00000000 
 1005      00000000 
 1006              		.section	.bss._ZL8g_tUart1,"aw",%nobits
 1007              		.align	2
 1008              		.set	.LANCHOR0,. + 0
 1011              	_ZL8g_tUart1:
 1012 0000 00000000 		.space	40
 1012      00000000 
 1012      00000000 
 1012      00000000 
 1012      00000000 
 1013              		.text
 1014              	.Letext0:
 1015              		.file 2 "/usr/local/Cellar/gcc-arm-none-eabi/20180627/lib/gcc/arm-none-eabi/7.3.1/include/stddef.h
 1016              		.file 3 "/usr/local/Cellar/gcc-arm-none-eabi/20180627/arm-none-eabi/include/machine/_default_types
 1017              		.file 4 "/usr/local/Cellar/gcc-arm-none-eabi/20180627/arm-none-eabi/include/sys/_stdint.h"
 1018              		.file 5 "../Libraries/CMSIS/CM4/CoreSupport/core_cm4.h"
 1019              		.file 6 "../Libraries/CMSIS/CM4/DeviceSupport/system_at32f4xx.h"
 1020              		.file 7 "../Libraries/CMSIS/CM4/DeviceSupport/at32f4xx.h"
 1021              		.file 8 "../Libraries/AT32F4xx_StdPeriph_Driver/inc/at32f4xx_gpio.h"
 1022              		.file 9 "../Libraries/AT32F4xx_StdPeriph_Driver/inc/at32f4xx_usart.h"
 1023              		.file 10 "../Libraries/AT32F4xx_StdPeriph_Driver/inc/misc.h"
 1024              		.file 11 "Inc/FreeRTOSConfig.h"
 1025              		.file 12 "/usr/local/Cellar/gcc-arm-none-eabi/20180627/arm-none-eabi/include/sys/lock.h"
 1026              		.file 13 "/usr/local/Cellar/gcc-arm-none-eabi/20180627/arm-none-eabi/include/sys/_types.h"
 1027              		.file 14 "/usr/local/Cellar/gcc-arm-none-eabi/20180627/arm-none-eabi/include/sys/reent.h"
 1028              		.file 15 "/usr/local/Cellar/gcc-arm-none-eabi/20180627/arm-none-eabi/include/stdio.h"
 1029              		.file 16 "/usr/local/Cellar/gcc-arm-none-eabi/20180627/arm-none-eabi/include/c++/7.3.1/cstdlib"
 1030              		.file 17 "/usr/local/Cellar/gcc-arm-none-eabi/20180627/arm-none-eabi/include/c++/7.3.1/arm-none-ea
 1031              		.file 18 "/usr/local/Cellar/gcc-arm-none-eabi/20180627/arm-none-eabi/include/stdlib.h"
 1032              		.file 19 "/usr/local/Cellar/gcc-arm-none-eabi/20180627/arm-none-eabi/include/c++/7.3.1/stdlib.h"
 1033              		.file 20 "bsp/inc/bsp_uart_fifo.h"
ARM GAS  /var/folders/l3/4y5292px21b4835bsnjwqc7w009kq1/T//cc0I0tOZ.s 			page 29


 1034              		.file 21 "../Middlewares/FreeRTOS//Source/portable/GCC/ARM_CM4F/portmacro.h"
 1035              		.file 22 "<built-in>"
 1036              		.file 23 "../hoverboard/at32_hoverboard.h"
ARM GAS  /var/folders/l3/4y5292px21b4835bsnjwqc7w009kq1/T//cc0I0tOZ.s 			page 30

