ARM GAS  /var/folders/l3/4y5292px21b4835bsnjwqc7w009kq1/T//ccErpYQo.s 			page 1


   1              		.cpu cortex-m4
   2              		.eabi_attribute 27, 1
   3              		.eabi_attribute 20, 1
   4              		.eabi_attribute 21, 1
   5              		.eabi_attribute 23, 3
   6              		.eabi_attribute 24, 1
   7              		.eabi_attribute 25, 1
   8              		.eabi_attribute 26, 1
   9              		.eabi_attribute 30, 1
  10              		.eabi_attribute 34, 1
  11              		.eabi_attribute 18, 4
  12              		.file	"bsp_led.c"
  13              		.text
  14              	.Ltext0:
  15              		.cfi_sections	.debug_frame
  16              		.section	.text._Z9bsp_LedOnh,"ax",%progbits
  17              		.align	1
  18              		.global	_Z9bsp_LedOnh
  19              		.syntax unified
  20              		.thumb
  21              		.thumb_func
  22              		.fpu fpv4-sp-d16
  24              	_Z9bsp_LedOnh:
  25              		.fnstart
  26              	.LFB137:
  27              		.file 1 "bsp/src/bsp_led.c"
   1:bsp/src/bsp_led.c **** /**
   2:bsp/src/bsp_led.c ****   ******************************************************************************
   3:bsp/src/bsp_led.c ****   * @file    FreeRTOS/bsp/bsp_led.c 
   4:bsp/src/bsp_led.c ****   * @author  Artery Technology 
   5:bsp/src/bsp_led.c ****   * @version V1.1.2
   6:bsp/src/bsp_led.c ****   * @date    2019-01-04
   7:bsp/src/bsp_led.c ****   * @brief   Bsp Service Routines.
   8:bsp/src/bsp_led.c ****   ******************************************************************************
   9:bsp/src/bsp_led.c ****   * @attention
  10:bsp/src/bsp_led.c ****   *
  11:bsp/src/bsp_led.c ****   * THE PRESENT FIRMWARE WHICH IS FOR GUIDANCE ONLY AIMS AT PROVIDING CUSTOMERS
  12:bsp/src/bsp_led.c ****   * WITH CODING INFORMATION REGARDING THEIR PRODUCTS IN ORDER FOR THEM TO SAVE
  13:bsp/src/bsp_led.c ****   * TIME. AS A RESULT, ARTERYTEK SHALL NOT BE HELD LIABLE FOR ANY
  14:bsp/src/bsp_led.c ****   * DIRECT, INDIRECT OR CONSEQUENTIAL DAMAGES WITH RESPECT TO ANY CLAIMS ARISING
  15:bsp/src/bsp_led.c ****   * FROM THE CONTENT OF SUCH FIRMWARE AND/OR THE USE MADE BY CUSTOMERS OF THE
  16:bsp/src/bsp_led.c ****   * CODING INFORMATION CONTAINED HEREIN IN CONNECTION WITH THEIR PRODUCTS.
  17:bsp/src/bsp_led.c ****   *
  18:bsp/src/bsp_led.c ****   * <h2><center>&copy; COPYRIGHT 2018 ArteryTek</center></h2>
  19:bsp/src/bsp_led.c ****   ******************************************************************************
  20:bsp/src/bsp_led.c ****   */ 
  21:bsp/src/bsp_led.c ****   
  22:bsp/src/bsp_led.c **** /* Includes ------------------------------------------------------------------*/
  23:bsp/src/bsp_led.c **** #include "bsp.h"
  24:bsp/src/bsp_led.c **** #include "at32_hoverboard.h"
  25:bsp/src/bsp_led.c **** 
  26:bsp/src/bsp_led.c **** /** @addtogroup AT32F403_StdPeriph_Examples
  27:bsp/src/bsp_led.c ****   * @{
  28:bsp/src/bsp_led.c ****   */
  29:bsp/src/bsp_led.c **** 
  30:bsp/src/bsp_led.c **** /** @addtogroup FreeRTOS_ResManagement_SafelyPrint
  31:bsp/src/bsp_led.c ****   * @{
ARM GAS  /var/folders/l3/4y5292px21b4835bsnjwqc7w009kq1/T//ccErpYQo.s 			page 2


  32:bsp/src/bsp_led.c ****   */ 
  33:bsp/src/bsp_led.c ****   
  34:bsp/src/bsp_led.c **** /* Private typedef -----------------------------------------------------------*/
  35:bsp/src/bsp_led.c **** /* Private define ------------------------------------------------------------*/ 
  36:bsp/src/bsp_led.c **** /* Private macro -------------------------------------------------------------*/
  37:bsp/src/bsp_led.c **** /* Private variables ---------------------------------------------------------*/
  38:bsp/src/bsp_led.c **** /* Private function prototypes -----------------------------------------------*/
  39:bsp/src/bsp_led.c **** /* Private functions ---------------------------------------------------------*/
  40:bsp/src/bsp_led.c **** 
  41:bsp/src/bsp_led.c **** /**
  42:bsp/src/bsp_led.c ****   * @brief  Initialize led io port
  43:bsp/src/bsp_led.c ****   * @param  None
  44:bsp/src/bsp_led.c ****   * @retval None
  45:bsp/src/bsp_led.c ****   */
  46:bsp/src/bsp_led.c **** void bsp_InitLed(void)
  47:bsp/src/bsp_led.c **** {
  48:bsp/src/bsp_led.c **** 	GPIO_InitType GPIO_InitStructure;
  49:bsp/src/bsp_led.c **** 
  50:bsp/src/bsp_led.c **** 	RCC_APB2PeriphClockCmd(LED2_GPIO_RCC_CLK, ENABLE);
  51:bsp/src/bsp_led.c **** 	RCC_APB2PeriphClockCmd(LED3_GPIO_RCC_CLK, ENABLE);
  52:bsp/src/bsp_led.c **** 	RCC_APB2PeriphClockCmd(LED4_GPIO_RCC_CLK, ENABLE);  
  53:bsp/src/bsp_led.c ****  
  54:bsp/src/bsp_led.c **** 	bsp_LedOff(2);
  55:bsp/src/bsp_led.c **** 	bsp_LedOff(3);
  56:bsp/src/bsp_led.c **** 	bsp_LedOff(4);
  57:bsp/src/bsp_led.c **** 
  58:bsp/src/bsp_led.c **** 	GPIO_InitStructure.GPIO_MaxSpeed    = GPIO_MaxSpeed_50MHz;
  59:bsp/src/bsp_led.c **** 	GPIO_InitStructure.GPIO_Mode        = GPIO_Mode_OUT_PP;	
  60:bsp/src/bsp_led.c **** 
  61:bsp/src/bsp_led.c **** 	GPIO_InitStructure.GPIO_Pins = LED2_PIN;
  62:bsp/src/bsp_led.c **** 	GPIO_Init(LED2_GPIO, &GPIO_InitStructure);
  63:bsp/src/bsp_led.c **** 
  64:bsp/src/bsp_led.c **** 	GPIO_InitStructure.GPIO_Pins = LED3_PIN;
  65:bsp/src/bsp_led.c **** 	GPIO_Init(LED3_GPIO, &GPIO_InitStructure);
  66:bsp/src/bsp_led.c **** 
  67:bsp/src/bsp_led.c **** 	GPIO_InitStructure.GPIO_Pins = LED4_PIN;
  68:bsp/src/bsp_led.c **** 	GPIO_Init(LED4_GPIO, &GPIO_InitStructure);
  69:bsp/src/bsp_led.c **** }
  70:bsp/src/bsp_led.c **** 
  71:bsp/src/bsp_led.c **** /**
  72:bsp/src/bsp_led.c ****   * @brief  Turn on led
  73:bsp/src/bsp_led.c ****   * @param  _no:Led number
  74:bsp/src/bsp_led.c ****   * @retval None
  75:bsp/src/bsp_led.c ****   */
  76:bsp/src/bsp_led.c **** void bsp_LedOn(uint8_t _no)
  77:bsp/src/bsp_led.c **** {
  28              		.loc 1 77 0
  29              		.cfi_startproc
  30              		@ args = 0, pretend = 0, frame = 0
  31              		@ frame_needed = 0, uses_anonymous_args = 0
  32              		@ link register save eliminated.
  33              	.LVL0:
  78:bsp/src/bsp_led.c **** 	switch(_no)
  34              		.loc 1 78 0
  35 0000 0328     		cmp	r0, #3
  36 0002 09D0     		beq	.L3
  37 0004 0428     		cmp	r0, #4
ARM GAS  /var/folders/l3/4y5292px21b4835bsnjwqc7w009kq1/T//ccErpYQo.s 			page 3


  38 0006 0CD0     		beq	.L4
  39 0008 0228     		cmp	r0, #2
  40 000a 00D0     		beq	.L6
  41              	.L1:
  79:bsp/src/bsp_led.c **** 	{
  80:bsp/src/bsp_led.c **** 	    case 2:
  81:bsp/src/bsp_led.c **** 		    LED2_GPIO->BRE = LED2_PIN;
  82:bsp/src/bsp_led.c **** 		    break;
  83:bsp/src/bsp_led.c **** 		case 3:
  84:bsp/src/bsp_led.c **** 		    LED3_GPIO->BRE = LED3_PIN;
  85:bsp/src/bsp_led.c **** 		    break;
  86:bsp/src/bsp_led.c **** 		case 4:
  87:bsp/src/bsp_led.c **** 		    LED4_GPIO->BRE = LED4_PIN;
  88:bsp/src/bsp_led.c **** 		    break;
  89:bsp/src/bsp_led.c **** 		default:
  90:bsp/src/bsp_led.c **** 		    break;
  91:bsp/src/bsp_led.c **** 	}
  92:bsp/src/bsp_led.c **** 
  93:bsp/src/bsp_led.c **** }
  42              		.loc 1 93 0
  43 000c 7047     		bx	lr
  44              	.L6:
  81:bsp/src/bsp_led.c **** 		    break;
  45              		.loc 1 81 0
  46 000e 074B     		ldr	r3, .L7
  47 0010 4FF40052 		mov	r2, #8192
  48 0014 5A61     		str	r2, [r3, #20]
  82:bsp/src/bsp_led.c **** 		case 3:
  49              		.loc 1 82 0
  50 0016 7047     		bx	lr
  51              	.L3:
  84:bsp/src/bsp_led.c **** 		    break;
  52              		.loc 1 84 0
  53 0018 044B     		ldr	r3, .L7
  54 001a 4FF48042 		mov	r2, #16384
  55 001e 5A61     		str	r2, [r3, #20]
  85:bsp/src/bsp_led.c **** 		case 4:
  56              		.loc 1 85 0
  57 0020 7047     		bx	lr
  58              	.L4:
  87:bsp/src/bsp_led.c **** 		    break;
  59              		.loc 1 87 0
  60 0022 024B     		ldr	r3, .L7
  61 0024 4FF40042 		mov	r2, #32768
  62 0028 5A61     		str	r2, [r3, #20]
  63              		.loc 1 93 0
  64 002a EFE7     		b	.L1
  65              	.L8:
  66              		.align	2
  67              	.L7:
  68 002c 00100140 		.word	1073811456
  69              		.cfi_endproc
  70              	.LFE137:
  71              		.cantunwind
  72              		.fnend
  74              		.section	.text._Z10bsp_LedOffh,"ax",%progbits
  75              		.align	1
ARM GAS  /var/folders/l3/4y5292px21b4835bsnjwqc7w009kq1/T//ccErpYQo.s 			page 4


  76              		.global	_Z10bsp_LedOffh
  77              		.syntax unified
  78              		.thumb
  79              		.thumb_func
  80              		.fpu fpv4-sp-d16
  82              	_Z10bsp_LedOffh:
  83              		.fnstart
  84              	.LFB138:
  94:bsp/src/bsp_led.c **** 
  95:bsp/src/bsp_led.c **** /**
  96:bsp/src/bsp_led.c ****   * @brief  Turn off led
  97:bsp/src/bsp_led.c ****   * @param  _no:Led number
  98:bsp/src/bsp_led.c ****   * @retval None
  99:bsp/src/bsp_led.c ****   */
 100:bsp/src/bsp_led.c **** void bsp_LedOff(uint8_t _no)
 101:bsp/src/bsp_led.c **** {
  85              		.loc 1 101 0
  86              		.cfi_startproc
  87              		@ args = 0, pretend = 0, frame = 0
  88              		@ frame_needed = 0, uses_anonymous_args = 0
  89              		@ link register save eliminated.
  90              	.LVL1:
 102:bsp/src/bsp_led.c **** 	switch(_no)
  91              		.loc 1 102 0
  92 0000 0328     		cmp	r0, #3
  93 0002 09D0     		beq	.L11
  94 0004 0428     		cmp	r0, #4
  95 0006 0CD0     		beq	.L12
  96 0008 0228     		cmp	r0, #2
  97 000a 00D0     		beq	.L14
  98              	.L9:
 103:bsp/src/bsp_led.c **** 	{
 104:bsp/src/bsp_led.c **** 	  case 2:
 105:bsp/src/bsp_led.c **** 		    LED2_GPIO->BSRE = LED2_PIN;
 106:bsp/src/bsp_led.c **** 		    break;
 107:bsp/src/bsp_led.c **** 		case 3:
 108:bsp/src/bsp_led.c **** 		    LED3_GPIO->BSRE = LED3_PIN;
 109:bsp/src/bsp_led.c **** 		    break;
 110:bsp/src/bsp_led.c **** 		case 4:
 111:bsp/src/bsp_led.c **** 		    LED4_GPIO->BSRE = LED4_PIN;
 112:bsp/src/bsp_led.c **** 		    break;
 113:bsp/src/bsp_led.c **** 		default:
 114:bsp/src/bsp_led.c **** 		    break;
 115:bsp/src/bsp_led.c **** 	}
 116:bsp/src/bsp_led.c **** }
  99              		.loc 1 116 0
 100 000c 7047     		bx	lr
 101              	.L14:
 105:bsp/src/bsp_led.c **** 		    break;
 102              		.loc 1 105 0
 103 000e 074B     		ldr	r3, .L15
 104 0010 4FF40052 		mov	r2, #8192
 105 0014 1A61     		str	r2, [r3, #16]
 106:bsp/src/bsp_led.c **** 		case 3:
 106              		.loc 1 106 0
 107 0016 7047     		bx	lr
 108              	.L11:
ARM GAS  /var/folders/l3/4y5292px21b4835bsnjwqc7w009kq1/T//ccErpYQo.s 			page 5


 108:bsp/src/bsp_led.c **** 		    break;
 109              		.loc 1 108 0
 110 0018 044B     		ldr	r3, .L15
 111 001a 4FF48042 		mov	r2, #16384
 112 001e 1A61     		str	r2, [r3, #16]
 109:bsp/src/bsp_led.c **** 		case 4:
 113              		.loc 1 109 0
 114 0020 7047     		bx	lr
 115              	.L12:
 111:bsp/src/bsp_led.c **** 		    break;
 116              		.loc 1 111 0
 117 0022 024B     		ldr	r3, .L15
 118 0024 4FF40042 		mov	r2, #32768
 119 0028 1A61     		str	r2, [r3, #16]
 120              		.loc 1 116 0
 121 002a EFE7     		b	.L9
 122              	.L16:
 123              		.align	2
 124              	.L15:
 125 002c 00100140 		.word	1073811456
 126              		.cfi_endproc
 127              	.LFE138:
 128              		.cantunwind
 129              		.fnend
 131              		.section	.text._Z11bsp_InitLedv,"ax",%progbits
 132              		.align	1
 133              		.global	_Z11bsp_InitLedv
 134              		.syntax unified
 135              		.thumb
 136              		.thumb_func
 137              		.fpu fpv4-sp-d16
 139              	_Z11bsp_InitLedv:
 140              		.fnstart
 141              	.LFB136:
  47:bsp/src/bsp_led.c **** 	GPIO_InitType GPIO_InitStructure;
 142              		.loc 1 47 0
 143              		.cfi_startproc
 144              		@ args = 0, pretend = 0, frame = 8
 145              		@ frame_needed = 0, uses_anonymous_args = 0
 146 0000 30B5     		push	{r4, r5, lr}
 147              		.save {r4, r5, lr}
 148              	.LCFI0:
 149              		.cfi_def_cfa_offset 12
 150              		.cfi_offset 4, -12
 151              		.cfi_offset 5, -8
 152              		.cfi_offset 14, -4
 153              		.pad #12
 154 0002 83B0     		sub	sp, sp, #12
 155              	.LCFI1:
 156              		.cfi_def_cfa_offset 24
  50:bsp/src/bsp_led.c **** 	RCC_APB2PeriphClockCmd(LED3_GPIO_RCC_CLK, ENABLE);
 157              		.loc 1 50 0
 158 0004 0121     		movs	r1, #1
 159 0006 1020     		movs	r0, #16
 160 0008 FFF7FEFF 		bl	RCC_APB2PeriphClockCmd
 161              	.LVL2:
  51:bsp/src/bsp_led.c **** 	RCC_APB2PeriphClockCmd(LED4_GPIO_RCC_CLK, ENABLE);  
ARM GAS  /var/folders/l3/4y5292px21b4835bsnjwqc7w009kq1/T//ccErpYQo.s 			page 6


 162              		.loc 1 51 0
 163 000c 0121     		movs	r1, #1
 164 000e 1020     		movs	r0, #16
 165 0010 FFF7FEFF 		bl	RCC_APB2PeriphClockCmd
 166              	.LVL3:
  52:bsp/src/bsp_led.c ****  
 167              		.loc 1 52 0
 168 0014 0121     		movs	r1, #1
 169 0016 1020     		movs	r0, #16
 170 0018 FFF7FEFF 		bl	RCC_APB2PeriphClockCmd
 171              	.LVL4:
  54:bsp/src/bsp_led.c **** 	bsp_LedOff(3);
 172              		.loc 1 54 0
 173 001c 0220     		movs	r0, #2
 174 001e FFF7FEFF 		bl	_Z10bsp_LedOffh
 175              	.LVL5:
  55:bsp/src/bsp_led.c **** 	bsp_LedOff(4);
 176              		.loc 1 55 0
 177 0022 0320     		movs	r0, #3
 178 0024 FFF7FEFF 		bl	_Z10bsp_LedOffh
 179              	.LVL6:
  56:bsp/src/bsp_led.c **** 
 180              		.loc 1 56 0
 181 0028 0420     		movs	r0, #4
 182 002a FFF7FEFF 		bl	_Z10bsp_LedOffh
 183              	.LVL7:
  58:bsp/src/bsp_led.c **** 	GPIO_InitStructure.GPIO_Mode        = GPIO_Mode_OUT_PP;	
 184              		.loc 1 58 0
 185 002e 0223     		movs	r3, #2
 186 0030 8DF80630 		strb	r3, [sp, #6]
  59:bsp/src/bsp_led.c **** 
 187              		.loc 1 59 0
 188 0034 1023     		movs	r3, #16
 189 0036 8DF80730 		strb	r3, [sp, #7]
  61:bsp/src/bsp_led.c **** 	GPIO_Init(LED2_GPIO, &GPIO_InitStructure);
 190              		.loc 1 61 0
 191 003a 02AC     		add	r4, sp, #8
 192 003c 4FF40053 		mov	r3, #8192
 193 0040 24F8043D 		strh	r3, [r4, #-4]!	@ movhi
  62:bsp/src/bsp_led.c **** 
 194              		.loc 1 62 0
 195 0044 0B4D     		ldr	r5, .L19
 196 0046 2146     		mov	r1, r4
 197 0048 2846     		mov	r0, r5
 198 004a FFF7FEFF 		bl	GPIO_Init
 199              	.LVL8:
  64:bsp/src/bsp_led.c **** 	GPIO_Init(LED3_GPIO, &GPIO_InitStructure);
 200              		.loc 1 64 0
 201 004e 4FF48043 		mov	r3, #16384
 202 0052 ADF80430 		strh	r3, [sp, #4]	@ movhi
  65:bsp/src/bsp_led.c **** 
 203              		.loc 1 65 0
 204 0056 2146     		mov	r1, r4
 205 0058 2846     		mov	r0, r5
 206 005a FFF7FEFF 		bl	GPIO_Init
 207              	.LVL9:
  67:bsp/src/bsp_led.c **** 	GPIO_Init(LED4_GPIO, &GPIO_InitStructure);
ARM GAS  /var/folders/l3/4y5292px21b4835bsnjwqc7w009kq1/T//ccErpYQo.s 			page 7


 208              		.loc 1 67 0
 209 005e 4FF40043 		mov	r3, #32768
 210 0062 ADF80430 		strh	r3, [sp, #4]	@ movhi
  68:bsp/src/bsp_led.c **** }
 211              		.loc 1 68 0
 212 0066 2146     		mov	r1, r4
 213 0068 2846     		mov	r0, r5
 214 006a FFF7FEFF 		bl	GPIO_Init
 215              	.LVL10:
  69:bsp/src/bsp_led.c **** 
 216              		.loc 1 69 0
 217 006e 03B0     		add	sp, sp, #12
 218              	.LCFI2:
 219              		.cfi_def_cfa_offset 12
 220              		@ sp needed
 221 0070 30BD     		pop	{r4, r5, pc}
 222              	.L20:
 223 0072 00BF     		.align	2
 224              	.L19:
 225 0074 00100140 		.word	1073811456
 226              		.cfi_endproc
 227              	.LFE136:
 228              		.fnend
 230              		.section	.text._Z13bsp_LedToggleh,"ax",%progbits
 231              		.align	1
 232              		.global	_Z13bsp_LedToggleh
 233              		.syntax unified
 234              		.thumb
 235              		.thumb_func
 236              		.fpu fpv4-sp-d16
 238              	_Z13bsp_LedToggleh:
 239              		.fnstart
 240              	.LFB139:
 117:bsp/src/bsp_led.c **** 
 118:bsp/src/bsp_led.c **** /**
 119:bsp/src/bsp_led.c ****   * @brief  Toggle led
 120:bsp/src/bsp_led.c ****   * @param  _no:Led number
 121:bsp/src/bsp_led.c ****   * @retval None
 122:bsp/src/bsp_led.c ****   */
 123:bsp/src/bsp_led.c **** void bsp_LedToggle(uint8_t _no)
 124:bsp/src/bsp_led.c **** {
 241              		.loc 1 124 0
 242              		.cfi_startproc
 243              		@ args = 0, pretend = 0, frame = 0
 244              		@ frame_needed = 0, uses_anonymous_args = 0
 245              		@ link register save eliminated.
 246              	.LVL11:
 125:bsp/src/bsp_led.c **** 	switch(_no)
 247              		.loc 1 125 0
 248 0000 0328     		cmp	r0, #3
 249 0002 0AD0     		beq	.L23
 250 0004 0428     		cmp	r0, #4
 251 0006 0ED0     		beq	.L24
 252 0008 0228     		cmp	r0, #2
 253 000a 00D0     		beq	.L26
 254              	.L21:
 126:bsp/src/bsp_led.c **** 	{
ARM GAS  /var/folders/l3/4y5292px21b4835bsnjwqc7w009kq1/T//ccErpYQo.s 			page 8


 127:bsp/src/bsp_led.c **** 	    case 2:
 128:bsp/src/bsp_led.c **** 		    LED2_GPIO->OPTDT ^= LED2_PIN;
 129:bsp/src/bsp_led.c **** 		    break;
 130:bsp/src/bsp_led.c **** 		case 3:
 131:bsp/src/bsp_led.c **** 		    LED3_GPIO->OPTDT ^= LED3_PIN;
 132:bsp/src/bsp_led.c **** 		    break;
 133:bsp/src/bsp_led.c **** 		case 4:
 134:bsp/src/bsp_led.c **** 		    LED4_GPIO->OPTDT ^= LED4_PIN;
 135:bsp/src/bsp_led.c **** 		    break;
 136:bsp/src/bsp_led.c **** 		default:
 137:bsp/src/bsp_led.c **** 		    break;
 138:bsp/src/bsp_led.c **** 	}
 139:bsp/src/bsp_led.c **** 
 140:bsp/src/bsp_led.c **** }
 255              		.loc 1 140 0
 256 000c 7047     		bx	lr
 257              	.L26:
 128:bsp/src/bsp_led.c **** 		    break;
 258              		.loc 1 128 0
 259 000e 094A     		ldr	r2, .L27
 260 0010 D368     		ldr	r3, [r2, #12]
 261 0012 83F40053 		eor	r3, r3, #8192
 262 0016 D360     		str	r3, [r2, #12]
 129:bsp/src/bsp_led.c **** 		case 3:
 263              		.loc 1 129 0
 264 0018 7047     		bx	lr
 265              	.L23:
 131:bsp/src/bsp_led.c **** 		    break;
 266              		.loc 1 131 0
 267 001a 064A     		ldr	r2, .L27
 268 001c D368     		ldr	r3, [r2, #12]
 269 001e 83F48043 		eor	r3, r3, #16384
 270 0022 D360     		str	r3, [r2, #12]
 132:bsp/src/bsp_led.c **** 		case 4:
 271              		.loc 1 132 0
 272 0024 7047     		bx	lr
 273              	.L24:
 134:bsp/src/bsp_led.c **** 		    break;
 274              		.loc 1 134 0
 275 0026 034A     		ldr	r2, .L27
 276 0028 D368     		ldr	r3, [r2, #12]
 277 002a 83F40043 		eor	r3, r3, #32768
 278 002e D360     		str	r3, [r2, #12]
 279              		.loc 1 140 0
 280 0030 ECE7     		b	.L21
 281              	.L28:
 282 0032 00BF     		.align	2
 283              	.L27:
 284 0034 00100140 		.word	1073811456
 285              		.cfi_endproc
 286              	.LFE139:
 287              		.cantunwind
 288              		.fnend
 290              		.text
 291              	.Letext0:
 292              		.file 2 "/usr/local/Cellar/gcc-arm-none-eabi/20180627/lib/gcc/arm-none-eabi/7.3.1/include/stddef.h
 293              		.file 3 "/usr/local/Cellar/gcc-arm-none-eabi/20180627/arm-none-eabi/include/machine/_default_types
ARM GAS  /var/folders/l3/4y5292px21b4835bsnjwqc7w009kq1/T//ccErpYQo.s 			page 9


 294              		.file 4 "/usr/local/Cellar/gcc-arm-none-eabi/20180627/arm-none-eabi/include/sys/_stdint.h"
 295              		.file 5 "../Libraries/CMSIS/CM4/CoreSupport/core_cm4.h"
 296              		.file 6 "../Libraries/CMSIS/CM4/DeviceSupport/system_at32f4xx.h"
 297              		.file 7 "../Libraries/CMSIS/CM4/DeviceSupport/at32f4xx.h"
 298              		.file 8 "../Libraries/AT32F4xx_StdPeriph_Driver/inc/at32f4xx_gpio.h"
 299              		.file 9 "Inc/FreeRTOSConfig.h"
 300              		.file 10 "/usr/local/Cellar/gcc-arm-none-eabi/20180627/arm-none-eabi/include/sys/lock.h"
 301              		.file 11 "/usr/local/Cellar/gcc-arm-none-eabi/20180627/arm-none-eabi/include/sys/_types.h"
 302              		.file 12 "/usr/local/Cellar/gcc-arm-none-eabi/20180627/arm-none-eabi/include/sys/reent.h"
 303              		.file 13 "/usr/local/Cellar/gcc-arm-none-eabi/20180627/arm-none-eabi/include/c++/7.3.1/cstdlib"
 304              		.file 14 "/usr/local/Cellar/gcc-arm-none-eabi/20180627/arm-none-eabi/include/c++/7.3.1/arm-none-ea
 305              		.file 15 "/usr/local/Cellar/gcc-arm-none-eabi/20180627/arm-none-eabi/include/stdlib.h"
 306              		.file 16 "/usr/local/Cellar/gcc-arm-none-eabi/20180627/arm-none-eabi/include/c++/7.3.1/stdlib.h"
 307              		.file 17 "../Libraries/AT32F4xx_StdPeriph_Driver/inc/at32f4xx_rcc.h"
 308              		.file 18 "<built-in>"
ARM GAS  /var/folders/l3/4y5292px21b4835bsnjwqc7w009kq1/T//ccErpYQo.s 			page 10


DEFINED SYMBOLS
                            *ABS*:0000000000000000 bsp_led.c
/var/folders/l3/4y5292px21b4835bsnjwqc7w009kq1/T//ccErpYQo.s:17     .text._Z9bsp_LedOnh:0000000000000000 $t
/var/folders/l3/4y5292px21b4835bsnjwqc7w009kq1/T//ccErpYQo.s:24     .text._Z9bsp_LedOnh:0000000000000000 _Z9bsp_LedOnh
/var/folders/l3/4y5292px21b4835bsnjwqc7w009kq1/T//ccErpYQo.s:68     .text._Z9bsp_LedOnh:000000000000002c $d
    .ARM.exidx.text._Z9bsp_LedOnh:0000000000000000 $d
/var/folders/l3/4y5292px21b4835bsnjwqc7w009kq1/T//ccErpYQo.s:75     .text._Z10bsp_LedOffh:0000000000000000 $t
/var/folders/l3/4y5292px21b4835bsnjwqc7w009kq1/T//ccErpYQo.s:82     .text._Z10bsp_LedOffh:0000000000000000 _Z10bsp_LedOffh
/var/folders/l3/4y5292px21b4835bsnjwqc7w009kq1/T//ccErpYQo.s:125    .text._Z10bsp_LedOffh:000000000000002c $d
  .ARM.exidx.text._Z10bsp_LedOffh:0000000000000000 $d
/var/folders/l3/4y5292px21b4835bsnjwqc7w009kq1/T//ccErpYQo.s:132    .text._Z11bsp_InitLedv:0000000000000000 $t
/var/folders/l3/4y5292px21b4835bsnjwqc7w009kq1/T//ccErpYQo.s:139    .text._Z11bsp_InitLedv:0000000000000000 _Z11bsp_InitLedv
/var/folders/l3/4y5292px21b4835bsnjwqc7w009kq1/T//ccErpYQo.s:225    .text._Z11bsp_InitLedv:0000000000000074 $d
 .ARM.exidx.text._Z11bsp_InitLedv:0000000000000000 $d
/var/folders/l3/4y5292px21b4835bsnjwqc7w009kq1/T//ccErpYQo.s:231    .text._Z13bsp_LedToggleh:0000000000000000 $t
/var/folders/l3/4y5292px21b4835bsnjwqc7w009kq1/T//ccErpYQo.s:238    .text._Z13bsp_LedToggleh:0000000000000000 _Z13bsp_LedToggleh
/var/folders/l3/4y5292px21b4835bsnjwqc7w009kq1/T//ccErpYQo.s:284    .text._Z13bsp_LedToggleh:0000000000000034 $d
.ARM.exidx.text._Z13bsp_LedToggleh:0000000000000000 $d

UNDEFINED SYMBOLS
RCC_APB2PeriphClockCmd
GPIO_Init
__aeabi_unwind_cpp_pr0
