ARM GAS  /var/folders/l3/4y5292px21b4835bsnjwqc7w009kq1/T//cc2y8DPY.s 			page 1


   1              		.cpu cortex-m4
   2              		.eabi_attribute 27, 1
   3              		.eabi_attribute 20, 1
   4              		.eabi_attribute 21, 1
   5              		.eabi_attribute 23, 3
   6              		.eabi_attribute 24, 1
   7              		.eabi_attribute 25, 1
   8              		.eabi_attribute 26, 1
   9              		.eabi_attribute 30, 1
  10              		.eabi_attribute 34, 1
  11              		.eabi_attribute 18, 4
  12              		.file	"main.cpp"
  13              		.text
  14              		.section	.text._ZL13AppTaskCreatev,"ax",%progbits
  15              		.align	1
  16              		.syntax unified
  17              		.thumb
  18              		.thumb_func
  19              		.fpu fpv4-sp-d16
  21              	_ZL13AppTaskCreatev:
  22              		.fnstart
  23              	.LFB466:
  24              		@ args = 0, pretend = 0, frame = 0
  25              		@ frame_needed = 0, uses_anonymous_args = 0
  26 0000 00B5     		push	{lr}
  27              		.save {lr}
  28              		.pad #12
  29 0002 83B0     		sub	sp, sp, #12
  30 0004 164B     		ldr	r3, .L9
  31 0006 0193     		str	r3, [sp, #4]
  32 0008 0223     		movs	r3, #2
  33 000a 0093     		str	r3, [sp]
  34 000c 0023     		movs	r3, #0
  35 000e 4FF40072 		mov	r2, #512
  36 0012 1449     		ldr	r1, .L9+4
  37 0014 1448     		ldr	r0, .L9+8
  38 0016 FFF7FEFF 		bl	xTaskCreate
  39 001a 0128     		cmp	r0, #1
  40 001c 00D0     		beq	.L2
  41              	.L3:
  42 001e FEE7     		b	.L3
  43              	.L2:
  44 0020 124B     		ldr	r3, .L9+12
  45 0022 0193     		str	r3, [sp, #4]
  46 0024 0323     		movs	r3, #3
  47 0026 0093     		str	r3, [sp]
  48 0028 0023     		movs	r3, #0
  49 002a 4FF40072 		mov	r2, #512
  50 002e 1049     		ldr	r1, .L9+16
  51 0030 1048     		ldr	r0, .L9+20
  52 0032 FFF7FEFF 		bl	xTaskCreate
  53 0036 0128     		cmp	r0, #1
  54 0038 00D0     		beq	.L4
  55              	.L5:
  56 003a FEE7     		b	.L5
  57              	.L4:
  58 003c 0E4B     		ldr	r3, .L9+24
ARM GAS  /var/folders/l3/4y5292px21b4835bsnjwqc7w009kq1/T//cc2y8DPY.s 			page 2


  59 003e 0193     		str	r3, [sp, #4]
  60 0040 0423     		movs	r3, #4
  61 0042 0093     		str	r3, [sp]
  62 0044 0023     		movs	r3, #0
  63 0046 4FF40072 		mov	r2, #512
  64 004a 0C49     		ldr	r1, .L9+28
  65 004c 0C48     		ldr	r0, .L9+32
  66 004e FFF7FEFF 		bl	xTaskCreate
  67 0052 0128     		cmp	r0, #1
  68 0054 00D0     		beq	.L1
  69              	.L7:
  70 0056 FEE7     		b	.L7
  71              	.L1:
  72 0058 03B0     		add	sp, sp, #12
  73              		@ sp needed
  74 005a 5DF804FB 		ldr	pc, [sp], #4
  75              	.L10:
  76 005e 00BF     		.align	2
  77              	.L9:
  78 0060 00000000 		.word	.LANCHOR0
  79 0064 00000000 		.word	.LC0
  80 0068 00000000 		.word	_ZL8vTaskLEDPv
  81 006c 00000000 		.word	.LANCHOR1
  82 0070 0C000000 		.word	.LC1
  83 0074 00000000 		.word	_ZL15vTaskMsgProcessPv
  84 0078 00000000 		.word	.LANCHOR2
  85 007c 1C000000 		.word	.LC2
  86 0080 00000000 		.word	_ZL17vTaskCtrolProcessPv
  87              		.fnend
  89              		.section	.text._ZL13TMR_CallBack2v,"ax",%progbits
  90              		.align	1
  91              		.syntax unified
  92              		.thumb
  93              		.thumb_func
  94              		.fpu fpv4-sp-d16
  96              	_ZL13TMR_CallBack2v:
  97              		.fnstart
  98              	.LFB470:
  99              		@ args = 0, pretend = 0, frame = 0
 100              		@ frame_needed = 0, uses_anonymous_args = 0
 101 0000 08B5     		push	{r3, lr}
 102              		.save {r3, lr}
 103 0002 0420     		movs	r0, #4
 104 0004 FFF7FEFF 		bl	bsp_LedToggle
 105 0008 0148     		ldr	r0, .L13
 106 000a FFF7FEFF 		bl	puts
 107 000e 08BD     		pop	{r3, pc}
 108              	.L14:
 109              		.align	2
 110              	.L13:
 111 0010 00000000 		.word	.LC3
 112              		.fnend
 114              		.section	.text._ZL13TMR_CallBack1v,"ax",%progbits
 115              		.align	1
 116              		.syntax unified
 117              		.thumb
 118              		.thumb_func
ARM GAS  /var/folders/l3/4y5292px21b4835bsnjwqc7w009kq1/T//cc2y8DPY.s 			page 3


 119              		.fpu fpv4-sp-d16
 121              	_ZL13TMR_CallBack1v:
 122              		.fnstart
 123              	.LFB469:
 124              		@ args = 0, pretend = 0, frame = 0
 125              		@ frame_needed = 0, uses_anonymous_args = 0
 126 0000 08B5     		push	{r3, lr}
 127              		.save {r3, lr}
 128 0002 0320     		movs	r0, #3
 129 0004 FFF7FEFF 		bl	bsp_LedToggle
 130 0008 0148     		ldr	r0, .L17
 131 000a FFF7FEFF 		bl	puts
 132 000e 08BD     		pop	{r3, pc}
 133              	.L18:
 134              		.align	2
 135              	.L17:
 136 0010 00000000 		.word	.LC4
 137              		.fnend
 139              		.section	.text._ZL12AppObjCreatev,"ax",%progbits
 140              		.align	1
 141              		.syntax unified
 142              		.thumb
 143              		.thumb_func
 144              		.fpu fpv4-sp-d16
 146              	_ZL12AppObjCreatev:
 147              		.fnstart
 148              	.LFB467:
 149              		@ args = 0, pretend = 0, frame = 0
 150              		@ frame_needed = 0, uses_anonymous_args = 0
 151 0000 08B5     		push	{r3, lr}
 152              		.save {r3, lr}
 153 0002 0120     		movs	r0, #1
 154 0004 FFF7FEFF 		bl	xQueueCreateMutex
 155 0008 034B     		ldr	r3, .L23
 156 000a 1860     		str	r0, [r3]
 157 000c 00B1     		cbz	r0, .L22
 158              	.L19:
 159 000e 08BD     		pop	{r3, pc}
 160              	.L22:
 161 0010 0248     		ldr	r0, .L23+4
 162 0012 FFF7FEFF 		bl	puts
 163 0016 FAE7     		b	.L19
 164              	.L24:
 165              		.align	2
 166              	.L23:
 167 0018 00000000 		.word	.LANCHOR3
 168 001c 00000000 		.word	.LC5
 169              		.fnend
 171              		.section	.text.main,"ax",%progbits
 172              		.align	1
 173              		.global	main
 174              		.syntax unified
 175              		.thumb
 176              		.thumb_func
 177              		.fpu fpv4-sp-d16
 179              	main:
 180              		.fnstart
ARM GAS  /var/folders/l3/4y5292px21b4835bsnjwqc7w009kq1/T//cc2y8DPY.s 			page 4


 181              	.LFB462:
 182              		@ args = 0, pretend = 0, frame = 0
 183              		@ frame_needed = 0, uses_anonymous_args = 0
 184 0000 08B5     		push	{r3, lr}
 185              		.save {r3, lr}
 186 0002 0123     		movs	r3, #1
 187              		.syntax unified
 188              	@ 215 "../Libraries/CMSIS/CM4/CoreSupport/cmsis_gcc.h" 1
 189 0004 83F31088 		MSR primask, r3
 190              	@ 0 "" 2
 191              		.thumb
 192              		.syntax unified
 193 0008 FFF7FEFF 		bl	bsp_Init
 194 000c FFF7FEFF 		bl	vTimerInitForRunTimeState
 195 0010 FFF7FEFF 		bl	_ZL13AppTaskCreatev
 196 0014 FFF7FEFF 		bl	_ZL12AppObjCreatev
 197 0018 FFF7FEFF 		bl	vTaskStartScheduler
 198              	.L26:
 199 001c FEE7     		b	.L26
 200              		.fnend
 202              		.section	.text._Z10App_PrintfPKcz,"ax",%progbits
 203              		.align	1
 204              		.global	_Z10App_PrintfPKcz
 205              		.syntax unified
 206              		.thumb
 207              		.thumb_func
 208              		.fpu fpv4-sp-d16
 210              	_Z10App_PrintfPKcz:
 211              		.fnstart
 212              	.LFB468:
 213              		@ args = 4, pretend = 16, frame = 208
 214              		@ frame_needed = 0, uses_anonymous_args = 1
 215 0000 0FB4     		push	{r0, r1, r2, r3}
 216              		.save {r0, r1, r2, r3}
 217 0002 10B5     		push	{r4, lr}
 218              		.save {r4, lr}
 219              		.pad #208
 220 0004 B4B0     		sub	sp, sp, #208
 221 0006 36AB     		add	r3, sp, #216
 222 0008 53F8042B 		ldr	r2, [r3], #4
 223 000c 0093     		str	r3, [sp]
 224 000e C921     		movs	r1, #201
 225 0010 01A8     		add	r0, sp, #4
 226 0012 FFF7FEFF 		bl	vsnprintf
 227 0016 0B4C     		ldr	r4, .L30
 228 0018 0023     		movs	r3, #0
 229 001a 4FF0FF32 		mov	r2, #-1
 230 001e 1946     		mov	r1, r3
 231 0020 2068     		ldr	r0, [r4]
 232 0022 FFF7FEFF 		bl	xQueueGenericReceive
 233 0026 01A9     		add	r1, sp, #4
 234 0028 0748     		ldr	r0, .L30+4
 235 002a FFF7FEFF 		bl	printf
 236 002e 0023     		movs	r3, #0
 237 0030 1A46     		mov	r2, r3
 238 0032 1946     		mov	r1, r3
 239 0034 2068     		ldr	r0, [r4]
ARM GAS  /var/folders/l3/4y5292px21b4835bsnjwqc7w009kq1/T//cc2y8DPY.s 			page 5


 240 0036 FFF7FEFF 		bl	xQueueGenericSend
 241 003a 34B0     		add	sp, sp, #208
 242              		@ sp needed
 243 003c BDE81040 		pop	{r4, lr}
 244 0040 04B0     		add	sp, sp, #16
 245 0042 7047     		bx	lr
 246              	.L31:
 247              		.align	2
 248              	.L30:
 249 0044 00000000 		.word	.LANCHOR3
 250 0048 00000000 		.word	.LC6
 251              		.fnend
 253              		.section	.text._ZL17vTaskCtrolProcessPv,"ax",%progbits
 254              		.align	1
 255              		.syntax unified
 256              		.thumb
 257              		.thumb_func
 258              		.fpu fpv4-sp-d16
 260              	_ZL17vTaskCtrolProcessPv:
 261              		.fnstart
 262              	.LFB465:
 263              		@ args = 0, pretend = 0, frame = 0
 264              		@ frame_needed = 0, uses_anonymous_args = 0
 265 0000 08B5     		push	{r3, lr}
 266              		.save {r3, lr}
 267              	.L33:
 268 0002 4FF47A70 		mov	r0, #1000
 269 0006 FFF7FEFF 		bl	vTaskDelay
 270 000a 0248     		ldr	r0, .L35
 271 000c FFF7FEFF 		bl	_Z10App_PrintfPKcz
 272 0010 F7E7     		b	.L33
 273              	.L36:
 274 0012 00BF     		.align	2
 275              	.L35:
 276 0014 00000000 		.word	.LC7
 277              		.fnend
 279              		.section	.text._ZL15vTaskMsgProcessPv,"ax",%progbits
 280              		.align	1
 281              		.syntax unified
 282              		.thumb
 283              		.thumb_func
 284              		.fpu fpv4-sp-d16
 286              	_ZL15vTaskMsgProcessPv:
 287              		.fnstart
 288              	.LFB464:
 289              		@ args = 0, pretend = 0, frame = 504
 290              		@ frame_needed = 0, uses_anonymous_args = 0
 291 0000 10B5     		push	{r4, lr}
 292              		.save {r4, lr}
 293              		.pad #504
 294 0002 FEB0     		sub	sp, sp, #504
 295 0004 FF23     		movs	r3, #255
 296 0006 8DF8F731 		strb	r3, [sp, #503]
 297 000a 2E48     		ldr	r0, .L47
 298 000c FFF7FEFF 		bl	_Z10App_PrintfPKcz
 299 0010 2D48     		ldr	r0, .L47+4
 300 0012 FFF7FEFF 		bl	_Z10App_PrintfPKcz
ARM GAS  /var/folders/l3/4y5292px21b4835bsnjwqc7w009kq1/T//cc2y8DPY.s 			page 6


 301 0016 2D48     		ldr	r0, .L47+8
 302 0018 FFF7FEFF 		bl	_Z10App_PrintfPKcz
 303 001c 26E0     		b	.L43
 304              	.L46:
 305 001e 2C48     		ldr	r0, .L47+12
 306 0020 FFF7FEFF 		bl	_Z10App_PrintfPKcz
 307 0024 2B48     		ldr	r0, .L47+16
 308 0026 FFF7FEFF 		bl	_Z10App_PrintfPKcz
 309 002a 6846     		mov	r0, sp
 310 002c FFF7FEFF 		bl	vTaskList
 311 0030 294C     		ldr	r4, .L47+20
 312 0032 6946     		mov	r1, sp
 313 0034 2046     		mov	r0, r4
 314 0036 FFF7FEFF 		bl	_Z10App_PrintfPKcz
 315 003a 2848     		ldr	r0, .L47+24
 316 003c FFF7FEFF 		bl	_Z10App_PrintfPKcz
 317 0040 2748     		ldr	r0, .L47+28
 318 0042 FFF7FEFF 		bl	_Z10App_PrintfPKcz
 319 0046 2748     		ldr	r0, .L47+32
 320 0048 FFF7FEFF 		bl	_Z10App_PrintfPKcz
 321 004c 6846     		mov	r0, sp
 322 004e FFF7FEFF 		bl	vTaskGetRunTimeStats
 323 0052 6946     		mov	r1, sp
 324 0054 2046     		mov	r0, r4
 325 0056 FFF7FEFF 		bl	_Z10App_PrintfPKcz
 326              	.L38:
 327 005a 9DF8F731 		ldrb	r3, [sp, #503]	@ zero_extendqisi2
 328 005e 313B     		subs	r3, r3, #49
 329 0060 DBB2     		uxtb	r3, r3
 330 0062 022B     		cmp	r3, #2
 331 0064 1ED9     		bls	.L45
 332              	.L42:
 333 0066 6420     		movs	r0, #100
 334 0068 FFF7FEFF 		bl	vTaskDelay
 335              	.L43:
 336 006c 0DF2F711 		addw	r1, sp, #503
 337 0070 0020     		movs	r0, #0
 338 0072 FFF7FEFF 		bl	comGetChar
 339 0076 9DF8F731 		ldrb	r3, [sp, #503]	@ zero_extendqisi2
 340 007a 322B     		cmp	r3, #50
 341 007c 04D0     		beq	.L39
 342 007e 332B     		cmp	r3, #51
 343 0080 09D0     		beq	.L40
 344 0082 312B     		cmp	r3, #49
 345 0084 E9D1     		bne	.L38
 346 0086 CAE7     		b	.L46
 347              	.L39:
 348 0088 174A     		ldr	r2, .L47+36
 349 008a 4CF25031 		movw	r1, #50000
 350 008e 0120     		movs	r0, #1
 351 0090 FFF7FEFF 		bl	bsp_StartHardTimer
 352 0094 E1E7     		b	.L38
 353              	.L40:
 354 0096 154A     		ldr	r2, .L47+40
 355 0098 4CF25031 		movw	r1, #50000
 356 009c 0220     		movs	r0, #2
 357 009e FFF7FEFF 		bl	bsp_StartHardTimer
ARM GAS  /var/folders/l3/4y5292px21b4835bsnjwqc7w009kq1/T//cc2y8DPY.s 			page 7


 358 00a2 DAE7     		b	.L38
 359              	.L45:
 360 00a4 1248     		ldr	r0, .L47+44
 361 00a6 FFF7FEFF 		bl	_Z10App_PrintfPKcz
 362 00aa 0748     		ldr	r0, .L47+4
 363 00ac FFF7FEFF 		bl	_Z10App_PrintfPKcz
 364 00b0 0648     		ldr	r0, .L47+8
 365 00b2 FFF7FEFF 		bl	_Z10App_PrintfPKcz
 366 00b6 0020     		movs	r0, #0
 367 00b8 FFF7FEFF 		bl	comClearRxFifo
 368 00bc FF23     		movs	r3, #255
 369 00be 8DF8F731 		strb	r3, [sp, #503]
 370 00c2 D0E7     		b	.L42
 371              	.L48:
 372              		.align	2
 373              	.L47:
 374 00c4 00000000 		.word	.LC8
 375 00c8 28000000 		.word	.LC9
 376 00cc 48000000 		.word	.LC10
 377 00d0 68000000 		.word	.LC11
 378 00d4 A0000000 		.word	.LC12
 379 00d8 D8000000 		.word	.LC13
 380 00dc E0000000 		.word	.LC14
 381 00e0 E4000000 		.word	.LC15
 382 00e4 1C010000 		.word	.LC16
 383 00e8 00000000 		.word	_ZL13TMR_CallBack1v
 384 00ec 00000000 		.word	_ZL13TMR_CallBack2v
 385 00f0 54010000 		.word	.LC17
 386              		.fnend
 388              		.section	.text._ZL8vTaskLEDPv,"ax",%progbits
 389              		.align	1
 390              		.syntax unified
 391              		.thumb
 392              		.thumb_func
 393              		.fpu fpv4-sp-d16
 395              	_ZL8vTaskLEDPv:
 396              		.fnstart
 397              	.LFB463:
 398              		@ args = 0, pretend = 0, frame = 0
 399              		@ frame_needed = 0, uses_anonymous_args = 0
 400 0000 08B5     		push	{r3, lr}
 401              		.save {r3, lr}
 402              	.L50:
 403 0002 0220     		movs	r0, #2
 404 0004 FFF7FEFF 		bl	bsp_LedToggle
 405 0008 4FF47A70 		mov	r0, #1000
 406 000c FFF7FEFF 		bl	vTaskDelay
 407 0010 0148     		ldr	r0, .L52
 408 0012 FFF7FEFF 		bl	_Z10App_PrintfPKcz
 409 0016 F4E7     		b	.L50
 410              	.L53:
 411              		.align	2
 412              	.L52:
 413 0018 00000000 		.word	.LC18
 414              		.fnend
 416              		.section	.text.vApplicationMallocFailedHook,"ax",%progbits
 417              		.align	1
ARM GAS  /var/folders/l3/4y5292px21b4835bsnjwqc7w009kq1/T//cc2y8DPY.s 			page 8


 418              		.global	vApplicationMallocFailedHook
 419              		.syntax unified
 420              		.thumb
 421              		.thumb_func
 422              		.fpu fpv4-sp-d16
 424              	vApplicationMallocFailedHook:
 425              		.fnstart
 426              	.LFB471:
 427              		@ Volatile: function does not return.
 428              		@ args = 0, pretend = 0, frame = 0
 429              		@ frame_needed = 0, uses_anonymous_args = 0
 430              		@ link register save eliminated.
 431              	.L55:
 432 0000 FEE7     		b	.L55
 433              		.cantunwind
 434              		.fnend
 436              		.section	.text.vApplicationStackOverflowHook,"ax",%progbits
 437              		.align	1
 438              		.global	vApplicationStackOverflowHook
 439              		.syntax unified
 440              		.thumb
 441              		.thumb_func
 442              		.fpu fpv4-sp-d16
 444              	vApplicationStackOverflowHook:
 445              		.fnstart
 446              	.LFB472:
 447              		@ args = 0, pretend = 0, frame = 0
 448              		@ frame_needed = 0, uses_anonymous_args = 0
 449 0000 08B5     		push	{r3, lr}
 450              		.save {r3, lr}
 451 0002 0248     		ldr	r0, .L58
 452 0004 FFF7FEFF 		bl	_Z10App_PrintfPKcz
 453 0008 08BD     		pop	{r3, pc}
 454              	.L59:
 455 000a 00BF     		.align	2
 456              	.L58:
 457 000c 00000000 		.word	.LC19
 458              		.fnend
 460              		.section	.bss._ZL14xHandleTaskLED,"aw",%nobits
 461              		.align	2
 462              		.set	.LANCHOR0,. + 0
 465              	_ZL14xHandleTaskLED:
 466 0000 00000000 		.space	4
 467              		.section	.bss._ZL17xHandleMutexPrint,"aw",%nobits
 468              		.align	2
 469              		.set	.LANCHOR3,. + 0
 472              	_ZL17xHandleMutexPrint:
 473 0000 00000000 		.space	4
 474              		.section	.bss._ZL21xHandleTaskMsgProcess,"aw",%nobits
 475              		.align	2
 476              		.set	.LANCHOR1,. + 0
 479              	_ZL21xHandleTaskMsgProcess:
 480 0000 00000000 		.space	4
 481              		.section	.bss._ZL23xHandleTaskCtrolProcess,"aw",%nobits
 482              		.align	2
 483              		.set	.LANCHOR2,. + 0
 486              	_ZL23xHandleTaskCtrolProcess:
ARM GAS  /var/folders/l3/4y5292px21b4835bsnjwqc7w009kq1/T//cc2y8DPY.s 			page 9


 487 0000 00000000 		.space	4
 488              		.section	.rodata._Z10App_PrintfPKcz.str1.4,"aMS",%progbits,1
 489              		.align	2
 490              	.LC6:
 491 0000 257300   		.ascii	"%s\000"
 492              		.section	.rodata._ZL12AppObjCreatev.str1.4,"aMS",%progbits,1
 493              		.align	2
 494              	.LC5:
 495 0000 54686572 		.ascii	"There is insufficient heap memory\015\000"
 495      65206973 
 495      20696E73 
 495      75666669 
 495      6369656E 
 496              		.section	.rodata._ZL13AppTaskCreatev.str1.4,"aMS",%progbits,1
 497              		.align	2
 498              	.LC0:
 499 0000 76546173 		.ascii	"vTaskLED\000"
 499      6B4C4544 
 499      00
 500 0009 000000   		.space	3
 501              	.LC1:
 502 000c 76546173 		.ascii	"vTaskMsgProcess\000"
 502      6B4D7367 
 502      50726F63 
 502      65737300 
 503              	.LC2:
 504 001c 76546173 		.ascii	"vTaskCtrolProcess\000"
 504      6B437472 
 504      6F6C5072 
 504      6F636573 
 504      7300
 505              		.section	.rodata._ZL13TMR_CallBack1v.str1.4,"aMS",%progbits,1
 506              		.align	2
 507              	.LC4:
 508 0000 496E2063 		.ascii	"In callback 1\000"
 508      616C6C62 
 508      61636B20 
 508      3100
 509              		.section	.rodata._ZL13TMR_CallBack2v.str1.4,"aMS",%progbits,1
 510              		.align	2
 511              	.LC3:
 512 0000 496E2063 		.ascii	"In callback 2\000"
 512      616C6C62 
 512      61636B20 
 512      3200
 513              		.section	.rodata._ZL15vTaskMsgProcessPv.str1.4,"aMS",%progbits,1
 514              		.align	2
 515              	.LC8:
 516 0000 0D0A312E 		.ascii	"\015\0121. Print task run-time statistics\015\012\000"
 516      20507269 
 516      6E742074 
 516      61736B20 
 516      72756E2D 
 517 0026 0000     		.space	2
 518              	.LC9:
 519 0028 322E2045 		.ascii	"2. Enable Timer CC1 interrupt\015\012\000"
 519      6E61626C 
ARM GAS  /var/folders/l3/4y5292px21b4835bsnjwqc7w009kq1/T//cc2y8DPY.s 			page 10


 519      65205469 
 519      6D657220 
 519      43433120 
 520              	.LC10:
 521 0048 332E2045 		.ascii	"3. Enable Timer CC2 interrupt\015\012\000"
 521      6E61626C 
 521      65205469 
 521      6D657220 
 521      43433220 
 522              	.LC11:
 523 0068 3D3D3D3D 		.ascii	"==================================================\015"
 523      3D3D3D3D 
 523      3D3D3D3D 
 523      3D3D3D3D 
 523      3D3D3D3D 
 524 009b 0A00     		.ascii	"\012\000"
 525 009d 000000   		.space	3
 526              	.LC12:
 527 00a0 4E616D65 		.ascii	"Name                  State  Priority  Stack   Num\015"
 527      20202020 
 527      20202020 
 527      20202020 
 527      20202020 
 528 00d3 0A00     		.ascii	"\012\000"
 529 00d5 000000   		.space	3
 530              	.LC13:
 531 00d8 25730D0A 		.ascii	"%s\015\012\000"
 531      00
 532 00dd 000000   		.space	3
 533              	.LC14:
 534 00e0 0D0A00   		.ascii	"\015\012\000"
 535 00e3 00       		.space	1
 536              	.LC15:
 537 00e4 5461736B 		.ascii	"Task                  Abs Time         %%Time      "
 537      20202020 
 537      20202020 
 537      20202020 
 537      20202020 
 538 0117 0D0A00   		.ascii	"\015\012\000"
 539 011a 0000     		.space	2
 540              	.LC16:
 541 011c 2A2A2A2A 		.ascii	"***************************************************"
 541      2A2A2A2A 
 541      2A2A2A2A 
 541      2A2A2A2A 
 541      2A2A2A2A 
 542 014f 0D0A00   		.ascii	"\015\012\000"
 543 0152 0000     		.space	2
 544              	.LC17:
 545 0154 312E2050 		.ascii	"1. Print task run-time statistics\015\012\000"
 545      72696E74 
 545      20746173 
 545      6B207275 
 545      6E2D7469 
 546              		.section	.rodata._ZL17vTaskCtrolProcessPv.str1.4,"aMS",%progbits,1
 547              		.align	2
 548              	.LC7:
ARM GAS  /var/folders/l3/4y5292px21b4835bsnjwqc7w009kq1/T//cc2y8DPY.s 			page 11


 549 0000 54686973 		.ascii	"This is Ctrol Task\015\012\000"
 549      20697320 
 549      4374726F 
 549      6C205461 
 549      736B0D0A 
 550              		.section	.rodata._ZL8vTaskLEDPv.str1.4,"aMS",%progbits,1
 551              		.align	2
 552              	.LC18:
 553 0000 54686973 		.ascii	"This is LED Task, lower priority than Ctrol task an"
 553      20697320 
 553      4C454420 
 553      5461736B 
 553      2C206C6F 
 554 0033 64206C6F 		.ascii	"d longer information needed to print on standard ou"
 554      6E676572 
 554      20696E66 
 554      6F726D61 
 554      74696F6E 
 555 0066 74707574 		.ascii	"tput\015\012\000"
 555      0D0A00
 556              		.section	.rodata.vApplicationStackOverflowHook.str1.4,"aMS",%progbits,1
 557              		.align	2
 558              	.LC19:
 559 0000 7461736B 		.ascii	"task: %s stack is overFlow\015\012\000"
 559      3A202573 
 559      20737461 
 559      636B2069 
 559      73206F76 
 560              		.ident	"GCC: (GNU Tools for Arm Embedded Processors 7-2018-q2-update) 7.3.1 20180622 (release) [AR
ARM GAS  /var/folders/l3/4y5292px21b4835bsnjwqc7w009kq1/T//cc2y8DPY.s 			page 12


DEFINED SYMBOLS
                            *ABS*:0000000000000000 main.cpp
/var/folders/l3/4y5292px21b4835bsnjwqc7w009kq1/T//cc2y8DPY.s:15     .text._ZL13AppTaskCreatev:0000000000000000 $t
/var/folders/l3/4y5292px21b4835bsnjwqc7w009kq1/T//cc2y8DPY.s:21     .text._ZL13AppTaskCreatev:0000000000000000 _ZL13AppTaskCreatev
/var/folders/l3/4y5292px21b4835bsnjwqc7w009kq1/T//cc2y8DPY.s:78     .text._ZL13AppTaskCreatev:0000000000000060 $d
/var/folders/l3/4y5292px21b4835bsnjwqc7w009kq1/T//cc2y8DPY.s:395    .text._ZL8vTaskLEDPv:0000000000000000 _ZL8vTaskLEDPv
/var/folders/l3/4y5292px21b4835bsnjwqc7w009kq1/T//cc2y8DPY.s:286    .text._ZL15vTaskMsgProcessPv:0000000000000000 _ZL15vTaskMsgProcessPv
/var/folders/l3/4y5292px21b4835bsnjwqc7w009kq1/T//cc2y8DPY.s:260    .text._ZL17vTaskCtrolProcessPv:0000000000000000 _ZL17vTaskCtrolProcessPv
.ARM.exidx.text._ZL13AppTaskCreatev:0000000000000000 $d
/var/folders/l3/4y5292px21b4835bsnjwqc7w009kq1/T//cc2y8DPY.s:90     .text._ZL13TMR_CallBack2v:0000000000000000 $t
/var/folders/l3/4y5292px21b4835bsnjwqc7w009kq1/T//cc2y8DPY.s:96     .text._ZL13TMR_CallBack2v:0000000000000000 _ZL13TMR_CallBack2v
/var/folders/l3/4y5292px21b4835bsnjwqc7w009kq1/T//cc2y8DPY.s:111    .text._ZL13TMR_CallBack2v:0000000000000010 $d
.ARM.extab.text._ZL13TMR_CallBack2v:0000000000000000 $d
.ARM.exidx.text._ZL13TMR_CallBack2v:0000000000000000 $d
/var/folders/l3/4y5292px21b4835bsnjwqc7w009kq1/T//cc2y8DPY.s:115    .text._ZL13TMR_CallBack1v:0000000000000000 $t
/var/folders/l3/4y5292px21b4835bsnjwqc7w009kq1/T//cc2y8DPY.s:121    .text._ZL13TMR_CallBack1v:0000000000000000 _ZL13TMR_CallBack1v
/var/folders/l3/4y5292px21b4835bsnjwqc7w009kq1/T//cc2y8DPY.s:136    .text._ZL13TMR_CallBack1v:0000000000000010 $d
.ARM.extab.text._ZL13TMR_CallBack1v:0000000000000000 $d
.ARM.exidx.text._ZL13TMR_CallBack1v:0000000000000000 $d
/var/folders/l3/4y5292px21b4835bsnjwqc7w009kq1/T//cc2y8DPY.s:140    .text._ZL12AppObjCreatev:0000000000000000 $t
/var/folders/l3/4y5292px21b4835bsnjwqc7w009kq1/T//cc2y8DPY.s:146    .text._ZL12AppObjCreatev:0000000000000000 _ZL12AppObjCreatev
/var/folders/l3/4y5292px21b4835bsnjwqc7w009kq1/T//cc2y8DPY.s:167    .text._ZL12AppObjCreatev:0000000000000018 $d
.ARM.extab.text._ZL12AppObjCreatev:0000000000000000 $d
.ARM.exidx.text._ZL12AppObjCreatev:0000000000000000 $d
/var/folders/l3/4y5292px21b4835bsnjwqc7w009kq1/T//cc2y8DPY.s:172    .text.main:0000000000000000 $t
/var/folders/l3/4y5292px21b4835bsnjwqc7w009kq1/T//cc2y8DPY.s:179    .text.main:0000000000000000 main
             .ARM.extab.text.main:0000000000000000 $d
             .ARM.exidx.text.main:0000000000000000 $d
/var/folders/l3/4y5292px21b4835bsnjwqc7w009kq1/T//cc2y8DPY.s:203    .text._Z10App_PrintfPKcz:0000000000000000 $t
/var/folders/l3/4y5292px21b4835bsnjwqc7w009kq1/T//cc2y8DPY.s:210    .text._Z10App_PrintfPKcz:0000000000000000 _Z10App_PrintfPKcz
/var/folders/l3/4y5292px21b4835bsnjwqc7w009kq1/T//cc2y8DPY.s:249    .text._Z10App_PrintfPKcz:0000000000000044 $d
.ARM.extab.text._Z10App_PrintfPKcz:0000000000000000 $d
.ARM.exidx.text._Z10App_PrintfPKcz:0000000000000000 $d
/var/folders/l3/4y5292px21b4835bsnjwqc7w009kq1/T//cc2y8DPY.s:254    .text._ZL17vTaskCtrolProcessPv:0000000000000000 $t
/var/folders/l3/4y5292px21b4835bsnjwqc7w009kq1/T//cc2y8DPY.s:276    .text._ZL17vTaskCtrolProcessPv:0000000000000014 $d
.ARM.extab.text._ZL17vTaskCtrolProcessPv:0000000000000000 $d
.ARM.exidx.text._ZL17vTaskCtrolProcessPv:0000000000000000 $d
/var/folders/l3/4y5292px21b4835bsnjwqc7w009kq1/T//cc2y8DPY.s:280    .text._ZL15vTaskMsgProcessPv:0000000000000000 $t
/var/folders/l3/4y5292px21b4835bsnjwqc7w009kq1/T//cc2y8DPY.s:374    .text._ZL15vTaskMsgProcessPv:00000000000000c4 $d
.ARM.exidx.text._ZL15vTaskMsgProcessPv:0000000000000000 $d
/var/folders/l3/4y5292px21b4835bsnjwqc7w009kq1/T//cc2y8DPY.s:389    .text._ZL8vTaskLEDPv:0000000000000000 $t
/var/folders/l3/4y5292px21b4835bsnjwqc7w009kq1/T//cc2y8DPY.s:413    .text._ZL8vTaskLEDPv:0000000000000018 $d
   .ARM.extab.text._ZL8vTaskLEDPv:0000000000000000 $d
   .ARM.exidx.text._ZL8vTaskLEDPv:0000000000000000 $d
/var/folders/l3/4y5292px21b4835bsnjwqc7w009kq1/T//cc2y8DPY.s:417    .text.vApplicationMallocFailedHook:0000000000000000 $t
/var/folders/l3/4y5292px21b4835bsnjwqc7w009kq1/T//cc2y8DPY.s:424    .text.vApplicationMallocFailedHook:0000000000000000 vApplicationMallocFailedHook
.ARM.exidx.text.vApplicationMallocFailedHook:0000000000000000 $d
/var/folders/l3/4y5292px21b4835bsnjwqc7w009kq1/T//cc2y8DPY.s:437    .text.vApplicationStackOverflowHook:0000000000000000 $t
/var/folders/l3/4y5292px21b4835bsnjwqc7w009kq1/T//cc2y8DPY.s:444    .text.vApplicationStackOverflowHook:0000000000000000 vApplicationStackOverflowHook
/var/folders/l3/4y5292px21b4835bsnjwqc7w009kq1/T//cc2y8DPY.s:457    .text.vApplicationStackOverflowHook:000000000000000c $d
.ARM.extab.text.vApplicationStackOverflowHook:0000000000000000 $d
.ARM.exidx.text.vApplicationStackOverflowHook:0000000000000000 $d
/var/folders/l3/4y5292px21b4835bsnjwqc7w009kq1/T//cc2y8DPY.s:461    .bss._ZL14xHandleTaskLED:0000000000000000 $d
/var/folders/l3/4y5292px21b4835bsnjwqc7w009kq1/T//cc2y8DPY.s:465    .bss._ZL14xHandleTaskLED:0000000000000000 _ZL14xHandleTaskLED
/var/folders/l3/4y5292px21b4835bsnjwqc7w009kq1/T//cc2y8DPY.s:468    .bss._ZL17xHandleMutexPrint:0000000000000000 $d
/var/folders/l3/4y5292px21b4835bsnjwqc7w009kq1/T//cc2y8DPY.s:472    .bss._ZL17xHandleMutexPrint:0000000000000000 _ZL17xHandleMutexPrint
/var/folders/l3/4y5292px21b4835bsnjwqc7w009kq1/T//cc2y8DPY.s:475    .bss._ZL21xHandleTaskMsgProcess:0000000000000000 $d
ARM GAS  /var/folders/l3/4y5292px21b4835bsnjwqc7w009kq1/T//cc2y8DPY.s 			page 13


/var/folders/l3/4y5292px21b4835bsnjwqc7w009kq1/T//cc2y8DPY.s:479    .bss._ZL21xHandleTaskMsgProcess:0000000000000000 _ZL21xHandleTaskMsgProcess
/var/folders/l3/4y5292px21b4835bsnjwqc7w009kq1/T//cc2y8DPY.s:482    .bss._ZL23xHandleTaskCtrolProcess:0000000000000000 $d
/var/folders/l3/4y5292px21b4835bsnjwqc7w009kq1/T//cc2y8DPY.s:486    .bss._ZL23xHandleTaskCtrolProcess:0000000000000000 _ZL23xHandleTaskCtrolProcess
/var/folders/l3/4y5292px21b4835bsnjwqc7w009kq1/T//cc2y8DPY.s:489    .rodata._Z10App_PrintfPKcz.str1.4:0000000000000000 $d
/var/folders/l3/4y5292px21b4835bsnjwqc7w009kq1/T//cc2y8DPY.s:493    .rodata._ZL12AppObjCreatev.str1.4:0000000000000000 $d
/var/folders/l3/4y5292px21b4835bsnjwqc7w009kq1/T//cc2y8DPY.s:497    .rodata._ZL13AppTaskCreatev.str1.4:0000000000000000 $d
/var/folders/l3/4y5292px21b4835bsnjwqc7w009kq1/T//cc2y8DPY.s:506    .rodata._ZL13TMR_CallBack1v.str1.4:0000000000000000 $d
/var/folders/l3/4y5292px21b4835bsnjwqc7w009kq1/T//cc2y8DPY.s:510    .rodata._ZL13TMR_CallBack2v.str1.4:0000000000000000 $d
/var/folders/l3/4y5292px21b4835bsnjwqc7w009kq1/T//cc2y8DPY.s:514    .rodata._ZL15vTaskMsgProcessPv.str1.4:0000000000000000 $d
/var/folders/l3/4y5292px21b4835bsnjwqc7w009kq1/T//cc2y8DPY.s:547    .rodata._ZL17vTaskCtrolProcessPv.str1.4:0000000000000000 $d
/var/folders/l3/4y5292px21b4835bsnjwqc7w009kq1/T//cc2y8DPY.s:551    .rodata._ZL8vTaskLEDPv.str1.4:0000000000000000 $d
/var/folders/l3/4y5292px21b4835bsnjwqc7w009kq1/T//cc2y8DPY.s:557    .rodata.vApplicationStackOverflowHook.str1.4:0000000000000000 $d

UNDEFINED SYMBOLS
xTaskCreate
__aeabi_unwind_cpp_pr0
bsp_LedToggle
puts
__aeabi_unwind_cpp_pr1
xQueueCreateMutex
bsp_Init
vTimerInitForRunTimeState
vTaskStartScheduler
vsnprintf
xQueueGenericReceive
printf
xQueueGenericSend
vTaskDelay
vTaskList
vTaskGetRunTimeStats
comGetChar
bsp_StartHardTimer
comClearRxFifo
