ARM GAS  /var/folders/l3/4y5292px21b4835bsnjwqc7w009kq1/T//ccgsbs2F.s 			page 1


   1              		.cpu cortex-m4
   2              		.eabi_attribute 27, 1
   3              		.eabi_attribute 20, 1
   4              		.eabi_attribute 21, 1
   5              		.eabi_attribute 23, 3
   6              		.eabi_attribute 24, 1
   7              		.eabi_attribute 25, 1
   8              		.eabi_attribute 26, 1
   9              		.eabi_attribute 30, 1
  10              		.eabi_attribute 34, 1
  11              		.eabi_attribute 18, 4
  12              		.file	"main.cpp"
  13              		.text
  14              		.section	.text._ZNK8std_msgs4Time9serializeEPh,"axG",%progbits,_ZNK8std_msgs4Time9serializeEPh,com
  15              		.align	1
  16              		.weak	_ZNK8std_msgs4Time9serializeEPh
  17              		.syntax unified
  18              		.thumb
  19              		.thumb_func
  20              		.fpu fpv4-sp-d16
  22              	_ZNK8std_msgs4Time9serializeEPh:
  23              		.fnstart
  24              	.LFB383:
  25              		@ args = 0, pretend = 0, frame = 0
  26              		@ frame_needed = 0, uses_anonymous_args = 0
  27              		@ link register save eliminated.
  28 0000 4368     		ldr	r3, [r0, #4]
  29 0002 0B70     		strb	r3, [r1]
  30 0004 4368     		ldr	r3, [r0, #4]
  31 0006 1B0A     		lsrs	r3, r3, #8
  32 0008 4B70     		strb	r3, [r1, #1]
  33 000a C388     		ldrh	r3, [r0, #6]
  34 000c 8B70     		strb	r3, [r1, #2]
  35 000e C379     		ldrb	r3, [r0, #7]	@ zero_extendqisi2
  36 0010 CB70     		strb	r3, [r1, #3]
  37 0012 8368     		ldr	r3, [r0, #8]
  38 0014 0B71     		strb	r3, [r1, #4]
  39 0016 8368     		ldr	r3, [r0, #8]
  40 0018 1B0A     		lsrs	r3, r3, #8
  41 001a 4B71     		strb	r3, [r1, #5]
  42 001c 4389     		ldrh	r3, [r0, #10]
  43 001e 8B71     		strb	r3, [r1, #6]
  44 0020 C37A     		ldrb	r3, [r0, #11]	@ zero_extendqisi2
  45 0022 CB71     		strb	r3, [r1, #7]
  46 0024 0820     		movs	r0, #8
  47 0026 7047     		bx	lr
  48              		.cantunwind
  49              		.fnend
  51              		.section	.text._ZN8std_msgs4Time11deserializeEPh,"axG",%progbits,_ZN8std_msgs4Time11deserializeEPh
  52              		.align	1
  53              		.weak	_ZN8std_msgs4Time11deserializeEPh
  54              		.syntax unified
  55              		.thumb
  56              		.thumb_func
  57              		.fpu fpv4-sp-d16
  59              	_ZN8std_msgs4Time11deserializeEPh:
  60              		.fnstart
ARM GAS  /var/folders/l3/4y5292px21b4835bsnjwqc7w009kq1/T//ccgsbs2F.s 			page 2


  61              	.LFB384:
  62              		@ args = 0, pretend = 0, frame = 0
  63              		@ frame_needed = 0, uses_anonymous_args = 0
  64              		@ link register save eliminated.
  65 0000 0B78     		ldrb	r3, [r1]	@ zero_extendqisi2
  66 0002 4360     		str	r3, [r0, #4]
  67 0004 4A78     		ldrb	r2, [r1, #1]	@ zero_extendqisi2
  68 0006 43EA0223 		orr	r3, r3, r2, lsl #8
  69 000a 4360     		str	r3, [r0, #4]
  70 000c 8A78     		ldrb	r2, [r1, #2]	@ zero_extendqisi2
  71 000e 43EA0243 		orr	r3, r3, r2, lsl #16
  72 0012 4360     		str	r3, [r0, #4]
  73 0014 CA78     		ldrb	r2, [r1, #3]	@ zero_extendqisi2
  74 0016 43EA0263 		orr	r3, r3, r2, lsl #24
  75 001a 4360     		str	r3, [r0, #4]
  76 001c 0B79     		ldrb	r3, [r1, #4]	@ zero_extendqisi2
  77 001e 8360     		str	r3, [r0, #8]
  78 0020 4A79     		ldrb	r2, [r1, #5]	@ zero_extendqisi2
  79 0022 43EA0223 		orr	r3, r3, r2, lsl #8
  80 0026 8360     		str	r3, [r0, #8]
  81 0028 8A79     		ldrb	r2, [r1, #6]	@ zero_extendqisi2
  82 002a 43EA0243 		orr	r3, r3, r2, lsl #16
  83 002e 8360     		str	r3, [r0, #8]
  84 0030 CA79     		ldrb	r2, [r1, #7]	@ zero_extendqisi2
  85 0032 43EA0263 		orr	r3, r3, r2, lsl #24
  86 0036 8360     		str	r3, [r0, #8]
  87 0038 0820     		movs	r0, #8
  88 003a 7047     		bx	lr
  89              		.cantunwind
  90              		.fnend
  92              		.section	.text._ZN8std_msgs4Time7getTypeEv,"axG",%progbits,_ZN8std_msgs4Time7getTypeEv,comdat
  93              		.align	1
  94              		.weak	_ZN8std_msgs4Time7getTypeEv
  95              		.syntax unified
  96              		.thumb
  97              		.thumb_func
  98              		.fpu fpv4-sp-d16
 100              	_ZN8std_msgs4Time7getTypeEv:
 101              		.fnstart
 102              	.LFB385:
 103              		@ args = 0, pretend = 0, frame = 0
 104              		@ frame_needed = 0, uses_anonymous_args = 0
 105              		@ link register save eliminated.
 106 0000 0048     		ldr	r0, .L4
 107 0002 7047     		bx	lr
 108              	.L5:
 109              		.align	2
 110              	.L4:
 111 0004 00000000 		.word	.LC0
 112              		.cantunwind
 113              		.fnend
 115              		.section	.text._ZN8std_msgs4Time6getMD5Ev,"axG",%progbits,_ZN8std_msgs4Time6getMD5Ev,comdat
 116              		.align	1
 117              		.weak	_ZN8std_msgs4Time6getMD5Ev
 118              		.syntax unified
 119              		.thumb
 120              		.thumb_func
ARM GAS  /var/folders/l3/4y5292px21b4835bsnjwqc7w009kq1/T//ccgsbs2F.s 			page 3


 121              		.fpu fpv4-sp-d16
 123              	_ZN8std_msgs4Time6getMD5Ev:
 124              		.fnstart
 125              	.LFB386:
 126              		@ args = 0, pretend = 0, frame = 0
 127              		@ frame_needed = 0, uses_anonymous_args = 0
 128              		@ link register save eliminated.
 129 0000 0048     		ldr	r0, .L7
 130 0002 7047     		bx	lr
 131              	.L8:
 132              		.align	2
 133              	.L7:
 134 0004 00000000 		.word	.LC1
 135              		.cantunwind
 136              		.fnend
 138              		.section	.text._ZN14rosserial_msgs9TopicInfo11deserializeEPh,"axG",%progbits,_ZN14rosserial_msgs9T
 139              		.align	1
 140              		.weak	_ZN14rosserial_msgs9TopicInfo11deserializeEPh
 141              		.syntax unified
 142              		.thumb
 143              		.thumb_func
 144              		.fpu fpv4-sp-d16
 146              	_ZN14rosserial_msgs9TopicInfo11deserializeEPh:
 147              		.fnstart
 148              	.LFB388:
 149              		@ args = 0, pretend = 0, frame = 0
 150              		@ frame_needed = 0, uses_anonymous_args = 0
 151              		@ link register save eliminated.
 152 0000 70B4     		push	{r4, r5, r6}
 153 0002 0B78     		ldrb	r3, [r1]	@ zero_extendqisi2
 154 0004 8380     		strh	r3, [r0, #4]	@ movhi
 155 0006 4A78     		ldrb	r2, [r1, #1]	@ zero_extendqisi2
 156 0008 43EA0223 		orr	r3, r3, r2, lsl #8
 157 000c 8380     		strh	r3, [r0, #4]	@ movhi
 158 000e D1F80250 		ldr	r5, [r1, #2]	@ unaligned
 159 0012 0623     		movs	r3, #6
 160              	.L11:
 161 0014 AA1D     		adds	r2, r5, #6
 162 0016 9A42     		cmp	r2, r3
 163 0018 04D9     		bls	.L10
 164 001a 5A1E     		subs	r2, r3, #1
 165 001c CC5C     		ldrb	r4, [r1, r3]	@ zero_extendqisi2
 166 001e 8C54     		strb	r4, [r1, r2]
 167 0020 0133     		adds	r3, r3, #1
 168 0022 F7E7     		b	.L11
 169              	.L10:
 170 0024 0535     		adds	r5, r5, #5
 171 0026 0023     		movs	r3, #0
 172 0028 4B55     		strb	r3, [r1, r5]
 173 002a 4B1D     		adds	r3, r1, #5
 174 002c 8360     		str	r3, [r0, #8]
 175 002e 8E58     		ldr	r6, [r1, r2]	@ unaligned
 176 0030 141D     		adds	r4, r2, #4
 177 0032 2346     		mov	r3, r4
 178              	.L13:
 179 0034 3219     		adds	r2, r6, r4
 180 0036 9A42     		cmp	r2, r3
ARM GAS  /var/folders/l3/4y5292px21b4835bsnjwqc7w009kq1/T//ccgsbs2F.s 			page 4


 181 0038 04D9     		bls	.L12
 182 003a 5A1E     		subs	r2, r3, #1
 183 003c CD5C     		ldrb	r5, [r1, r3]	@ zero_extendqisi2
 184 003e 8D54     		strb	r5, [r1, r2]
 185 0040 0133     		adds	r3, r3, #1
 186 0042 F7E7     		b	.L13
 187              	.L12:
 188 0044 531E     		subs	r3, r2, #1
 189 0046 0025     		movs	r5, #0
 190 0048 CD54     		strb	r5, [r1, r3]
 191 004a 013C     		subs	r4, r4, #1
 192 004c 0C44     		add	r4, r4, r1
 193 004e C460     		str	r4, [r0, #12]
 194 0050 8E58     		ldr	r6, [r1, r2]	@ unaligned
 195 0052 0432     		adds	r2, r2, #4
 196 0054 1346     		mov	r3, r2
 197              	.L15:
 198 0056 B418     		adds	r4, r6, r2
 199 0058 9C42     		cmp	r4, r3
 200 005a 04D9     		bls	.L14
 201 005c 5C1E     		subs	r4, r3, #1
 202 005e CD5C     		ldrb	r5, [r1, r3]	@ zero_extendqisi2
 203 0060 0D55     		strb	r5, [r1, r4]
 204 0062 0133     		adds	r3, r3, #1
 205 0064 F7E7     		b	.L15
 206              	.L14:
 207 0066 631E     		subs	r3, r4, #1
 208 0068 0025     		movs	r5, #0
 209 006a CD54     		strb	r5, [r1, r3]
 210 006c 013A     		subs	r2, r2, #1
 211 006e 0A44     		add	r2, r2, r1
 212 0070 0261     		str	r2, [r0, #16]
 213 0072 0B5D     		ldrb	r3, [r1, r4]	@ zero_extendqisi2
 214 0074 621C     		adds	r2, r4, #1
 215 0076 8A5C     		ldrb	r2, [r1, r2]	@ zero_extendqisi2
 216 0078 43EA0223 		orr	r3, r3, r2, lsl #8
 217 007c A21C     		adds	r2, r4, #2
 218 007e 8A5C     		ldrb	r2, [r1, r2]	@ zero_extendqisi2
 219 0080 43EA0243 		orr	r3, r3, r2, lsl #16
 220 0084 E21C     		adds	r2, r4, #3
 221 0086 8A5C     		ldrb	r2, [r1, r2]	@ zero_extendqisi2
 222 0088 43EA0263 		orr	r3, r3, r2, lsl #24
 223 008c 4361     		str	r3, [r0, #20]
 224 008e 201D     		adds	r0, r4, #4
 225 0090 70BC     		pop	{r4, r5, r6}
 226 0092 7047     		bx	lr
 227              		.cantunwind
 228              		.fnend
 230              		.section	.text._ZN14rosserial_msgs9TopicInfo7getTypeEv,"axG",%progbits,_ZN14rosserial_msgs9TopicIn
 231              		.align	1
 232              		.weak	_ZN14rosserial_msgs9TopicInfo7getTypeEv
 233              		.syntax unified
 234              		.thumb
 235              		.thumb_func
 236              		.fpu fpv4-sp-d16
 238              	_ZN14rosserial_msgs9TopicInfo7getTypeEv:
 239              		.fnstart
ARM GAS  /var/folders/l3/4y5292px21b4835bsnjwqc7w009kq1/T//ccgsbs2F.s 			page 5


 240              	.LFB389:
 241              		@ args = 0, pretend = 0, frame = 0
 242              		@ frame_needed = 0, uses_anonymous_args = 0
 243              		@ link register save eliminated.
 244 0000 0048     		ldr	r0, .L18
 245 0002 7047     		bx	lr
 246              	.L19:
 247              		.align	2
 248              	.L18:
 249 0004 00000000 		.word	.LC2
 250              		.cantunwind
 251              		.fnend
 253              		.section	.text._ZN14rosserial_msgs9TopicInfo6getMD5Ev,"axG",%progbits,_ZN14rosserial_msgs9TopicInf
 254              		.align	1
 255              		.weak	_ZN14rosserial_msgs9TopicInfo6getMD5Ev
 256              		.syntax unified
 257              		.thumb
 258              		.thumb_func
 259              		.fpu fpv4-sp-d16
 261              	_ZN14rosserial_msgs9TopicInfo6getMD5Ev:
 262              		.fnstart
 263              	.LFB390:
 264              		@ args = 0, pretend = 0, frame = 0
 265              		@ frame_needed = 0, uses_anonymous_args = 0
 266              		@ link register save eliminated.
 267 0000 0048     		ldr	r0, .L21
 268 0002 7047     		bx	lr
 269              	.L22:
 270              		.align	2
 271              	.L21:
 272 0004 00000000 		.word	.LC3
 273              		.cantunwind
 274              		.fnend
 276              		.section	.text._ZN14rosserial_msgs3Log11deserializeEPh,"axG",%progbits,_ZN14rosserial_msgs3Log11de
 277              		.align	1
 278              		.weak	_ZN14rosserial_msgs3Log11deserializeEPh
 279              		.syntax unified
 280              		.thumb
 281              		.thumb_func
 282              		.fpu fpv4-sp-d16
 284              	_ZN14rosserial_msgs3Log11deserializeEPh:
 285              		.fnstart
 286              	.LFB392:
 287              		@ args = 0, pretend = 0, frame = 0
 288              		@ frame_needed = 0, uses_anonymous_args = 0
 289              		@ link register save eliminated.
 290 0000 30B4     		push	{r4, r5}
 291 0002 0B78     		ldrb	r3, [r1]	@ zero_extendqisi2
 292 0004 0371     		strb	r3, [r0, #4]
 293 0006 D1F80150 		ldr	r5, [r1, #1]	@ unaligned
 294 000a 0523     		movs	r3, #5
 295              	.L25:
 296 000c 6A1D     		adds	r2, r5, #5
 297 000e 9A42     		cmp	r2, r3
 298 0010 04D9     		bls	.L24
 299 0012 5A1E     		subs	r2, r3, #1
 300 0014 CC5C     		ldrb	r4, [r1, r3]	@ zero_extendqisi2
ARM GAS  /var/folders/l3/4y5292px21b4835bsnjwqc7w009kq1/T//ccgsbs2F.s 			page 6


 301 0016 8C54     		strb	r4, [r1, r2]
 302 0018 0133     		adds	r3, r3, #1
 303 001a F7E7     		b	.L25
 304              	.L24:
 305 001c 0435     		adds	r5, r5, #4
 306 001e 0023     		movs	r3, #0
 307 0020 4B55     		strb	r3, [r1, r5]
 308 0022 0431     		adds	r1, r1, #4
 309 0024 8160     		str	r1, [r0, #8]
 310 0026 1046     		mov	r0, r2
 311 0028 30BC     		pop	{r4, r5}
 312 002a 7047     		bx	lr
 313              		.cantunwind
 314              		.fnend
 316              		.section	.text._ZN14rosserial_msgs3Log7getTypeEv,"axG",%progbits,_ZN14rosserial_msgs3Log7getTypeEv
 317              		.align	1
 318              		.weak	_ZN14rosserial_msgs3Log7getTypeEv
 319              		.syntax unified
 320              		.thumb
 321              		.thumb_func
 322              		.fpu fpv4-sp-d16
 324              	_ZN14rosserial_msgs3Log7getTypeEv:
 325              		.fnstart
 326              	.LFB393:
 327              		@ args = 0, pretend = 0, frame = 0
 328              		@ frame_needed = 0, uses_anonymous_args = 0
 329              		@ link register save eliminated.
 330 0000 0048     		ldr	r0, .L28
 331 0002 7047     		bx	lr
 332              	.L29:
 333              		.align	2
 334              	.L28:
 335 0004 00000000 		.word	.LC4
 336              		.cantunwind
 337              		.fnend
 339              		.section	.text._ZN14rosserial_msgs3Log6getMD5Ev,"axG",%progbits,_ZN14rosserial_msgs3Log6getMD5Ev,c
 340              		.align	1
 341              		.weak	_ZN14rosserial_msgs3Log6getMD5Ev
 342              		.syntax unified
 343              		.thumb
 344              		.thumb_func
 345              		.fpu fpv4-sp-d16
 347              	_ZN14rosserial_msgs3Log6getMD5Ev:
 348              		.fnstart
 349              	.LFB394:
 350              		@ args = 0, pretend = 0, frame = 0
 351              		@ frame_needed = 0, uses_anonymous_args = 0
 352              		@ link register save eliminated.
 353 0000 0048     		ldr	r0, .L31
 354 0002 7047     		bx	lr
 355              	.L32:
 356              		.align	2
 357              	.L31:
 358 0004 00000000 		.word	.LC5
 359              		.cantunwind
 360              		.fnend
 362              		.section	.text._ZN14rosserial_msgs20RequestParamResponse7getTypeEv,"axG",%progbits,_ZN14rosserial_
ARM GAS  /var/folders/l3/4y5292px21b4835bsnjwqc7w009kq1/T//ccgsbs2F.s 			page 7


 363              		.align	1
 364              		.weak	_ZN14rosserial_msgs20RequestParamResponse7getTypeEv
 365              		.syntax unified
 366              		.thumb
 367              		.thumb_func
 368              		.fpu fpv4-sp-d16
 370              	_ZN14rosserial_msgs20RequestParamResponse7getTypeEv:
 371              		.fnstart
 372              	.LFB401:
 373              		@ args = 0, pretend = 0, frame = 0
 374              		@ frame_needed = 0, uses_anonymous_args = 0
 375              		@ link register save eliminated.
 376 0000 0048     		ldr	r0, .L34
 377 0002 7047     		bx	lr
 378              	.L35:
 379              		.align	2
 380              	.L34:
 381 0004 00000000 		.word	.LANCHOR0
 382              		.cantunwind
 383              		.fnend
 385              		.section	.text._ZN14rosserial_msgs20RequestParamResponse6getMD5Ev,"axG",%progbits,_ZN14rosserial_m
 386              		.align	1
 387              		.weak	_ZN14rosserial_msgs20RequestParamResponse6getMD5Ev
 388              		.syntax unified
 389              		.thumb
 390              		.thumb_func
 391              		.fpu fpv4-sp-d16
 393              	_ZN14rosserial_msgs20RequestParamResponse6getMD5Ev:
 394              		.fnstart
 395              	.LFB402:
 396              		@ args = 0, pretend = 0, frame = 0
 397              		@ frame_needed = 0, uses_anonymous_args = 0
 398              		@ link register save eliminated.
 399 0000 0048     		ldr	r0, .L37
 400 0002 7047     		bx	lr
 401              	.L38:
 402              		.align	2
 403              	.L37:
 404 0004 00000000 		.word	.LC6
 405              		.cantunwind
 406              		.fnend
 408              		.section	.text._Z41__static_initialization_and_destruction_0ii,"ax",%progbits
 409              		.align	1
 410              		.syntax unified
 411              		.thumb
 412              		.thumb_func
 413              		.fpu fpv4-sp-d16
 415              	_Z41__static_initialization_and_destruction_0ii:
 416              		.fnstart
 417              	.LFB485:
 418              		@ args = 0, pretend = 0, frame = 0
 419              		@ frame_needed = 0, uses_anonymous_args = 0
 420              		@ link register save eliminated.
 421 0000 0128     		cmp	r0, #1
 422 0002 00D0     		beq	.L49
 423              	.L39:
 424 0004 7047     		bx	lr
ARM GAS  /var/folders/l3/4y5292px21b4835bsnjwqc7w009kq1/T//ccgsbs2F.s 			page 8


 425              	.L49:
 426 0006 4FF6FF73 		movw	r3, #65535
 427 000a 9942     		cmp	r1, r3
 428 000c FAD1     		bne	.L39
 429 000e 204A     		ldr	r2, .L50
 430 0010 204B     		ldr	r3, .L50+4
 431 0012 1360     		str	r3, [r2]
 432 0014 0023     		movs	r3, #0
 433 0016 82F85434 		strb	r3, [r2, #1108]
 434 001a 1F49     		ldr	r1, .L50+8
 435 001c C2F86814 		str	r1, [r2, #1128]
 436              	.L42:
 437 0020 042B     		cmp	r3, #4
 438 0022 07D8     		bhi	.L46
 439 0024 03F58371 		add	r1, r3, #262
 440 0028 194A     		ldr	r2, .L50
 441 002a 0020     		movs	r0, #0
 442 002c 42F82100 		str	r0, [r2, r1, lsl #2]
 443 0030 0133     		adds	r3, r3, #1
 444 0032 F5E7     		b	.L42
 445              	.L46:
 446 0034 0023     		movs	r3, #0
 447              	.L41:
 448 0036 042B     		cmp	r3, #4
 449 0038 08D8     		bhi	.L47
 450 003a 03F58571 		add	r1, r3, #266
 451 003e 144A     		ldr	r2, .L50
 452 0040 02EB8102 		add	r2, r2, r1, lsl #2
 453 0044 0021     		movs	r1, #0
 454 0046 5160     		str	r1, [r2, #4]
 455 0048 0133     		adds	r3, r3, #1
 456 004a F4E7     		b	.L41
 457              	.L47:
 458 004c 0023     		movs	r3, #0
 459              	.L43:
 460 004e B3F5007F 		cmp	r3, #512
 461 0052 05D2     		bcs	.L48
 462 0054 0E4A     		ldr	r2, .L50
 463 0056 1A44     		add	r2, r2, r3
 464 0058 0021     		movs	r1, #0
 465 005a 1176     		strb	r1, [r2, #24]
 466 005c 0133     		adds	r3, r3, #1
 467 005e F6E7     		b	.L43
 468              	.L48:
 469 0060 0023     		movs	r3, #0
 470              	.L44:
 471 0062 B3F5007F 		cmp	r3, #512
 472 0066 06D2     		bcs	.L45
 473 0068 094A     		ldr	r2, .L50
 474 006a 1A44     		add	r2, r2, r3
 475 006c 0021     		movs	r1, #0
 476 006e 82F81812 		strb	r1, [r2, #536]
 477 0072 0133     		adds	r3, r3, #1
 478 0074 F5E7     		b	.L44
 479              	.L45:
 480 0076 064B     		ldr	r3, .L50
 481 0078 0022     		movs	r2, #0
ARM GAS  /var/folders/l3/4y5292px21b4835bsnjwqc7w009kq1/T//ccgsbs2F.s 			page 9


 482 007a 83F86C24 		strb	r2, [r3, #1132]
 483 007e C3F87424 		str	r2, [r3, #1140]
 484 0082 83F87824 		strb	r2, [r3, #1144]
 485 0086 C3F88024 		str	r2, [r3, #1152]
 486 008a 5A61     		str	r2, [r3, #20]
 487 008c BAE7     		b	.L39
 488              	.L51:
 489 008e 00BF     		.align	2
 490              	.L50:
 491 0090 00000000 		.word	.LANCHOR1
 492 0094 08000000 		.word	_ZTVN3ros11NodeHandle_I13STM32HardwareLi5ELi5ELi512ELi512EEE+8
 493 0098 08000000 		.word	_ZTVN14rosserial_msgs20RequestParamResponseE+8
 494              		.cantunwind
 495              		.fnend
 497              		.section	.text._ZN3ros11NodeHandle_I13STM32HardwareLi5ELi5ELi512ELi512EE7publishEiPKNS_3MsgE,"axG"
 498              		.align	1
 499              		.weak	_ZN3ros11NodeHandle_I13STM32HardwareLi5ELi5ELi512ELi512EE7publishEiPKNS_3MsgE
 500              		.syntax unified
 501              		.thumb
 502              		.thumb_func
 503              		.fpu fpv4-sp-d16
 505              	_ZN3ros11NodeHandle_I13STM32HardwareLi5ELi5ELi512ELi512EE7publishEiPKNS_3MsgE:
 506              		.fnstart
 507              	.LFB486:
 508              		@ args = 0, pretend = 0, frame = 16
 509              		@ frame_needed = 0, uses_anonymous_args = 0
 510 0000 6329     		cmp	r1, #99
 511 0002 03DD     		ble	.L53
 512 0004 90F85434 		ldrb	r3, [r0, #1108]	@ zero_extendqisi2
 513 0008 002B     		cmp	r3, #0
 514 000a 4BD0     		beq	.L57
 515              	.L53:
 516 000c 30B5     		push	{r4, r5, lr}
 517              		.save {r4, r5, lr}
 518              		.pad #20
 519 000e 85B0     		sub	sp, sp, #20
 520 0010 0D46     		mov	r5, r1
 521 0012 0446     		mov	r4, r0
 522 0014 1368     		ldr	r3, [r2]
 523 0016 1B68     		ldr	r3, [r3]
 524 0018 00F21F21 		addw	r1, r0, #543
 525 001c 1046     		mov	r0, r2
 526 001e 9847     		blx	r3
 527 0020 FF23     		movs	r3, #255
 528 0022 84F81832 		strb	r3, [r4, #536]
 529 0026 FE23     		movs	r3, #254
 530 0028 84F81932 		strb	r3, [r4, #537]
 531 002c C3B2     		uxtb	r3, r0
 532 002e 84F81A32 		strb	r3, [r4, #538]
 533 0032 C0F30722 		ubfx	r2, r0, #8, #8
 534 0036 84F81B22 		strb	r2, [r4, #539]
 535 003a 1344     		add	r3, r3, r2
 536 003c DBB2     		uxtb	r3, r3
 537 003e DB43     		mvns	r3, r3
 538 0040 84F81C32 		strb	r3, [r4, #540]
 539 0044 84F81D52 		strb	r5, [r4, #541]
 540 0048 45F30721 		sbfx	r1, r5, #8, #8
ARM GAS  /var/folders/l3/4y5292px21b4835bsnjwqc7w009kq1/T//ccgsbs2F.s 			page 10


 541 004c 84F81E12 		strb	r1, [r4, #542]
 542 0050 0523     		movs	r3, #5
 543 0052 0022     		movs	r2, #0
 544              	.L56:
 545 0054 C11D     		adds	r1, r0, #7
 546 0056 9942     		cmp	r1, r3
 547 0058 05DD     		ble	.L55
 548 005a E118     		adds	r1, r4, r3
 549 005c 91F81812 		ldrb	r1, [r1, #536]	@ zero_extendqisi2
 550 0060 0A44     		add	r2, r2, r1
 551 0062 0133     		adds	r3, r3, #1
 552 0064 F6E7     		b	.L56
 553              	.L55:
 554 0066 5342     		rsbs	r3, r2, #0
 555 0068 D2B2     		uxtb	r2, r2
 556 006a DBB2     		uxtb	r3, r3
 557 006c 58BF     		it	pl
 558 006e 5A42     		rsbpl	r2, r3, #0
 559 0070 0830     		adds	r0, r0, #8
 560 0072 D243     		mvns	r2, r2
 561 0074 2144     		add	r1, r1, r4
 562 0076 81F81822 		strb	r2, [r1, #536]
 563 007a B0F5007F 		cmp	r0, #512
 564 007e 01DC     		bgt	.L61
 565              	.L52:
 566 0080 05B0     		add	sp, sp, #20
 567              		@ sp needed
 568 0082 30BD     		pop	{r4, r5, pc}
 569              	.L61:
 570 0084 084B     		ldr	r3, .L62
 571 0086 0193     		str	r3, [sp, #4]
 572 0088 0323     		movs	r3, #3
 573 008a 8DF80830 		strb	r3, [sp, #8]
 574 008e 074B     		ldr	r3, .L62+4
 575 0090 0393     		str	r3, [sp, #12]
 576 0092 2368     		ldr	r3, [r4]
 577 0094 1B68     		ldr	r3, [r3]
 578 0096 01AA     		add	r2, sp, #4
 579 0098 0721     		movs	r1, #7
 580 009a 2046     		mov	r0, r4
 581 009c 9847     		blx	r3
 582 009e 4FF0FF30 		mov	r0, #-1
 583 00a2 EDE7     		b	.L52
 584              	.L57:
 585 00a4 0020     		movs	r0, #0
 586 00a6 7047     		bx	lr
 587              	.L63:
 588              		.align	2
 589              	.L62:
 590 00a8 08000000 		.word	_ZTVN14rosserial_msgs3LogE+8
 591 00ac 00000000 		.word	.LC7
 592              		.fnend
 594              		.section	.text._ZN3ros11NodeHandle_I13STM32HardwareLi5ELi5ELi512ELi512EE9connectedEv,"axG",%progbi
 595              		.align	1
 596              		.weak	_ZN3ros11NodeHandle_I13STM32HardwareLi5ELi5ELi512ELi512EE9connectedEv
 597              		.syntax unified
 598              		.thumb
ARM GAS  /var/folders/l3/4y5292px21b4835bsnjwqc7w009kq1/T//ccgsbs2F.s 			page 11


 599              		.thumb_func
 600              		.fpu fpv4-sp-d16
 602              	_ZN3ros11NodeHandle_I13STM32HardwareLi5ELi5ELi512ELi512EE9connectedEv:
 603              		.fnstart
 604              	.LFB488:
 605              		@ args = 0, pretend = 0, frame = 0
 606              		@ frame_needed = 0, uses_anonymous_args = 0
 607              		@ link register save eliminated.
 608 0000 90F85404 		ldrb	r0, [r0, #1108]	@ zero_extendqisi2
 609 0004 7047     		bx	lr
 610              		.cantunwind
 611              		.fnend
 613              		.section	.text._ZL13AppTaskCreatev,"ax",%progbits
 614              		.align	1
 615              		.syntax unified
 616              		.thumb
 617              		.thumb_func
 618              		.fpu fpv4-sp-d16
 620              	_ZL13AppTaskCreatev:
 621              		.fnstart
 622              	.LFB466:
 623              		@ args = 0, pretend = 0, frame = 0
 624              		@ frame_needed = 0, uses_anonymous_args = 0
 625 0000 00B5     		push	{lr}
 626              		.save {lr}
 627              		.pad #12
 628 0002 83B0     		sub	sp, sp, #12
 629 0004 164B     		ldr	r3, .L73
 630 0006 0193     		str	r3, [sp, #4]
 631 0008 0223     		movs	r3, #2
 632 000a 0093     		str	r3, [sp]
 633 000c 0023     		movs	r3, #0
 634 000e 4FF40072 		mov	r2, #512
 635 0012 1449     		ldr	r1, .L73+4
 636 0014 1448     		ldr	r0, .L73+8
 637 0016 FFF7FEFF 		bl	xTaskCreate
 638 001a 0128     		cmp	r0, #1
 639 001c 00D0     		beq	.L66
 640              	.L67:
 641 001e FEE7     		b	.L67
 642              	.L66:
 643 0020 124B     		ldr	r3, .L73+12
 644 0022 0193     		str	r3, [sp, #4]
 645 0024 0323     		movs	r3, #3
 646 0026 0093     		str	r3, [sp]
 647 0028 0023     		movs	r3, #0
 648 002a 4FF40072 		mov	r2, #512
 649 002e 1049     		ldr	r1, .L73+16
 650 0030 1048     		ldr	r0, .L73+20
 651 0032 FFF7FEFF 		bl	xTaskCreate
 652 0036 0128     		cmp	r0, #1
 653 0038 00D0     		beq	.L68
 654              	.L69:
 655 003a FEE7     		b	.L69
 656              	.L68:
 657 003c 0E4B     		ldr	r3, .L73+24
 658 003e 0193     		str	r3, [sp, #4]
ARM GAS  /var/folders/l3/4y5292px21b4835bsnjwqc7w009kq1/T//ccgsbs2F.s 			page 12


 659 0040 0423     		movs	r3, #4
 660 0042 0093     		str	r3, [sp]
 661 0044 0023     		movs	r3, #0
 662 0046 4FF40072 		mov	r2, #512
 663 004a 0C49     		ldr	r1, .L73+28
 664 004c 0C48     		ldr	r0, .L73+32
 665 004e FFF7FEFF 		bl	xTaskCreate
 666 0052 0128     		cmp	r0, #1
 667 0054 00D0     		beq	.L65
 668              	.L71:
 669 0056 FEE7     		b	.L71
 670              	.L65:
 671 0058 03B0     		add	sp, sp, #12
 672              		@ sp needed
 673 005a 5DF804FB 		ldr	pc, [sp], #4
 674              	.L74:
 675 005e 00BF     		.align	2
 676              	.L73:
 677 0060 00000000 		.word	.LANCHOR2
 678 0064 00000000 		.word	.LC8
 679 0068 00000000 		.word	_ZL8vTaskLEDPv
 680 006c 00000000 		.word	.LANCHOR3
 681 0070 0C000000 		.word	.LC9
 682 0074 00000000 		.word	_ZL15vTaskMsgProcessPv
 683 0078 00000000 		.word	.LANCHOR4
 684 007c 1C000000 		.word	.LC10
 685 0080 00000000 		.word	_ZL17vTaskCtrolProcessPv
 686              		.fnend
 688              		.section	.text._ZL13TMR_CallBack2v,"ax",%progbits
 689              		.align	1
 690              		.syntax unified
 691              		.thumb
 692              		.thumb_func
 693              		.fpu fpv4-sp-d16
 695              	_ZL13TMR_CallBack2v:
 696              		.fnstart
 697              	.LFB470:
 698              		@ args = 0, pretend = 0, frame = 0
 699              		@ frame_needed = 0, uses_anonymous_args = 0
 700 0000 08B5     		push	{r3, lr}
 701              		.save {r3, lr}
 702 0002 0420     		movs	r0, #4
 703 0004 FFF7FEFF 		bl	bsp_LedToggle
 704 0008 0148     		ldr	r0, .L77
 705 000a FFF7FEFF 		bl	puts
 706 000e 08BD     		pop	{r3, pc}
 707              	.L78:
 708              		.align	2
 709              	.L77:
 710 0010 00000000 		.word	.LC11
 711              		.fnend
 713              		.section	.text._ZL13TMR_CallBack1v,"ax",%progbits
 714              		.align	1
 715              		.syntax unified
 716              		.thumb
 717              		.thumb_func
 718              		.fpu fpv4-sp-d16
ARM GAS  /var/folders/l3/4y5292px21b4835bsnjwqc7w009kq1/T//ccgsbs2F.s 			page 13


 720              	_ZL13TMR_CallBack1v:
 721              		.fnstart
 722              	.LFB469:
 723              		@ args = 0, pretend = 0, frame = 0
 724              		@ frame_needed = 0, uses_anonymous_args = 0
 725 0000 08B5     		push	{r3, lr}
 726              		.save {r3, lr}
 727 0002 0320     		movs	r0, #3
 728 0004 FFF7FEFF 		bl	bsp_LedToggle
 729 0008 0148     		ldr	r0, .L81
 730 000a FFF7FEFF 		bl	puts
 731 000e 08BD     		pop	{r3, pc}
 732              	.L82:
 733              		.align	2
 734              	.L81:
 735 0010 00000000 		.word	.LC12
 736              		.fnend
 738              		.section	.text._ZL12AppObjCreatev,"ax",%progbits
 739              		.align	1
 740              		.syntax unified
 741              		.thumb
 742              		.thumb_func
 743              		.fpu fpv4-sp-d16
 745              	_ZL12AppObjCreatev:
 746              		.fnstart
 747              	.LFB467:
 748              		@ args = 0, pretend = 0, frame = 0
 749              		@ frame_needed = 0, uses_anonymous_args = 0
 750 0000 08B5     		push	{r3, lr}
 751              		.save {r3, lr}
 752 0002 0120     		movs	r0, #1
 753 0004 FFF7FEFF 		bl	xQueueCreateMutex
 754 0008 034B     		ldr	r3, .L87
 755 000a 1860     		str	r0, [r3]
 756 000c 00B1     		cbz	r0, .L86
 757              	.L83:
 758 000e 08BD     		pop	{r3, pc}
 759              	.L86:
 760 0010 0248     		ldr	r0, .L87+4
 761 0012 FFF7FEFF 		bl	puts
 762 0016 FAE7     		b	.L83
 763              	.L88:
 764              		.align	2
 765              	.L87:
 766 0018 00000000 		.word	.LANCHOR5
 767 001c 00000000 		.word	.LC13
 768              		.fnend
 770              		.section	.text._ZNK14rosserial_msgs9TopicInfo9serializeEPh,"axG",%progbits,_ZNK14rosserial_msgs9To
 771              		.align	1
 772              		.weak	_ZNK14rosserial_msgs9TopicInfo9serializeEPh
 773              		.syntax unified
 774              		.thumb
 775              		.thumb_func
 776              		.fpu fpv4-sp-d16
 778              	_ZNK14rosserial_msgs9TopicInfo9serializeEPh:
 779              		.fnstart
 780              	.LFB387:
ARM GAS  /var/folders/l3/4y5292px21b4835bsnjwqc7w009kq1/T//ccgsbs2F.s 			page 14


 781              		@ args = 0, pretend = 0, frame = 0
 782              		@ frame_needed = 0, uses_anonymous_args = 0
 783 0000 2DE9F041 		push	{r4, r5, r6, r7, r8, lr}
 784 0004 0646     		mov	r6, r0
 785 0006 0C46     		mov	r4, r1
 786 0008 8388     		ldrh	r3, [r0, #4]
 787 000a 0B70     		strb	r3, [r1]
 788 000c 8388     		ldrh	r3, [r0, #4]
 789 000e 1B0A     		lsrs	r3, r3, #8
 790 0010 4B70     		strb	r3, [r1, #1]
 791 0012 8068     		ldr	r0, [r0, #8]
 792 0014 FFF7FEFF 		bl	strlen
 793 0018 0746     		mov	r7, r0
 794 001a C4F80200 		str	r0, [r4, #2]	@ unaligned
 795 001e 0246     		mov	r2, r0
 796 0020 B168     		ldr	r1, [r6, #8]
 797 0022 A01D     		adds	r0, r4, #6
 798 0024 FFF7FEFF 		bl	memcpy
 799 0028 07F10608 		add	r8, r7, #6
 800 002c F068     		ldr	r0, [r6, #12]
 801 002e FFF7FEFF 		bl	strlen
 802 0032 0546     		mov	r5, r0
 803 0034 44F80800 		str	r0, [r4, r8]	@ unaligned
 804 0038 0A37     		adds	r7, r7, #10
 805 003a 0246     		mov	r2, r0
 806 003c F168     		ldr	r1, [r6, #12]
 807 003e E019     		adds	r0, r4, r7
 808 0040 FFF7FEFF 		bl	memcpy
 809 0044 2F44     		add	r7, r7, r5
 810 0046 3069     		ldr	r0, [r6, #16]
 811 0048 FFF7FEFF 		bl	strlen
 812 004c 0546     		mov	r5, r0
 813 004e E051     		str	r0, [r4, r7]	@ unaligned
 814 0050 0437     		adds	r7, r7, #4
 815 0052 0246     		mov	r2, r0
 816 0054 3169     		ldr	r1, [r6, #16]
 817 0056 E019     		adds	r0, r4, r7
 818 0058 FFF7FEFF 		bl	memcpy
 819 005c E819     		adds	r0, r5, r7
 820 005e 7369     		ldr	r3, [r6, #20]
 821 0060 2354     		strb	r3, [r4, r0]
 822 0062 190A     		lsrs	r1, r3, #8
 823 0064 421C     		adds	r2, r0, #1
 824 0066 A154     		strb	r1, [r4, r2]
 825 0068 190C     		lsrs	r1, r3, #16
 826 006a 821C     		adds	r2, r0, #2
 827 006c A154     		strb	r1, [r4, r2]
 828 006e 1B0E     		lsrs	r3, r3, #24
 829 0070 C21C     		adds	r2, r0, #3
 830 0072 A354     		strb	r3, [r4, r2]
 831 0074 0430     		adds	r0, r0, #4
 832 0076 BDE8F081 		pop	{r4, r5, r6, r7, r8, pc}
 833              		.cantunwind
 834              		.fnend
 836              		.section	.text._ZNK14rosserial_msgs3Log9serializeEPh,"axG",%progbits,_ZNK14rosserial_msgs3Log9seri
 837              		.align	1
 838              		.weak	_ZNK14rosserial_msgs3Log9serializeEPh
ARM GAS  /var/folders/l3/4y5292px21b4835bsnjwqc7w009kq1/T//ccgsbs2F.s 			page 15


 839              		.syntax unified
 840              		.thumb
 841              		.thumb_func
 842              		.fpu fpv4-sp-d16
 844              	_ZNK14rosserial_msgs3Log9serializeEPh:
 845              		.fnstart
 846              	.LFB391:
 847              		@ args = 0, pretend = 0, frame = 0
 848              		@ frame_needed = 0, uses_anonymous_args = 0
 849 0000 70B5     		push	{r4, r5, r6, lr}
 850 0002 0646     		mov	r6, r0
 851 0004 0D46     		mov	r5, r1
 852 0006 0379     		ldrb	r3, [r0, #4]	@ zero_extendqisi2
 853 0008 0B70     		strb	r3, [r1]
 854 000a 8068     		ldr	r0, [r0, #8]
 855 000c FFF7FEFF 		bl	strlen
 856 0010 0446     		mov	r4, r0
 857 0012 C5F80100 		str	r0, [r5, #1]	@ unaligned
 858 0016 0246     		mov	r2, r0
 859 0018 B168     		ldr	r1, [r6, #8]
 860 001a 681D     		adds	r0, r5, #5
 861 001c FFF7FEFF 		bl	memcpy
 862 0020 601D     		adds	r0, r4, #5
 863 0022 70BD     		pop	{r4, r5, r6, pc}
 864              		.cantunwind
 865              		.fnend
 867              		.section	.text._ZNK14rosserial_msgs20RequestParamResponse9serializeEPh,"axG",%progbits,_ZNK14rosse
 868              		.align	1
 869              		.weak	_ZNK14rosserial_msgs20RequestParamResponse9serializeEPh
 870              		.syntax unified
 871              		.thumb
 872              		.thumb_func
 873              		.fpu fpv4-sp-d16
 875              	_ZNK14rosserial_msgs20RequestParamResponse9serializeEPh:
 876              		.fnstart
 877              	.LFB399:
 878              		@ args = 0, pretend = 0, frame = 0
 879              		@ frame_needed = 0, uses_anonymous_args = 0
 880 0000 2DE9F041 		push	{r4, r5, r6, r7, r8, lr}
 881 0004 0546     		mov	r5, r0
 882 0006 0C46     		mov	r4, r1
 883 0008 0379     		ldrb	r3, [r0, #4]	@ zero_extendqisi2
 884 000a 0B70     		strb	r3, [r1]
 885 000c 0022     		movs	r2, #0
 886 000e 4A70     		strb	r2, [r1, #1]
 887 0010 8A70     		strb	r2, [r1, #2]
 888 0012 CA70     		strb	r2, [r1, #3]
 889 0014 0423     		movs	r3, #4
 890              	.L95:
 891 0016 2979     		ldrb	r1, [r5, #4]	@ zero_extendqisi2
 892 0018 9142     		cmp	r1, r2
 893 001a 10D9     		bls	.L94
 894 001c E968     		ldr	r1, [r5, #12]
 895 001e 51F82210 		ldr	r1, [r1, r2, lsl #2]
 896 0022 E154     		strb	r1, [r4, r3]
 897 0024 0E0A     		lsrs	r6, r1, #8
 898 0026 581C     		adds	r0, r3, #1
ARM GAS  /var/folders/l3/4y5292px21b4835bsnjwqc7w009kq1/T//ccgsbs2F.s 			page 16


 899 0028 2654     		strb	r6, [r4, r0]
 900 002a 0E0C     		lsrs	r6, r1, #16
 901 002c 981C     		adds	r0, r3, #2
 902 002e 2654     		strb	r6, [r4, r0]
 903 0030 090E     		lsrs	r1, r1, #24
 904 0032 D81C     		adds	r0, r3, #3
 905 0034 2154     		strb	r1, [r4, r0]
 906 0036 0433     		adds	r3, r3, #4
 907 0038 0132     		adds	r2, r2, #1
 908 003a D2B2     		uxtb	r2, r2
 909 003c EBE7     		b	.L95
 910              	.L94:
 911 003e 591C     		adds	r1, r3, #1
 912 0040 2A7C     		ldrb	r2, [r5, #16]	@ zero_extendqisi2
 913 0042 E254     		strb	r2, [r4, r3]
 914 0044 981C     		adds	r0, r3, #2
 915 0046 0022     		movs	r2, #0
 916 0048 6254     		strb	r2, [r4, r1]
 917 004a D91C     		adds	r1, r3, #3
 918 004c 2254     		strb	r2, [r4, r0]
 919 004e 0433     		adds	r3, r3, #4
 920 0050 6254     		strb	r2, [r4, r1]
 921              	.L97:
 922 0052 297C     		ldrb	r1, [r5, #16]	@ zero_extendqisi2
 923 0054 9142     		cmp	r1, r2
 924 0056 10D9     		bls	.L96
 925 0058 A969     		ldr	r1, [r5, #24]
 926 005a 51F82210 		ldr	r1, [r1, r2, lsl #2]
 927 005e E154     		strb	r1, [r4, r3]
 928 0060 0E0A     		lsrs	r6, r1, #8
 929 0062 581C     		adds	r0, r3, #1
 930 0064 2654     		strb	r6, [r4, r0]
 931 0066 0E0C     		lsrs	r6, r1, #16
 932 0068 981C     		adds	r0, r3, #2
 933 006a 2654     		strb	r6, [r4, r0]
 934 006c 090E     		lsrs	r1, r1, #24
 935 006e D81C     		adds	r0, r3, #3
 936 0070 2154     		strb	r1, [r4, r0]
 937 0072 0433     		adds	r3, r3, #4
 938 0074 0132     		adds	r2, r2, #1
 939 0076 D2B2     		uxtb	r2, r2
 940 0078 EBE7     		b	.L97
 941              	.L96:
 942 007a 5A1C     		adds	r2, r3, #1
 943 007c 297F     		ldrb	r1, [r5, #28]	@ zero_extendqisi2
 944 007e E154     		strb	r1, [r4, r3]
 945 0080 991C     		adds	r1, r3, #2
 946 0082 4FF00008 		mov	r8, #0
 947 0086 04F80280 		strb	r8, [r4, r2]
 948 008a DA1C     		adds	r2, r3, #3
 949 008c 04F80180 		strb	r8, [r4, r1]
 950 0090 1E1D     		adds	r6, r3, #4
 951 0092 04F80280 		strb	r8, [r4, r2]
 952              	.L99:
 953 0096 2B7F     		ldrb	r3, [r5, #28]	@ zero_extendqisi2
 954 0098 4345     		cmp	r3, r8
 955 009a 14D9     		bls	.L93
ARM GAS  /var/folders/l3/4y5292px21b4835bsnjwqc7w009kq1/T//ccgsbs2F.s 			page 17


 956 009c 6B6A     		ldr	r3, [r5, #36]
 957 009e 53F82800 		ldr	r0, [r3, r8, lsl #2]
 958 00a2 FFF7FEFF 		bl	strlen
 959 00a6 0746     		mov	r7, r0
 960 00a8 A051     		str	r0, [r4, r6]	@ unaligned
 961 00aa 0436     		adds	r6, r6, #4
 962 00ac 6B6A     		ldr	r3, [r5, #36]
 963 00ae 0246     		mov	r2, r0
 964 00b0 53F82810 		ldr	r1, [r3, r8, lsl #2]
 965 00b4 A019     		adds	r0, r4, r6
 966 00b6 FFF7FEFF 		bl	memcpy
 967 00ba 3E44     		add	r6, r6, r7
 968 00bc 08F10108 		add	r8, r8, #1
 969 00c0 5FFA88F8 		uxtb	r8, r8
 970 00c4 E7E7     		b	.L99
 971              	.L93:
 972 00c6 3046     		mov	r0, r6
 973 00c8 BDE8F081 		pop	{r4, r5, r6, r7, r8, pc}
 974              		.cantunwind
 975              		.fnend
 977              		.section	.text._ZN14rosserial_msgs20RequestParamResponse11deserializeEPh,"axG",%progbits,_ZN14ross
 978              		.align	1
 979              		.weak	_ZN14rosserial_msgs20RequestParamResponse11deserializeEPh
 980              		.syntax unified
 981              		.thumb
 982              		.thumb_func
 983              		.fpu fpv4-sp-d16
 985              	_ZN14rosserial_msgs20RequestParamResponse11deserializeEPh:
 986              		.fnstart
 987              	.LFB400:
 988              		@ args = 0, pretend = 0, frame = 0
 989              		@ frame_needed = 0, uses_anonymous_args = 0
 990 0000 F8B5     		push	{r3, r4, r5, r6, r7, lr}
 991 0002 0646     		mov	r6, r0
 992 0004 0D46     		mov	r5, r1
 993 0006 0C78     		ldrb	r4, [r1]	@ zero_extendqisi2
 994 0008 0379     		ldrb	r3, [r0, #4]	@ zero_extendqisi2
 995 000a A342     		cmp	r3, r4
 996 000c 1AD3     		bcc	.L114
 997              	.L102:
 998 000e 3471     		strb	r4, [r6, #4]
 999 0010 0022     		movs	r2, #0
 1000 0012 0424     		movs	r4, #4
 1001              	.L104:
 1002 0014 3379     		ldrb	r3, [r6, #4]	@ zero_extendqisi2
 1003 0016 9342     		cmp	r3, r2
 1004 0018 1AD9     		bls	.L103
 1005 001a 2B5D     		ldrb	r3, [r5, r4]	@ zero_extendqisi2
 1006 001c 611C     		adds	r1, r4, #1
 1007 001e 695C     		ldrb	r1, [r5, r1]	@ zero_extendqisi2
 1008 0020 43EA0123 		orr	r3, r3, r1, lsl #8
 1009 0024 A11C     		adds	r1, r4, #2
 1010 0026 695C     		ldrb	r1, [r5, r1]	@ zero_extendqisi2
 1011 0028 43EA0143 		orr	r3, r3, r1, lsl #16
 1012 002c E11C     		adds	r1, r4, #3
 1013 002e 695C     		ldrb	r1, [r5, r1]	@ zero_extendqisi2
 1014 0030 43EA0163 		orr	r3, r3, r1, lsl #24
ARM GAS  /var/folders/l3/4y5292px21b4835bsnjwqc7w009kq1/T//ccgsbs2F.s 			page 18


 1015 0034 B360     		str	r3, [r6, #8]
 1016 0036 0434     		adds	r4, r4, #4
 1017 0038 F168     		ldr	r1, [r6, #12]
 1018 003a 41F82230 		str	r3, [r1, r2, lsl #2]	@ unaligned
 1019 003e 0132     		adds	r2, r2, #1
 1020 0040 D2B2     		uxtb	r2, r2
 1021 0042 E7E7     		b	.L104
 1022              	.L114:
 1023 0044 A100     		lsls	r1, r4, #2
 1024 0046 C068     		ldr	r0, [r0, #12]
 1025 0048 FFF7FEFF 		bl	realloc
 1026 004c F060     		str	r0, [r6, #12]
 1027 004e DEE7     		b	.L102
 1028              	.L103:
 1029 0050 2F5D     		ldrb	r7, [r5, r4]	@ zero_extendqisi2
 1030 0052 337C     		ldrb	r3, [r6, #16]	@ zero_extendqisi2
 1031 0054 BB42     		cmp	r3, r7
 1032 0056 1AD3     		bcc	.L115
 1033              	.L105:
 1034 0058 0434     		adds	r4, r4, #4
 1035 005a 3774     		strb	r7, [r6, #16]
 1036 005c 0022     		movs	r2, #0
 1037              	.L107:
 1038 005e 337C     		ldrb	r3, [r6, #16]	@ zero_extendqisi2
 1039 0060 9342     		cmp	r3, r2
 1040 0062 1AD9     		bls	.L106
 1041 0064 2B5D     		ldrb	r3, [r5, r4]	@ zero_extendqisi2
 1042 0066 611C     		adds	r1, r4, #1
 1043 0068 695C     		ldrb	r1, [r5, r1]	@ zero_extendqisi2
 1044 006a 43EA0123 		orr	r3, r3, r1, lsl #8
 1045 006e A11C     		adds	r1, r4, #2
 1046 0070 695C     		ldrb	r1, [r5, r1]	@ zero_extendqisi2
 1047 0072 43EA0143 		orr	r3, r3, r1, lsl #16
 1048 0076 E11C     		adds	r1, r4, #3
 1049 0078 695C     		ldrb	r1, [r5, r1]	@ zero_extendqisi2
 1050 007a 43EA0163 		orr	r3, r3, r1, lsl #24
 1051 007e 7361     		str	r3, [r6, #20]	@ float
 1052 0080 0434     		adds	r4, r4, #4
 1053 0082 B169     		ldr	r1, [r6, #24]
 1054 0084 41F82230 		str	r3, [r1, r2, lsl #2]	@ unaligned
 1055 0088 0132     		adds	r2, r2, #1
 1056 008a D2B2     		uxtb	r2, r2
 1057 008c E7E7     		b	.L107
 1058              	.L115:
 1059 008e B900     		lsls	r1, r7, #2
 1060 0090 B069     		ldr	r0, [r6, #24]
 1061 0092 FFF7FEFF 		bl	realloc
 1062 0096 B061     		str	r0, [r6, #24]
 1063 0098 DEE7     		b	.L105
 1064              	.L106:
 1065 009a 2F5D     		ldrb	r7, [r5, r4]	@ zero_extendqisi2
 1066 009c 337F     		ldrb	r3, [r6, #28]	@ zero_extendqisi2
 1067 009e BB42     		cmp	r3, r7
 1068 00a0 04D3     		bcc	.L116
 1069              	.L108:
 1070 00a2 201D     		adds	r0, r4, #4
 1071 00a4 3777     		strb	r7, [r6, #28]
ARM GAS  /var/folders/l3/4y5292px21b4835bsnjwqc7w009kq1/T//ccgsbs2F.s 			page 19


 1072 00a6 4FF0000C 		mov	ip, #0
 1073 00aa 12E0     		b	.L112
 1074              	.L116:
 1075 00ac B900     		lsls	r1, r7, #2
 1076 00ae 706A     		ldr	r0, [r6, #36]
 1077 00b0 FFF7FEFF 		bl	realloc
 1078 00b4 7062     		str	r0, [r6, #36]
 1079 00b6 F4E7     		b	.L108
 1080              	.L110:
 1081 00b8 431E     		subs	r3, r0, #1
 1082 00ba 0022     		movs	r2, #0
 1083 00bc EA54     		strb	r2, [r5, r3]
 1084 00be 013C     		subs	r4, r4, #1
 1085 00c0 2C44     		add	r4, r4, r5
 1086 00c2 3462     		str	r4, [r6, #32]
 1087 00c4 736A     		ldr	r3, [r6, #36]
 1088 00c6 43F82C40 		str	r4, [r3, ip, lsl #2]	@ unaligned
 1089 00ca 0CF1010C 		add	ip, ip, #1
 1090 00ce 5FFA8CFC 		uxtb	ip, ip
 1091              	.L112:
 1092 00d2 337F     		ldrb	r3, [r6, #28]	@ zero_extendqisi2
 1093 00d4 6345     		cmp	r3, ip
 1094 00d6 0AD9     		bls	.L101
 1095 00d8 2F58     		ldr	r7, [r5, r0]	@ unaligned
 1096 00da 041D     		adds	r4, r0, #4
 1097 00dc 2346     		mov	r3, r4
 1098              	.L111:
 1099 00de 3819     		adds	r0, r7, r4
 1100 00e0 9842     		cmp	r0, r3
 1101 00e2 E9D9     		bls	.L110
 1102 00e4 5A1E     		subs	r2, r3, #1
 1103 00e6 E95C     		ldrb	r1, [r5, r3]	@ zero_extendqisi2
 1104 00e8 A954     		strb	r1, [r5, r2]
 1105 00ea 0133     		adds	r3, r3, #1
 1106 00ec F7E7     		b	.L111
 1107              	.L101:
 1108 00ee F8BD     		pop	{r3, r4, r5, r6, r7, pc}
 1109              		.cantunwind
 1110              		.fnend
 1112              		.section	.text.main,"ax",%progbits
 1113              		.align	1
 1114              		.global	main
 1115              		.syntax unified
 1116              		.thumb
 1117              		.thumb_func
 1118              		.fpu fpv4-sp-d16
 1120              	main:
 1121              		.fnstart
 1122              	.LFB462:
 1123              		@ args = 0, pretend = 0, frame = 0
 1124              		@ frame_needed = 0, uses_anonymous_args = 0
 1125 0000 08B5     		push	{r3, lr}
 1126              		.save {r3, lr}
 1127 0002 0123     		movs	r3, #1
 1128              		.syntax unified
 1129              	@ 215 "../Libraries/CMSIS/CM4/CoreSupport/cmsis_gcc.h" 1
 1130 0004 83F31088 		MSR primask, r3
ARM GAS  /var/folders/l3/4y5292px21b4835bsnjwqc7w009kq1/T//ccgsbs2F.s 			page 20


 1131              	@ 0 "" 2
 1132              		.thumb
 1133              		.syntax unified
 1134 0008 FFF7FEFF 		bl	bsp_Init
 1135 000c FFF7FEFF 		bl	vTimerInitForRunTimeState
 1136 0010 FFF7FEFF 		bl	_ZL13AppTaskCreatev
 1137 0014 FFF7FEFF 		bl	_ZL12AppObjCreatev
 1138 0018 FFF7FEFF 		bl	vTaskStartScheduler
 1139              	.L118:
 1140 001c FEE7     		b	.L118
 1141              		.fnend
 1143              		.section	.text._Z10App_PrintfPKcz,"ax",%progbits
 1144              		.align	1
 1145              		.global	_Z10App_PrintfPKcz
 1146              		.syntax unified
 1147              		.thumb
 1148              		.thumb_func
 1149              		.fpu fpv4-sp-d16
 1151              	_Z10App_PrintfPKcz:
 1152              		.fnstart
 1153              	.LFB468:
 1154              		@ args = 4, pretend = 16, frame = 208
 1155              		@ frame_needed = 0, uses_anonymous_args = 1
 1156 0000 0FB4     		push	{r0, r1, r2, r3}
 1157              		.save {r0, r1, r2, r3}
 1158 0002 10B5     		push	{r4, lr}
 1159              		.save {r4, lr}
 1160              		.pad #208
 1161 0004 B4B0     		sub	sp, sp, #208
 1162 0006 36AB     		add	r3, sp, #216
 1163 0008 53F8042B 		ldr	r2, [r3], #4
 1164 000c 0093     		str	r3, [sp]
 1165 000e C921     		movs	r1, #201
 1166 0010 01A8     		add	r0, sp, #4
 1167 0012 FFF7FEFF 		bl	vsnprintf
 1168 0016 0B4C     		ldr	r4, .L122
 1169 0018 0023     		movs	r3, #0
 1170 001a 4FF0FF32 		mov	r2, #-1
 1171 001e 1946     		mov	r1, r3
 1172 0020 2068     		ldr	r0, [r4]
 1173 0022 FFF7FEFF 		bl	xQueueGenericReceive
 1174 0026 01A9     		add	r1, sp, #4
 1175 0028 0748     		ldr	r0, .L122+4
 1176 002a FFF7FEFF 		bl	printf
 1177 002e 0023     		movs	r3, #0
 1178 0030 1A46     		mov	r2, r3
 1179 0032 1946     		mov	r1, r3
 1180 0034 2068     		ldr	r0, [r4]
 1181 0036 FFF7FEFF 		bl	xQueueGenericSend
 1182 003a 34B0     		add	sp, sp, #208
 1183              		@ sp needed
 1184 003c BDE81040 		pop	{r4, lr}
 1185 0040 04B0     		add	sp, sp, #16
 1186 0042 7047     		bx	lr
 1187              	.L123:
 1188              		.align	2
 1189              	.L122:
ARM GAS  /var/folders/l3/4y5292px21b4835bsnjwqc7w009kq1/T//ccgsbs2F.s 			page 21


 1190 0044 00000000 		.word	.LANCHOR5
 1191 0048 00000000 		.word	.LC14
 1192              		.fnend
 1194              		.section	.text._ZL17vTaskCtrolProcessPv,"ax",%progbits
 1195              		.align	1
 1196              		.syntax unified
 1197              		.thumb
 1198              		.thumb_func
 1199              		.fpu fpv4-sp-d16
 1201              	_ZL17vTaskCtrolProcessPv:
 1202              		.fnstart
 1203              	.LFB465:
 1204              		@ args = 0, pretend = 0, frame = 0
 1205              		@ frame_needed = 0, uses_anonymous_args = 0
 1206 0000 08B5     		push	{r3, lr}
 1207              		.save {r3, lr}
 1208              	.L125:
 1209 0002 4FF47A70 		mov	r0, #1000
 1210 0006 FFF7FEFF 		bl	vTaskDelay
 1211 000a 0248     		ldr	r0, .L127
 1212 000c FFF7FEFF 		bl	_Z10App_PrintfPKcz
 1213 0010 F7E7     		b	.L125
 1214              	.L128:
 1215 0012 00BF     		.align	2
 1216              	.L127:
 1217 0014 00000000 		.word	.LC15
 1218              		.fnend
 1220              		.section	.text._ZL15vTaskMsgProcessPv,"ax",%progbits
 1221              		.align	1
 1222              		.syntax unified
 1223              		.thumb
 1224              		.thumb_func
 1225              		.fpu fpv4-sp-d16
 1227              	_ZL15vTaskMsgProcessPv:
 1228              		.fnstart
 1229              	.LFB464:
 1230              		@ args = 0, pretend = 0, frame = 504
 1231              		@ frame_needed = 0, uses_anonymous_args = 0
 1232 0000 10B5     		push	{r4, lr}
 1233              		.save {r4, lr}
 1234              		.pad #504
 1235 0002 FEB0     		sub	sp, sp, #504
 1236 0004 FF23     		movs	r3, #255
 1237 0006 8DF8F731 		strb	r3, [sp, #503]
 1238 000a 2E48     		ldr	r0, .L139
 1239 000c FFF7FEFF 		bl	_Z10App_PrintfPKcz
 1240 0010 2D48     		ldr	r0, .L139+4
 1241 0012 FFF7FEFF 		bl	_Z10App_PrintfPKcz
 1242 0016 2D48     		ldr	r0, .L139+8
 1243 0018 FFF7FEFF 		bl	_Z10App_PrintfPKcz
 1244 001c 26E0     		b	.L135
 1245              	.L138:
 1246 001e 2C48     		ldr	r0, .L139+12
 1247 0020 FFF7FEFF 		bl	_Z10App_PrintfPKcz
 1248 0024 2B48     		ldr	r0, .L139+16
 1249 0026 FFF7FEFF 		bl	_Z10App_PrintfPKcz
 1250 002a 6846     		mov	r0, sp
ARM GAS  /var/folders/l3/4y5292px21b4835bsnjwqc7w009kq1/T//ccgsbs2F.s 			page 22


 1251 002c FFF7FEFF 		bl	vTaskList
 1252 0030 294C     		ldr	r4, .L139+20
 1253 0032 6946     		mov	r1, sp
 1254 0034 2046     		mov	r0, r4
 1255 0036 FFF7FEFF 		bl	_Z10App_PrintfPKcz
 1256 003a 2848     		ldr	r0, .L139+24
 1257 003c FFF7FEFF 		bl	_Z10App_PrintfPKcz
 1258 0040 2748     		ldr	r0, .L139+28
 1259 0042 FFF7FEFF 		bl	_Z10App_PrintfPKcz
 1260 0046 2748     		ldr	r0, .L139+32
 1261 0048 FFF7FEFF 		bl	_Z10App_PrintfPKcz
 1262 004c 6846     		mov	r0, sp
 1263 004e FFF7FEFF 		bl	vTaskGetRunTimeStats
 1264 0052 6946     		mov	r1, sp
 1265 0054 2046     		mov	r0, r4
 1266 0056 FFF7FEFF 		bl	_Z10App_PrintfPKcz
 1267              	.L130:
 1268 005a 9DF8F731 		ldrb	r3, [sp, #503]	@ zero_extendqisi2
 1269 005e 313B     		subs	r3, r3, #49
 1270 0060 DBB2     		uxtb	r3, r3
 1271 0062 022B     		cmp	r3, #2
 1272 0064 1ED9     		bls	.L137
 1273              	.L134:
 1274 0066 6420     		movs	r0, #100
 1275 0068 FFF7FEFF 		bl	vTaskDelay
 1276              	.L135:
 1277 006c 0DF2F711 		addw	r1, sp, #503
 1278 0070 0020     		movs	r0, #0
 1279 0072 FFF7FEFF 		bl	comGetChar
 1280 0076 9DF8F731 		ldrb	r3, [sp, #503]	@ zero_extendqisi2
 1281 007a 322B     		cmp	r3, #50
 1282 007c 04D0     		beq	.L131
 1283 007e 332B     		cmp	r3, #51
 1284 0080 09D0     		beq	.L132
 1285 0082 312B     		cmp	r3, #49
 1286 0084 E9D1     		bne	.L130
 1287 0086 CAE7     		b	.L138
 1288              	.L131:
 1289 0088 174A     		ldr	r2, .L139+36
 1290 008a 4CF25031 		movw	r1, #50000
 1291 008e 0120     		movs	r0, #1
 1292 0090 FFF7FEFF 		bl	bsp_StartHardTimer
 1293 0094 E1E7     		b	.L130
 1294              	.L132:
 1295 0096 154A     		ldr	r2, .L139+40
 1296 0098 4CF25031 		movw	r1, #50000
 1297 009c 0220     		movs	r0, #2
 1298 009e FFF7FEFF 		bl	bsp_StartHardTimer
 1299 00a2 DAE7     		b	.L130
 1300              	.L137:
 1301 00a4 1248     		ldr	r0, .L139+44
 1302 00a6 FFF7FEFF 		bl	_Z10App_PrintfPKcz
 1303 00aa 0748     		ldr	r0, .L139+4
 1304 00ac FFF7FEFF 		bl	_Z10App_PrintfPKcz
 1305 00b0 0648     		ldr	r0, .L139+8
 1306 00b2 FFF7FEFF 		bl	_Z10App_PrintfPKcz
 1307 00b6 0020     		movs	r0, #0
ARM GAS  /var/folders/l3/4y5292px21b4835bsnjwqc7w009kq1/T//ccgsbs2F.s 			page 23


 1308 00b8 FFF7FEFF 		bl	comClearRxFifo
 1309 00bc FF23     		movs	r3, #255
 1310 00be 8DF8F731 		strb	r3, [sp, #503]
 1311 00c2 D0E7     		b	.L134
 1312              	.L140:
 1313              		.align	2
 1314              	.L139:
 1315 00c4 00000000 		.word	.LC16
 1316 00c8 28000000 		.word	.LC17
 1317 00cc 48000000 		.word	.LC18
 1318 00d0 68000000 		.word	.LC19
 1319 00d4 A0000000 		.word	.LC20
 1320 00d8 D8000000 		.word	.LC21
 1321 00dc E0000000 		.word	.LC22
 1322 00e0 E4000000 		.word	.LC23
 1323 00e4 1C010000 		.word	.LC24
 1324 00e8 00000000 		.word	_ZL13TMR_CallBack1v
 1325 00ec 00000000 		.word	_ZL13TMR_CallBack2v
 1326 00f0 54010000 		.word	.LC25
 1327              		.fnend
 1329              		.section	.text._ZL8vTaskLEDPv,"ax",%progbits
 1330              		.align	1
 1331              		.syntax unified
 1332              		.thumb
 1333              		.thumb_func
 1334              		.fpu fpv4-sp-d16
 1336              	_ZL8vTaskLEDPv:
 1337              		.fnstart
 1338              	.LFB463:
 1339              		@ args = 0, pretend = 0, frame = 0
 1340              		@ frame_needed = 0, uses_anonymous_args = 0
 1341 0000 08B5     		push	{r3, lr}
 1342              		.save {r3, lr}
 1343              	.L142:
 1344 0002 0220     		movs	r0, #2
 1345 0004 FFF7FEFF 		bl	bsp_LedToggle
 1346 0008 4FF47A70 		mov	r0, #1000
 1347 000c FFF7FEFF 		bl	vTaskDelay
 1348 0010 0148     		ldr	r0, .L144
 1349 0012 FFF7FEFF 		bl	_Z10App_PrintfPKcz
 1350 0016 F4E7     		b	.L142
 1351              	.L145:
 1352              		.align	2
 1353              	.L144:
 1354 0018 00000000 		.word	.LC26
 1355              		.fnend
 1357              		.section	.text.vApplicationMallocFailedHook,"ax",%progbits
 1358              		.align	1
 1359              		.global	vApplicationMallocFailedHook
 1360              		.syntax unified
 1361              		.thumb
 1362              		.thumb_func
 1363              		.fpu fpv4-sp-d16
 1365              	vApplicationMallocFailedHook:
 1366              		.fnstart
 1367              	.LFB471:
 1368              		@ Volatile: function does not return.
ARM GAS  /var/folders/l3/4y5292px21b4835bsnjwqc7w009kq1/T//ccgsbs2F.s 			page 24


 1369              		@ args = 0, pretend = 0, frame = 0
 1370              		@ frame_needed = 0, uses_anonymous_args = 0
 1371              		@ link register save eliminated.
 1372              	.L147:
 1373 0000 FEE7     		b	.L147
 1374              		.cantunwind
 1375              		.fnend
 1377              		.section	.text.vApplicationStackOverflowHook,"ax",%progbits
 1378              		.align	1
 1379              		.global	vApplicationStackOverflowHook
 1380              		.syntax unified
 1381              		.thumb
 1382              		.thumb_func
 1383              		.fpu fpv4-sp-d16
 1385              	vApplicationStackOverflowHook:
 1386              		.fnstart
 1387              	.LFB472:
 1388              		@ args = 0, pretend = 0, frame = 0
 1389              		@ frame_needed = 0, uses_anonymous_args = 0
 1390 0000 08B5     		push	{r3, lr}
 1391              		.save {r3, lr}
 1392 0002 0248     		ldr	r0, .L150
 1393 0004 FFF7FEFF 		bl	_Z10App_PrintfPKcz
 1394 0008 08BD     		pop	{r3, pc}
 1395              	.L151:
 1396 000a 00BF     		.align	2
 1397              	.L150:
 1398 000c 00000000 		.word	.LC27
 1399              		.fnend
 1401              		.section	.text._ZN3ros11NodeHandle_I13STM32HardwareLi5ELi5ELi512ELi512EE15negotiateTopicsEv,"axG",
 1402              		.align	1
 1403              		.weak	_ZN3ros11NodeHandle_I13STM32HardwareLi5ELi5ELi512ELi512EE15negotiateTopicsEv
 1404              		.syntax unified
 1405              		.thumb
 1406              		.thumb_func
 1407              		.fpu fpv4-sp-d16
 1409              	_ZN3ros11NodeHandle_I13STM32HardwareLi5ELi5ELi512ELi512EE15negotiateTopicsEv:
 1410              		.fnstart
 1411              	.LFB494:
 1412              		@ args = 0, pretend = 0, frame = 24
 1413              		@ frame_needed = 0, uses_anonymous_args = 0
 1414 0000 F0B5     		push	{r4, r5, r6, r7, lr}
 1415              		.save {r4, r5, r6, r7, lr}
 1416              		.pad #28
 1417 0002 87B0     		sub	sp, sp, #28
 1418 0004 0446     		mov	r4, r0
 1419 0006 2E4B     		ldr	r3, .L160
 1420 0008 0093     		str	r3, [sp]
 1421 000a 0025     		movs	r5, #0
 1422 000c 00E0     		b	.L155
 1423              	.L154:
 1424 000e 0135     		adds	r5, r5, #1
 1425              	.L155:
 1426 0010 042D     		cmp	r5, #4
 1427 0012 24DC     		bgt	.L158
 1428 0014 05F58373 		add	r3, r5, #262
 1429 0018 54F82330 		ldr	r3, [r4, r3, lsl #2]
ARM GAS  /var/folders/l3/4y5292px21b4835bsnjwqc7w009kq1/T//ccgsbs2F.s 			page 25


 1430 001c 002B     		cmp	r3, #0
 1431 001e F6D0     		beq	.L154
 1432 0020 9A68     		ldr	r2, [r3, #8]
 1433 0022 ADF80420 		strh	r2, [sp, #4]	@ movhi
 1434 0026 1A68     		ldr	r2, [r3]
 1435 0028 0292     		str	r2, [sp, #8]
 1436 002a 5868     		ldr	r0, [r3, #4]
 1437 002c 0368     		ldr	r3, [r0]
 1438 002e 9B68     		ldr	r3, [r3, #8]
 1439 0030 9847     		blx	r3
 1440 0032 0390     		str	r0, [sp, #12]
 1441 0034 05F58376 		add	r6, r5, #262
 1442 0038 54F82630 		ldr	r3, [r4, r6, lsl #2]
 1443 003c 5868     		ldr	r0, [r3, #4]
 1444 003e 0368     		ldr	r3, [r0]
 1445 0040 DB68     		ldr	r3, [r3, #12]
 1446 0042 9847     		blx	r3
 1447 0044 0490     		str	r0, [sp, #16]
 1448 0046 4FF40073 		mov	r3, #512
 1449 004a 0593     		str	r3, [sp, #20]
 1450 004c 54F82610 		ldr	r1, [r4, r6, lsl #2]
 1451 0050 2368     		ldr	r3, [r4]
 1452 0052 1B68     		ldr	r3, [r3]
 1453 0054 6A46     		mov	r2, sp
 1454 0056 0969     		ldr	r1, [r1, #16]
 1455 0058 2046     		mov	r0, r4
 1456 005a 9847     		blx	r3
 1457 005c D7E7     		b	.L154
 1458              	.L158:
 1459 005e 0025     		movs	r5, #0
 1460 0060 00E0     		b	.L153
 1461              	.L157:
 1462 0062 0135     		adds	r5, r5, #1
 1463              	.L153:
 1464 0064 042D     		cmp	r5, #4
 1465 0066 26DC     		bgt	.L156
 1466 0068 05F58573 		add	r3, r5, #266
 1467 006c 04EB8303 		add	r3, r4, r3, lsl #2
 1468 0070 5868     		ldr	r0, [r3, #4]
 1469 0072 0028     		cmp	r0, #0
 1470 0074 F5D0     		beq	.L157
 1471 0076 4368     		ldr	r3, [r0, #4]
 1472 0078 ADF80430 		strh	r3, [sp, #4]	@ movhi
 1473 007c 8368     		ldr	r3, [r0, #8]
 1474 007e 0293     		str	r3, [sp, #8]
 1475 0080 0368     		ldr	r3, [r0]
 1476 0082 9B68     		ldr	r3, [r3, #8]
 1477 0084 9847     		blx	r3
 1478 0086 0390     		str	r0, [sp, #12]
 1479 0088 05F58576 		add	r6, r5, #266
 1480 008c 04EB8606 		add	r6, r4, r6, lsl #2
 1481 0090 7068     		ldr	r0, [r6, #4]
 1482 0092 0368     		ldr	r3, [r0]
 1483 0094 DB68     		ldr	r3, [r3, #12]
 1484 0096 9847     		blx	r3
 1485 0098 0490     		str	r0, [sp, #16]
 1486 009a 4FF40073 		mov	r3, #512
ARM GAS  /var/folders/l3/4y5292px21b4835bsnjwqc7w009kq1/T//ccgsbs2F.s 			page 26


 1487 009e 0593     		str	r3, [sp, #20]
 1488 00a0 2368     		ldr	r3, [r4]
 1489 00a2 1F68     		ldr	r7, [r3]
 1490 00a4 7068     		ldr	r0, [r6, #4]
 1491 00a6 0368     		ldr	r3, [r0]
 1492 00a8 5B68     		ldr	r3, [r3, #4]
 1493 00aa 9847     		blx	r3
 1494 00ac 6A46     		mov	r2, sp
 1495 00ae 0146     		mov	r1, r0
 1496 00b0 2046     		mov	r0, r4
 1497 00b2 B847     		blx	r7
 1498 00b4 D5E7     		b	.L157
 1499              	.L156:
 1500 00b6 0123     		movs	r3, #1
 1501 00b8 84F85434 		strb	r3, [r4, #1108]
 1502 00bc 07B0     		add	sp, sp, #28
 1503              		@ sp needed
 1504 00be F0BD     		pop	{r4, r5, r6, r7, pc}
 1505              	.L161:
 1506              		.align	2
 1507              	.L160:
 1508 00c0 08000000 		.word	_ZTVN14rosserial_msgs9TopicInfoE+8
 1509              		.fnend
 1511              		.section	.text._ZN3ros11NodeHandle_I13STM32HardwareLi5ELi5ELi512ELi512EE8spinOnceEv,"axG",%progbit
 1512              		.align	1
 1513              		.weak	_ZN3ros11NodeHandle_I13STM32HardwareLi5ELi5ELi512ELi512EE8spinOnceEv
 1514              		.syntax unified
 1515              		.thumb
 1516              		.thumb_func
 1517              		.fpu fpv4-sp-d16
 1519              	_ZN3ros11NodeHandle_I13STM32HardwareLi5ELi5ELi512ELi512EE8spinOnceEv:
 1520              		.fnstart
 1521              	.LFB487:
 1522              		@ args = 0, pretend = 0, frame = 16
 1523              		@ frame_needed = 0, uses_anonymous_args = 0
 1524 0000 2DE9F043 		push	{r4, r5, r6, r7, r8, r9, lr}
 1525              		.save {r4, r5, r6, r7, r8, r9, lr}
 1526              		.pad #20
 1527 0004 85B0     		sub	sp, sp, #20
 1528 0006 0446     		mov	r4, r0
 1529 0008 FFF7FEFF 		bl	xTaskGetTickCount
 1530 000c 0546     		mov	r5, r0
 1531 000e D4F85C34 		ldr	r3, [r4, #1116]
 1532 0012 C31A     		subs	r3, r0, r3
 1533 0014 42F6F822 		movw	r2, #11000
 1534 0018 9342     		cmp	r3, r2
 1535 001a 02D9     		bls	.L163
 1536 001c 0023     		movs	r3, #0
 1537 001e 84F85434 		strb	r3, [r4, #1108]
 1538              	.L163:
 1539 0022 D4F84034 		ldr	r3, [r4, #1088]
 1540 0026 1BB3     		cbz	r3, .L165
 1541 0028 D4F86034 		ldr	r3, [r4, #1120]
 1542 002c AB42     		cmp	r3, r5
 1543 002e 1FD2     		bcs	.L165
 1544 0030 0023     		movs	r3, #0
 1545 0032 C4F84034 		str	r3, [r4, #1088]
ARM GAS  /var/folders/l3/4y5292px21b4835bsnjwqc7w009kq1/T//ccgsbs2F.s 			page 27


 1546 0036 1BE0     		b	.L165
 1547              	.L201:
 1548 0038 FFF7FEFF 		bl	xTaskGetTickCount
 1549 003c 401B     		subs	r0, r0, r5
 1550 003e 6369     		ldr	r3, [r4, #20]
 1551 0040 9842     		cmp	r0, r3
 1552 0042 18D9     		bls	.L199
 1553 0044 6FF00100 		mvn	r0, #1
 1554              	.L162:
 1555 0048 05B0     		add	sp, sp, #20
 1556              		@ sp needed
 1557 004a BDE8F083 		pop	{r4, r5, r6, r7, r8, r9, pc}
 1558              	.L202:
 1559 004e D4F84C34 		ldr	r3, [r4, #1100]
 1560 0052 5A1C     		adds	r2, r3, #1
 1561 0054 C4F84C24 		str	r2, [r4, #1100]
 1562 0058 2344     		add	r3, r3, r4
 1563 005a 0022     		movs	r2, #0
 1564 005c 1A76     		strb	r2, [r3, #24]
 1565 005e D4F84434 		ldr	r3, [r4, #1092]
 1566 0062 013B     		subs	r3, r3, #1
 1567 0064 C4F84434 		str	r3, [r4, #1092]
 1568 0068 13B9     		cbnz	r3, .L165
 1569 006a 0823     		movs	r3, #8
 1570 006c C4F84034 		str	r3, [r4, #1088]
 1571              	.L165:
 1572 0070 6369     		ldr	r3, [r4, #20]
 1573 0072 002B     		cmp	r3, #0
 1574 0074 E0D1     		bne	.L201
 1575              	.L199:
 1576 0076 D4F85024 		ldr	r2, [r4, #1104]
 1577 007a D4F84034 		ldr	r3, [r4, #1088]
 1578 007e 072B     		cmp	r3, #7
 1579 0080 E5D0     		beq	.L202
 1580 0082 63B9     		cbnz	r3, .L171
 1581 0084 FFF7FEFF 		bl	xTaskGetTickCount
 1582 0088 401B     		subs	r0, r0, r5
 1583 008a 41F28833 		movw	r3, #5000
 1584 008e 9842     		cmp	r0, r3
 1585 0090 EED9     		bls	.L165
 1586 0092 0023     		movs	r3, #0
 1587 0094 84F85434 		strb	r3, [r4, #1108]
 1588 0098 6FF00100 		mvn	r0, #1
 1589 009c D4E7     		b	.L162
 1590              	.L171:
 1591 009e 012B     		cmp	r3, #1
 1592 00a0 34D0     		beq	.L203
 1593 00a2 022B     		cmp	r3, #2
 1594 00a4 48D0     		beq	.L204
 1595 00a6 032B     		cmp	r3, #3
 1596 00a8 51D0     		beq	.L205
 1597 00aa 042B     		cmp	r3, #4
 1598 00ac 53D0     		beq	.L206
 1599 00ae 052B     		cmp	r3, #5
 1600 00b0 60D0     		beq	.L207
 1601 00b2 062B     		cmp	r3, #6
 1602 00b4 67D0     		beq	.L208
ARM GAS  /var/folders/l3/4y5292px21b4835bsnjwqc7w009kq1/T//ccgsbs2F.s 			page 28


 1603 00b6 082B     		cmp	r3, #8
 1604 00b8 DAD1     		bne	.L165
 1605 00ba 0023     		movs	r3, #0
 1606 00bc C4F84034 		str	r3, [r4, #1088]
 1607 00c0 9B1A     		subs	r3, r3, r2
 1608 00c2 D2B2     		uxtb	r2, r2
 1609 00c4 DBB2     		uxtb	r3, r3
 1610 00c6 58BF     		it	pl
 1611 00c8 5A42     		rsbpl	r2, r3, #0
 1612 00ca FF2A     		cmp	r2, #255
 1613 00cc D0D1     		bne	.L165
 1614 00ce D4F84834 		ldr	r3, [r4, #1096]
 1615 00d2 002B     		cmp	r3, #0
 1616 00d4 63D0     		beq	.L209
 1617 00d6 0A2B     		cmp	r3, #10
 1618 00d8 79D0     		beq	.L210
 1619 00da 062B     		cmp	r3, #6
 1620 00dc 00F0BC80 		beq	.L211
 1621 00e0 0B2B     		cmp	r3, #11
 1622 00e2 00F04E81 		beq	.L212
 1623 00e6 A3F16402 		sub	r2, r3, #100
 1624 00ea A633     		adds	r3, r3, #166
 1625 00ec 04EB8303 		add	r3, r4, r3, lsl #2
 1626 00f0 5968     		ldr	r1, [r3, #4]
 1627 00f2 0029     		cmp	r1, #0
 1628 00f4 BCD0     		beq	.L165
 1629 00f6 02F58573 		add	r3, r2, #266
 1630 00fa 04EB8303 		add	r3, r4, r3, lsl #2
 1631 00fe 0A68     		ldr	r2, [r1]
 1632 0100 1268     		ldr	r2, [r2]
 1633 0102 04F11801 		add	r1, r4, #24
 1634 0106 5868     		ldr	r0, [r3, #4]
 1635 0108 9047     		blx	r2
 1636 010a B1E7     		b	.L165
 1637              	.L203:
 1638 010c 0023     		movs	r3, #0
 1639 010e C4F84034 		str	r3, [r4, #1088]
 1640 0112 94F85434 		ldrb	r3, [r4, #1108]	@ zero_extendqisi2
 1641 0116 002B     		cmp	r3, #0
 1642 0118 AAD1     		bne	.L165
 1643 011a 9C4B     		ldr	r3, .L217
 1644 011c 0193     		str	r3, [sp, #4]
 1645 011e 0023     		movs	r3, #0
 1646 0120 0293     		str	r3, [sp, #8]
 1647 0122 0393     		str	r3, [sp, #12]
 1648 0124 2368     		ldr	r3, [r4]
 1649 0126 1B68     		ldr	r3, [r3]
 1650 0128 01AA     		add	r2, sp, #4
 1651 012a 0A21     		movs	r1, #10
 1652 012c 2046     		mov	r0, r4
 1653 012e 9847     		blx	r3
 1654 0130 FFF7FEFF 		bl	xTaskGetTickCount
 1655 0134 A060     		str	r0, [r4, #8]
 1656 0136 9BE7     		b	.L165
 1657              	.L204:
 1658 0138 0022     		movs	r2, #0
 1659 013a C4F84424 		str	r2, [r4, #1092]
ARM GAS  /var/folders/l3/4y5292px21b4835bsnjwqc7w009kq1/T//ccgsbs2F.s 			page 29


 1660 013e C4F84C24 		str	r2, [r4, #1100]
 1661 0142 0133     		adds	r3, r3, #1
 1662 0144 C4F84034 		str	r3, [r4, #1088]
 1663 0148 C4F85024 		str	r2, [r4, #1104]
 1664 014c 90E7     		b	.L165
 1665              	.L205:
 1666 014e 0133     		adds	r3, r3, #1
 1667 0150 C4F84034 		str	r3, [r4, #1088]
 1668 0154 8CE7     		b	.L165
 1669              	.L206:
 1670 0156 5142     		rsbs	r1, r2, #0
 1671 0158 D2B2     		uxtb	r2, r2
 1672 015a C9B2     		uxtb	r1, r1
 1673 015c 58BF     		it	pl
 1674 015e 4A42     		rsbpl	r2, r1, #0
 1675 0160 FF2A     		cmp	r2, #255
 1676 0162 03D0     		beq	.L213
 1677 0164 0023     		movs	r3, #0
 1678 0166 C4F84034 		str	r3, [r4, #1088]
 1679 016a 81E7     		b	.L165
 1680              	.L213:
 1681 016c 0133     		adds	r3, r3, #1
 1682 016e C4F84034 		str	r3, [r4, #1088]
 1683 0172 7DE7     		b	.L165
 1684              	.L207:
 1685 0174 0022     		movs	r2, #0
 1686 0176 C4F84824 		str	r2, [r4, #1096]
 1687 017a 0133     		adds	r3, r3, #1
 1688 017c C4F84034 		str	r3, [r4, #1088]
 1689 0180 C4F85024 		str	r2, [r4, #1104]
 1690 0184 74E7     		b	.L165
 1691              	.L208:
 1692 0186 0723     		movs	r3, #7
 1693 0188 C4F84034 		str	r3, [r4, #1088]
 1694 018c D4F84434 		ldr	r3, [r4, #1092]
 1695 0190 002B     		cmp	r3, #0
 1696 0192 7FF46DAF 		bne	.L165
 1697 0196 0823     		movs	r3, #8
 1698 0198 C4F84034 		str	r3, [r4, #1088]
 1699 019c 68E7     		b	.L165
 1700              	.L209:
 1701 019e 7B4B     		ldr	r3, .L217
 1702 01a0 0193     		str	r3, [sp, #4]
 1703 01a2 0023     		movs	r3, #0
 1704 01a4 0293     		str	r3, [sp, #8]
 1705 01a6 0393     		str	r3, [sp, #12]
 1706 01a8 2368     		ldr	r3, [r4]
 1707 01aa 1B68     		ldr	r3, [r3]
 1708 01ac 01AA     		add	r2, sp, #4
 1709 01ae 0A21     		movs	r1, #10
 1710 01b0 2046     		mov	r0, r4
 1711 01b2 9847     		blx	r3
 1712 01b4 FFF7FEFF 		bl	xTaskGetTickCount
 1713 01b8 A060     		str	r0, [r4, #8]
 1714 01ba 2046     		mov	r0, r4
 1715 01bc FFF7FEFF 		bl	_ZN3ros11NodeHandle_I13STM32HardwareLi5ELi5ELi512ELi512EE15negotiateTopicsEv
 1716 01c0 C4F85854 		str	r5, [r4, #1112]
ARM GAS  /var/folders/l3/4y5292px21b4835bsnjwqc7w009kq1/T//ccgsbs2F.s 			page 30


 1717 01c4 C4F85C54 		str	r5, [r4, #1116]
 1718 01c8 4FF0FF30 		mov	r0, #-1
 1719 01cc 3CE7     		b	.L162
 1720              	.L210:
 1721 01ce 04F11806 		add	r6, r4, #24
 1722 01d2 FFF7FEFF 		bl	xTaskGetTickCount
 1723 01d6 A368     		ldr	r3, [r4, #8]
 1724 01d8 C01A     		subs	r0, r0, r3
 1725 01da 227E     		ldrb	r2, [r4, #24]	@ zero_extendqisi2
 1726 01dc 3346     		mov	r3, r6
 1727 01de 7178     		ldrb	r1, [r6, #1]	@ zero_extendqisi2
 1728 01e0 42EA0122 		orr	r2, r2, r1, lsl #8
 1729 01e4 B178     		ldrb	r1, [r6, #2]	@ zero_extendqisi2
 1730 01e6 42EA0142 		orr	r2, r2, r1, lsl #16
 1731 01ea F178     		ldrb	r1, [r6, #3]	@ zero_extendqisi2
 1732 01ec 42EA0161 		orr	r1, r2, r1, lsl #24
 1733 01f0 3279     		ldrb	r2, [r6, #4]	@ zero_extendqisi2
 1734 01f2 7679     		ldrb	r6, [r6, #5]	@ zero_extendqisi2
 1735 01f4 42EA0622 		orr	r2, r2, r6, lsl #8
 1736 01f8 9E79     		ldrb	r6, [r3, #6]	@ zero_extendqisi2
 1737 01fa 42EA0642 		orr	r2, r2, r6, lsl #16
 1738 01fe DB79     		ldrb	r3, [r3, #7]	@ zero_extendqisi2
 1739 0200 42EA0362 		orr	r2, r2, r3, lsl #24
 1740 0204 624E     		ldr	r6, .L217+4
 1741 0206 A6FB0073 		umull	r7, r3, r6, r0
 1742 020a 9B09     		lsrs	r3, r3, #6
 1743 020c 1944     		add	r1, r1, r3
 1744 020e 0291     		str	r1, [sp, #8]
 1745 0210 4FF47A78 		mov	r8, #1000
 1746 0214 08FB1303 		mls	r3, r8, r3, r0
 1747 0218 5E4F     		ldr	r7, .L217+8
 1748 021a 07FB0323 		mla	r3, r7, r3, r2
 1749 021e 0393     		str	r3, [sp, #12]
 1750 0220 FFF7FEFF 		bl	xTaskGetTickCount
 1751 0224 A6FB0023 		umull	r2, r3, r6, r0
 1752 0228 9B09     		lsrs	r3, r3, #6
 1753 022a 029A     		ldr	r2, [sp, #8]
 1754 022c D21A     		subs	r2, r2, r3
 1755 022e 013A     		subs	r2, r2, #1
 1756 0230 E260     		str	r2, [r4, #12]
 1757 0232 08FB1303 		mls	r3, r8, r3, r0
 1758 0236 039A     		ldr	r2, [sp, #12]
 1759 0238 07FB1323 		mls	r3, r7, r3, r2
 1760 023c 564A     		ldr	r2, .L217+12
 1761 023e 1A44     		add	r2, r2, r3
 1762 0240 2146     		mov	r1, r4
 1763 0242 41F8102F 		str	r2, [r1, #16]!
 1764 0246 04F10C00 		add	r0, r4, #12
 1765 024a FFF7FEFF 		bl	_ZN3ros16normalizeSecNSecERmS0_
 1766 024e FFF7FEFF 		bl	xTaskGetTickCount
 1767 0252 C4F85C04 		str	r0, [r4, #1116]
 1768 0256 0BE7     		b	.L165
 1769              	.L211:
 1770 0258 04F58D68 		add	r8, r4, #1128
 1771 025c 04F11807 		add	r7, r4, #24
 1772 0260 267E     		ldrb	r6, [r4, #24]	@ zero_extendqisi2
 1773 0262 98F80430 		ldrb	r3, [r8, #4]	@ zero_extendqisi2
ARM GAS  /var/folders/l3/4y5292px21b4835bsnjwqc7w009kq1/T//ccgsbs2F.s 			page 31


 1774 0266 9E42     		cmp	r6, r3
 1775 0268 1ED8     		bhi	.L214
 1776              	.L184:
 1777 026a 88F80460 		strb	r6, [r8, #4]
 1778 026e 0022     		movs	r2, #0
 1779 0270 0426     		movs	r6, #4
 1780              	.L186:
 1781 0272 98F80430 		ldrb	r3, [r8, #4]	@ zero_extendqisi2
 1782 0276 9342     		cmp	r3, r2
 1783 0278 1ED9     		bls	.L185
 1784 027a BB5D     		ldrb	r3, [r7, r6]	@ zero_extendqisi2
 1785 027c 711C     		adds	r1, r6, #1
 1786 027e 795C     		ldrb	r1, [r7, r1]	@ zero_extendqisi2
 1787 0280 43EA0123 		orr	r3, r3, r1, lsl #8
 1788 0284 B11C     		adds	r1, r6, #2
 1789 0286 795C     		ldrb	r1, [r7, r1]	@ zero_extendqisi2
 1790 0288 43EA0143 		orr	r3, r3, r1, lsl #16
 1791 028c F11C     		adds	r1, r6, #3
 1792 028e 795C     		ldrb	r1, [r7, r1]	@ zero_extendqisi2
 1793 0290 43EA0163 		orr	r3, r3, r1, lsl #24
 1794 0294 C8F80830 		str	r3, [r8, #8]
 1795 0298 0436     		adds	r6, r6, #4
 1796 029a D8F80C10 		ldr	r1, [r8, #12]
 1797 029e 41F82230 		str	r3, [r1, r2, lsl #2]	@ unaligned
 1798 02a2 0132     		adds	r2, r2, #1
 1799 02a4 D2B2     		uxtb	r2, r2
 1800 02a6 E4E7     		b	.L186
 1801              	.L214:
 1802 02a8 B100     		lsls	r1, r6, #2
 1803 02aa D8F80C00 		ldr	r0, [r8, #12]
 1804 02ae FFF7FEFF 		bl	realloc
 1805 02b2 C8F80C00 		str	r0, [r8, #12]
 1806 02b6 D8E7     		b	.L184
 1807              	.L185:
 1808 02b8 17F80690 		ldrb	r9, [r7, r6]	@ zero_extendqisi2
 1809 02bc 98F81030 		ldrb	r3, [r8, #16]	@ zero_extendqisi2
 1810 02c0 9945     		cmp	r9, r3
 1811 02c2 1ED8     		bhi	.L215
 1812              	.L187:
 1813 02c4 0436     		adds	r6, r6, #4
 1814 02c6 88F81090 		strb	r9, [r8, #16]
 1815 02ca 0022     		movs	r2, #0
 1816              	.L189:
 1817 02cc 98F81030 		ldrb	r3, [r8, #16]	@ zero_extendqisi2
 1818 02d0 9342     		cmp	r3, r2
 1819 02d2 1FD9     		bls	.L188
 1820 02d4 BB5D     		ldrb	r3, [r7, r6]	@ zero_extendqisi2
 1821 02d6 711C     		adds	r1, r6, #1
 1822 02d8 795C     		ldrb	r1, [r7, r1]	@ zero_extendqisi2
 1823 02da 43EA0123 		orr	r3, r3, r1, lsl #8
 1824 02de B11C     		adds	r1, r6, #2
 1825 02e0 795C     		ldrb	r1, [r7, r1]	@ zero_extendqisi2
 1826 02e2 43EA0143 		orr	r3, r3, r1, lsl #16
 1827 02e6 F11C     		adds	r1, r6, #3
 1828 02e8 795C     		ldrb	r1, [r7, r1]	@ zero_extendqisi2
 1829 02ea 43EA0163 		orr	r3, r3, r1, lsl #24
 1830 02ee C8F81430 		str	r3, [r8, #20]	@ float
ARM GAS  /var/folders/l3/4y5292px21b4835bsnjwqc7w009kq1/T//ccgsbs2F.s 			page 32


 1831 02f2 0436     		adds	r6, r6, #4
 1832 02f4 D8F81810 		ldr	r1, [r8, #24]
 1833 02f8 41F82230 		str	r3, [r1, r2, lsl #2]	@ unaligned
 1834 02fc 0132     		adds	r2, r2, #1
 1835 02fe D2B2     		uxtb	r2, r2
 1836 0300 E4E7     		b	.L189
 1837              	.L215:
 1838 0302 4FEA8901 		lsl	r1, r9, #2
 1839 0306 D8F81800 		ldr	r0, [r8, #24]
 1840 030a FFF7FEFF 		bl	realloc
 1841 030e C8F81800 		str	r0, [r8, #24]
 1842 0312 D7E7     		b	.L187
 1843              	.L188:
 1844 0314 17F80690 		ldrb	r9, [r7, r6]	@ zero_extendqisi2
 1845 0318 98F81C30 		ldrb	r3, [r8, #28]	@ zero_extendqisi2
 1846 031c 9945     		cmp	r9, r3
 1847 031e 05D8     		bhi	.L216
 1848              	.L190:
 1849 0320 321D     		adds	r2, r6, #4
 1850 0322 88F81C90 		strb	r9, [r8, #28]
 1851 0326 4FF0000C 		mov	ip, #0
 1852 032a 17E0     		b	.L194
 1853              	.L216:
 1854 032c 4FEA8901 		lsl	r1, r9, #2
 1855 0330 D8F82400 		ldr	r0, [r8, #36]
 1856 0334 FFF7FEFF 		bl	realloc
 1857 0338 C8F82400 		str	r0, [r8, #36]
 1858 033c F0E7     		b	.L190
 1859              	.L192:
 1860 033e 531E     		subs	r3, r2, #1
 1861 0340 0021     		movs	r1, #0
 1862 0342 F954     		strb	r1, [r7, r3]
 1863 0344 731E     		subs	r3, r6, #1
 1864 0346 3B44     		add	r3, r3, r7
 1865 0348 C8F82030 		str	r3, [r8, #32]
 1866 034c D8F82410 		ldr	r1, [r8, #36]
 1867 0350 41F82C30 		str	r3, [r1, ip, lsl #2]	@ unaligned
 1868 0354 0CF1010C 		add	ip, ip, #1
 1869 0358 5FFA8CFC 		uxtb	ip, ip
 1870              	.L194:
 1871 035c 98F81C30 		ldrb	r3, [r8, #28]	@ zero_extendqisi2
 1872 0360 6345     		cmp	r3, ip
 1873 0362 0AD9     		bls	.L191
 1874 0364 B858     		ldr	r0, [r7, r2]	@ unaligned
 1875 0366 161D     		adds	r6, r2, #4
 1876 0368 3346     		mov	r3, r6
 1877              	.L193:
 1878 036a 8219     		adds	r2, r0, r6
 1879 036c 9A42     		cmp	r2, r3
 1880 036e E6D9     		bls	.L192
 1881 0370 5A1E     		subs	r2, r3, #1
 1882 0372 F95C     		ldrb	r1, [r7, r3]	@ zero_extendqisi2
 1883 0374 B954     		strb	r1, [r7, r2]
 1884 0376 0133     		adds	r3, r3, #1
 1885 0378 F7E7     		b	.L193
 1886              	.L191:
 1887 037a 0123     		movs	r3, #1
ARM GAS  /var/folders/l3/4y5292px21b4835bsnjwqc7w009kq1/T//ccgsbs2F.s 			page 33


 1888 037c 84F86434 		strb	r3, [r4, #1124]
 1889 0380 76E6     		b	.L165
 1890              	.L212:
 1891 0382 0023     		movs	r3, #0
 1892 0384 84F85434 		strb	r3, [r4, #1108]
 1893 0388 72E6     		b	.L165
 1894              	.L218:
 1895 038a 00BF     		.align	2
 1896              	.L217:
 1897 038c 08000000 		.word	_ZTVN8std_msgs4TimeE+8
 1898 0390 D34D6210 		.word	274877907
 1899 0394 40420F00 		.word	1000000
 1900 0398 00CA9A3B 		.word	1000000000
 1901              		.fnend
 1903              		.section	.text._GLOBAL__sub_I_nh,"ax",%progbits
 1904              		.align	1
 1905              		.syntax unified
 1906              		.thumb
 1907              		.thumb_func
 1908              		.fpu fpv4-sp-d16
 1910              	_GLOBAL__sub_I_nh:
 1911              		.fnstart
 1912              	.LFB504:
 1913              		@ args = 0, pretend = 0, frame = 0
 1914              		@ frame_needed = 0, uses_anonymous_args = 0
 1915 0000 08B5     		push	{r3, lr}
 1916 0002 4FF6FF71 		movw	r1, #65535
 1917 0006 0120     		movs	r0, #1
 1918 0008 FFF7FEFF 		bl	_Z41__static_initialization_and_destruction_0ii
 1919 000c 08BD     		pop	{r3, pc}
 1920              		.cantunwind
 1921              		.fnend
 1923              		.section	.init_array,"aw",%init_array
 1924              		.align	2
 1925 0000 00000000 		.word	_GLOBAL__sub_I_nh(target1)
 1926              		.weak	_ZTVN8std_msgs4TimeE
 1927              		.section	.rodata._ZTVN8std_msgs4TimeE,"aG",%progbits,_ZTVN8std_msgs4TimeE,comdat
 1928              		.align	2
 1931              	_ZTVN8std_msgs4TimeE:
 1932 0000 00000000 		.word	0
 1933 0004 00000000 		.word	0
 1934 0008 00000000 		.word	_ZNK8std_msgs4Time9serializeEPh
 1935 000c 00000000 		.word	_ZN8std_msgs4Time11deserializeEPh
 1936 0010 00000000 		.word	_ZN8std_msgs4Time7getTypeEv
 1937 0014 00000000 		.word	_ZN8std_msgs4Time6getMD5Ev
 1938              		.weak	_ZTVN14rosserial_msgs9TopicInfoE
 1939              		.section	.rodata._ZTVN14rosserial_msgs9TopicInfoE,"aG",%progbits,_ZTVN14rosserial_msgs9TopicInfoE,
 1940              		.align	2
 1943              	_ZTVN14rosserial_msgs9TopicInfoE:
 1944 0000 00000000 		.word	0
 1945 0004 00000000 		.word	0
 1946 0008 00000000 		.word	_ZNK14rosserial_msgs9TopicInfo9serializeEPh
 1947 000c 00000000 		.word	_ZN14rosserial_msgs9TopicInfo11deserializeEPh
 1948 0010 00000000 		.word	_ZN14rosserial_msgs9TopicInfo7getTypeEv
 1949 0014 00000000 		.word	_ZN14rosserial_msgs9TopicInfo6getMD5Ev
 1950              		.weak	_ZTVN14rosserial_msgs3LogE
 1951              		.section	.rodata._ZTVN14rosserial_msgs3LogE,"aG",%progbits,_ZTVN14rosserial_msgs3LogE,comdat
ARM GAS  /var/folders/l3/4y5292px21b4835bsnjwqc7w009kq1/T//ccgsbs2F.s 			page 34


 1952              		.align	2
 1955              	_ZTVN14rosserial_msgs3LogE:
 1956 0000 00000000 		.word	0
 1957 0004 00000000 		.word	0
 1958 0008 00000000 		.word	_ZNK14rosserial_msgs3Log9serializeEPh
 1959 000c 00000000 		.word	_ZN14rosserial_msgs3Log11deserializeEPh
 1960 0010 00000000 		.word	_ZN14rosserial_msgs3Log7getTypeEv
 1961 0014 00000000 		.word	_ZN14rosserial_msgs3Log6getMD5Ev
 1962              		.weak	_ZTVN14rosserial_msgs20RequestParamResponseE
 1963              		.section	.rodata._ZTVN14rosserial_msgs20RequestParamResponseE,"aG",%progbits,_ZTVN14rosserial_msgs
 1964              		.align	2
 1967              	_ZTVN14rosserial_msgs20RequestParamResponseE:
 1968 0000 00000000 		.word	0
 1969 0004 00000000 		.word	0
 1970 0008 00000000 		.word	_ZNK14rosserial_msgs20RequestParamResponse9serializeEPh
 1971 000c 00000000 		.word	_ZN14rosserial_msgs20RequestParamResponse11deserializeEPh
 1972 0010 00000000 		.word	_ZN14rosserial_msgs20RequestParamResponse7getTypeEv
 1973 0014 00000000 		.word	_ZN14rosserial_msgs20RequestParamResponse6getMD5Ev
 1974              		.weak	_ZTVN3ros11NodeHandle_I13STM32HardwareLi5ELi5ELi512ELi512EEE
 1975              		.section	.rodata._ZTVN3ros11NodeHandle_I13STM32HardwareLi5ELi5ELi512ELi512EEE,"aG",%progbits,_ZTVN
 1976              		.align	2
 1979              	_ZTVN3ros11NodeHandle_I13STM32HardwareLi5ELi5ELi512ELi512EEE:
 1980 0000 00000000 		.word	0
 1981 0004 00000000 		.word	0
 1982 0008 00000000 		.word	_ZN3ros11NodeHandle_I13STM32HardwareLi5ELi5ELi512ELi512EE7publishEiPKNS_3MsgE
 1983 000c 00000000 		.word	_ZN3ros11NodeHandle_I13STM32HardwareLi5ELi5ELi512ELi512EE8spinOnceEv
 1984 0010 00000000 		.word	_ZN3ros11NodeHandle_I13STM32HardwareLi5ELi5ELi512ELi512EE9connectedEv
 1985              		.global	nh
 1986              		.section	.bss._ZL14xHandleTaskLED,"aw",%nobits
 1987              		.align	2
 1988              		.set	.LANCHOR2,. + 0
 1991              	_ZL14xHandleTaskLED:
 1992 0000 00000000 		.space	4
 1993              		.section	.bss._ZL17xHandleMutexPrint,"aw",%nobits
 1994              		.align	2
 1995              		.set	.LANCHOR5,. + 0
 1998              	_ZL17xHandleMutexPrint:
 1999 0000 00000000 		.space	4
 2000              		.section	.bss._ZL21xHandleTaskMsgProcess,"aw",%nobits
 2001              		.align	2
 2002              		.set	.LANCHOR3,. + 0
 2005              	_ZL21xHandleTaskMsgProcess:
 2006 0000 00000000 		.space	4
 2007              		.section	.bss._ZL23xHandleTaskCtrolProcess,"aw",%nobits
 2008              		.align	2
 2009              		.set	.LANCHOR4,. + 0
 2012              	_ZL23xHandleTaskCtrolProcess:
 2013 0000 00000000 		.space	4
 2014              		.section	.bss.nh,"aw",%nobits
 2015              		.align	2
 2016              		.set	.LANCHOR1,. + 0
 2019              	nh:
 2020 0000 00000000 		.space	1168
 2020      00000000 
 2020      00000000 
 2020      00000000 
 2020      00000000 
ARM GAS  /var/folders/l3/4y5292px21b4835bsnjwqc7w009kq1/T//ccgsbs2F.s 			page 35


 2021              		.section	.rodata._Z10App_PrintfPKcz.str1.4,"aMS",%progbits,1
 2022              		.align	2
 2023              	.LC14:
 2024 0000 257300   		.ascii	"%s\000"
 2025              		.section	.rodata._ZL12AppObjCreatev.str1.4,"aMS",%progbits,1
 2026              		.align	2
 2027              	.LC13:
 2028 0000 54686572 		.ascii	"There is insufficient heap memory\015\000"
 2028      65206973 
 2028      20696E73 
 2028      75666669 
 2028      6369656E 
 2029              		.section	.rodata._ZL13AppTaskCreatev.str1.4,"aMS",%progbits,1
 2030              		.align	2
 2031              	.LC8:
 2032 0000 76546173 		.ascii	"vTaskLED\000"
 2032      6B4C4544 
 2032      00
 2033 0009 000000   		.space	3
 2034              	.LC9:
 2035 000c 76546173 		.ascii	"vTaskMsgProcess\000"
 2035      6B4D7367 
 2035      50726F63 
 2035      65737300 
 2036              	.LC10:
 2037 001c 76546173 		.ascii	"vTaskCtrolProcess\000"
 2037      6B437472 
 2037      6F6C5072 
 2037      6F636573 
 2037      7300
 2038              		.section	.rodata._ZL13TMR_CallBack1v.str1.4,"aMS",%progbits,1
 2039              		.align	2
 2040              	.LC12:
 2041 0000 496E2063 		.ascii	"In callback 1\000"
 2041      616C6C62 
 2041      61636B20 
 2041      3100
 2042              		.section	.rodata._ZL13TMR_CallBack2v.str1.4,"aMS",%progbits,1
 2043              		.align	2
 2044              	.LC11:
 2045 0000 496E2063 		.ascii	"In callback 2\000"
 2045      616C6C62 
 2045      61636B20 
 2045      3200
 2046              		.section	.rodata._ZL15vTaskMsgProcessPv.str1.4,"aMS",%progbits,1
 2047              		.align	2
 2048              	.LC16:
 2049 0000 0D0A312E 		.ascii	"\015\0121. Print task run-time statistics\015\012\000"
 2049      20507269 
 2049      6E742074 
 2049      61736B20 
 2049      72756E2D 
 2050 0026 0000     		.space	2
 2051              	.LC17:
 2052 0028 322E2045 		.ascii	"2. Enable Timer CC1 interrupt\015\012\000"
 2052      6E61626C 
 2052      65205469 
ARM GAS  /var/folders/l3/4y5292px21b4835bsnjwqc7w009kq1/T//ccgsbs2F.s 			page 36


 2052      6D657220 
 2052      43433120 
 2053              	.LC18:
 2054 0048 332E2045 		.ascii	"3. Enable Timer CC2 interrupt\015\012\000"
 2054      6E61626C 
 2054      65205469 
 2054      6D657220 
 2054      43433220 
 2055              	.LC19:
 2056 0068 3D3D3D3D 		.ascii	"==================================================\015"
 2056      3D3D3D3D 
 2056      3D3D3D3D 
 2056      3D3D3D3D 
 2056      3D3D3D3D 
 2057 009b 0A00     		.ascii	"\012\000"
 2058 009d 000000   		.space	3
 2059              	.LC20:
 2060 00a0 4E616D65 		.ascii	"Name                  State  Priority  Stack   Num\015"
 2060      20202020 
 2060      20202020 
 2060      20202020 
 2060      20202020 
 2061 00d3 0A00     		.ascii	"\012\000"
 2062 00d5 000000   		.space	3
 2063              	.LC21:
 2064 00d8 25730D0A 		.ascii	"%s\015\012\000"
 2064      00
 2065 00dd 000000   		.space	3
 2066              	.LC22:
 2067 00e0 0D0A00   		.ascii	"\015\012\000"
 2068 00e3 00       		.space	1
 2069              	.LC23:
 2070 00e4 5461736B 		.ascii	"Task                  Abs Time         %%Time      "
 2070      20202020 
 2070      20202020 
 2070      20202020 
 2070      20202020 
 2071 0117 0D0A00   		.ascii	"\015\012\000"
 2072 011a 0000     		.space	2
 2073              	.LC24:
 2074 011c 2A2A2A2A 		.ascii	"***************************************************"
 2074      2A2A2A2A 
 2074      2A2A2A2A 
 2074      2A2A2A2A 
 2074      2A2A2A2A 
 2075 014f 0D0A00   		.ascii	"\015\012\000"
 2076 0152 0000     		.space	2
 2077              	.LC25:
 2078 0154 312E2050 		.ascii	"1. Print task run-time statistics\015\012\000"
 2078      72696E74 
 2078      20746173 
 2078      6B207275 
 2078      6E2D7469 
 2079              		.section	.rodata._ZL17vTaskCtrolProcessPv.str1.4,"aMS",%progbits,1
 2080              		.align	2
 2081              	.LC15:
 2082 0000 54686973 		.ascii	"This is Ctrol Task\015\012\000"
ARM GAS  /var/folders/l3/4y5292px21b4835bsnjwqc7w009kq1/T//ccgsbs2F.s 			page 37


 2082      20697320 
 2082      4374726F 
 2082      6C205461 
 2082      736B0D0A 
 2083              		.section	.rodata._ZL8vTaskLEDPv.str1.4,"aMS",%progbits,1
 2084              		.align	2
 2085              	.LC26:
 2086 0000 54686973 		.ascii	"This is LED Task, lower priority than Ctrol task an"
 2086      20697320 
 2086      4C454420 
 2086      5461736B 
 2086      2C206C6F 
 2087 0033 64206C6F 		.ascii	"d longer information needed to print on standard ou"
 2087      6E676572 
 2087      20696E66 
 2087      6F726D61 
 2087      74696F6E 
 2088 0066 74707574 		.ascii	"tput\015\012\000"
 2088      0D0A00
 2089              		.section	.rodata._ZN14rosserial_msgs20RequestParamResponse6getMD5Ev.str1.4,"aMS",%progbits,1
 2090              		.align	2
 2091              	.LC6:
 2092 0000 39663065 		.ascii	"9f0e98bda65981986ddf53afa7a40e49\000"
 2092      39386264 
 2092      61363539 
 2092      38313938 
 2092      36646466 
 2093              		.section	.rodata._ZN14rosserial_msgs3Log6getMD5Ev.str1.4,"aMS",%progbits,1
 2094              		.align	2
 2095              	.LC5:
 2096 0000 31316162 		.ascii	"11abd731c25933261cd6183bd12d6295\000"
 2096      64373331 
 2096      63323539 
 2096      33333236 
 2096      31636436 
 2097              		.section	.rodata._ZN14rosserial_msgs3Log7getTypeEv.str1.4,"aMS",%progbits,1
 2098              		.align	2
 2099              	.LC4:
 2100 0000 726F7373 		.ascii	"rosserial_msgs/Log\000"
 2100      65726961 
 2100      6C5F6D73 
 2100      67732F4C 
 2100      6F6700
 2101              		.section	.rodata._ZN14rosserial_msgs9TopicInfo6getMD5Ev.str1.4,"aMS",%progbits,1
 2102              		.align	2
 2103              	.LC3:
 2104 0000 30616435 		.ascii	"0ad51f88fc44892f8c10684077646005\000"
 2104      31663838 
 2104      66633434 
 2104      38393266 
 2104      38633130 
 2105              		.section	.rodata._ZN14rosserial_msgs9TopicInfo7getTypeEv.str1.4,"aMS",%progbits,1
 2106              		.align	2
 2107              	.LC2:
 2108 0000 726F7373 		.ascii	"rosserial_msgs/TopicInfo\000"
 2108      65726961 
 2108      6C5F6D73 
ARM GAS  /var/folders/l3/4y5292px21b4835bsnjwqc7w009kq1/T//ccgsbs2F.s 			page 38


 2108      67732F54 
 2108      6F706963 
 2109              		.section	.rodata._ZN14rosserial_msgsL12REQUESTPARAME,"a",%progbits
 2110              		.align	2
 2111              		.set	.LANCHOR0,. + 0
 2114              	_ZN14rosserial_msgsL12REQUESTPARAME:
 2115 0000 726F7373 		.ascii	"rosserial_msgs/RequestParam\000"
 2115      65726961 
 2115      6C5F6D73 
 2115      67732F52 
 2115      65717565 
 2116              		.section	.rodata._ZN3ros11NodeHandle_I13STM32HardwareLi5ELi5ELi512ELi512EE7publishEiPKNS_3MsgE.str
 2117              		.align	2
 2118              	.LC7:
 2119 0000 4D657373 		.ascii	"Message from device dropped: message larger than bu"
 2119      61676520 
 2119      66726F6D 
 2119      20646576 
 2119      69636520 
 2120 0033 66666572 		.ascii	"ffer.\000"
 2120      2E00
 2121              		.section	.rodata._ZN8std_msgs4Time6getMD5Ev.str1.4,"aMS",%progbits,1
 2122              		.align	2
 2123              	.LC1:
 2124 0000 63643731 		.ascii	"cd7166c74c552c311fbcc2fe5a7bc289\000"
 2124      36366337 
 2124      34633535 
 2124      32633331 
 2124      31666263 
 2125              		.section	.rodata._ZN8std_msgs4Time7getTypeEv.str1.4,"aMS",%progbits,1
 2126              		.align	2
 2127              	.LC0:
 2128 0000 7374645F 		.ascii	"std_msgs/Time\000"
 2128      6D736773 
 2128      2F54696D 
 2128      6500
 2129              		.section	.rodata.vApplicationStackOverflowHook.str1.4,"aMS",%progbits,1
 2130              		.align	2
 2131              	.LC27:
 2132 0000 7461736B 		.ascii	"task: %s stack is overFlow\015\012\000"
 2132      3A202573 
 2132      20737461 
 2132      636B2069 
 2132      73206F76 
 2133              		.ident	"GCC: (GNU Tools for Arm Embedded Processors 7-2018-q2-update) 7.3.1 20180622 (release) [AR
ARM GAS  /var/folders/l3/4y5292px21b4835bsnjwqc7w009kq1/T//ccgsbs2F.s 			page 39

