ARM GAS  /var/folders/l3/4y5292px21b4835bsnjwqc7w009kq1/T//ccoAQsOl.s 			page 1


   1              		.cpu cortex-m4
   2              		.eabi_attribute 27, 1
   3              		.eabi_attribute 20, 1
   4              		.eabi_attribute 21, 1
   5              		.eabi_attribute 23, 3
   6              		.eabi_attribute 24, 1
   7              		.eabi_attribute 25, 1
   8              		.eabi_attribute 26, 1
   9              		.eabi_attribute 30, 1
  10              		.eabi_attribute 34, 1
  11              		.eabi_attribute 18, 4
  12              		.file	"main.cpp"
  13              		.text
  14              		.section	.text._ZNK8std_msgs4Time9serializeEPh,"axG",%progbits,_ZNK8std_msgs4Time9serializeEPh,com
  15              		.align	1
  16              		.weak	_ZNK8std_msgs4Time9serializeEPh
  17              		.syntax unified
  18              		.thumb
  19              		.thumb_func
  20              		.fpu fpv4-sp-d16
  22              	_ZNK8std_msgs4Time9serializeEPh:
  23              		.fnstart
  24              	.LFB383:
  25              		@ args = 0, pretend = 0, frame = 0
  26              		@ frame_needed = 0, uses_anonymous_args = 0
  27              		@ link register save eliminated.
  28 0000 4368     		ldr	r3, [r0, #4]
  29 0002 0B70     		strb	r3, [r1]
  30 0004 4368     		ldr	r3, [r0, #4]
  31 0006 1B0A     		lsrs	r3, r3, #8
  32 0008 4B70     		strb	r3, [r1, #1]
  33 000a C388     		ldrh	r3, [r0, #6]
  34 000c 8B70     		strb	r3, [r1, #2]
  35 000e C379     		ldrb	r3, [r0, #7]	@ zero_extendqisi2
  36 0010 CB70     		strb	r3, [r1, #3]
  37 0012 8368     		ldr	r3, [r0, #8]
  38 0014 0B71     		strb	r3, [r1, #4]
  39 0016 8368     		ldr	r3, [r0, #8]
  40 0018 1B0A     		lsrs	r3, r3, #8
  41 001a 4B71     		strb	r3, [r1, #5]
  42 001c 4389     		ldrh	r3, [r0, #10]
  43 001e 8B71     		strb	r3, [r1, #6]
  44 0020 C37A     		ldrb	r3, [r0, #11]	@ zero_extendqisi2
  45 0022 CB71     		strb	r3, [r1, #7]
  46 0024 0820     		movs	r0, #8
  47 0026 7047     		bx	lr
  48              		.cantunwind
  49              		.fnend
  51              		.section	.text._ZN8std_msgs4Time11deserializeEPh,"axG",%progbits,_ZN8std_msgs4Time11deserializeEPh
  52              		.align	1
  53              		.weak	_ZN8std_msgs4Time11deserializeEPh
  54              		.syntax unified
  55              		.thumb
  56              		.thumb_func
  57              		.fpu fpv4-sp-d16
  59              	_ZN8std_msgs4Time11deserializeEPh:
  60              		.fnstart
ARM GAS  /var/folders/l3/4y5292px21b4835bsnjwqc7w009kq1/T//ccoAQsOl.s 			page 2


  61              	.LFB384:
  62              		@ args = 0, pretend = 0, frame = 0
  63              		@ frame_needed = 0, uses_anonymous_args = 0
  64              		@ link register save eliminated.
  65 0000 0B78     		ldrb	r3, [r1]	@ zero_extendqisi2
  66 0002 4360     		str	r3, [r0, #4]
  67 0004 4A78     		ldrb	r2, [r1, #1]	@ zero_extendqisi2
  68 0006 43EA0223 		orr	r3, r3, r2, lsl #8
  69 000a 4360     		str	r3, [r0, #4]
  70 000c 8A78     		ldrb	r2, [r1, #2]	@ zero_extendqisi2
  71 000e 43EA0243 		orr	r3, r3, r2, lsl #16
  72 0012 4360     		str	r3, [r0, #4]
  73 0014 CA78     		ldrb	r2, [r1, #3]	@ zero_extendqisi2
  74 0016 43EA0263 		orr	r3, r3, r2, lsl #24
  75 001a 4360     		str	r3, [r0, #4]
  76 001c 0B79     		ldrb	r3, [r1, #4]	@ zero_extendqisi2
  77 001e 8360     		str	r3, [r0, #8]
  78 0020 4A79     		ldrb	r2, [r1, #5]	@ zero_extendqisi2
  79 0022 43EA0223 		orr	r3, r3, r2, lsl #8
  80 0026 8360     		str	r3, [r0, #8]
  81 0028 8A79     		ldrb	r2, [r1, #6]	@ zero_extendqisi2
  82 002a 43EA0243 		orr	r3, r3, r2, lsl #16
  83 002e 8360     		str	r3, [r0, #8]
  84 0030 CA79     		ldrb	r2, [r1, #7]	@ zero_extendqisi2
  85 0032 43EA0263 		orr	r3, r3, r2, lsl #24
  86 0036 8360     		str	r3, [r0, #8]
  87 0038 0820     		movs	r0, #8
  88 003a 7047     		bx	lr
  89              		.cantunwind
  90              		.fnend
  92              		.section	.text._ZN8std_msgs4Time7getTypeEv,"axG",%progbits,_ZN8std_msgs4Time7getTypeEv,comdat
  93              		.align	1
  94              		.weak	_ZN8std_msgs4Time7getTypeEv
  95              		.syntax unified
  96              		.thumb
  97              		.thumb_func
  98              		.fpu fpv4-sp-d16
 100              	_ZN8std_msgs4Time7getTypeEv:
 101              		.fnstart
 102              	.LFB385:
 103              		@ args = 0, pretend = 0, frame = 0
 104              		@ frame_needed = 0, uses_anonymous_args = 0
 105              		@ link register save eliminated.
 106 0000 0048     		ldr	r0, .L4
 107 0002 7047     		bx	lr
 108              	.L5:
 109              		.align	2
 110              	.L4:
 111 0004 00000000 		.word	.LC0
 112              		.cantunwind
 113              		.fnend
 115              		.section	.text._ZN8std_msgs4Time6getMD5Ev,"axG",%progbits,_ZN8std_msgs4Time6getMD5Ev,comdat
 116              		.align	1
 117              		.weak	_ZN8std_msgs4Time6getMD5Ev
 118              		.syntax unified
 119              		.thumb
 120              		.thumb_func
ARM GAS  /var/folders/l3/4y5292px21b4835bsnjwqc7w009kq1/T//ccoAQsOl.s 			page 3


 121              		.fpu fpv4-sp-d16
 123              	_ZN8std_msgs4Time6getMD5Ev:
 124              		.fnstart
 125              	.LFB386:
 126              		@ args = 0, pretend = 0, frame = 0
 127              		@ frame_needed = 0, uses_anonymous_args = 0
 128              		@ link register save eliminated.
 129 0000 0048     		ldr	r0, .L7
 130 0002 7047     		bx	lr
 131              	.L8:
 132              		.align	2
 133              	.L7:
 134 0004 00000000 		.word	.LC1
 135              		.cantunwind
 136              		.fnend
 138              		.section	.text._ZN14rosserial_msgs9TopicInfo11deserializeEPh,"axG",%progbits,_ZN14rosserial_msgs9T
 139              		.align	1
 140              		.weak	_ZN14rosserial_msgs9TopicInfo11deserializeEPh
 141              		.syntax unified
 142              		.thumb
 143              		.thumb_func
 144              		.fpu fpv4-sp-d16
 146              	_ZN14rosserial_msgs9TopicInfo11deserializeEPh:
 147              		.fnstart
 148              	.LFB388:
 149              		@ args = 0, pretend = 0, frame = 0
 150              		@ frame_needed = 0, uses_anonymous_args = 0
 151              		@ link register save eliminated.
 152 0000 70B4     		push	{r4, r5, r6}
 153 0002 0B78     		ldrb	r3, [r1]	@ zero_extendqisi2
 154 0004 8380     		strh	r3, [r0, #4]	@ movhi
 155 0006 4A78     		ldrb	r2, [r1, #1]	@ zero_extendqisi2
 156 0008 43EA0223 		orr	r3, r3, r2, lsl #8
 157 000c 8380     		strh	r3, [r0, #4]	@ movhi
 158 000e D1F80250 		ldr	r5, [r1, #2]	@ unaligned
 159 0012 0623     		movs	r3, #6
 160              	.L11:
 161 0014 AA1D     		adds	r2, r5, #6
 162 0016 9A42     		cmp	r2, r3
 163 0018 04D9     		bls	.L10
 164 001a 5A1E     		subs	r2, r3, #1
 165 001c CC5C     		ldrb	r4, [r1, r3]	@ zero_extendqisi2
 166 001e 8C54     		strb	r4, [r1, r2]
 167 0020 0133     		adds	r3, r3, #1
 168 0022 F7E7     		b	.L11
 169              	.L10:
 170 0024 0535     		adds	r5, r5, #5
 171 0026 0023     		movs	r3, #0
 172 0028 4B55     		strb	r3, [r1, r5]
 173 002a 4B1D     		adds	r3, r1, #5
 174 002c 8360     		str	r3, [r0, #8]
 175 002e 8E58     		ldr	r6, [r1, r2]	@ unaligned
 176 0030 141D     		adds	r4, r2, #4
 177 0032 2346     		mov	r3, r4
 178              	.L13:
 179 0034 3219     		adds	r2, r6, r4
 180 0036 9A42     		cmp	r2, r3
ARM GAS  /var/folders/l3/4y5292px21b4835bsnjwqc7w009kq1/T//ccoAQsOl.s 			page 4


 181 0038 04D9     		bls	.L12
 182 003a 5A1E     		subs	r2, r3, #1
 183 003c CD5C     		ldrb	r5, [r1, r3]	@ zero_extendqisi2
 184 003e 8D54     		strb	r5, [r1, r2]
 185 0040 0133     		adds	r3, r3, #1
 186 0042 F7E7     		b	.L13
 187              	.L12:
 188 0044 531E     		subs	r3, r2, #1
 189 0046 0025     		movs	r5, #0
 190 0048 CD54     		strb	r5, [r1, r3]
 191 004a 013C     		subs	r4, r4, #1
 192 004c 0C44     		add	r4, r4, r1
 193 004e C460     		str	r4, [r0, #12]
 194 0050 8E58     		ldr	r6, [r1, r2]	@ unaligned
 195 0052 0432     		adds	r2, r2, #4
 196 0054 1346     		mov	r3, r2
 197              	.L15:
 198 0056 B418     		adds	r4, r6, r2
 199 0058 9C42     		cmp	r4, r3
 200 005a 04D9     		bls	.L14
 201 005c 5C1E     		subs	r4, r3, #1
 202 005e CD5C     		ldrb	r5, [r1, r3]	@ zero_extendqisi2
 203 0060 0D55     		strb	r5, [r1, r4]
 204 0062 0133     		adds	r3, r3, #1
 205 0064 F7E7     		b	.L15
 206              	.L14:
 207 0066 631E     		subs	r3, r4, #1
 208 0068 0025     		movs	r5, #0
 209 006a CD54     		strb	r5, [r1, r3]
 210 006c 013A     		subs	r2, r2, #1
 211 006e 0A44     		add	r2, r2, r1
 212 0070 0261     		str	r2, [r0, #16]
 213 0072 0B5D     		ldrb	r3, [r1, r4]	@ zero_extendqisi2
 214 0074 621C     		adds	r2, r4, #1
 215 0076 8A5C     		ldrb	r2, [r1, r2]	@ zero_extendqisi2
 216 0078 43EA0223 		orr	r3, r3, r2, lsl #8
 217 007c A21C     		adds	r2, r4, #2
 218 007e 8A5C     		ldrb	r2, [r1, r2]	@ zero_extendqisi2
 219 0080 43EA0243 		orr	r3, r3, r2, lsl #16
 220 0084 E21C     		adds	r2, r4, #3
 221 0086 8A5C     		ldrb	r2, [r1, r2]	@ zero_extendqisi2
 222 0088 43EA0263 		orr	r3, r3, r2, lsl #24
 223 008c 4361     		str	r3, [r0, #20]
 224 008e 201D     		adds	r0, r4, #4
 225 0090 70BC     		pop	{r4, r5, r6}
 226 0092 7047     		bx	lr
 227              		.cantunwind
 228              		.fnend
 230              		.section	.text._ZN14rosserial_msgs9TopicInfo7getTypeEv,"axG",%progbits,_ZN14rosserial_msgs9TopicIn
 231              		.align	1
 232              		.weak	_ZN14rosserial_msgs9TopicInfo7getTypeEv
 233              		.syntax unified
 234              		.thumb
 235              		.thumb_func
 236              		.fpu fpv4-sp-d16
 238              	_ZN14rosserial_msgs9TopicInfo7getTypeEv:
 239              		.fnstart
ARM GAS  /var/folders/l3/4y5292px21b4835bsnjwqc7w009kq1/T//ccoAQsOl.s 			page 5


 240              	.LFB389:
 241              		@ args = 0, pretend = 0, frame = 0
 242              		@ frame_needed = 0, uses_anonymous_args = 0
 243              		@ link register save eliminated.
 244 0000 0048     		ldr	r0, .L18
 245 0002 7047     		bx	lr
 246              	.L19:
 247              		.align	2
 248              	.L18:
 249 0004 00000000 		.word	.LC2
 250              		.cantunwind
 251              		.fnend
 253              		.section	.text._ZN14rosserial_msgs9TopicInfo6getMD5Ev,"axG",%progbits,_ZN14rosserial_msgs9TopicInf
 254              		.align	1
 255              		.weak	_ZN14rosserial_msgs9TopicInfo6getMD5Ev
 256              		.syntax unified
 257              		.thumb
 258              		.thumb_func
 259              		.fpu fpv4-sp-d16
 261              	_ZN14rosserial_msgs9TopicInfo6getMD5Ev:
 262              		.fnstart
 263              	.LFB390:
 264              		@ args = 0, pretend = 0, frame = 0
 265              		@ frame_needed = 0, uses_anonymous_args = 0
 266              		@ link register save eliminated.
 267 0000 0048     		ldr	r0, .L21
 268 0002 7047     		bx	lr
 269              	.L22:
 270              		.align	2
 271              	.L21:
 272 0004 00000000 		.word	.LC3
 273              		.cantunwind
 274              		.fnend
 276              		.section	.text._ZN14rosserial_msgs3Log11deserializeEPh,"axG",%progbits,_ZN14rosserial_msgs3Log11de
 277              		.align	1
 278              		.weak	_ZN14rosserial_msgs3Log11deserializeEPh
 279              		.syntax unified
 280              		.thumb
 281              		.thumb_func
 282              		.fpu fpv4-sp-d16
 284              	_ZN14rosserial_msgs3Log11deserializeEPh:
 285              		.fnstart
 286              	.LFB392:
 287              		@ args = 0, pretend = 0, frame = 0
 288              		@ frame_needed = 0, uses_anonymous_args = 0
 289              		@ link register save eliminated.
 290 0000 30B4     		push	{r4, r5}
 291 0002 0B78     		ldrb	r3, [r1]	@ zero_extendqisi2
 292 0004 0371     		strb	r3, [r0, #4]
 293 0006 D1F80150 		ldr	r5, [r1, #1]	@ unaligned
 294 000a 0523     		movs	r3, #5
 295              	.L25:
 296 000c 6A1D     		adds	r2, r5, #5
 297 000e 9A42     		cmp	r2, r3
 298 0010 04D9     		bls	.L24
 299 0012 5A1E     		subs	r2, r3, #1
 300 0014 CC5C     		ldrb	r4, [r1, r3]	@ zero_extendqisi2
ARM GAS  /var/folders/l3/4y5292px21b4835bsnjwqc7w009kq1/T//ccoAQsOl.s 			page 6


 301 0016 8C54     		strb	r4, [r1, r2]
 302 0018 0133     		adds	r3, r3, #1
 303 001a F7E7     		b	.L25
 304              	.L24:
 305 001c 0435     		adds	r5, r5, #4
 306 001e 0023     		movs	r3, #0
 307 0020 4B55     		strb	r3, [r1, r5]
 308 0022 0431     		adds	r1, r1, #4
 309 0024 8160     		str	r1, [r0, #8]
 310 0026 1046     		mov	r0, r2
 311 0028 30BC     		pop	{r4, r5}
 312 002a 7047     		bx	lr
 313              		.cantunwind
 314              		.fnend
 316              		.section	.text._ZN14rosserial_msgs3Log7getTypeEv,"axG",%progbits,_ZN14rosserial_msgs3Log7getTypeEv
 317              		.align	1
 318              		.weak	_ZN14rosserial_msgs3Log7getTypeEv
 319              		.syntax unified
 320              		.thumb
 321              		.thumb_func
 322              		.fpu fpv4-sp-d16
 324              	_ZN14rosserial_msgs3Log7getTypeEv:
 325              		.fnstart
 326              	.LFB393:
 327              		@ args = 0, pretend = 0, frame = 0
 328              		@ frame_needed = 0, uses_anonymous_args = 0
 329              		@ link register save eliminated.
 330 0000 0048     		ldr	r0, .L28
 331 0002 7047     		bx	lr
 332              	.L29:
 333              		.align	2
 334              	.L28:
 335 0004 00000000 		.word	.LC4
 336              		.cantunwind
 337              		.fnend
 339              		.section	.text._ZN14rosserial_msgs3Log6getMD5Ev,"axG",%progbits,_ZN14rosserial_msgs3Log6getMD5Ev,c
 340              		.align	1
 341              		.weak	_ZN14rosserial_msgs3Log6getMD5Ev
 342              		.syntax unified
 343              		.thumb
 344              		.thumb_func
 345              		.fpu fpv4-sp-d16
 347              	_ZN14rosserial_msgs3Log6getMD5Ev:
 348              		.fnstart
 349              	.LFB394:
 350              		@ args = 0, pretend = 0, frame = 0
 351              		@ frame_needed = 0, uses_anonymous_args = 0
 352              		@ link register save eliminated.
 353 0000 0048     		ldr	r0, .L31
 354 0002 7047     		bx	lr
 355              	.L32:
 356              		.align	2
 357              	.L31:
 358 0004 00000000 		.word	.LC5
 359              		.cantunwind
 360              		.fnend
 362              		.section	.text._ZN14rosserial_msgs20RequestParamResponse7getTypeEv,"axG",%progbits,_ZN14rosserial_
ARM GAS  /var/folders/l3/4y5292px21b4835bsnjwqc7w009kq1/T//ccoAQsOl.s 			page 7


 363              		.align	1
 364              		.weak	_ZN14rosserial_msgs20RequestParamResponse7getTypeEv
 365              		.syntax unified
 366              		.thumb
 367              		.thumb_func
 368              		.fpu fpv4-sp-d16
 370              	_ZN14rosserial_msgs20RequestParamResponse7getTypeEv:
 371              		.fnstart
 372              	.LFB401:
 373              		@ args = 0, pretend = 0, frame = 0
 374              		@ frame_needed = 0, uses_anonymous_args = 0
 375              		@ link register save eliminated.
 376 0000 0048     		ldr	r0, .L34
 377 0002 7047     		bx	lr
 378              	.L35:
 379              		.align	2
 380              	.L34:
 381 0004 00000000 		.word	.LANCHOR0
 382              		.cantunwind
 383              		.fnend
 385              		.section	.text._ZN14rosserial_msgs20RequestParamResponse6getMD5Ev,"axG",%progbits,_ZN14rosserial_m
 386              		.align	1
 387              		.weak	_ZN14rosserial_msgs20RequestParamResponse6getMD5Ev
 388              		.syntax unified
 389              		.thumb
 390              		.thumb_func
 391              		.fpu fpv4-sp-d16
 393              	_ZN14rosserial_msgs20RequestParamResponse6getMD5Ev:
 394              		.fnstart
 395              	.LFB402:
 396              		@ args = 0, pretend = 0, frame = 0
 397              		@ frame_needed = 0, uses_anonymous_args = 0
 398              		@ link register save eliminated.
 399 0000 0048     		ldr	r0, .L37
 400 0002 7047     		bx	lr
 401              	.L38:
 402              		.align	2
 403              	.L37:
 404 0004 00000000 		.word	.LC6
 405              		.cantunwind
 406              		.fnend
 408              		.section	.text._Z41__static_initialization_and_destruction_0ii,"ax",%progbits
 409              		.align	1
 410              		.syntax unified
 411              		.thumb
 412              		.thumb_func
 413              		.fpu fpv4-sp-d16
 415              	_Z41__static_initialization_and_destruction_0ii:
 416              		.fnstart
 417              	.LFB486:
 418              		@ args = 0, pretend = 0, frame = 0
 419              		@ frame_needed = 0, uses_anonymous_args = 0
 420              		@ link register save eliminated.
 421 0000 0128     		cmp	r0, #1
 422 0002 00D0     		beq	.L49
 423              	.L39:
 424 0004 7047     		bx	lr
ARM GAS  /var/folders/l3/4y5292px21b4835bsnjwqc7w009kq1/T//ccoAQsOl.s 			page 8


 425              	.L49:
 426 0006 4FF6FF73 		movw	r3, #65535
 427 000a 9942     		cmp	r1, r3
 428 000c FAD1     		bne	.L39
 429 000e 204A     		ldr	r2, .L50
 430 0010 204B     		ldr	r3, .L50+4
 431 0012 1360     		str	r3, [r2]
 432 0014 0023     		movs	r3, #0
 433 0016 82F85434 		strb	r3, [r2, #1108]
 434 001a 1F49     		ldr	r1, .L50+8
 435 001c C2F86814 		str	r1, [r2, #1128]
 436              	.L42:
 437 0020 042B     		cmp	r3, #4
 438 0022 07D8     		bhi	.L46
 439 0024 03F58371 		add	r1, r3, #262
 440 0028 194A     		ldr	r2, .L50
 441 002a 0020     		movs	r0, #0
 442 002c 42F82100 		str	r0, [r2, r1, lsl #2]
 443 0030 0133     		adds	r3, r3, #1
 444 0032 F5E7     		b	.L42
 445              	.L46:
 446 0034 0023     		movs	r3, #0
 447              	.L41:
 448 0036 042B     		cmp	r3, #4
 449 0038 08D8     		bhi	.L47
 450 003a 03F58571 		add	r1, r3, #266
 451 003e 144A     		ldr	r2, .L50
 452 0040 02EB8102 		add	r2, r2, r1, lsl #2
 453 0044 0021     		movs	r1, #0
 454 0046 5160     		str	r1, [r2, #4]
 455 0048 0133     		adds	r3, r3, #1
 456 004a F4E7     		b	.L41
 457              	.L47:
 458 004c 0023     		movs	r3, #0
 459              	.L43:
 460 004e B3F5007F 		cmp	r3, #512
 461 0052 05D2     		bcs	.L48
 462 0054 0E4A     		ldr	r2, .L50
 463 0056 1A44     		add	r2, r2, r3
 464 0058 0021     		movs	r1, #0
 465 005a 1176     		strb	r1, [r2, #24]
 466 005c 0133     		adds	r3, r3, #1
 467 005e F6E7     		b	.L43
 468              	.L48:
 469 0060 0023     		movs	r3, #0
 470              	.L44:
 471 0062 B3F5007F 		cmp	r3, #512
 472 0066 06D2     		bcs	.L45
 473 0068 094A     		ldr	r2, .L50
 474 006a 1A44     		add	r2, r2, r3
 475 006c 0021     		movs	r1, #0
 476 006e 82F81812 		strb	r1, [r2, #536]
 477 0072 0133     		adds	r3, r3, #1
 478 0074 F5E7     		b	.L44
 479              	.L45:
 480 0076 064B     		ldr	r3, .L50
 481 0078 0022     		movs	r2, #0
ARM GAS  /var/folders/l3/4y5292px21b4835bsnjwqc7w009kq1/T//ccoAQsOl.s 			page 9


 482 007a 83F86C24 		strb	r2, [r3, #1132]
 483 007e C3F87424 		str	r2, [r3, #1140]
 484 0082 83F87824 		strb	r2, [r3, #1144]
 485 0086 C3F88024 		str	r2, [r3, #1152]
 486 008a 5A61     		str	r2, [r3, #20]
 487 008c BAE7     		b	.L39
 488              	.L51:
 489 008e 00BF     		.align	2
 490              	.L50:
 491 0090 00000000 		.word	.LANCHOR1
 492 0094 08000000 		.word	_ZTVN3ros11NodeHandle_I13STM32HardwareLi5ELi5ELi512ELi512EEE+8
 493 0098 08000000 		.word	_ZTVN14rosserial_msgs20RequestParamResponseE+8
 494              		.cantunwind
 495              		.fnend
 497              		.section	.text._ZN3ros11NodeHandle_I13STM32HardwareLi5ELi5ELi512ELi512EE9connectedEv,"axG",%progbi
 498              		.align	1
 499              		.weak	_ZN3ros11NodeHandle_I13STM32HardwareLi5ELi5ELi512ELi512EE9connectedEv
 500              		.syntax unified
 501              		.thumb
 502              		.thumb_func
 503              		.fpu fpv4-sp-d16
 505              	_ZN3ros11NodeHandle_I13STM32HardwareLi5ELi5ELi512ELi512EE9connectedEv:
 506              		.fnstart
 507              	.LFB489:
 508              		@ args = 0, pretend = 0, frame = 0
 509              		@ frame_needed = 0, uses_anonymous_args = 0
 510              		@ link register save eliminated.
 511 0000 90F85404 		ldrb	r0, [r0, #1108]	@ zero_extendqisi2
 512 0004 7047     		bx	lr
 513              		.cantunwind
 514              		.fnend
 516              		.section	.text._ZL13AppTaskCreatev,"ax",%progbits
 517              		.align	1
 518              		.syntax unified
 519              		.thumb
 520              		.thumb_func
 521              		.fpu fpv4-sp-d16
 523              	_ZL13AppTaskCreatev:
 524              		.fnstart
 525              	.LFB466:
 526              		@ args = 0, pretend = 0, frame = 0
 527              		@ frame_needed = 0, uses_anonymous_args = 0
 528 0000 00B5     		push	{lr}
 529              		.save {lr}
 530              		.pad #12
 531 0002 83B0     		sub	sp, sp, #12
 532 0004 164B     		ldr	r3, .L61
 533 0006 0193     		str	r3, [sp, #4]
 534 0008 0223     		movs	r3, #2
 535 000a 0093     		str	r3, [sp]
 536 000c 0023     		movs	r3, #0
 537 000e 4FF40072 		mov	r2, #512
 538 0012 1449     		ldr	r1, .L61+4
 539 0014 1448     		ldr	r0, .L61+8
 540 0016 FFF7FEFF 		bl	xTaskCreate
 541 001a 0128     		cmp	r0, #1
 542 001c 00D0     		beq	.L54
ARM GAS  /var/folders/l3/4y5292px21b4835bsnjwqc7w009kq1/T//ccoAQsOl.s 			page 10


 543              	.L55:
 544 001e FEE7     		b	.L55
 545              	.L54:
 546 0020 124B     		ldr	r3, .L61+12
 547 0022 0193     		str	r3, [sp, #4]
 548 0024 0323     		movs	r3, #3
 549 0026 0093     		str	r3, [sp]
 550 0028 0023     		movs	r3, #0
 551 002a 4FF40072 		mov	r2, #512
 552 002e 1049     		ldr	r1, .L61+16
 553 0030 1048     		ldr	r0, .L61+20
 554 0032 FFF7FEFF 		bl	xTaskCreate
 555 0036 0128     		cmp	r0, #1
 556 0038 00D0     		beq	.L56
 557              	.L57:
 558 003a FEE7     		b	.L57
 559              	.L56:
 560 003c 0E4B     		ldr	r3, .L61+24
 561 003e 0193     		str	r3, [sp, #4]
 562 0040 0423     		movs	r3, #4
 563 0042 0093     		str	r3, [sp]
 564 0044 0023     		movs	r3, #0
 565 0046 4FF40072 		mov	r2, #512
 566 004a 0C49     		ldr	r1, .L61+28
 567 004c 0C48     		ldr	r0, .L61+32
 568 004e FFF7FEFF 		bl	xTaskCreate
 569 0052 0128     		cmp	r0, #1
 570 0054 00D0     		beq	.L53
 571              	.L59:
 572 0056 FEE7     		b	.L59
 573              	.L53:
 574 0058 03B0     		add	sp, sp, #12
 575              		@ sp needed
 576 005a 5DF804FB 		ldr	pc, [sp], #4
 577              	.L62:
 578 005e 00BF     		.align	2
 579              	.L61:
 580 0060 00000000 		.word	.LANCHOR2
 581 0064 00000000 		.word	.LC7
 582 0068 00000000 		.word	_ZL8vTaskLEDPv
 583 006c 00000000 		.word	.LANCHOR3
 584 0070 0C000000 		.word	.LC8
 585 0074 00000000 		.word	_ZL15vTaskMsgProcessPv
 586 0078 00000000 		.word	.LANCHOR4
 587 007c 1C000000 		.word	.LC9
 588 0080 00000000 		.word	_ZL17vTaskCtrolProcessPv
 589              		.fnend
 591              		.section	.text._ZL13TMR_CallBack2v,"ax",%progbits
 592              		.align	1
 593              		.syntax unified
 594              		.thumb
 595              		.thumb_func
 596              		.fpu fpv4-sp-d16
 598              	_ZL13TMR_CallBack2v:
 599              		.fnstart
 600              	.LFB470:
 601              		@ args = 0, pretend = 0, frame = 0
ARM GAS  /var/folders/l3/4y5292px21b4835bsnjwqc7w009kq1/T//ccoAQsOl.s 			page 11


 602              		@ frame_needed = 0, uses_anonymous_args = 0
 603 0000 08B5     		push	{r3, lr}
 604              		.save {r3, lr}
 605 0002 0420     		movs	r0, #4
 606 0004 FFF7FEFF 		bl	bsp_LedToggle
 607 0008 0148     		ldr	r0, .L65
 608 000a FFF7FEFF 		bl	puts
 609 000e 08BD     		pop	{r3, pc}
 610              	.L66:
 611              		.align	2
 612              	.L65:
 613 0010 00000000 		.word	.LC10
 614              		.fnend
 616              		.section	.text._ZL13TMR_CallBack1v,"ax",%progbits
 617              		.align	1
 618              		.syntax unified
 619              		.thumb
 620              		.thumb_func
 621              		.fpu fpv4-sp-d16
 623              	_ZL13TMR_CallBack1v:
 624              		.fnstart
 625              	.LFB469:
 626              		@ args = 0, pretend = 0, frame = 0
 627              		@ frame_needed = 0, uses_anonymous_args = 0
 628 0000 08B5     		push	{r3, lr}
 629              		.save {r3, lr}
 630 0002 0320     		movs	r0, #3
 631 0004 FFF7FEFF 		bl	bsp_LedToggle
 632 0008 0148     		ldr	r0, .L69
 633 000a FFF7FEFF 		bl	puts
 634 000e 08BD     		pop	{r3, pc}
 635              	.L70:
 636              		.align	2
 637              	.L69:
 638 0010 00000000 		.word	.LC11
 639              		.fnend
 641              		.section	.text._ZL12AppObjCreatev,"ax",%progbits
 642              		.align	1
 643              		.syntax unified
 644              		.thumb
 645              		.thumb_func
 646              		.fpu fpv4-sp-d16
 648              	_ZL12AppObjCreatev:
 649              		.fnstart
 650              	.LFB467:
 651              		@ args = 0, pretend = 0, frame = 0
 652              		@ frame_needed = 0, uses_anonymous_args = 0
 653 0000 08B5     		push	{r3, lr}
 654              		.save {r3, lr}
 655 0002 0120     		movs	r0, #1
 656 0004 FFF7FEFF 		bl	xQueueCreateMutex
 657 0008 034B     		ldr	r3, .L75
 658 000a 1860     		str	r0, [r3]
 659 000c 00B1     		cbz	r0, .L74
 660              	.L71:
 661 000e 08BD     		pop	{r3, pc}
 662              	.L74:
ARM GAS  /var/folders/l3/4y5292px21b4835bsnjwqc7w009kq1/T//ccoAQsOl.s 			page 12


 663 0010 0248     		ldr	r0, .L75+4
 664 0012 FFF7FEFF 		bl	puts
 665 0016 FAE7     		b	.L71
 666              	.L76:
 667              		.align	2
 668              	.L75:
 669 0018 00000000 		.word	.LANCHOR5
 670 001c 00000000 		.word	.LC12
 671              		.fnend
 673              		.section	.text._ZNK14rosserial_msgs9TopicInfo9serializeEPh,"axG",%progbits,_ZNK14rosserial_msgs9To
 674              		.align	1
 675              		.weak	_ZNK14rosserial_msgs9TopicInfo9serializeEPh
 676              		.syntax unified
 677              		.thumb
 678              		.thumb_func
 679              		.fpu fpv4-sp-d16
 681              	_ZNK14rosserial_msgs9TopicInfo9serializeEPh:
 682              		.fnstart
 683              	.LFB387:
 684              		@ args = 0, pretend = 0, frame = 0
 685              		@ frame_needed = 0, uses_anonymous_args = 0
 686 0000 2DE9F041 		push	{r4, r5, r6, r7, r8, lr}
 687 0004 0646     		mov	r6, r0
 688 0006 0C46     		mov	r4, r1
 689 0008 8388     		ldrh	r3, [r0, #4]
 690 000a 0B70     		strb	r3, [r1]
 691 000c 8388     		ldrh	r3, [r0, #4]
 692 000e 1B0A     		lsrs	r3, r3, #8
 693 0010 4B70     		strb	r3, [r1, #1]
 694 0012 8068     		ldr	r0, [r0, #8]
 695 0014 FFF7FEFF 		bl	strlen
 696 0018 0746     		mov	r7, r0
 697 001a C4F80200 		str	r0, [r4, #2]	@ unaligned
 698 001e 0246     		mov	r2, r0
 699 0020 B168     		ldr	r1, [r6, #8]
 700 0022 A01D     		adds	r0, r4, #6
 701 0024 FFF7FEFF 		bl	memcpy
 702 0028 07F10608 		add	r8, r7, #6
 703 002c F068     		ldr	r0, [r6, #12]
 704 002e FFF7FEFF 		bl	strlen
 705 0032 0546     		mov	r5, r0
 706 0034 44F80800 		str	r0, [r4, r8]	@ unaligned
 707 0038 0A37     		adds	r7, r7, #10
 708 003a 0246     		mov	r2, r0
 709 003c F168     		ldr	r1, [r6, #12]
 710 003e E019     		adds	r0, r4, r7
 711 0040 FFF7FEFF 		bl	memcpy
 712 0044 2F44     		add	r7, r7, r5
 713 0046 3069     		ldr	r0, [r6, #16]
 714 0048 FFF7FEFF 		bl	strlen
 715 004c 0546     		mov	r5, r0
 716 004e E051     		str	r0, [r4, r7]	@ unaligned
 717 0050 0437     		adds	r7, r7, #4
 718 0052 0246     		mov	r2, r0
 719 0054 3169     		ldr	r1, [r6, #16]
 720 0056 E019     		adds	r0, r4, r7
 721 0058 FFF7FEFF 		bl	memcpy
ARM GAS  /var/folders/l3/4y5292px21b4835bsnjwqc7w009kq1/T//ccoAQsOl.s 			page 13


 722 005c E819     		adds	r0, r5, r7
 723 005e 7369     		ldr	r3, [r6, #20]
 724 0060 2354     		strb	r3, [r4, r0]
 725 0062 190A     		lsrs	r1, r3, #8
 726 0064 421C     		adds	r2, r0, #1
 727 0066 A154     		strb	r1, [r4, r2]
 728 0068 190C     		lsrs	r1, r3, #16
 729 006a 821C     		adds	r2, r0, #2
 730 006c A154     		strb	r1, [r4, r2]
 731 006e 1B0E     		lsrs	r3, r3, #24
 732 0070 C21C     		adds	r2, r0, #3
 733 0072 A354     		strb	r3, [r4, r2]
 734 0074 0430     		adds	r0, r0, #4
 735 0076 BDE8F081 		pop	{r4, r5, r6, r7, r8, pc}
 736              		.cantunwind
 737              		.fnend
 739              		.section	.text._ZNK14rosserial_msgs3Log9serializeEPh,"axG",%progbits,_ZNK14rosserial_msgs3Log9seri
 740              		.align	1
 741              		.weak	_ZNK14rosserial_msgs3Log9serializeEPh
 742              		.syntax unified
 743              		.thumb
 744              		.thumb_func
 745              		.fpu fpv4-sp-d16
 747              	_ZNK14rosserial_msgs3Log9serializeEPh:
 748              		.fnstart
 749              	.LFB391:
 750              		@ args = 0, pretend = 0, frame = 0
 751              		@ frame_needed = 0, uses_anonymous_args = 0
 752 0000 70B5     		push	{r4, r5, r6, lr}
 753 0002 0646     		mov	r6, r0
 754 0004 0D46     		mov	r5, r1
 755 0006 0379     		ldrb	r3, [r0, #4]	@ zero_extendqisi2
 756 0008 0B70     		strb	r3, [r1]
 757 000a 8068     		ldr	r0, [r0, #8]
 758 000c FFF7FEFF 		bl	strlen
 759 0010 0446     		mov	r4, r0
 760 0012 C5F80100 		str	r0, [r5, #1]	@ unaligned
 761 0016 0246     		mov	r2, r0
 762 0018 B168     		ldr	r1, [r6, #8]
 763 001a 681D     		adds	r0, r5, #5
 764 001c FFF7FEFF 		bl	memcpy
 765 0020 601D     		adds	r0, r4, #5
 766 0022 70BD     		pop	{r4, r5, r6, pc}
 767              		.cantunwind
 768              		.fnend
 770              		.section	.text._ZNK14rosserial_msgs20RequestParamResponse9serializeEPh,"axG",%progbits,_ZNK14rosse
 771              		.align	1
 772              		.weak	_ZNK14rosserial_msgs20RequestParamResponse9serializeEPh
 773              		.syntax unified
 774              		.thumb
 775              		.thumb_func
 776              		.fpu fpv4-sp-d16
 778              	_ZNK14rosserial_msgs20RequestParamResponse9serializeEPh:
 779              		.fnstart
 780              	.LFB399:
 781              		@ args = 0, pretend = 0, frame = 0
 782              		@ frame_needed = 0, uses_anonymous_args = 0
ARM GAS  /var/folders/l3/4y5292px21b4835bsnjwqc7w009kq1/T//ccoAQsOl.s 			page 14


 783 0000 2DE9F041 		push	{r4, r5, r6, r7, r8, lr}
 784 0004 0546     		mov	r5, r0
 785 0006 0C46     		mov	r4, r1
 786 0008 0379     		ldrb	r3, [r0, #4]	@ zero_extendqisi2
 787 000a 0B70     		strb	r3, [r1]
 788 000c 0022     		movs	r2, #0
 789 000e 4A70     		strb	r2, [r1, #1]
 790 0010 8A70     		strb	r2, [r1, #2]
 791 0012 CA70     		strb	r2, [r1, #3]
 792 0014 0423     		movs	r3, #4
 793              	.L83:
 794 0016 2979     		ldrb	r1, [r5, #4]	@ zero_extendqisi2
 795 0018 9142     		cmp	r1, r2
 796 001a 10D9     		bls	.L82
 797 001c E968     		ldr	r1, [r5, #12]
 798 001e 51F82210 		ldr	r1, [r1, r2, lsl #2]
 799 0022 E154     		strb	r1, [r4, r3]
 800 0024 0E0A     		lsrs	r6, r1, #8
 801 0026 581C     		adds	r0, r3, #1
 802 0028 2654     		strb	r6, [r4, r0]
 803 002a 0E0C     		lsrs	r6, r1, #16
 804 002c 981C     		adds	r0, r3, #2
 805 002e 2654     		strb	r6, [r4, r0]
 806 0030 090E     		lsrs	r1, r1, #24
 807 0032 D81C     		adds	r0, r3, #3
 808 0034 2154     		strb	r1, [r4, r0]
 809 0036 0433     		adds	r3, r3, #4
 810 0038 0132     		adds	r2, r2, #1
 811 003a D2B2     		uxtb	r2, r2
 812 003c EBE7     		b	.L83
 813              	.L82:
 814 003e 591C     		adds	r1, r3, #1
 815 0040 2A7C     		ldrb	r2, [r5, #16]	@ zero_extendqisi2
 816 0042 E254     		strb	r2, [r4, r3]
 817 0044 981C     		adds	r0, r3, #2
 818 0046 0022     		movs	r2, #0
 819 0048 6254     		strb	r2, [r4, r1]
 820 004a D91C     		adds	r1, r3, #3
 821 004c 2254     		strb	r2, [r4, r0]
 822 004e 0433     		adds	r3, r3, #4
 823 0050 6254     		strb	r2, [r4, r1]
 824              	.L85:
 825 0052 297C     		ldrb	r1, [r5, #16]	@ zero_extendqisi2
 826 0054 9142     		cmp	r1, r2
 827 0056 10D9     		bls	.L84
 828 0058 A969     		ldr	r1, [r5, #24]
 829 005a 51F82210 		ldr	r1, [r1, r2, lsl #2]
 830 005e E154     		strb	r1, [r4, r3]
 831 0060 0E0A     		lsrs	r6, r1, #8
 832 0062 581C     		adds	r0, r3, #1
 833 0064 2654     		strb	r6, [r4, r0]
 834 0066 0E0C     		lsrs	r6, r1, #16
 835 0068 981C     		adds	r0, r3, #2
 836 006a 2654     		strb	r6, [r4, r0]
 837 006c 090E     		lsrs	r1, r1, #24
 838 006e D81C     		adds	r0, r3, #3
 839 0070 2154     		strb	r1, [r4, r0]
ARM GAS  /var/folders/l3/4y5292px21b4835bsnjwqc7w009kq1/T//ccoAQsOl.s 			page 15


 840 0072 0433     		adds	r3, r3, #4
 841 0074 0132     		adds	r2, r2, #1
 842 0076 D2B2     		uxtb	r2, r2
 843 0078 EBE7     		b	.L85
 844              	.L84:
 845 007a 5A1C     		adds	r2, r3, #1
 846 007c 297F     		ldrb	r1, [r5, #28]	@ zero_extendqisi2
 847 007e E154     		strb	r1, [r4, r3]
 848 0080 991C     		adds	r1, r3, #2
 849 0082 4FF00008 		mov	r8, #0
 850 0086 04F80280 		strb	r8, [r4, r2]
 851 008a DA1C     		adds	r2, r3, #3
 852 008c 04F80180 		strb	r8, [r4, r1]
 853 0090 1E1D     		adds	r6, r3, #4
 854 0092 04F80280 		strb	r8, [r4, r2]
 855              	.L87:
 856 0096 2B7F     		ldrb	r3, [r5, #28]	@ zero_extendqisi2
 857 0098 4345     		cmp	r3, r8
 858 009a 14D9     		bls	.L81
 859 009c 6B6A     		ldr	r3, [r5, #36]
 860 009e 53F82800 		ldr	r0, [r3, r8, lsl #2]
 861 00a2 FFF7FEFF 		bl	strlen
 862 00a6 0746     		mov	r7, r0
 863 00a8 A051     		str	r0, [r4, r6]	@ unaligned
 864 00aa 0436     		adds	r6, r6, #4
 865 00ac 6B6A     		ldr	r3, [r5, #36]
 866 00ae 0246     		mov	r2, r0
 867 00b0 53F82810 		ldr	r1, [r3, r8, lsl #2]
 868 00b4 A019     		adds	r0, r4, r6
 869 00b6 FFF7FEFF 		bl	memcpy
 870 00ba 3E44     		add	r6, r6, r7
 871 00bc 08F10108 		add	r8, r8, #1
 872 00c0 5FFA88F8 		uxtb	r8, r8
 873 00c4 E7E7     		b	.L87
 874              	.L81:
 875 00c6 3046     		mov	r0, r6
 876 00c8 BDE8F081 		pop	{r4, r5, r6, r7, r8, pc}
 877              		.cantunwind
 878              		.fnend
 880              		.section	.text._ZN14rosserial_msgs20RequestParamResponse11deserializeEPh,"axG",%progbits,_ZN14ross
 881              		.align	1
 882              		.weak	_ZN14rosserial_msgs20RequestParamResponse11deserializeEPh
 883              		.syntax unified
 884              		.thumb
 885              		.thumb_func
 886              		.fpu fpv4-sp-d16
 888              	_ZN14rosserial_msgs20RequestParamResponse11deserializeEPh:
 889              		.fnstart
 890              	.LFB400:
 891              		@ args = 0, pretend = 0, frame = 0
 892              		@ frame_needed = 0, uses_anonymous_args = 0
 893 0000 F8B5     		push	{r3, r4, r5, r6, r7, lr}
 894 0002 0646     		mov	r6, r0
 895 0004 0D46     		mov	r5, r1
 896 0006 0C78     		ldrb	r4, [r1]	@ zero_extendqisi2
 897 0008 0379     		ldrb	r3, [r0, #4]	@ zero_extendqisi2
 898 000a A342     		cmp	r3, r4
ARM GAS  /var/folders/l3/4y5292px21b4835bsnjwqc7w009kq1/T//ccoAQsOl.s 			page 16


 899 000c 1AD3     		bcc	.L102
 900              	.L90:
 901 000e 3471     		strb	r4, [r6, #4]
 902 0010 0022     		movs	r2, #0
 903 0012 0424     		movs	r4, #4
 904              	.L92:
 905 0014 3379     		ldrb	r3, [r6, #4]	@ zero_extendqisi2
 906 0016 9342     		cmp	r3, r2
 907 0018 1AD9     		bls	.L91
 908 001a 2B5D     		ldrb	r3, [r5, r4]	@ zero_extendqisi2
 909 001c 611C     		adds	r1, r4, #1
 910 001e 695C     		ldrb	r1, [r5, r1]	@ zero_extendqisi2
 911 0020 43EA0123 		orr	r3, r3, r1, lsl #8
 912 0024 A11C     		adds	r1, r4, #2
 913 0026 695C     		ldrb	r1, [r5, r1]	@ zero_extendqisi2
 914 0028 43EA0143 		orr	r3, r3, r1, lsl #16
 915 002c E11C     		adds	r1, r4, #3
 916 002e 695C     		ldrb	r1, [r5, r1]	@ zero_extendqisi2
 917 0030 43EA0163 		orr	r3, r3, r1, lsl #24
 918 0034 B360     		str	r3, [r6, #8]
 919 0036 0434     		adds	r4, r4, #4
 920 0038 F168     		ldr	r1, [r6, #12]
 921 003a 41F82230 		str	r3, [r1, r2, lsl #2]	@ unaligned
 922 003e 0132     		adds	r2, r2, #1
 923 0040 D2B2     		uxtb	r2, r2
 924 0042 E7E7     		b	.L92
 925              	.L102:
 926 0044 A100     		lsls	r1, r4, #2
 927 0046 C068     		ldr	r0, [r0, #12]
 928 0048 FFF7FEFF 		bl	realloc
 929 004c F060     		str	r0, [r6, #12]
 930 004e DEE7     		b	.L90
 931              	.L91:
 932 0050 2F5D     		ldrb	r7, [r5, r4]	@ zero_extendqisi2
 933 0052 337C     		ldrb	r3, [r6, #16]	@ zero_extendqisi2
 934 0054 BB42     		cmp	r3, r7
 935 0056 1AD3     		bcc	.L103
 936              	.L93:
 937 0058 0434     		adds	r4, r4, #4
 938 005a 3774     		strb	r7, [r6, #16]
 939 005c 0022     		movs	r2, #0
 940              	.L95:
 941 005e 337C     		ldrb	r3, [r6, #16]	@ zero_extendqisi2
 942 0060 9342     		cmp	r3, r2
 943 0062 1AD9     		bls	.L94
 944 0064 2B5D     		ldrb	r3, [r5, r4]	@ zero_extendqisi2
 945 0066 611C     		adds	r1, r4, #1
 946 0068 695C     		ldrb	r1, [r5, r1]	@ zero_extendqisi2
 947 006a 43EA0123 		orr	r3, r3, r1, lsl #8
 948 006e A11C     		adds	r1, r4, #2
 949 0070 695C     		ldrb	r1, [r5, r1]	@ zero_extendqisi2
 950 0072 43EA0143 		orr	r3, r3, r1, lsl #16
 951 0076 E11C     		adds	r1, r4, #3
 952 0078 695C     		ldrb	r1, [r5, r1]	@ zero_extendqisi2
 953 007a 43EA0163 		orr	r3, r3, r1, lsl #24
 954 007e 7361     		str	r3, [r6, #20]	@ float
 955 0080 0434     		adds	r4, r4, #4
ARM GAS  /var/folders/l3/4y5292px21b4835bsnjwqc7w009kq1/T//ccoAQsOl.s 			page 17


 956 0082 B169     		ldr	r1, [r6, #24]
 957 0084 41F82230 		str	r3, [r1, r2, lsl #2]	@ unaligned
 958 0088 0132     		adds	r2, r2, #1
 959 008a D2B2     		uxtb	r2, r2
 960 008c E7E7     		b	.L95
 961              	.L103:
 962 008e B900     		lsls	r1, r7, #2
 963 0090 B069     		ldr	r0, [r6, #24]
 964 0092 FFF7FEFF 		bl	realloc
 965 0096 B061     		str	r0, [r6, #24]
 966 0098 DEE7     		b	.L93
 967              	.L94:
 968 009a 2F5D     		ldrb	r7, [r5, r4]	@ zero_extendqisi2
 969 009c 337F     		ldrb	r3, [r6, #28]	@ zero_extendqisi2
 970 009e BB42     		cmp	r3, r7
 971 00a0 04D3     		bcc	.L104
 972              	.L96:
 973 00a2 201D     		adds	r0, r4, #4
 974 00a4 3777     		strb	r7, [r6, #28]
 975 00a6 4FF0000C 		mov	ip, #0
 976 00aa 12E0     		b	.L100
 977              	.L104:
 978 00ac B900     		lsls	r1, r7, #2
 979 00ae 706A     		ldr	r0, [r6, #36]
 980 00b0 FFF7FEFF 		bl	realloc
 981 00b4 7062     		str	r0, [r6, #36]
 982 00b6 F4E7     		b	.L96
 983              	.L98:
 984 00b8 431E     		subs	r3, r0, #1
 985 00ba 0022     		movs	r2, #0
 986 00bc EA54     		strb	r2, [r5, r3]
 987 00be 013C     		subs	r4, r4, #1
 988 00c0 2C44     		add	r4, r4, r5
 989 00c2 3462     		str	r4, [r6, #32]
 990 00c4 736A     		ldr	r3, [r6, #36]
 991 00c6 43F82C40 		str	r4, [r3, ip, lsl #2]	@ unaligned
 992 00ca 0CF1010C 		add	ip, ip, #1
 993 00ce 5FFA8CFC 		uxtb	ip, ip
 994              	.L100:
 995 00d2 337F     		ldrb	r3, [r6, #28]	@ zero_extendqisi2
 996 00d4 6345     		cmp	r3, ip
 997 00d6 0AD9     		bls	.L89
 998 00d8 2F58     		ldr	r7, [r5, r0]	@ unaligned
 999 00da 041D     		adds	r4, r0, #4
 1000 00dc 2346     		mov	r3, r4
 1001              	.L99:
 1002 00de 3819     		adds	r0, r7, r4
 1003 00e0 9842     		cmp	r0, r3
 1004 00e2 E9D9     		bls	.L98
 1005 00e4 5A1E     		subs	r2, r3, #1
 1006 00e6 E95C     		ldrb	r1, [r5, r3]	@ zero_extendqisi2
 1007 00e8 A954     		strb	r1, [r5, r2]
 1008 00ea 0133     		adds	r3, r3, #1
 1009 00ec F7E7     		b	.L99
 1010              	.L89:
 1011 00ee F8BD     		pop	{r3, r4, r5, r6, r7, pc}
 1012              		.cantunwind
ARM GAS  /var/folders/l3/4y5292px21b4835bsnjwqc7w009kq1/T//ccoAQsOl.s 			page 18


 1013              		.fnend
 1015              		.section	.text._ZN3ros11NodeHandle_I13STM32HardwareLi5ELi5ELi512ELi512EE7publishEiPKNS_3MsgE,"axG"
 1016              		.align	1
 1017              		.weak	_ZN3ros11NodeHandle_I13STM32HardwareLi5ELi5ELi512ELi512EE7publishEiPKNS_3MsgE
 1018              		.syntax unified
 1019              		.thumb
 1020              		.thumb_func
 1021              		.fpu fpv4-sp-d16
 1023              	_ZN3ros11NodeHandle_I13STM32HardwareLi5ELi5ELi512ELi512EE7publishEiPKNS_3MsgE:
 1024              		.fnstart
 1025              	.LFB487:
 1026              		@ args = 0, pretend = 0, frame = 16
 1027              		@ frame_needed = 0, uses_anonymous_args = 0
 1028 0000 30B5     		push	{r4, r5, lr}
 1029              		.save {r4, r5, lr}
 1030              		.pad #20
 1031 0002 85B0     		sub	sp, sp, #20
 1032 0004 6329     		cmp	r1, #99
 1033 0006 03DD     		ble	.L106
 1034 0008 90F85434 		ldrb	r3, [r0, #1108]	@ zero_extendqisi2
 1035 000c 002B     		cmp	r3, #0
 1036 000e 51D0     		beq	.L111
 1037              	.L106:
 1038 0010 0D46     		mov	r5, r1
 1039 0012 0446     		mov	r4, r0
 1040 0014 1368     		ldr	r3, [r2]
 1041 0016 1B68     		ldr	r3, [r3]
 1042 0018 00F21F21 		addw	r1, r0, #543
 1043 001c 1046     		mov	r0, r2
 1044 001e 9847     		blx	r3
 1045 0020 FF23     		movs	r3, #255
 1046 0022 84F81832 		strb	r3, [r4, #536]
 1047 0026 FE23     		movs	r3, #254
 1048 0028 84F81932 		strb	r3, [r4, #537]
 1049 002c C3B2     		uxtb	r3, r0
 1050 002e 84F81A32 		strb	r3, [r4, #538]
 1051 0032 C0F30722 		ubfx	r2, r0, #8, #8
 1052 0036 84F81B22 		strb	r2, [r4, #539]
 1053 003a 1344     		add	r3, r3, r2
 1054 003c DBB2     		uxtb	r3, r3
 1055 003e DB43     		mvns	r3, r3
 1056 0040 84F81C32 		strb	r3, [r4, #540]
 1057 0044 84F81D52 		strb	r5, [r4, #541]
 1058 0048 45F30721 		sbfx	r1, r5, #8, #8
 1059 004c 84F81E12 		strb	r1, [r4, #542]
 1060 0050 0523     		movs	r3, #5
 1061 0052 0022     		movs	r2, #0
 1062              	.L109:
 1063 0054 C11D     		adds	r1, r0, #7
 1064 0056 9942     		cmp	r1, r3
 1065 0058 05DD     		ble	.L108
 1066 005a E118     		adds	r1, r4, r3
 1067 005c 91F81812 		ldrb	r1, [r1, #536]	@ zero_extendqisi2
 1068 0060 0A44     		add	r2, r2, r1
 1069 0062 0133     		adds	r3, r3, #1
 1070 0064 F6E7     		b	.L109
 1071              	.L108:
ARM GAS  /var/folders/l3/4y5292px21b4835bsnjwqc7w009kq1/T//ccoAQsOl.s 			page 19


 1072 0066 5342     		rsbs	r3, r2, #0
 1073 0068 D2B2     		uxtb	r2, r2
 1074 006a DBB2     		uxtb	r3, r3
 1075 006c 58BF     		it	pl
 1076 006e 5A42     		rsbpl	r2, r3, #0
 1077 0070 00F10805 		add	r5, r0, #8
 1078 0074 D243     		mvns	r2, r2
 1079 0076 2144     		add	r1, r1, r4
 1080 0078 81F81822 		strb	r2, [r1, #536]
 1081 007c B5F5007F 		cmp	r5, #512
 1082 0080 08DC     		bgt	.L110
 1083 0082 AAB2     		uxth	r2, r5
 1084 0084 04F50671 		add	r1, r4, #536
 1085 0088 0020     		movs	r0, #0
 1086 008a FFF7FEFF 		bl	comSendBuf
 1087              	.L105:
 1088 008e 2846     		mov	r0, r5
 1089 0090 05B0     		add	sp, sp, #20
 1090              		@ sp needed
 1091 0092 30BD     		pop	{r4, r5, pc}
 1092              	.L110:
 1093 0094 084B     		ldr	r3, .L113
 1094 0096 0193     		str	r3, [sp, #4]
 1095 0098 0323     		movs	r3, #3
 1096 009a 8DF80830 		strb	r3, [sp, #8]
 1097 009e 074B     		ldr	r3, .L113+4
 1098 00a0 0393     		str	r3, [sp, #12]
 1099 00a2 2368     		ldr	r3, [r4]
 1100 00a4 1B68     		ldr	r3, [r3]
 1101 00a6 01AA     		add	r2, sp, #4
 1102 00a8 0721     		movs	r1, #7
 1103 00aa 2046     		mov	r0, r4
 1104 00ac 9847     		blx	r3
 1105 00ae 4FF0FF35 		mov	r5, #-1
 1106 00b2 ECE7     		b	.L105
 1107              	.L111:
 1108 00b4 0025     		movs	r5, #0
 1109 00b6 EAE7     		b	.L105
 1110              	.L114:
 1111              		.align	2
 1112              	.L113:
 1113 00b8 08000000 		.word	_ZTVN14rosserial_msgs3LogE+8
 1114 00bc 00000000 		.word	.LC13
 1115              		.fnend
 1117              		.section	.text.main,"ax",%progbits
 1118              		.align	1
 1119              		.global	main
 1120              		.syntax unified
 1121              		.thumb
 1122              		.thumb_func
 1123              		.fpu fpv4-sp-d16
 1125              	main:
 1126              		.fnstart
 1127              	.LFB462:
 1128              		@ args = 0, pretend = 0, frame = 0
 1129              		@ frame_needed = 0, uses_anonymous_args = 0
 1130 0000 08B5     		push	{r3, lr}
ARM GAS  /var/folders/l3/4y5292px21b4835bsnjwqc7w009kq1/T//ccoAQsOl.s 			page 20


 1131              		.save {r3, lr}
 1132 0002 0123     		movs	r3, #1
 1133              		.syntax unified
 1134              	@ 215 "../Libraries/CMSIS/CM4/CoreSupport/cmsis_gcc.h" 1
 1135 0004 83F31088 		MSR primask, r3
 1136              	@ 0 "" 2
 1137              		.thumb
 1138              		.syntax unified
 1139 0008 FFF7FEFF 		bl	bsp_Init
 1140 000c 094B     		ldr	r3, .L118
 1141 000e 0022     		movs	r2, #0
 1142 0010 C3F84024 		str	r2, [r3, #1088]
 1143 0014 C3F84424 		str	r2, [r3, #1092]
 1144 0018 C3F84C24 		str	r2, [r3, #1100]
 1145 001c C3F84824 		str	r2, [r3, #1096]
 1146 0020 FFF7FEFF 		bl	vTimerInitForRunTimeState
 1147 0024 FFF7FEFF 		bl	_ZL13AppTaskCreatev
 1148 0028 FFF7FEFF 		bl	_ZL12AppObjCreatev
 1149 002c FFF7FEFF 		bl	vTaskStartScheduler
 1150              	.L116:
 1151 0030 FEE7     		b	.L116
 1152              	.L119:
 1153 0032 00BF     		.align	2
 1154              	.L118:
 1155 0034 00000000 		.word	.LANCHOR1
 1156              		.fnend
 1158              		.section	.text._Z10App_PrintfPKcz,"ax",%progbits
 1159              		.align	1
 1160              		.global	_Z10App_PrintfPKcz
 1161              		.syntax unified
 1162              		.thumb
 1163              		.thumb_func
 1164              		.fpu fpv4-sp-d16
 1166              	_Z10App_PrintfPKcz:
 1167              		.fnstart
 1168              	.LFB468:
 1169              		@ args = 4, pretend = 16, frame = 208
 1170              		@ frame_needed = 0, uses_anonymous_args = 1
 1171 0000 0FB4     		push	{r0, r1, r2, r3}
 1172              		.save {r0, r1, r2, r3}
 1173 0002 10B5     		push	{r4, lr}
 1174              		.save {r4, lr}
 1175              		.pad #208
 1176 0004 B4B0     		sub	sp, sp, #208
 1177 0006 36AB     		add	r3, sp, #216
 1178 0008 53F8042B 		ldr	r2, [r3], #4
 1179 000c 0093     		str	r3, [sp]
 1180 000e C921     		movs	r1, #201
 1181 0010 01A8     		add	r0, sp, #4
 1182 0012 FFF7FEFF 		bl	vsnprintf
 1183 0016 0B4C     		ldr	r4, .L122
 1184 0018 0023     		movs	r3, #0
 1185 001a 4FF0FF32 		mov	r2, #-1
 1186 001e 1946     		mov	r1, r3
 1187 0020 2068     		ldr	r0, [r4]
 1188 0022 FFF7FEFF 		bl	xQueueGenericReceive
 1189 0026 01A9     		add	r1, sp, #4
ARM GAS  /var/folders/l3/4y5292px21b4835bsnjwqc7w009kq1/T//ccoAQsOl.s 			page 21


 1190 0028 0748     		ldr	r0, .L122+4
 1191 002a FFF7FEFF 		bl	printf
 1192 002e 0023     		movs	r3, #0
 1193 0030 1A46     		mov	r2, r3
 1194 0032 1946     		mov	r1, r3
 1195 0034 2068     		ldr	r0, [r4]
 1196 0036 FFF7FEFF 		bl	xQueueGenericSend
 1197 003a 34B0     		add	sp, sp, #208
 1198              		@ sp needed
 1199 003c BDE81040 		pop	{r4, lr}
 1200 0040 04B0     		add	sp, sp, #16
 1201 0042 7047     		bx	lr
 1202              	.L123:
 1203              		.align	2
 1204              	.L122:
 1205 0044 00000000 		.word	.LANCHOR5
 1206 0048 00000000 		.word	.LC14
 1207              		.fnend
 1209              		.section	.text._ZL17vTaskCtrolProcessPv,"ax",%progbits
 1210              		.align	1
 1211              		.syntax unified
 1212              		.thumb
 1213              		.thumb_func
 1214              		.fpu fpv4-sp-d16
 1216              	_ZL17vTaskCtrolProcessPv:
 1217              		.fnstart
 1218              	.LFB465:
 1219              		@ args = 0, pretend = 0, frame = 0
 1220              		@ frame_needed = 0, uses_anonymous_args = 0
 1221 0000 08B5     		push	{r3, lr}
 1222              		.save {r3, lr}
 1223              	.L125:
 1224 0002 4FF47A70 		mov	r0, #1000
 1225 0006 FFF7FEFF 		bl	vTaskDelay
 1226 000a 0248     		ldr	r0, .L127
 1227 000c FFF7FEFF 		bl	_Z10App_PrintfPKcz
 1228 0010 F7E7     		b	.L125
 1229              	.L128:
 1230 0012 00BF     		.align	2
 1231              	.L127:
 1232 0014 00000000 		.word	.LC15
 1233              		.fnend
 1235              		.section	.text._ZL15vTaskMsgProcessPv,"ax",%progbits
 1236              		.align	1
 1237              		.syntax unified
 1238              		.thumb
 1239              		.thumb_func
 1240              		.fpu fpv4-sp-d16
 1242              	_ZL15vTaskMsgProcessPv:
 1243              		.fnstart
 1244              	.LFB464:
 1245              		@ args = 0, pretend = 0, frame = 504
 1246              		@ frame_needed = 0, uses_anonymous_args = 0
 1247 0000 10B5     		push	{r4, lr}
 1248              		.save {r4, lr}
 1249              		.pad #504
 1250 0002 FEB0     		sub	sp, sp, #504
ARM GAS  /var/folders/l3/4y5292px21b4835bsnjwqc7w009kq1/T//ccoAQsOl.s 			page 22


 1251 0004 FF23     		movs	r3, #255
 1252 0006 8DF8F731 		strb	r3, [sp, #503]
 1253 000a 2E48     		ldr	r0, .L139
 1254 000c FFF7FEFF 		bl	_Z10App_PrintfPKcz
 1255 0010 2D48     		ldr	r0, .L139+4
 1256 0012 FFF7FEFF 		bl	_Z10App_PrintfPKcz
 1257 0016 2D48     		ldr	r0, .L139+8
 1258 0018 FFF7FEFF 		bl	_Z10App_PrintfPKcz
 1259 001c 26E0     		b	.L135
 1260              	.L138:
 1261 001e 2C48     		ldr	r0, .L139+12
 1262 0020 FFF7FEFF 		bl	_Z10App_PrintfPKcz
 1263 0024 2B48     		ldr	r0, .L139+16
 1264 0026 FFF7FEFF 		bl	_Z10App_PrintfPKcz
 1265 002a 6846     		mov	r0, sp
 1266 002c FFF7FEFF 		bl	vTaskList
 1267 0030 294C     		ldr	r4, .L139+20
 1268 0032 6946     		mov	r1, sp
 1269 0034 2046     		mov	r0, r4
 1270 0036 FFF7FEFF 		bl	_Z10App_PrintfPKcz
 1271 003a 2848     		ldr	r0, .L139+24
 1272 003c FFF7FEFF 		bl	_Z10App_PrintfPKcz
 1273 0040 2748     		ldr	r0, .L139+28
 1274 0042 FFF7FEFF 		bl	_Z10App_PrintfPKcz
 1275 0046 2748     		ldr	r0, .L139+32
 1276 0048 FFF7FEFF 		bl	_Z10App_PrintfPKcz
 1277 004c 6846     		mov	r0, sp
 1278 004e FFF7FEFF 		bl	vTaskGetRunTimeStats
 1279 0052 6946     		mov	r1, sp
 1280 0054 2046     		mov	r0, r4
 1281 0056 FFF7FEFF 		bl	_Z10App_PrintfPKcz
 1282              	.L130:
 1283 005a 9DF8F731 		ldrb	r3, [sp, #503]	@ zero_extendqisi2
 1284 005e 313B     		subs	r3, r3, #49
 1285 0060 DBB2     		uxtb	r3, r3
 1286 0062 022B     		cmp	r3, #2
 1287 0064 1ED9     		bls	.L137
 1288              	.L134:
 1289 0066 6420     		movs	r0, #100
 1290 0068 FFF7FEFF 		bl	vTaskDelay
 1291              	.L135:
 1292 006c 0DF2F711 		addw	r1, sp, #503
 1293 0070 0020     		movs	r0, #0
 1294 0072 FFF7FEFF 		bl	comGetChar
 1295 0076 9DF8F731 		ldrb	r3, [sp, #503]	@ zero_extendqisi2
 1296 007a 322B     		cmp	r3, #50
 1297 007c 04D0     		beq	.L131
 1298 007e 332B     		cmp	r3, #51
 1299 0080 09D0     		beq	.L132
 1300 0082 312B     		cmp	r3, #49
 1301 0084 E9D1     		bne	.L130
 1302 0086 CAE7     		b	.L138
 1303              	.L131:
 1304 0088 174A     		ldr	r2, .L139+36
 1305 008a 4CF25031 		movw	r1, #50000
 1306 008e 0120     		movs	r0, #1
 1307 0090 FFF7FEFF 		bl	bsp_StartHardTimer
ARM GAS  /var/folders/l3/4y5292px21b4835bsnjwqc7w009kq1/T//ccoAQsOl.s 			page 23


 1308 0094 E1E7     		b	.L130
 1309              	.L132:
 1310 0096 154A     		ldr	r2, .L139+40
 1311 0098 4CF25031 		movw	r1, #50000
 1312 009c 0220     		movs	r0, #2
 1313 009e FFF7FEFF 		bl	bsp_StartHardTimer
 1314 00a2 DAE7     		b	.L130
 1315              	.L137:
 1316 00a4 1248     		ldr	r0, .L139+44
 1317 00a6 FFF7FEFF 		bl	_Z10App_PrintfPKcz
 1318 00aa 0748     		ldr	r0, .L139+4
 1319 00ac FFF7FEFF 		bl	_Z10App_PrintfPKcz
 1320 00b0 0648     		ldr	r0, .L139+8
 1321 00b2 FFF7FEFF 		bl	_Z10App_PrintfPKcz
 1322 00b6 0020     		movs	r0, #0
 1323 00b8 FFF7FEFF 		bl	comClearRxFifo
 1324 00bc FF23     		movs	r3, #255
 1325 00be 8DF8F731 		strb	r3, [sp, #503]
 1326 00c2 D0E7     		b	.L134
 1327              	.L140:
 1328              		.align	2
 1329              	.L139:
 1330 00c4 00000000 		.word	.LC16
 1331 00c8 28000000 		.word	.LC17
 1332 00cc 48000000 		.word	.LC18
 1333 00d0 68000000 		.word	.LC19
 1334 00d4 A0000000 		.word	.LC20
 1335 00d8 D8000000 		.word	.LC21
 1336 00dc E0000000 		.word	.LC22
 1337 00e0 E4000000 		.word	.LC23
 1338 00e4 1C010000 		.word	.LC24
 1339 00e8 00000000 		.word	_ZL13TMR_CallBack1v
 1340 00ec 00000000 		.word	_ZL13TMR_CallBack2v
 1341 00f0 54010000 		.word	.LC25
 1342              		.fnend
 1344              		.section	.text._ZL8vTaskLEDPv,"ax",%progbits
 1345              		.align	1
 1346              		.syntax unified
 1347              		.thumb
 1348              		.thumb_func
 1349              		.fpu fpv4-sp-d16
 1351              	_ZL8vTaskLEDPv:
 1352              		.fnstart
 1353              	.LFB463:
 1354              		@ args = 0, pretend = 0, frame = 8
 1355              		@ frame_needed = 0, uses_anonymous_args = 0
 1356 0000 00B5     		push	{lr}
 1357              		.save {lr}
 1358              		.pad #12
 1359 0002 83B0     		sub	sp, sp, #12
 1360 0004 FFF7FEFF 		bl	xTaskGetTickCount
 1361 0008 0190     		str	r0, [sp, #4]
 1362              	.L142:
 1363 000a 0220     		movs	r0, #2
 1364 000c FFF7FEFF 		bl	bsp_LedToggle
 1365 0010 4FF47A71 		mov	r1, #1000
 1366 0014 01A8     		add	r0, sp, #4
ARM GAS  /var/folders/l3/4y5292px21b4835bsnjwqc7w009kq1/T//ccoAQsOl.s 			page 24


 1367 0016 FFF7FEFF 		bl	vTaskDelayUntil
 1368 001a 0199     		ldr	r1, [sp, #4]
 1369 001c 0148     		ldr	r0, .L144
 1370 001e FFF7FEFF 		bl	_Z10App_PrintfPKcz
 1371 0022 F2E7     		b	.L142
 1372              	.L145:
 1373              		.align	2
 1374              	.L144:
 1375 0024 00000000 		.word	.LC26
 1376              		.fnend
 1378              		.section	.text.vApplicationMallocFailedHook,"ax",%progbits
 1379              		.align	1
 1380              		.global	vApplicationMallocFailedHook
 1381              		.syntax unified
 1382              		.thumb
 1383              		.thumb_func
 1384              		.fpu fpv4-sp-d16
 1386              	vApplicationMallocFailedHook:
 1387              		.fnstart
 1388              	.LFB471:
 1389              		@ Volatile: function does not return.
 1390              		@ args = 0, pretend = 0, frame = 0
 1391              		@ frame_needed = 0, uses_anonymous_args = 0
 1392              		@ link register save eliminated.
 1393              	.L147:
 1394 0000 FEE7     		b	.L147
 1395              		.cantunwind
 1396              		.fnend
 1398              		.section	.text.vApplicationStackOverflowHook,"ax",%progbits
 1399              		.align	1
 1400              		.global	vApplicationStackOverflowHook
 1401              		.syntax unified
 1402              		.thumb
 1403              		.thumb_func
 1404              		.fpu fpv4-sp-d16
 1406              	vApplicationStackOverflowHook:
 1407              		.fnstart
 1408              	.LFB472:
 1409              		@ args = 0, pretend = 0, frame = 0
 1410              		@ frame_needed = 0, uses_anonymous_args = 0
 1411 0000 08B5     		push	{r3, lr}
 1412              		.save {r3, lr}
 1413 0002 0248     		ldr	r0, .L150
 1414 0004 FFF7FEFF 		bl	_Z10App_PrintfPKcz
 1415 0008 08BD     		pop	{r3, pc}
 1416              	.L151:
 1417 000a 00BF     		.align	2
 1418              	.L150:
 1419 000c 00000000 		.word	.LC27
 1420              		.fnend
 1422              		.section	.text._ZN3ros11NodeHandle_I13STM32HardwareLi5ELi5ELi512ELi512EE15negotiateTopicsEv,"axG",
 1423              		.align	1
 1424              		.weak	_ZN3ros11NodeHandle_I13STM32HardwareLi5ELi5ELi512ELi512EE15negotiateTopicsEv
 1425              		.syntax unified
 1426              		.thumb
 1427              		.thumb_func
 1428              		.fpu fpv4-sp-d16
ARM GAS  /var/folders/l3/4y5292px21b4835bsnjwqc7w009kq1/T//ccoAQsOl.s 			page 25


 1430              	_ZN3ros11NodeHandle_I13STM32HardwareLi5ELi5ELi512ELi512EE15negotiateTopicsEv:
 1431              		.fnstart
 1432              	.LFB495:
 1433              		@ args = 0, pretend = 0, frame = 24
 1434              		@ frame_needed = 0, uses_anonymous_args = 0
 1435 0000 F0B5     		push	{r4, r5, r6, r7, lr}
 1436              		.save {r4, r5, r6, r7, lr}
 1437              		.pad #28
 1438 0002 87B0     		sub	sp, sp, #28
 1439 0004 0446     		mov	r4, r0
 1440 0006 2E4B     		ldr	r3, .L160
 1441 0008 0093     		str	r3, [sp]
 1442 000a 0025     		movs	r5, #0
 1443 000c 00E0     		b	.L155
 1444              	.L154:
 1445 000e 0135     		adds	r5, r5, #1
 1446              	.L155:
 1447 0010 042D     		cmp	r5, #4
 1448 0012 24DC     		bgt	.L158
 1449 0014 05F58373 		add	r3, r5, #262
 1450 0018 54F82330 		ldr	r3, [r4, r3, lsl #2]
 1451 001c 002B     		cmp	r3, #0
 1452 001e F6D0     		beq	.L154
 1453 0020 9A68     		ldr	r2, [r3, #8]
 1454 0022 ADF80420 		strh	r2, [sp, #4]	@ movhi
 1455 0026 1A68     		ldr	r2, [r3]
 1456 0028 0292     		str	r2, [sp, #8]
 1457 002a 5868     		ldr	r0, [r3, #4]
 1458 002c 0368     		ldr	r3, [r0]
 1459 002e 9B68     		ldr	r3, [r3, #8]
 1460 0030 9847     		blx	r3
 1461 0032 0390     		str	r0, [sp, #12]
 1462 0034 05F58376 		add	r6, r5, #262
 1463 0038 54F82630 		ldr	r3, [r4, r6, lsl #2]
 1464 003c 5868     		ldr	r0, [r3, #4]
 1465 003e 0368     		ldr	r3, [r0]
 1466 0040 DB68     		ldr	r3, [r3, #12]
 1467 0042 9847     		blx	r3
 1468 0044 0490     		str	r0, [sp, #16]
 1469 0046 4FF40073 		mov	r3, #512
 1470 004a 0593     		str	r3, [sp, #20]
 1471 004c 54F82610 		ldr	r1, [r4, r6, lsl #2]
 1472 0050 2368     		ldr	r3, [r4]
 1473 0052 1B68     		ldr	r3, [r3]
 1474 0054 6A46     		mov	r2, sp
 1475 0056 0969     		ldr	r1, [r1, #16]
 1476 0058 2046     		mov	r0, r4
 1477 005a 9847     		blx	r3
 1478 005c D7E7     		b	.L154
 1479              	.L158:
 1480 005e 0025     		movs	r5, #0
 1481 0060 00E0     		b	.L153
 1482              	.L157:
 1483 0062 0135     		adds	r5, r5, #1
 1484              	.L153:
 1485 0064 042D     		cmp	r5, #4
 1486 0066 26DC     		bgt	.L156
ARM GAS  /var/folders/l3/4y5292px21b4835bsnjwqc7w009kq1/T//ccoAQsOl.s 			page 26


 1487 0068 05F58573 		add	r3, r5, #266
 1488 006c 04EB8303 		add	r3, r4, r3, lsl #2
 1489 0070 5868     		ldr	r0, [r3, #4]
 1490 0072 0028     		cmp	r0, #0
 1491 0074 F5D0     		beq	.L157
 1492 0076 4368     		ldr	r3, [r0, #4]
 1493 0078 ADF80430 		strh	r3, [sp, #4]	@ movhi
 1494 007c 8368     		ldr	r3, [r0, #8]
 1495 007e 0293     		str	r3, [sp, #8]
 1496 0080 0368     		ldr	r3, [r0]
 1497 0082 9B68     		ldr	r3, [r3, #8]
 1498 0084 9847     		blx	r3
 1499 0086 0390     		str	r0, [sp, #12]
 1500 0088 05F58576 		add	r6, r5, #266
 1501 008c 04EB8606 		add	r6, r4, r6, lsl #2
 1502 0090 7068     		ldr	r0, [r6, #4]
 1503 0092 0368     		ldr	r3, [r0]
 1504 0094 DB68     		ldr	r3, [r3, #12]
 1505 0096 9847     		blx	r3
 1506 0098 0490     		str	r0, [sp, #16]
 1507 009a 4FF40073 		mov	r3, #512
 1508 009e 0593     		str	r3, [sp, #20]
 1509 00a0 2368     		ldr	r3, [r4]
 1510 00a2 1F68     		ldr	r7, [r3]
 1511 00a4 7068     		ldr	r0, [r6, #4]
 1512 00a6 0368     		ldr	r3, [r0]
 1513 00a8 5B68     		ldr	r3, [r3, #4]
 1514 00aa 9847     		blx	r3
 1515 00ac 6A46     		mov	r2, sp
 1516 00ae 0146     		mov	r1, r0
 1517 00b0 2046     		mov	r0, r4
 1518 00b2 B847     		blx	r7
 1519 00b4 D5E7     		b	.L157
 1520              	.L156:
 1521 00b6 0123     		movs	r3, #1
 1522 00b8 84F85434 		strb	r3, [r4, #1108]
 1523 00bc 07B0     		add	sp, sp, #28
 1524              		@ sp needed
 1525 00be F0BD     		pop	{r4, r5, r6, r7, pc}
 1526              	.L161:
 1527              		.align	2
 1528              	.L160:
 1529 00c0 08000000 		.word	_ZTVN14rosserial_msgs9TopicInfoE+8
 1530              		.fnend
 1532              		.section	.text._ZN3ros11NodeHandle_I13STM32HardwareLi5ELi5ELi512ELi512EE8spinOnceEv,"axG",%progbit
 1533              		.align	1
 1534              		.weak	_ZN3ros11NodeHandle_I13STM32HardwareLi5ELi5ELi512ELi512EE8spinOnceEv
 1535              		.syntax unified
 1536              		.thumb
 1537              		.thumb_func
 1538              		.fpu fpv4-sp-d16
 1540              	_ZN3ros11NodeHandle_I13STM32HardwareLi5ELi5ELi512ELi512EE8spinOnceEv:
 1541              		.fnstart
 1542              	.LFB488:
 1543              		@ args = 0, pretend = 0, frame = 16
 1544              		@ frame_needed = 0, uses_anonymous_args = 0
 1545 0000 2DE9F043 		push	{r4, r5, r6, r7, r8, r9, lr}
ARM GAS  /var/folders/l3/4y5292px21b4835bsnjwqc7w009kq1/T//ccoAQsOl.s 			page 27


 1546              		.save {r4, r5, r6, r7, r8, r9, lr}
 1547              		.pad #20
 1548 0004 85B0     		sub	sp, sp, #20
 1549 0006 0446     		mov	r4, r0
 1550 0008 FFF7FEFF 		bl	xTaskGetTickCount
 1551 000c 0546     		mov	r5, r0
 1552 000e D4F85C34 		ldr	r3, [r4, #1116]
 1553 0012 C31A     		subs	r3, r0, r3
 1554 0014 42F6F822 		movw	r2, #11000
 1555 0018 9342     		cmp	r3, r2
 1556 001a 02D9     		bls	.L163
 1557 001c 0023     		movs	r3, #0
 1558 001e 84F85434 		strb	r3, [r4, #1108]
 1559              	.L163:
 1560 0022 D4F84034 		ldr	r3, [r4, #1088]
 1561 0026 33B3     		cbz	r3, .L165
 1562 0028 D4F86034 		ldr	r3, [r4, #1120]
 1563 002c AB42     		cmp	r3, r5
 1564 002e 22D2     		bcs	.L165
 1565 0030 0023     		movs	r3, #0
 1566 0032 C4F84034 		str	r3, [r4, #1088]
 1567 0036 1EE0     		b	.L165
 1568              	.L201:
 1569 0038 94F85434 		ldrb	r3, [r4, #1108]	@ zero_extendqisi2
 1570 003c 002B     		cmp	r3, #0
 1571 003e 00F0E881 		beq	.L162
 1572 0042 D4F85834 		ldr	r3, [r4, #1112]
 1573 0046 EB1A     		subs	r3, r5, r3
 1574 0048 40F6C412 		movw	r2, #2500
 1575 004c 9342     		cmp	r3, r2
 1576 004e 00F2CC81 		bhi	.L200
 1577 0052 0020     		movs	r0, #0
 1578 0054 DDE1     		b	.L162
 1579              	.L202:
 1580 0056 D4F84C34 		ldr	r3, [r4, #1100]
 1581 005a 5A1C     		adds	r2, r3, #1
 1582 005c C4F84C24 		str	r2, [r4, #1100]
 1583 0060 2344     		add	r3, r3, r4
 1584 0062 1976     		strb	r1, [r3, #24]
 1585 0064 D4F84434 		ldr	r3, [r4, #1092]
 1586 0068 013B     		subs	r3, r3, #1
 1587 006a C4F84434 		str	r3, [r4, #1092]
 1588 006e 13B9     		cbnz	r3, .L165
 1589 0070 0823     		movs	r3, #8
 1590 0072 C4F84034 		str	r3, [r4, #1088]
 1591              	.L165:
 1592 0076 6369     		ldr	r3, [r4, #20]
 1593 0078 33B1     		cbz	r3, .L166
 1594 007a FFF7FEFF 		bl	xTaskGetTickCount
 1595 007e 401B     		subs	r0, r0, r5
 1596 0080 6369     		ldr	r3, [r4, #20]
 1597 0082 9842     		cmp	r0, r3
 1598 0084 00F2C381 		bhi	.L197
 1599              	.L166:
 1600 0088 01A9     		add	r1, sp, #4
 1601 008a 0020     		movs	r0, #0
 1602 008c FFF7FEFF 		bl	comGetChar
ARM GAS  /var/folders/l3/4y5292px21b4835bsnjwqc7w009kq1/T//ccoAQsOl.s 			page 28


 1603 0090 0028     		cmp	r0, #0
 1604 0092 D1D0     		beq	.L201
 1605 0094 9DF80410 		ldrb	r1, [sp, #4]	@ zero_extendqisi2
 1606 0098 D4F85024 		ldr	r2, [r4, #1104]
 1607 009c 0A44     		add	r2, r2, r1
 1608 009e C4F85024 		str	r2, [r4, #1104]
 1609 00a2 D4F84034 		ldr	r3, [r4, #1088]
 1610 00a6 072B     		cmp	r3, #7
 1611 00a8 D5D0     		beq	.L202
 1612 00aa B3B9     		cbnz	r3, .L172
 1613 00ac FF29     		cmp	r1, #255
 1614 00ae 07D1     		bne	.L173
 1615 00b0 0133     		adds	r3, r3, #1
 1616 00b2 C4F84034 		str	r3, [r4, #1088]
 1617 00b6 05F11403 		add	r3, r5, #20
 1618 00ba C4F86034 		str	r3, [r4, #1120]
 1619 00be DAE7     		b	.L165
 1620              	.L173:
 1621 00c0 FFF7FEFF 		bl	xTaskGetTickCount
 1622 00c4 401B     		subs	r0, r0, r5
 1623 00c6 41F28833 		movw	r3, #5000
 1624 00ca 9842     		cmp	r0, r3
 1625 00cc D3D9     		bls	.L165
 1626 00ce 0023     		movs	r3, #0
 1627 00d0 84F85434 		strb	r3, [r4, #1108]
 1628 00d4 6FF00100 		mvn	r0, #1
 1629 00d8 9BE1     		b	.L162
 1630              	.L172:
 1631 00da 012B     		cmp	r3, #1
 1632 00dc 35D0     		beq	.L203
 1633 00de 022B     		cmp	r3, #2
 1634 00e0 4FD0     		beq	.L204
 1635 00e2 032B     		cmp	r3, #3
 1636 00e4 58D0     		beq	.L205
 1637 00e6 042B     		cmp	r3, #4
 1638 00e8 60D0     		beq	.L206
 1639 00ea 052B     		cmp	r3, #5
 1640 00ec 6DD0     		beq	.L207
 1641 00ee 062B     		cmp	r3, #6
 1642 00f0 73D0     		beq	.L208
 1643 00f2 082B     		cmp	r3, #8
 1644 00f4 BFD1     		bne	.L165
 1645 00f6 0023     		movs	r3, #0
 1646 00f8 C4F84034 		str	r3, [r4, #1088]
 1647 00fc 9B1A     		subs	r3, r3, r2
 1648 00fe D2B2     		uxtb	r2, r2
 1649 0100 DBB2     		uxtb	r3, r3
 1650 0102 58BF     		it	pl
 1651 0104 5A42     		rsbpl	r2, r3, #0
 1652 0106 FF2A     		cmp	r2, #255
 1653 0108 B5D1     		bne	.L165
 1654 010a D4F84834 		ldr	r3, [r4, #1096]
 1655 010e 002B     		cmp	r3, #0
 1656 0110 75D0     		beq	.L209
 1657 0112 0A2B     		cmp	r3, #10
 1658 0114 00F08B80 		beq	.L210
 1659 0118 062B     		cmp	r3, #6
ARM GAS  /var/folders/l3/4y5292px21b4835bsnjwqc7w009kq1/T//ccoAQsOl.s 			page 29


 1660 011a 00F0CD80 		beq	.L211
 1661 011e 0B2B     		cmp	r3, #11
 1662 0120 00F05F81 		beq	.L212
 1663 0124 A3F16402 		sub	r2, r3, #100
 1664 0128 A633     		adds	r3, r3, #166
 1665 012a 04EB8303 		add	r3, r4, r3, lsl #2
 1666 012e 5968     		ldr	r1, [r3, #4]
 1667 0130 0029     		cmp	r1, #0
 1668 0132 A0D0     		beq	.L165
 1669 0134 02F58573 		add	r3, r2, #266
 1670 0138 04EB8303 		add	r3, r4, r3, lsl #2
 1671 013c 0A68     		ldr	r2, [r1]
 1672 013e 1268     		ldr	r2, [r2]
 1673 0140 04F11801 		add	r1, r4, #24
 1674 0144 5868     		ldr	r0, [r3, #4]
 1675 0146 9047     		blx	r2
 1676 0148 95E7     		b	.L165
 1677              	.L203:
 1678 014a FE29     		cmp	r1, #254
 1679 014c 15D0     		beq	.L213
 1680 014e 0023     		movs	r3, #0
 1681 0150 C4F84034 		str	r3, [r4, #1088]
 1682 0154 94F85434 		ldrb	r3, [r4, #1108]	@ zero_extendqisi2
 1683 0158 002B     		cmp	r3, #0
 1684 015a 8CD1     		bne	.L165
 1685 015c AE4B     		ldr	r3, .L218
 1686 015e 0193     		str	r3, [sp, #4]
 1687 0160 0023     		movs	r3, #0
 1688 0162 0293     		str	r3, [sp, #8]
 1689 0164 0393     		str	r3, [sp, #12]
 1690 0166 2368     		ldr	r3, [r4]
 1691 0168 1B68     		ldr	r3, [r3]
 1692 016a 01AA     		add	r2, sp, #4
 1693 016c 0A21     		movs	r1, #10
 1694 016e 2046     		mov	r0, r4
 1695 0170 9847     		blx	r3
 1696 0172 FFF7FEFF 		bl	xTaskGetTickCount
 1697 0176 A060     		str	r0, [r4, #8]
 1698 0178 7DE7     		b	.L165
 1699              	.L213:
 1700 017a 0133     		adds	r3, r3, #1
 1701 017c C4F84034 		str	r3, [r4, #1088]
 1702 0180 79E7     		b	.L165
 1703              	.L204:
 1704 0182 C4F84414 		str	r1, [r4, #1092]
 1705 0186 0022     		movs	r2, #0
 1706 0188 C4F84C24 		str	r2, [r4, #1100]
 1707 018c 0133     		adds	r3, r3, #1
 1708 018e C4F84034 		str	r3, [r4, #1088]
 1709 0192 C4F85014 		str	r1, [r4, #1104]
 1710 0196 6EE7     		b	.L165
 1711              	.L205:
 1712 0198 D4F84424 		ldr	r2, [r4, #1092]
 1713 019c 02EB0121 		add	r1, r2, r1, lsl #8
 1714 01a0 C4F84414 		str	r1, [r4, #1092]
 1715 01a4 0133     		adds	r3, r3, #1
 1716 01a6 C4F84034 		str	r3, [r4, #1088]
ARM GAS  /var/folders/l3/4y5292px21b4835bsnjwqc7w009kq1/T//ccoAQsOl.s 			page 30


 1717 01aa 64E7     		b	.L165
 1718              	.L206:
 1719 01ac 5142     		rsbs	r1, r2, #0
 1720 01ae D2B2     		uxtb	r2, r2
 1721 01b0 C9B2     		uxtb	r1, r1
 1722 01b2 58BF     		it	pl
 1723 01b4 4A42     		rsbpl	r2, r1, #0
 1724 01b6 FF2A     		cmp	r2, #255
 1725 01b8 03D0     		beq	.L214
 1726 01ba 0023     		movs	r3, #0
 1727 01bc C4F84034 		str	r3, [r4, #1088]
 1728 01c0 59E7     		b	.L165
 1729              	.L214:
 1730 01c2 0133     		adds	r3, r3, #1
 1731 01c4 C4F84034 		str	r3, [r4, #1088]
 1732 01c8 55E7     		b	.L165
 1733              	.L207:
 1734 01ca C4F84814 		str	r1, [r4, #1096]
 1735 01ce 0133     		adds	r3, r3, #1
 1736 01d0 C4F84034 		str	r3, [r4, #1088]
 1737 01d4 C4F85014 		str	r1, [r4, #1104]
 1738 01d8 4DE7     		b	.L165
 1739              	.L208:
 1740 01da D4F84834 		ldr	r3, [r4, #1096]
 1741 01de 03EB0123 		add	r3, r3, r1, lsl #8
 1742 01e2 C4F84834 		str	r3, [r4, #1096]
 1743 01e6 0723     		movs	r3, #7
 1744 01e8 C4F84034 		str	r3, [r4, #1088]
 1745 01ec D4F84434 		ldr	r3, [r4, #1092]
 1746 01f0 002B     		cmp	r3, #0
 1747 01f2 7FF440AF 		bne	.L165
 1748 01f6 0823     		movs	r3, #8
 1749 01f8 C4F84034 		str	r3, [r4, #1088]
 1750 01fc 3BE7     		b	.L165
 1751              	.L209:
 1752 01fe 864B     		ldr	r3, .L218
 1753 0200 0193     		str	r3, [sp, #4]
 1754 0202 0023     		movs	r3, #0
 1755 0204 0293     		str	r3, [sp, #8]
 1756 0206 0393     		str	r3, [sp, #12]
 1757 0208 2368     		ldr	r3, [r4]
 1758 020a 1B68     		ldr	r3, [r3]
 1759 020c 01AA     		add	r2, sp, #4
 1760 020e 0A21     		movs	r1, #10
 1761 0210 2046     		mov	r0, r4
 1762 0212 9847     		blx	r3
 1763 0214 FFF7FEFF 		bl	xTaskGetTickCount
 1764 0218 A060     		str	r0, [r4, #8]
 1765 021a 2046     		mov	r0, r4
 1766 021c FFF7FEFF 		bl	_ZN3ros11NodeHandle_I13STM32HardwareLi5ELi5ELi512ELi512EE15negotiateTopicsEv
 1767 0220 C4F85854 		str	r5, [r4, #1112]
 1768 0224 C4F85C54 		str	r5, [r4, #1116]
 1769 0228 4FF0FF30 		mov	r0, #-1
 1770 022c F1E0     		b	.L162
 1771              	.L210:
 1772 022e 04F11806 		add	r6, r4, #24
 1773 0232 FFF7FEFF 		bl	xTaskGetTickCount
ARM GAS  /var/folders/l3/4y5292px21b4835bsnjwqc7w009kq1/T//ccoAQsOl.s 			page 31


 1774 0236 A368     		ldr	r3, [r4, #8]
 1775 0238 C01A     		subs	r0, r0, r3
 1776 023a 227E     		ldrb	r2, [r4, #24]	@ zero_extendqisi2
 1777 023c 3346     		mov	r3, r6
 1778 023e 7178     		ldrb	r1, [r6, #1]	@ zero_extendqisi2
 1779 0240 42EA0122 		orr	r2, r2, r1, lsl #8
 1780 0244 B178     		ldrb	r1, [r6, #2]	@ zero_extendqisi2
 1781 0246 42EA0142 		orr	r2, r2, r1, lsl #16
 1782 024a F178     		ldrb	r1, [r6, #3]	@ zero_extendqisi2
 1783 024c 42EA0161 		orr	r1, r2, r1, lsl #24
 1784 0250 3279     		ldrb	r2, [r6, #4]	@ zero_extendqisi2
 1785 0252 7679     		ldrb	r6, [r6, #5]	@ zero_extendqisi2
 1786 0254 42EA0622 		orr	r2, r2, r6, lsl #8
 1787 0258 9E79     		ldrb	r6, [r3, #6]	@ zero_extendqisi2
 1788 025a 42EA0642 		orr	r2, r2, r6, lsl #16
 1789 025e DB79     		ldrb	r3, [r3, #7]	@ zero_extendqisi2
 1790 0260 42EA0362 		orr	r2, r2, r3, lsl #24
 1791 0264 6D4E     		ldr	r6, .L218+4
 1792 0266 A6FB0073 		umull	r7, r3, r6, r0
 1793 026a 9B09     		lsrs	r3, r3, #6
 1794 026c 1944     		add	r1, r1, r3
 1795 026e 0291     		str	r1, [sp, #8]
 1796 0270 4FF47A78 		mov	r8, #1000
 1797 0274 08FB1303 		mls	r3, r8, r3, r0
 1798 0278 694F     		ldr	r7, .L218+8
 1799 027a 07FB0323 		mla	r3, r7, r3, r2
 1800 027e 0393     		str	r3, [sp, #12]
 1801 0280 FFF7FEFF 		bl	xTaskGetTickCount
 1802 0284 A6FB0023 		umull	r2, r3, r6, r0
 1803 0288 9B09     		lsrs	r3, r3, #6
 1804 028a 029A     		ldr	r2, [sp, #8]
 1805 028c D21A     		subs	r2, r2, r3
 1806 028e 013A     		subs	r2, r2, #1
 1807 0290 E260     		str	r2, [r4, #12]
 1808 0292 08FB1303 		mls	r3, r8, r3, r0
 1809 0296 039A     		ldr	r2, [sp, #12]
 1810 0298 07FB1323 		mls	r3, r7, r3, r2
 1811 029c 614A     		ldr	r2, .L218+12
 1812 029e 1A44     		add	r2, r2, r3
 1813 02a0 2146     		mov	r1, r4
 1814 02a2 41F8102F 		str	r2, [r1, #16]!
 1815 02a6 04F10C00 		add	r0, r4, #12
 1816 02aa FFF7FEFF 		bl	_ZN3ros16normalizeSecNSecERmS0_
 1817 02ae FFF7FEFF 		bl	xTaskGetTickCount
 1818 02b2 C4F85C04 		str	r0, [r4, #1116]
 1819 02b6 DEE6     		b	.L165
 1820              	.L211:
 1821 02b8 04F58D68 		add	r8, r4, #1128
 1822 02bc 04F11807 		add	r7, r4, #24
 1823 02c0 267E     		ldrb	r6, [r4, #24]	@ zero_extendqisi2
 1824 02c2 98F80430 		ldrb	r3, [r8, #4]	@ zero_extendqisi2
 1825 02c6 9E42     		cmp	r6, r3
 1826 02c8 1ED8     		bhi	.L215
 1827              	.L185:
 1828 02ca 88F80460 		strb	r6, [r8, #4]
 1829 02ce 0022     		movs	r2, #0
 1830 02d0 0426     		movs	r6, #4
ARM GAS  /var/folders/l3/4y5292px21b4835bsnjwqc7w009kq1/T//ccoAQsOl.s 			page 32


 1831              	.L187:
 1832 02d2 98F80430 		ldrb	r3, [r8, #4]	@ zero_extendqisi2
 1833 02d6 9342     		cmp	r3, r2
 1834 02d8 1ED9     		bls	.L186
 1835 02da BB5D     		ldrb	r3, [r7, r6]	@ zero_extendqisi2
 1836 02dc 711C     		adds	r1, r6, #1
 1837 02de 795C     		ldrb	r1, [r7, r1]	@ zero_extendqisi2
 1838 02e0 43EA0123 		orr	r3, r3, r1, lsl #8
 1839 02e4 B11C     		adds	r1, r6, #2
 1840 02e6 795C     		ldrb	r1, [r7, r1]	@ zero_extendqisi2
 1841 02e8 43EA0143 		orr	r3, r3, r1, lsl #16
 1842 02ec F11C     		adds	r1, r6, #3
 1843 02ee 795C     		ldrb	r1, [r7, r1]	@ zero_extendqisi2
 1844 02f0 43EA0163 		orr	r3, r3, r1, lsl #24
 1845 02f4 C8F80830 		str	r3, [r8, #8]
 1846 02f8 0436     		adds	r6, r6, #4
 1847 02fa D8F80C10 		ldr	r1, [r8, #12]
 1848 02fe 41F82230 		str	r3, [r1, r2, lsl #2]	@ unaligned
 1849 0302 0132     		adds	r2, r2, #1
 1850 0304 D2B2     		uxtb	r2, r2
 1851 0306 E4E7     		b	.L187
 1852              	.L215:
 1853 0308 B100     		lsls	r1, r6, #2
 1854 030a D8F80C00 		ldr	r0, [r8, #12]
 1855 030e FFF7FEFF 		bl	realloc
 1856 0312 C8F80C00 		str	r0, [r8, #12]
 1857 0316 D8E7     		b	.L185
 1858              	.L186:
 1859 0318 17F80690 		ldrb	r9, [r7, r6]	@ zero_extendqisi2
 1860 031c 98F81030 		ldrb	r3, [r8, #16]	@ zero_extendqisi2
 1861 0320 9945     		cmp	r9, r3
 1862 0322 1ED8     		bhi	.L216
 1863              	.L188:
 1864 0324 0436     		adds	r6, r6, #4
 1865 0326 88F81090 		strb	r9, [r8, #16]
 1866 032a 0022     		movs	r2, #0
 1867              	.L190:
 1868 032c 98F81030 		ldrb	r3, [r8, #16]	@ zero_extendqisi2
 1869 0330 9342     		cmp	r3, r2
 1870 0332 1FD9     		bls	.L189
 1871 0334 BB5D     		ldrb	r3, [r7, r6]	@ zero_extendqisi2
 1872 0336 711C     		adds	r1, r6, #1
 1873 0338 795C     		ldrb	r1, [r7, r1]	@ zero_extendqisi2
 1874 033a 43EA0123 		orr	r3, r3, r1, lsl #8
 1875 033e B11C     		adds	r1, r6, #2
 1876 0340 795C     		ldrb	r1, [r7, r1]	@ zero_extendqisi2
 1877 0342 43EA0143 		orr	r3, r3, r1, lsl #16
 1878 0346 F11C     		adds	r1, r6, #3
 1879 0348 795C     		ldrb	r1, [r7, r1]	@ zero_extendqisi2
 1880 034a 43EA0163 		orr	r3, r3, r1, lsl #24
 1881 034e C8F81430 		str	r3, [r8, #20]	@ float
 1882 0352 0436     		adds	r6, r6, #4
 1883 0354 D8F81810 		ldr	r1, [r8, #24]
 1884 0358 41F82230 		str	r3, [r1, r2, lsl #2]	@ unaligned
 1885 035c 0132     		adds	r2, r2, #1
 1886 035e D2B2     		uxtb	r2, r2
 1887 0360 E4E7     		b	.L190
ARM GAS  /var/folders/l3/4y5292px21b4835bsnjwqc7w009kq1/T//ccoAQsOl.s 			page 33


 1888              	.L216:
 1889 0362 4FEA8901 		lsl	r1, r9, #2
 1890 0366 D8F81800 		ldr	r0, [r8, #24]
 1891 036a FFF7FEFF 		bl	realloc
 1892 036e C8F81800 		str	r0, [r8, #24]
 1893 0372 D7E7     		b	.L188
 1894              	.L189:
 1895 0374 17F80690 		ldrb	r9, [r7, r6]	@ zero_extendqisi2
 1896 0378 98F81C30 		ldrb	r3, [r8, #28]	@ zero_extendqisi2
 1897 037c 9945     		cmp	r9, r3
 1898 037e 05D8     		bhi	.L217
 1899              	.L191:
 1900 0380 321D     		adds	r2, r6, #4
 1901 0382 88F81C90 		strb	r9, [r8, #28]
 1902 0386 4FF0000C 		mov	ip, #0
 1903 038a 17E0     		b	.L195
 1904              	.L217:
 1905 038c 4FEA8901 		lsl	r1, r9, #2
 1906 0390 D8F82400 		ldr	r0, [r8, #36]
 1907 0394 FFF7FEFF 		bl	realloc
 1908 0398 C8F82400 		str	r0, [r8, #36]
 1909 039c F0E7     		b	.L191
 1910              	.L193:
 1911 039e 531E     		subs	r3, r2, #1
 1912 03a0 0021     		movs	r1, #0
 1913 03a2 F954     		strb	r1, [r7, r3]
 1914 03a4 731E     		subs	r3, r6, #1
 1915 03a6 3B44     		add	r3, r3, r7
 1916 03a8 C8F82030 		str	r3, [r8, #32]
 1917 03ac D8F82410 		ldr	r1, [r8, #36]
 1918 03b0 41F82C30 		str	r3, [r1, ip, lsl #2]	@ unaligned
 1919 03b4 0CF1010C 		add	ip, ip, #1
 1920 03b8 5FFA8CFC 		uxtb	ip, ip
 1921              	.L195:
 1922 03bc 98F81C30 		ldrb	r3, [r8, #28]	@ zero_extendqisi2
 1923 03c0 6345     		cmp	r3, ip
 1924 03c2 0AD9     		bls	.L192
 1925 03c4 B858     		ldr	r0, [r7, r2]	@ unaligned
 1926 03c6 161D     		adds	r6, r2, #4
 1927 03c8 3346     		mov	r3, r6
 1928              	.L194:
 1929 03ca 8219     		adds	r2, r0, r6
 1930 03cc 9A42     		cmp	r2, r3
 1931 03ce E6D9     		bls	.L193
 1932 03d0 5A1E     		subs	r2, r3, #1
 1933 03d2 F95C     		ldrb	r1, [r7, r3]	@ zero_extendqisi2
 1934 03d4 B954     		strb	r1, [r7, r2]
 1935 03d6 0133     		adds	r3, r3, #1
 1936 03d8 F7E7     		b	.L194
 1937              	.L192:
 1938 03da 0123     		movs	r3, #1
 1939 03dc 84F86434 		strb	r3, [r4, #1124]
 1940 03e0 49E6     		b	.L165
 1941              	.L212:
 1942 03e2 0023     		movs	r3, #0
 1943 03e4 84F85434 		strb	r3, [r4, #1108]
 1944 03e8 45E6     		b	.L165
ARM GAS  /var/folders/l3/4y5292px21b4835bsnjwqc7w009kq1/T//ccoAQsOl.s 			page 34


 1945              	.L200:
 1946 03ea 0B4B     		ldr	r3, .L218
 1947 03ec 0193     		str	r3, [sp, #4]
 1948 03ee 0026     		movs	r6, #0
 1949 03f0 0296     		str	r6, [sp, #8]
 1950 03f2 0396     		str	r6, [sp, #12]
 1951 03f4 2368     		ldr	r3, [r4]
 1952 03f6 1B68     		ldr	r3, [r3]
 1953 03f8 01AA     		add	r2, sp, #4
 1954 03fa 0A21     		movs	r1, #10
 1955 03fc 2046     		mov	r0, r4
 1956 03fe 9847     		blx	r3
 1957 0400 FFF7FEFF 		bl	xTaskGetTickCount
 1958 0404 A060     		str	r0, [r4, #8]
 1959 0406 C4F85854 		str	r5, [r4, #1112]
 1960 040a 3046     		mov	r0, r6
 1961 040c 01E0     		b	.L162
 1962              	.L197:
 1963 040e 6FF00100 		mvn	r0, #1
 1964              	.L162:
 1965 0412 05B0     		add	sp, sp, #20
 1966              		@ sp needed
 1967 0414 BDE8F083 		pop	{r4, r5, r6, r7, r8, r9, pc}
 1968              	.L219:
 1969              		.align	2
 1970              	.L218:
 1971 0418 08000000 		.word	_ZTVN8std_msgs4TimeE+8
 1972 041c D34D6210 		.word	274877907
 1973 0420 40420F00 		.word	1000000
 1974 0424 00CA9A3B 		.word	1000000000
 1975              		.fnend
 1977              		.section	.text._GLOBAL__sub_I_nh,"ax",%progbits
 1978              		.align	1
 1979              		.syntax unified
 1980              		.thumb
 1981              		.thumb_func
 1982              		.fpu fpv4-sp-d16
 1984              	_GLOBAL__sub_I_nh:
 1985              		.fnstart
 1986              	.LFB505:
 1987              		@ args = 0, pretend = 0, frame = 0
 1988              		@ frame_needed = 0, uses_anonymous_args = 0
 1989 0000 08B5     		push	{r3, lr}
 1990 0002 4FF6FF71 		movw	r1, #65535
 1991 0006 0120     		movs	r0, #1
 1992 0008 FFF7FEFF 		bl	_Z41__static_initialization_and_destruction_0ii
 1993 000c 08BD     		pop	{r3, pc}
 1994              		.cantunwind
 1995              		.fnend
 1997              		.section	.init_array,"aw",%init_array
 1998              		.align	2
 1999 0000 00000000 		.word	_GLOBAL__sub_I_nh(target1)
 2000              		.weak	_ZTVN8std_msgs4TimeE
 2001              		.section	.rodata._ZTVN8std_msgs4TimeE,"aG",%progbits,_ZTVN8std_msgs4TimeE,comdat
 2002              		.align	2
 2005              	_ZTVN8std_msgs4TimeE:
 2006 0000 00000000 		.word	0
ARM GAS  /var/folders/l3/4y5292px21b4835bsnjwqc7w009kq1/T//ccoAQsOl.s 			page 35


 2007 0004 00000000 		.word	0
 2008 0008 00000000 		.word	_ZNK8std_msgs4Time9serializeEPh
 2009 000c 00000000 		.word	_ZN8std_msgs4Time11deserializeEPh
 2010 0010 00000000 		.word	_ZN8std_msgs4Time7getTypeEv
 2011 0014 00000000 		.word	_ZN8std_msgs4Time6getMD5Ev
 2012              		.weak	_ZTVN14rosserial_msgs9TopicInfoE
 2013              		.section	.rodata._ZTVN14rosserial_msgs9TopicInfoE,"aG",%progbits,_ZTVN14rosserial_msgs9TopicInfoE,
 2014              		.align	2
 2017              	_ZTVN14rosserial_msgs9TopicInfoE:
 2018 0000 00000000 		.word	0
 2019 0004 00000000 		.word	0
 2020 0008 00000000 		.word	_ZNK14rosserial_msgs9TopicInfo9serializeEPh
 2021 000c 00000000 		.word	_ZN14rosserial_msgs9TopicInfo11deserializeEPh
 2022 0010 00000000 		.word	_ZN14rosserial_msgs9TopicInfo7getTypeEv
 2023 0014 00000000 		.word	_ZN14rosserial_msgs9TopicInfo6getMD5Ev
 2024              		.weak	_ZTVN14rosserial_msgs3LogE
 2025              		.section	.rodata._ZTVN14rosserial_msgs3LogE,"aG",%progbits,_ZTVN14rosserial_msgs3LogE,comdat
 2026              		.align	2
 2029              	_ZTVN14rosserial_msgs3LogE:
 2030 0000 00000000 		.word	0
 2031 0004 00000000 		.word	0
 2032 0008 00000000 		.word	_ZNK14rosserial_msgs3Log9serializeEPh
 2033 000c 00000000 		.word	_ZN14rosserial_msgs3Log11deserializeEPh
 2034 0010 00000000 		.word	_ZN14rosserial_msgs3Log7getTypeEv
 2035 0014 00000000 		.word	_ZN14rosserial_msgs3Log6getMD5Ev
 2036              		.weak	_ZTVN14rosserial_msgs20RequestParamResponseE
 2037              		.section	.rodata._ZTVN14rosserial_msgs20RequestParamResponseE,"aG",%progbits,_ZTVN14rosserial_msgs
 2038              		.align	2
 2041              	_ZTVN14rosserial_msgs20RequestParamResponseE:
 2042 0000 00000000 		.word	0
 2043 0004 00000000 		.word	0
 2044 0008 00000000 		.word	_ZNK14rosserial_msgs20RequestParamResponse9serializeEPh
 2045 000c 00000000 		.word	_ZN14rosserial_msgs20RequestParamResponse11deserializeEPh
 2046 0010 00000000 		.word	_ZN14rosserial_msgs20RequestParamResponse7getTypeEv
 2047 0014 00000000 		.word	_ZN14rosserial_msgs20RequestParamResponse6getMD5Ev
 2048              		.weak	_ZTVN3ros11NodeHandle_I13STM32HardwareLi5ELi5ELi512ELi512EEE
 2049              		.section	.rodata._ZTVN3ros11NodeHandle_I13STM32HardwareLi5ELi5ELi512ELi512EEE,"aG",%progbits,_ZTVN
 2050              		.align	2
 2053              	_ZTVN3ros11NodeHandle_I13STM32HardwareLi5ELi5ELi512ELi512EEE:
 2054 0000 00000000 		.word	0
 2055 0004 00000000 		.word	0
 2056 0008 00000000 		.word	_ZN3ros11NodeHandle_I13STM32HardwareLi5ELi5ELi512ELi512EE7publishEiPKNS_3MsgE
 2057 000c 00000000 		.word	_ZN3ros11NodeHandle_I13STM32HardwareLi5ELi5ELi512ELi512EE8spinOnceEv
 2058 0010 00000000 		.word	_ZN3ros11NodeHandle_I13STM32HardwareLi5ELi5ELi512ELi512EE9connectedEv
 2059              		.global	nh
 2060              		.section	.bss._ZL14xHandleTaskLED,"aw",%nobits
 2061              		.align	2
 2062              		.set	.LANCHOR2,. + 0
 2065              	_ZL14xHandleTaskLED:
 2066 0000 00000000 		.space	4
 2067              		.section	.bss._ZL17xHandleMutexPrint,"aw",%nobits
 2068              		.align	2
 2069              		.set	.LANCHOR5,. + 0
 2072              	_ZL17xHandleMutexPrint:
 2073 0000 00000000 		.space	4
 2074              		.section	.bss._ZL21xHandleTaskMsgProcess,"aw",%nobits
 2075              		.align	2
ARM GAS  /var/folders/l3/4y5292px21b4835bsnjwqc7w009kq1/T//ccoAQsOl.s 			page 36


 2076              		.set	.LANCHOR3,. + 0
 2079              	_ZL21xHandleTaskMsgProcess:
 2080 0000 00000000 		.space	4
 2081              		.section	.bss._ZL23xHandleTaskCtrolProcess,"aw",%nobits
 2082              		.align	2
 2083              		.set	.LANCHOR4,. + 0
 2086              	_ZL23xHandleTaskCtrolProcess:
 2087 0000 00000000 		.space	4
 2088              		.section	.bss.nh,"aw",%nobits
 2089              		.align	2
 2090              		.set	.LANCHOR1,. + 0
 2093              	nh:
 2094 0000 00000000 		.space	1168
 2094      00000000 
 2094      00000000 
 2094      00000000 
 2094      00000000 
 2095              		.section	.rodata._Z10App_PrintfPKcz.str1.4,"aMS",%progbits,1
 2096              		.align	2
 2097              	.LC14:
 2098 0000 257300   		.ascii	"%s\000"
 2099              		.section	.rodata._ZL12AppObjCreatev.str1.4,"aMS",%progbits,1
 2100              		.align	2
 2101              	.LC12:
 2102 0000 54686572 		.ascii	"There is insufficient heap memory\015\000"
 2102      65206973 
 2102      20696E73 
 2102      75666669 
 2102      6369656E 
 2103              		.section	.rodata._ZL13AppTaskCreatev.str1.4,"aMS",%progbits,1
 2104              		.align	2
 2105              	.LC7:
 2106 0000 76546173 		.ascii	"vTaskLED\000"
 2106      6B4C4544 
 2106      00
 2107 0009 000000   		.space	3
 2108              	.LC8:
 2109 000c 76546173 		.ascii	"vTaskMsgProcess\000"
 2109      6B4D7367 
 2109      50726F63 
 2109      65737300 
 2110              	.LC9:
 2111 001c 76546173 		.ascii	"vTaskCtrolProcess\000"
 2111      6B437472 
 2111      6F6C5072 
 2111      6F636573 
 2111      7300
 2112              		.section	.rodata._ZL13TMR_CallBack1v.str1.4,"aMS",%progbits,1
 2113              		.align	2
 2114              	.LC11:
 2115 0000 496E2063 		.ascii	"In callback 1\000"
 2115      616C6C62 
 2115      61636B20 
 2115      3100
 2116              		.section	.rodata._ZL13TMR_CallBack2v.str1.4,"aMS",%progbits,1
 2117              		.align	2
 2118              	.LC10:
ARM GAS  /var/folders/l3/4y5292px21b4835bsnjwqc7w009kq1/T//ccoAQsOl.s 			page 37


 2119 0000 496E2063 		.ascii	"In callback 2\000"
 2119      616C6C62 
 2119      61636B20 
 2119      3200
 2120              		.section	.rodata._ZL15vTaskMsgProcessPv.str1.4,"aMS",%progbits,1
 2121              		.align	2
 2122              	.LC16:
 2123 0000 0D0A312E 		.ascii	"\015\0121. Print task run-time statistics\015\012\000"
 2123      20507269 
 2123      6E742074 
 2123      61736B20 
 2123      72756E2D 
 2124 0026 0000     		.space	2
 2125              	.LC17:
 2126 0028 322E2045 		.ascii	"2. Enable Timer CC1 interrupt\015\012\000"
 2126      6E61626C 
 2126      65205469 
 2126      6D657220 
 2126      43433120 
 2127              	.LC18:
 2128 0048 332E2045 		.ascii	"3. Enable Timer CC2 interrupt\015\012\000"
 2128      6E61626C 
 2128      65205469 
 2128      6D657220 
 2128      43433220 
 2129              	.LC19:
 2130 0068 3D3D3D3D 		.ascii	"==================================================\015"
 2130      3D3D3D3D 
 2130      3D3D3D3D 
 2130      3D3D3D3D 
 2130      3D3D3D3D 
 2131 009b 0A00     		.ascii	"\012\000"
 2132 009d 000000   		.space	3
 2133              	.LC20:
 2134 00a0 4E616D65 		.ascii	"Name                  State  Priority  Stack   Num\015"
 2134      20202020 
 2134      20202020 
 2134      20202020 
 2134      20202020 
 2135 00d3 0A00     		.ascii	"\012\000"
 2136 00d5 000000   		.space	3
 2137              	.LC21:
 2138 00d8 25730D0A 		.ascii	"%s\015\012\000"
 2138      00
 2139 00dd 000000   		.space	3
 2140              	.LC22:
 2141 00e0 0D0A00   		.ascii	"\015\012\000"
 2142 00e3 00       		.space	1
 2143              	.LC23:
 2144 00e4 5461736B 		.ascii	"Task                  Abs Time         %%Time      "
 2144      20202020 
 2144      20202020 
 2144      20202020 
 2144      20202020 
 2145 0117 0D0A00   		.ascii	"\015\012\000"
 2146 011a 0000     		.space	2
 2147              	.LC24:
ARM GAS  /var/folders/l3/4y5292px21b4835bsnjwqc7w009kq1/T//ccoAQsOl.s 			page 38


 2148 011c 2A2A2A2A 		.ascii	"***************************************************"
 2148      2A2A2A2A 
 2148      2A2A2A2A 
 2148      2A2A2A2A 
 2148      2A2A2A2A 
 2149 014f 0D0A00   		.ascii	"\015\012\000"
 2150 0152 0000     		.space	2
 2151              	.LC25:
 2152 0154 312E2050 		.ascii	"1. Print task run-time statistics\015\012\000"
 2152      72696E74 
 2152      20746173 
 2152      6B207275 
 2152      6E2D7469 
 2153              		.section	.rodata._ZL17vTaskCtrolProcessPv.str1.4,"aMS",%progbits,1
 2154              		.align	2
 2155              	.LC15:
 2156 0000 54686973 		.ascii	"This is Ctrol Task\015\012\000"
 2156      20697320 
 2156      4374726F 
 2156      6C205461 
 2156      736B0D0A 
 2157              		.section	.rodata._ZL8vTaskLEDPv.str1.4,"aMS",%progbits,1
 2158              		.align	2
 2159              	.LC26:
 2160 0000 256C640A 		.ascii	"%ld\012\000"
 2160      00
 2161              		.section	.rodata._ZN14rosserial_msgs20RequestParamResponse6getMD5Ev.str1.4,"aMS",%progbits,1
 2162              		.align	2
 2163              	.LC6:
 2164 0000 39663065 		.ascii	"9f0e98bda65981986ddf53afa7a40e49\000"
 2164      39386264 
 2164      61363539 
 2164      38313938 
 2164      36646466 
 2165              		.section	.rodata._ZN14rosserial_msgs3Log6getMD5Ev.str1.4,"aMS",%progbits,1
 2166              		.align	2
 2167              	.LC5:
 2168 0000 31316162 		.ascii	"11abd731c25933261cd6183bd12d6295\000"
 2168      64373331 
 2168      63323539 
 2168      33333236 
 2168      31636436 
 2169              		.section	.rodata._ZN14rosserial_msgs3Log7getTypeEv.str1.4,"aMS",%progbits,1
 2170              		.align	2
 2171              	.LC4:
 2172 0000 726F7373 		.ascii	"rosserial_msgs/Log\000"
 2172      65726961 
 2172      6C5F6D73 
 2172      67732F4C 
 2172      6F6700
 2173              		.section	.rodata._ZN14rosserial_msgs9TopicInfo6getMD5Ev.str1.4,"aMS",%progbits,1
 2174              		.align	2
 2175              	.LC3:
 2176 0000 30616435 		.ascii	"0ad51f88fc44892f8c10684077646005\000"
 2176      31663838 
 2176      66633434 
 2176      38393266 
ARM GAS  /var/folders/l3/4y5292px21b4835bsnjwqc7w009kq1/T//ccoAQsOl.s 			page 39


 2176      38633130 
 2177              		.section	.rodata._ZN14rosserial_msgs9TopicInfo7getTypeEv.str1.4,"aMS",%progbits,1
 2178              		.align	2
 2179              	.LC2:
 2180 0000 726F7373 		.ascii	"rosserial_msgs/TopicInfo\000"
 2180      65726961 
 2180      6C5F6D73 
 2180      67732F54 
 2180      6F706963 
 2181              		.section	.rodata._ZN14rosserial_msgsL12REQUESTPARAME,"a",%progbits
 2182              		.align	2
 2183              		.set	.LANCHOR0,. + 0
 2186              	_ZN14rosserial_msgsL12REQUESTPARAME:
 2187 0000 726F7373 		.ascii	"rosserial_msgs/RequestParam\000"
 2187      65726961 
 2187      6C5F6D73 
 2187      67732F52 
 2187      65717565 
 2188              		.section	.rodata._ZN3ros11NodeHandle_I13STM32HardwareLi5ELi5ELi512ELi512EE7publishEiPKNS_3MsgE.str
 2189              		.align	2
 2190              	.LC13:
 2191 0000 4D657373 		.ascii	"Message from device dropped: message larger than bu"
 2191      61676520 
 2191      66726F6D 
 2191      20646576 
 2191      69636520 
 2192 0033 66666572 		.ascii	"ffer.\000"
 2192      2E00
 2193              		.section	.rodata._ZN8std_msgs4Time6getMD5Ev.str1.4,"aMS",%progbits,1
 2194              		.align	2
 2195              	.LC1:
 2196 0000 63643731 		.ascii	"cd7166c74c552c311fbcc2fe5a7bc289\000"
 2196      36366337 
 2196      34633535 
 2196      32633331 
 2196      31666263 
 2197              		.section	.rodata._ZN8std_msgs4Time7getTypeEv.str1.4,"aMS",%progbits,1
 2198              		.align	2
 2199              	.LC0:
 2200 0000 7374645F 		.ascii	"std_msgs/Time\000"
 2200      6D736773 
 2200      2F54696D 
 2200      6500
 2201              		.section	.rodata.vApplicationStackOverflowHook.str1.4,"aMS",%progbits,1
 2202              		.align	2
 2203              	.LC27:
 2204 0000 7461736B 		.ascii	"task: %s stack is overFlow\015\012\000"
 2204      3A202573 
 2204      20737461 
 2204      636B2069 
 2204      73206F76 
 2205              		.ident	"GCC: (GNU Tools for Arm Embedded Processors 7-2018-q2-update) 7.3.1 20180622 (release) [AR
ARM GAS  /var/folders/l3/4y5292px21b4835bsnjwqc7w009kq1/T//ccoAQsOl.s 			page 40


DEFINED SYMBOLS
                            *ABS*:0000000000000000 main.cpp
/var/folders/l3/4y5292px21b4835bsnjwqc7w009kq1/T//ccoAQsOl.s:15     .text._ZNK8std_msgs4Time9serializeEPh:0000000000000000 $t
/var/folders/l3/4y5292px21b4835bsnjwqc7w009kq1/T//ccoAQsOl.s:22     .text._ZNK8std_msgs4Time9serializeEPh:0000000000000000 _ZNK8std_msgs4Time9serializeEPh
.ARM.exidx.text._ZNK8std_msgs4Time9serializeEPh:0000000000000000 $d
/var/folders/l3/4y5292px21b4835bsnjwqc7w009kq1/T//ccoAQsOl.s:52     .text._ZN8std_msgs4Time11deserializeEPh:0000000000000000 $t
/var/folders/l3/4y5292px21b4835bsnjwqc7w009kq1/T//ccoAQsOl.s:59     .text._ZN8std_msgs4Time11deserializeEPh:0000000000000000 _ZN8std_msgs4Time11deserializeEPh
.ARM.exidx.text._ZN8std_msgs4Time11deserializeEPh:0000000000000000 $d
/var/folders/l3/4y5292px21b4835bsnjwqc7w009kq1/T//ccoAQsOl.s:93     .text._ZN8std_msgs4Time7getTypeEv:0000000000000000 $t
/var/folders/l3/4y5292px21b4835bsnjwqc7w009kq1/T//ccoAQsOl.s:100    .text._ZN8std_msgs4Time7getTypeEv:0000000000000000 _ZN8std_msgs4Time7getTypeEv
/var/folders/l3/4y5292px21b4835bsnjwqc7w009kq1/T//ccoAQsOl.s:111    .text._ZN8std_msgs4Time7getTypeEv:0000000000000004 $d
.ARM.exidx.text._ZN8std_msgs4Time7getTypeEv:0000000000000000 $d
/var/folders/l3/4y5292px21b4835bsnjwqc7w009kq1/T//ccoAQsOl.s:116    .text._ZN8std_msgs4Time6getMD5Ev:0000000000000000 $t
/var/folders/l3/4y5292px21b4835bsnjwqc7w009kq1/T//ccoAQsOl.s:123    .text._ZN8std_msgs4Time6getMD5Ev:0000000000000000 _ZN8std_msgs4Time6getMD5Ev
/var/folders/l3/4y5292px21b4835bsnjwqc7w009kq1/T//ccoAQsOl.s:134    .text._ZN8std_msgs4Time6getMD5Ev:0000000000000004 $d
.ARM.exidx.text._ZN8std_msgs4Time6getMD5Ev:0000000000000000 $d
/var/folders/l3/4y5292px21b4835bsnjwqc7w009kq1/T//ccoAQsOl.s:139    .text._ZN14rosserial_msgs9TopicInfo11deserializeEPh:0000000000000000 $t
/var/folders/l3/4y5292px21b4835bsnjwqc7w009kq1/T//ccoAQsOl.s:146    .text._ZN14rosserial_msgs9TopicInfo11deserializeEPh:0000000000000000 _ZN14rosserial_msgs9TopicInfo11deserializeEPh
.ARM.exidx.text._ZN14rosserial_msgs9TopicInfo11deserializeEPh:0000000000000000 $d
/var/folders/l3/4y5292px21b4835bsnjwqc7w009kq1/T//ccoAQsOl.s:231    .text._ZN14rosserial_msgs9TopicInfo7getTypeEv:0000000000000000 $t
/var/folders/l3/4y5292px21b4835bsnjwqc7w009kq1/T//ccoAQsOl.s:238    .text._ZN14rosserial_msgs9TopicInfo7getTypeEv:0000000000000000 _ZN14rosserial_msgs9TopicInfo7getTypeEv
/var/folders/l3/4y5292px21b4835bsnjwqc7w009kq1/T//ccoAQsOl.s:249    .text._ZN14rosserial_msgs9TopicInfo7getTypeEv:0000000000000004 $d
.ARM.exidx.text._ZN14rosserial_msgs9TopicInfo7getTypeEv:0000000000000000 $d
/var/folders/l3/4y5292px21b4835bsnjwqc7w009kq1/T//ccoAQsOl.s:254    .text._ZN14rosserial_msgs9TopicInfo6getMD5Ev:0000000000000000 $t
/var/folders/l3/4y5292px21b4835bsnjwqc7w009kq1/T//ccoAQsOl.s:261    .text._ZN14rosserial_msgs9TopicInfo6getMD5Ev:0000000000000000 _ZN14rosserial_msgs9TopicInfo6getMD5Ev
/var/folders/l3/4y5292px21b4835bsnjwqc7w009kq1/T//ccoAQsOl.s:272    .text._ZN14rosserial_msgs9TopicInfo6getMD5Ev:0000000000000004 $d
.ARM.exidx.text._ZN14rosserial_msgs9TopicInfo6getMD5Ev:0000000000000000 $d
/var/folders/l3/4y5292px21b4835bsnjwqc7w009kq1/T//ccoAQsOl.s:277    .text._ZN14rosserial_msgs3Log11deserializeEPh:0000000000000000 $t
/var/folders/l3/4y5292px21b4835bsnjwqc7w009kq1/T//ccoAQsOl.s:284    .text._ZN14rosserial_msgs3Log11deserializeEPh:0000000000000000 _ZN14rosserial_msgs3Log11deserializeEPh
.ARM.exidx.text._ZN14rosserial_msgs3Log11deserializeEPh:0000000000000000 $d
/var/folders/l3/4y5292px21b4835bsnjwqc7w009kq1/T//ccoAQsOl.s:317    .text._ZN14rosserial_msgs3Log7getTypeEv:0000000000000000 $t
/var/folders/l3/4y5292px21b4835bsnjwqc7w009kq1/T//ccoAQsOl.s:324    .text._ZN14rosserial_msgs3Log7getTypeEv:0000000000000000 _ZN14rosserial_msgs3Log7getTypeEv
/var/folders/l3/4y5292px21b4835bsnjwqc7w009kq1/T//ccoAQsOl.s:335    .text._ZN14rosserial_msgs3Log7getTypeEv:0000000000000004 $d
.ARM.exidx.text._ZN14rosserial_msgs3Log7getTypeEv:0000000000000000 $d
/var/folders/l3/4y5292px21b4835bsnjwqc7w009kq1/T//ccoAQsOl.s:340    .text._ZN14rosserial_msgs3Log6getMD5Ev:0000000000000000 $t
/var/folders/l3/4y5292px21b4835bsnjwqc7w009kq1/T//ccoAQsOl.s:347    .text._ZN14rosserial_msgs3Log6getMD5Ev:0000000000000000 _ZN14rosserial_msgs3Log6getMD5Ev
/var/folders/l3/4y5292px21b4835bsnjwqc7w009kq1/T//ccoAQsOl.s:358    .text._ZN14rosserial_msgs3Log6getMD5Ev:0000000000000004 $d
.ARM.exidx.text._ZN14rosserial_msgs3Log6getMD5Ev:0000000000000000 $d
/var/folders/l3/4y5292px21b4835bsnjwqc7w009kq1/T//ccoAQsOl.s:363    .text._ZN14rosserial_msgs20RequestParamResponse7getTypeEv:0000000000000000 $t
/var/folders/l3/4y5292px21b4835bsnjwqc7w009kq1/T//ccoAQsOl.s:370    .text._ZN14rosserial_msgs20RequestParamResponse7getTypeEv:0000000000000000 _ZN14rosserial_msgs20RequestParamResponse7getTypeEv
/var/folders/l3/4y5292px21b4835bsnjwqc7w009kq1/T//ccoAQsOl.s:381    .text._ZN14rosserial_msgs20RequestParamResponse7getTypeEv:0000000000000004 $d
.ARM.exidx.text._ZN14rosserial_msgs20RequestParamResponse7getTypeEv:0000000000000000 $d
/var/folders/l3/4y5292px21b4835bsnjwqc7w009kq1/T//ccoAQsOl.s:386    .text._ZN14rosserial_msgs20RequestParamResponse6getMD5Ev:0000000000000000 $t
/var/folders/l3/4y5292px21b4835bsnjwqc7w009kq1/T//ccoAQsOl.s:393    .text._ZN14rosserial_msgs20RequestParamResponse6getMD5Ev:0000000000000000 _ZN14rosserial_msgs20RequestParamResponse6getMD5Ev
/var/folders/l3/4y5292px21b4835bsnjwqc7w009kq1/T//ccoAQsOl.s:404    .text._ZN14rosserial_msgs20RequestParamResponse6getMD5Ev:0000000000000004 $d
.ARM.exidx.text._ZN14rosserial_msgs20RequestParamResponse6getMD5Ev:0000000000000000 $d
/var/folders/l3/4y5292px21b4835bsnjwqc7w009kq1/T//ccoAQsOl.s:409    .text._Z41__static_initialization_and_destruction_0ii:0000000000000000 $t
/var/folders/l3/4y5292px21b4835bsnjwqc7w009kq1/T//ccoAQsOl.s:415    .text._Z41__static_initialization_and_destruction_0ii:0000000000000000 _Z41__static_initialization_and_destruction_0ii
/var/folders/l3/4y5292px21b4835bsnjwqc7w009kq1/T//ccoAQsOl.s:491    .text._Z41__static_initialization_and_destruction_0ii:0000000000000090 $d
/var/folders/l3/4y5292px21b4835bsnjwqc7w009kq1/T//ccoAQsOl.s:2053   .rodata._ZTVN3ros11NodeHandle_I13STM32HardwareLi5ELi5ELi512ELi512EEE:0000000000000000 _ZTVN3ros11NodeHandle_I13STM32HardwareLi5ELi5ELi512ELi512EEE
/var/folders/l3/4y5292px21b4835bsnjwqc7w009kq1/T//ccoAQsOl.s:2041   .rodata._ZTVN14rosserial_msgs20RequestParamResponseE:0000000000000000 _ZTVN14rosserial_msgs20RequestParamResponseE
.ARM.exidx.text._Z41__static_initialization_and_destruction_0ii:0000000000000000 $d
/var/folders/l3/4y5292px21b4835bsnjwqc7w009kq1/T//ccoAQsOl.s:498    .text._ZN3ros11NodeHandle_I13STM32HardwareLi5ELi5ELi512ELi512EE9connectedEv:0000000000000000 $t
/var/folders/l3/4y5292px21b4835bsnjwqc7w009kq1/T//ccoAQsOl.s:505    .text._ZN3ros11NodeHandle_I13STM32HardwareLi5ELi5ELi512ELi512EE9connectedEv:0000000000000000 _ZN3ros11NodeHandle_I13STM32HardwareLi5ELi5ELi512ELi512EE9connectedEv
.ARM.exidx.text._ZN3ros11NodeHandle_I13STM32HardwareLi5ELi5ELi512ELi512EE9connectedEv:0000000000000000 $d
/var/folders/l3/4y5292px21b4835bsnjwqc7w009kq1/T//ccoAQsOl.s:517    .text._ZL13AppTaskCreatev:0000000000000000 $t
/var/folders/l3/4y5292px21b4835bsnjwqc7w009kq1/T//ccoAQsOl.s:523    .text._ZL13AppTaskCreatev:0000000000000000 _ZL13AppTaskCreatev
ARM GAS  /var/folders/l3/4y5292px21b4835bsnjwqc7w009kq1/T//ccoAQsOl.s 			page 41


/var/folders/l3/4y5292px21b4835bsnjwqc7w009kq1/T//ccoAQsOl.s:580    .text._ZL13AppTaskCreatev:0000000000000060 $d
/var/folders/l3/4y5292px21b4835bsnjwqc7w009kq1/T//ccoAQsOl.s:1351   .text._ZL8vTaskLEDPv:0000000000000000 _ZL8vTaskLEDPv
/var/folders/l3/4y5292px21b4835bsnjwqc7w009kq1/T//ccoAQsOl.s:1242   .text._ZL15vTaskMsgProcessPv:0000000000000000 _ZL15vTaskMsgProcessPv
/var/folders/l3/4y5292px21b4835bsnjwqc7w009kq1/T//ccoAQsOl.s:1216   .text._ZL17vTaskCtrolProcessPv:0000000000000000 _ZL17vTaskCtrolProcessPv
.ARM.exidx.text._ZL13AppTaskCreatev:0000000000000000 $d
/var/folders/l3/4y5292px21b4835bsnjwqc7w009kq1/T//ccoAQsOl.s:592    .text._ZL13TMR_CallBack2v:0000000000000000 $t
/var/folders/l3/4y5292px21b4835bsnjwqc7w009kq1/T//ccoAQsOl.s:598    .text._ZL13TMR_CallBack2v:0000000000000000 _ZL13TMR_CallBack2v
/var/folders/l3/4y5292px21b4835bsnjwqc7w009kq1/T//ccoAQsOl.s:613    .text._ZL13TMR_CallBack2v:0000000000000010 $d
.ARM.extab.text._ZL13TMR_CallBack2v:0000000000000000 $d
.ARM.exidx.text._ZL13TMR_CallBack2v:0000000000000000 $d
/var/folders/l3/4y5292px21b4835bsnjwqc7w009kq1/T//ccoAQsOl.s:617    .text._ZL13TMR_CallBack1v:0000000000000000 $t
/var/folders/l3/4y5292px21b4835bsnjwqc7w009kq1/T//ccoAQsOl.s:623    .text._ZL13TMR_CallBack1v:0000000000000000 _ZL13TMR_CallBack1v
/var/folders/l3/4y5292px21b4835bsnjwqc7w009kq1/T//ccoAQsOl.s:638    .text._ZL13TMR_CallBack1v:0000000000000010 $d
.ARM.extab.text._ZL13TMR_CallBack1v:0000000000000000 $d
.ARM.exidx.text._ZL13TMR_CallBack1v:0000000000000000 $d
/var/folders/l3/4y5292px21b4835bsnjwqc7w009kq1/T//ccoAQsOl.s:642    .text._ZL12AppObjCreatev:0000000000000000 $t
/var/folders/l3/4y5292px21b4835bsnjwqc7w009kq1/T//ccoAQsOl.s:648    .text._ZL12AppObjCreatev:0000000000000000 _ZL12AppObjCreatev
/var/folders/l3/4y5292px21b4835bsnjwqc7w009kq1/T//ccoAQsOl.s:669    .text._ZL12AppObjCreatev:0000000000000018 $d
.ARM.extab.text._ZL12AppObjCreatev:0000000000000000 $d
.ARM.exidx.text._ZL12AppObjCreatev:0000000000000000 $d
/var/folders/l3/4y5292px21b4835bsnjwqc7w009kq1/T//ccoAQsOl.s:674    .text._ZNK14rosserial_msgs9TopicInfo9serializeEPh:0000000000000000 $t
/var/folders/l3/4y5292px21b4835bsnjwqc7w009kq1/T//ccoAQsOl.s:681    .text._ZNK14rosserial_msgs9TopicInfo9serializeEPh:0000000000000000 _ZNK14rosserial_msgs9TopicInfo9serializeEPh
.ARM.exidx.text._ZNK14rosserial_msgs9TopicInfo9serializeEPh:0000000000000000 $d
/var/folders/l3/4y5292px21b4835bsnjwqc7w009kq1/T//ccoAQsOl.s:740    .text._ZNK14rosserial_msgs3Log9serializeEPh:0000000000000000 $t
/var/folders/l3/4y5292px21b4835bsnjwqc7w009kq1/T//ccoAQsOl.s:747    .text._ZNK14rosserial_msgs3Log9serializeEPh:0000000000000000 _ZNK14rosserial_msgs3Log9serializeEPh
.ARM.exidx.text._ZNK14rosserial_msgs3Log9serializeEPh:0000000000000000 $d
/var/folders/l3/4y5292px21b4835bsnjwqc7w009kq1/T//ccoAQsOl.s:771    .text._ZNK14rosserial_msgs20RequestParamResponse9serializeEPh:0000000000000000 $t
/var/folders/l3/4y5292px21b4835bsnjwqc7w009kq1/T//ccoAQsOl.s:778    .text._ZNK14rosserial_msgs20RequestParamResponse9serializeEPh:0000000000000000 _ZNK14rosserial_msgs20RequestParamResponse9serializeEPh
.ARM.exidx.text._ZNK14rosserial_msgs20RequestParamResponse9serializeEPh:0000000000000000 $d
/var/folders/l3/4y5292px21b4835bsnjwqc7w009kq1/T//ccoAQsOl.s:881    .text._ZN14rosserial_msgs20RequestParamResponse11deserializeEPh:0000000000000000 $t
/var/folders/l3/4y5292px21b4835bsnjwqc7w009kq1/T//ccoAQsOl.s:888    .text._ZN14rosserial_msgs20RequestParamResponse11deserializeEPh:0000000000000000 _ZN14rosserial_msgs20RequestParamResponse11deserializeEPh
.ARM.exidx.text._ZN14rosserial_msgs20RequestParamResponse11deserializeEPh:0000000000000000 $d
/var/folders/l3/4y5292px21b4835bsnjwqc7w009kq1/T//ccoAQsOl.s:1016   .text._ZN3ros11NodeHandle_I13STM32HardwareLi5ELi5ELi512ELi512EE7publishEiPKNS_3MsgE:0000000000000000 $t
/var/folders/l3/4y5292px21b4835bsnjwqc7w009kq1/T//ccoAQsOl.s:1023   .text._ZN3ros11NodeHandle_I13STM32HardwareLi5ELi5ELi512ELi512EE7publishEiPKNS_3MsgE:0000000000000000 _ZN3ros11NodeHandle_I13STM32HardwareLi5ELi5ELi512ELi512EE7publishEiPKNS_3MsgE
/var/folders/l3/4y5292px21b4835bsnjwqc7w009kq1/T//ccoAQsOl.s:1113   .text._ZN3ros11NodeHandle_I13STM32HardwareLi5ELi5ELi512ELi512EE7publishEiPKNS_3MsgE:00000000000000b8 $d
/var/folders/l3/4y5292px21b4835bsnjwqc7w009kq1/T//ccoAQsOl.s:2029   .rodata._ZTVN14rosserial_msgs3LogE:0000000000000000 _ZTVN14rosserial_msgs3LogE
.ARM.exidx.text._ZN3ros11NodeHandle_I13STM32HardwareLi5ELi5ELi512ELi512EE7publishEiPKNS_3MsgE:0000000000000000 $d
/var/folders/l3/4y5292px21b4835bsnjwqc7w009kq1/T//ccoAQsOl.s:1118   .text.main:0000000000000000 $t
/var/folders/l3/4y5292px21b4835bsnjwqc7w009kq1/T//ccoAQsOl.s:1125   .text.main:0000000000000000 main
/var/folders/l3/4y5292px21b4835bsnjwqc7w009kq1/T//ccoAQsOl.s:1155   .text.main:0000000000000034 $d
             .ARM.extab.text.main:0000000000000000 $d
             .ARM.exidx.text.main:0000000000000000 $d
/var/folders/l3/4y5292px21b4835bsnjwqc7w009kq1/T//ccoAQsOl.s:1159   .text._Z10App_PrintfPKcz:0000000000000000 $t
/var/folders/l3/4y5292px21b4835bsnjwqc7w009kq1/T//ccoAQsOl.s:1166   .text._Z10App_PrintfPKcz:0000000000000000 _Z10App_PrintfPKcz
/var/folders/l3/4y5292px21b4835bsnjwqc7w009kq1/T//ccoAQsOl.s:1205   .text._Z10App_PrintfPKcz:0000000000000044 $d
.ARM.extab.text._Z10App_PrintfPKcz:0000000000000000 $d
.ARM.exidx.text._Z10App_PrintfPKcz:0000000000000000 $d
/var/folders/l3/4y5292px21b4835bsnjwqc7w009kq1/T//ccoAQsOl.s:1210   .text._ZL17vTaskCtrolProcessPv:0000000000000000 $t
/var/folders/l3/4y5292px21b4835bsnjwqc7w009kq1/T//ccoAQsOl.s:1232   .text._ZL17vTaskCtrolProcessPv:0000000000000014 $d
.ARM.extab.text._ZL17vTaskCtrolProcessPv:0000000000000000 $d
.ARM.exidx.text._ZL17vTaskCtrolProcessPv:0000000000000000 $d
/var/folders/l3/4y5292px21b4835bsnjwqc7w009kq1/T//ccoAQsOl.s:1236   .text._ZL15vTaskMsgProcessPv:0000000000000000 $t
/var/folders/l3/4y5292px21b4835bsnjwqc7w009kq1/T//ccoAQsOl.s:1330   .text._ZL15vTaskMsgProcessPv:00000000000000c4 $d
.ARM.exidx.text._ZL15vTaskMsgProcessPv:0000000000000000 $d
/var/folders/l3/4y5292px21b4835bsnjwqc7w009kq1/T//ccoAQsOl.s:1345   .text._ZL8vTaskLEDPv:0000000000000000 $t
/var/folders/l3/4y5292px21b4835bsnjwqc7w009kq1/T//ccoAQsOl.s:1375   .text._ZL8vTaskLEDPv:0000000000000024 $d
   .ARM.exidx.text._ZL8vTaskLEDPv:0000000000000000 $d
ARM GAS  /var/folders/l3/4y5292px21b4835bsnjwqc7w009kq1/T//ccoAQsOl.s 			page 42


/var/folders/l3/4y5292px21b4835bsnjwqc7w009kq1/T//ccoAQsOl.s:1379   .text.vApplicationMallocFailedHook:0000000000000000 $t
/var/folders/l3/4y5292px21b4835bsnjwqc7w009kq1/T//ccoAQsOl.s:1386   .text.vApplicationMallocFailedHook:0000000000000000 vApplicationMallocFailedHook
.ARM.exidx.text.vApplicationMallocFailedHook:0000000000000000 $d
/var/folders/l3/4y5292px21b4835bsnjwqc7w009kq1/T//ccoAQsOl.s:1399   .text.vApplicationStackOverflowHook:0000000000000000 $t
/var/folders/l3/4y5292px21b4835bsnjwqc7w009kq1/T//ccoAQsOl.s:1406   .text.vApplicationStackOverflowHook:0000000000000000 vApplicationStackOverflowHook
/var/folders/l3/4y5292px21b4835bsnjwqc7w009kq1/T//ccoAQsOl.s:1419   .text.vApplicationStackOverflowHook:000000000000000c $d
.ARM.extab.text.vApplicationStackOverflowHook:0000000000000000 $d
.ARM.exidx.text.vApplicationStackOverflowHook:0000000000000000 $d
/var/folders/l3/4y5292px21b4835bsnjwqc7w009kq1/T//ccoAQsOl.s:1423   .text._ZN3ros11NodeHandle_I13STM32HardwareLi5ELi5ELi512ELi512EE15negotiateTopicsEv:0000000000000000 $t
/var/folders/l3/4y5292px21b4835bsnjwqc7w009kq1/T//ccoAQsOl.s:1430   .text._ZN3ros11NodeHandle_I13STM32HardwareLi5ELi5ELi512ELi512EE15negotiateTopicsEv:0000000000000000 _ZN3ros11NodeHandle_I13STM32HardwareLi5ELi5ELi512ELi512EE15negotiateTopicsEv
/var/folders/l3/4y5292px21b4835bsnjwqc7w009kq1/T//ccoAQsOl.s:1529   .text._ZN3ros11NodeHandle_I13STM32HardwareLi5ELi5ELi512ELi512EE15negotiateTopicsEv:00000000000000c0 $d
/var/folders/l3/4y5292px21b4835bsnjwqc7w009kq1/T//ccoAQsOl.s:2017   .rodata._ZTVN14rosserial_msgs9TopicInfoE:0000000000000000 _ZTVN14rosserial_msgs9TopicInfoE
.ARM.exidx.text._ZN3ros11NodeHandle_I13STM32HardwareLi5ELi5ELi512ELi512EE15negotiateTopicsEv:0000000000000000 $d
/var/folders/l3/4y5292px21b4835bsnjwqc7w009kq1/T//ccoAQsOl.s:1533   .text._ZN3ros11NodeHandle_I13STM32HardwareLi5ELi5ELi512ELi512EE8spinOnceEv:0000000000000000 $t
/var/folders/l3/4y5292px21b4835bsnjwqc7w009kq1/T//ccoAQsOl.s:1540   .text._ZN3ros11NodeHandle_I13STM32HardwareLi5ELi5ELi512ELi512EE8spinOnceEv:0000000000000000 _ZN3ros11NodeHandle_I13STM32HardwareLi5ELi5ELi512ELi512EE8spinOnceEv
/var/folders/l3/4y5292px21b4835bsnjwqc7w009kq1/T//ccoAQsOl.s:1971   .text._ZN3ros11NodeHandle_I13STM32HardwareLi5ELi5ELi512ELi512EE8spinOnceEv:0000000000000418 $d
/var/folders/l3/4y5292px21b4835bsnjwqc7w009kq1/T//ccoAQsOl.s:2005   .rodata._ZTVN8std_msgs4TimeE:0000000000000000 _ZTVN8std_msgs4TimeE
.ARM.exidx.text._ZN3ros11NodeHandle_I13STM32HardwareLi5ELi5ELi512ELi512EE8spinOnceEv:0000000000000000 $d
/var/folders/l3/4y5292px21b4835bsnjwqc7w009kq1/T//ccoAQsOl.s:1978   .text._GLOBAL__sub_I_nh:0000000000000000 $t
/var/folders/l3/4y5292px21b4835bsnjwqc7w009kq1/T//ccoAQsOl.s:1984   .text._GLOBAL__sub_I_nh:0000000000000000 _GLOBAL__sub_I_nh
.ARM.exidx.text._GLOBAL__sub_I_nh:0000000000000000 $d
/var/folders/l3/4y5292px21b4835bsnjwqc7w009kq1/T//ccoAQsOl.s:1998   .init_array:0000000000000000 $d
/var/folders/l3/4y5292px21b4835bsnjwqc7w009kq1/T//ccoAQsOl.s:2002   .rodata._ZTVN8std_msgs4TimeE:0000000000000000 $d
/var/folders/l3/4y5292px21b4835bsnjwqc7w009kq1/T//ccoAQsOl.s:2014   .rodata._ZTVN14rosserial_msgs9TopicInfoE:0000000000000000 $d
/var/folders/l3/4y5292px21b4835bsnjwqc7w009kq1/T//ccoAQsOl.s:2026   .rodata._ZTVN14rosserial_msgs3LogE:0000000000000000 $d
/var/folders/l3/4y5292px21b4835bsnjwqc7w009kq1/T//ccoAQsOl.s:2038   .rodata._ZTVN14rosserial_msgs20RequestParamResponseE:0000000000000000 $d
/var/folders/l3/4y5292px21b4835bsnjwqc7w009kq1/T//ccoAQsOl.s:2050   .rodata._ZTVN3ros11NodeHandle_I13STM32HardwareLi5ELi5ELi512ELi512EEE:0000000000000000 $d
/var/folders/l3/4y5292px21b4835bsnjwqc7w009kq1/T//ccoAQsOl.s:2093   .bss.nh:0000000000000000 nh
/var/folders/l3/4y5292px21b4835bsnjwqc7w009kq1/T//ccoAQsOl.s:2061   .bss._ZL14xHandleTaskLED:0000000000000000 $d
/var/folders/l3/4y5292px21b4835bsnjwqc7w009kq1/T//ccoAQsOl.s:2065   .bss._ZL14xHandleTaskLED:0000000000000000 _ZL14xHandleTaskLED
/var/folders/l3/4y5292px21b4835bsnjwqc7w009kq1/T//ccoAQsOl.s:2068   .bss._ZL17xHandleMutexPrint:0000000000000000 $d
/var/folders/l3/4y5292px21b4835bsnjwqc7w009kq1/T//ccoAQsOl.s:2072   .bss._ZL17xHandleMutexPrint:0000000000000000 _ZL17xHandleMutexPrint
/var/folders/l3/4y5292px21b4835bsnjwqc7w009kq1/T//ccoAQsOl.s:2075   .bss._ZL21xHandleTaskMsgProcess:0000000000000000 $d
/var/folders/l3/4y5292px21b4835bsnjwqc7w009kq1/T//ccoAQsOl.s:2079   .bss._ZL21xHandleTaskMsgProcess:0000000000000000 _ZL21xHandleTaskMsgProcess
/var/folders/l3/4y5292px21b4835bsnjwqc7w009kq1/T//ccoAQsOl.s:2082   .bss._ZL23xHandleTaskCtrolProcess:0000000000000000 $d
/var/folders/l3/4y5292px21b4835bsnjwqc7w009kq1/T//ccoAQsOl.s:2086   .bss._ZL23xHandleTaskCtrolProcess:0000000000000000 _ZL23xHandleTaskCtrolProcess
/var/folders/l3/4y5292px21b4835bsnjwqc7w009kq1/T//ccoAQsOl.s:2089   .bss.nh:0000000000000000 $d
/var/folders/l3/4y5292px21b4835bsnjwqc7w009kq1/T//ccoAQsOl.s:2096   .rodata._Z10App_PrintfPKcz.str1.4:0000000000000000 $d
/var/folders/l3/4y5292px21b4835bsnjwqc7w009kq1/T//ccoAQsOl.s:2100   .rodata._ZL12AppObjCreatev.str1.4:0000000000000000 $d
/var/folders/l3/4y5292px21b4835bsnjwqc7w009kq1/T//ccoAQsOl.s:2104   .rodata._ZL13AppTaskCreatev.str1.4:0000000000000000 $d
/var/folders/l3/4y5292px21b4835bsnjwqc7w009kq1/T//ccoAQsOl.s:2113   .rodata._ZL13TMR_CallBack1v.str1.4:0000000000000000 $d
/var/folders/l3/4y5292px21b4835bsnjwqc7w009kq1/T//ccoAQsOl.s:2117   .rodata._ZL13TMR_CallBack2v.str1.4:0000000000000000 $d
/var/folders/l3/4y5292px21b4835bsnjwqc7w009kq1/T//ccoAQsOl.s:2121   .rodata._ZL15vTaskMsgProcessPv.str1.4:0000000000000000 $d
/var/folders/l3/4y5292px21b4835bsnjwqc7w009kq1/T//ccoAQsOl.s:2154   .rodata._ZL17vTaskCtrolProcessPv.str1.4:0000000000000000 $d
/var/folders/l3/4y5292px21b4835bsnjwqc7w009kq1/T//ccoAQsOl.s:2158   .rodata._ZL8vTaskLEDPv.str1.4:0000000000000000 $d
/var/folders/l3/4y5292px21b4835bsnjwqc7w009kq1/T//ccoAQsOl.s:2162   .rodata._ZN14rosserial_msgs20RequestParamResponse6getMD5Ev.str1.4:0000000000000000 $d
/var/folders/l3/4y5292px21b4835bsnjwqc7w009kq1/T//ccoAQsOl.s:2166   .rodata._ZN14rosserial_msgs3Log6getMD5Ev.str1.4:0000000000000000 $d
/var/folders/l3/4y5292px21b4835bsnjwqc7w009kq1/T//ccoAQsOl.s:2170   .rodata._ZN14rosserial_msgs3Log7getTypeEv.str1.4:0000000000000000 $d
/var/folders/l3/4y5292px21b4835bsnjwqc7w009kq1/T//ccoAQsOl.s:2174   .rodata._ZN14rosserial_msgs9TopicInfo6getMD5Ev.str1.4:0000000000000000 $d
/var/folders/l3/4y5292px21b4835bsnjwqc7w009kq1/T//ccoAQsOl.s:2178   .rodata._ZN14rosserial_msgs9TopicInfo7getTypeEv.str1.4:0000000000000000 $d
/var/folders/l3/4y5292px21b4835bsnjwqc7w009kq1/T//ccoAQsOl.s:2182   .rodata._ZN14rosserial_msgsL12REQUESTPARAME:0000000000000000 $d
/var/folders/l3/4y5292px21b4835bsnjwqc7w009kq1/T//ccoAQsOl.s:2186   .rodata._ZN14rosserial_msgsL12REQUESTPARAME:0000000000000000 _ZN14rosserial_msgsL12REQUESTPARAME
/var/folders/l3/4y5292px21b4835bsnjwqc7w009kq1/T//ccoAQsOl.s:2189   .rodata._ZN3ros11NodeHandle_I13STM32HardwareLi5ELi5ELi512ELi512EE7publishEiPKNS_3MsgE.str1.4:0000000000000000 $d
/var/folders/l3/4y5292px21b4835bsnjwqc7w009kq1/T//ccoAQsOl.s:2194   .rodata._ZN8std_msgs4Time6getMD5Ev.str1.4:0000000000000000 $d
/var/folders/l3/4y5292px21b4835bsnjwqc7w009kq1/T//ccoAQsOl.s:2198   .rodata._ZN8std_msgs4Time7getTypeEv.str1.4:0000000000000000 $d
/var/folders/l3/4y5292px21b4835bsnjwqc7w009kq1/T//ccoAQsOl.s:2202   .rodata.vApplicationStackOverflowHook.str1.4:0000000000000000 $d

ARM GAS  /var/folders/l3/4y5292px21b4835bsnjwqc7w009kq1/T//ccoAQsOl.s 			page 43


UNDEFINED SYMBOLS
xTaskCreate
__aeabi_unwind_cpp_pr0
bsp_LedToggle
puts
__aeabi_unwind_cpp_pr1
xQueueCreateMutex
strlen
memcpy
realloc
comSendBuf
bsp_Init
vTimerInitForRunTimeState
vTaskStartScheduler
vsnprintf
xQueueGenericReceive
printf
xQueueGenericSend
vTaskDelay
vTaskList
vTaskGetRunTimeStats
comGetChar
bsp_StartHardTimer
comClearRxFifo
xTaskGetTickCount
vTaskDelayUntil
_ZN3ros16normalizeSecNSecERmS0_
