ARM GAS  /var/folders/l3/4y5292px21b4835bsnjwqc7w009kq1/T//ccR8VDJO.s 			page 1


   1              		.cpu cortex-m4
   2              		.eabi_attribute 27, 1
   3              		.eabi_attribute 20, 1
   4              		.eabi_attribute 21, 1
   5              		.eabi_attribute 23, 3
   6              		.eabi_attribute 24, 1
   7              		.eabi_attribute 25, 1
   8              		.eabi_attribute 26, 1
   9              		.eabi_attribute 30, 1
  10              		.eabi_attribute 34, 1
  11              		.eabi_attribute 18, 4
  12              		.file	"TimerForRunTimeState.c"
  13              		.text
  14              	.Ltext0:
  15              		.cfi_sections	.debug_frame
  16              		.section	.text._Z25vTimerInitForRunTimeStatev,"ax",%progbits
  17              		.align	1
  18              		.global	_Z25vTimerInitForRunTimeStatev
  19              		.syntax unified
  20              		.thumb
  21              		.thumb_func
  22              		.fpu fpv4-sp-d16
  24              	_Z25vTimerInitForRunTimeStatev:
  25              		.fnstart
  26              	.LFB136:
  27              		.file 1 "Src/TimerForRunTimeState.c"
   1:Src/TimerForRunTimeState.c **** /**
   2:Src/TimerForRunTimeState.c ****   ******************************************************************************
   3:Src/TimerForRunTimeState.c ****   * @file    FreeRTOS/ResManagement_SafelyPrint/TimerForRunTimeState.c
   4:Src/TimerForRunTimeState.c ****   * @author  Artery Technology
   5:Src/TimerForRunTimeState.c ****   * @version V1.1.2
   6:Src/TimerForRunTimeState.c ****   * @date    2019-01-04
   7:Src/TimerForRunTimeState.c ****   * @brief   Bsp Service Routines.
   8:Src/TimerForRunTimeState.c ****   ******************************************************************************
   9:Src/TimerForRunTimeState.c ****   * @attention
  10:Src/TimerForRunTimeState.c ****   *
  11:Src/TimerForRunTimeState.c ****   * THE PRESENT FIRMWARE WHICH IS FOR GUIDANCE ONLY AIMS AT PROVIDING CUSTOMERS
  12:Src/TimerForRunTimeState.c ****   * WITH CODING INFORMATION REGARDING THEIR PRODUCTS IN ORDER FOR THEM TO SAVE
  13:Src/TimerForRunTimeState.c ****   * TIME. AS A RESULT, ARTERYTEK SHALL NOT BE HELD LIABLE FOR ANY
  14:Src/TimerForRunTimeState.c ****   * DIRECT, INDIRECT OR CONSEQUENTIAL DAMAGES WITH RESPECT TO ANY CLAIMS ARISING
  15:Src/TimerForRunTimeState.c ****   * FROM THE CONTENT OF SUCH FIRMWARE AND/OR THE USE MADE BY CUSTOMERS OF THE
  16:Src/TimerForRunTimeState.c ****   * CODING INFORMATION CONTAINED HEREIN IN CONNECTION WITH THEIR PRODUCTS.
  17:Src/TimerForRunTimeState.c ****   *
  18:Src/TimerForRunTimeState.c ****   * <h2><center>&copy; COPYRIGHT 2018 ArteryTek</center></h2>
  19:Src/TimerForRunTimeState.c ****   ******************************************************************************
  20:Src/TimerForRunTimeState.c ****   */ 
  21:Src/TimerForRunTimeState.c ****   
  22:Src/TimerForRunTimeState.c **** /* Includes ------------------------------------------------------------------*/  
  23:Src/TimerForRunTimeState.c **** #include "bsp.h"
  24:Src/TimerForRunTimeState.c **** 
  25:Src/TimerForRunTimeState.c **** /** @addtogroup AT32F403_StdPeriph_Examples
  26:Src/TimerForRunTimeState.c ****   * @{
  27:Src/TimerForRunTimeState.c ****   */
  28:Src/TimerForRunTimeState.c **** 
  29:Src/TimerForRunTimeState.c **** /** @addtogroup FreeRTOS_ResManagement_SafelyPrint
  30:Src/TimerForRunTimeState.c ****   * @{
  31:Src/TimerForRunTimeState.c ****   */ 
ARM GAS  /var/folders/l3/4y5292px21b4835bsnjwqc7w009kq1/T//ccR8VDJO.s 			page 2


  32:Src/TimerForRunTimeState.c **** 
  33:Src/TimerForRunTimeState.c **** /* Private typedef -----------------------------------------------------------*/
  34:Src/TimerForRunTimeState.c **** /* Private define ------------------------------------------------------------*/
  35:Src/TimerForRunTimeState.c **** #define  timerINTERRUPT_FREQUENCY	20000 //50us
  36:Src/TimerForRunTimeState.c **** #define  timerHIGHEST_PRIORITY		1
  37:Src/TimerForRunTimeState.c **** 
  38:Src/TimerForRunTimeState.c **** /* Private macro -------------------------------------------------------------*/
  39:Src/TimerForRunTimeState.c **** /* Private variables ---------------------------------------------------------*/
  40:Src/TimerForRunTimeState.c **** //the time base for gathering task statistics  
  41:Src/TimerForRunTimeState.c **** volatile uint32_t ulHighFrequencyTimerTicks = 0UL;
  42:Src/TimerForRunTimeState.c **** 
  43:Src/TimerForRunTimeState.c **** /* Private function prototypes -----------------------------------------------*/
  44:Src/TimerForRunTimeState.c **** /* Private functions ---------------------------------------------------------*/
  45:Src/TimerForRunTimeState.c **** 
  46:Src/TimerForRunTimeState.c **** /**
  47:Src/TimerForRunTimeState.c ****   * @brief  Configure timer6 for gather task statistcs
  48:Src/TimerForRunTimeState.c ****   * @param  None
  49:Src/TimerForRunTimeState.c ****   * @retval None
  50:Src/TimerForRunTimeState.c ****   */
  51:Src/TimerForRunTimeState.c **** void vTimerInitForRunTimeState(void)
  52:Src/TimerForRunTimeState.c **** {
  28              		.loc 1 52 0
  29              		.cfi_startproc
  30              		@ args = 0, pretend = 0, frame = 0
  31              		@ frame_needed = 0, uses_anonymous_args = 0
  32 0000 08B5     		push	{r3, lr}
  33              		.save {r3, lr}
  34              	.LCFI0:
  35              		.cfi_def_cfa_offset 8
  36              		.cfi_offset 3, -8
  37              		.cfi_offset 14, -4
  53:Src/TimerForRunTimeState.c **** 	bsp_SetTMRforInt(TMR6, timerINTERRUPT_FREQUENCY, timerHIGHEST_PRIORITY, 0);
  38              		.loc 1 53 0
  39 0002 0023     		movs	r3, #0
  40 0004 0122     		movs	r2, #1
  41 0006 44F62061 		movw	r1, #20000
  42 000a 0248     		ldr	r0, .L3
  43 000c FFF7FEFF 		bl	_Z16bsp_SetTMRforIntP8TMR_Typemhh
  44              	.LVL0:
  54:Src/TimerForRunTimeState.c **** }
  45              		.loc 1 54 0
  46 0010 08BD     		pop	{r3, pc}
  47              	.L4:
  48 0012 00BF     		.align	2
  49              	.L3:
  50 0014 00100040 		.word	1073745920
  51              		.cfi_endproc
  52              	.LFE136:
  53              		.fnend
  55              		.section	.text._Z22TMR6_GLOBAL_IRQHandlerv,"ax",%progbits
  56              		.align	1
  57              		.global	_Z22TMR6_GLOBAL_IRQHandlerv
  58              		.syntax unified
  59              		.thumb
  60              		.thumb_func
  61              		.fpu fpv4-sp-d16
  63              	_Z22TMR6_GLOBAL_IRQHandlerv:
ARM GAS  /var/folders/l3/4y5292px21b4835bsnjwqc7w009kq1/T//ccR8VDJO.s 			page 3


  64              		.fnstart
  65              	.LFB137:
  55:Src/TimerForRunTimeState.c **** 
  56:Src/TimerForRunTimeState.c **** /**
  57:Src/TimerForRunTimeState.c ****   * @brief  Interrupt handler for timer 6
  58:Src/TimerForRunTimeState.c ****   * @param  None
  59:Src/TimerForRunTimeState.c ****   * @retval None
  60:Src/TimerForRunTimeState.c ****   */
  61:Src/TimerForRunTimeState.c **** void TMR6_GLOBAL_IRQHandler( void )
  62:Src/TimerForRunTimeState.c **** {
  66              		.loc 1 62 0
  67              		.cfi_startproc
  68              		@ args = 0, pretend = 0, frame = 0
  69              		@ frame_needed = 0, uses_anonymous_args = 0
  70 0000 08B5     		push	{r3, lr}
  71              		.save {r3, lr}
  72              	.LCFI1:
  73              		.cfi_def_cfa_offset 8
  74              		.cfi_offset 3, -8
  75              		.cfi_offset 14, -4
  63:Src/TimerForRunTimeState.c **** 	if(TMR_GetINTStatus(TMR6, TMR_INT_Overflow) != RESET)
  76              		.loc 1 63 0
  77 0002 0121     		movs	r1, #1
  78 0004 0648     		ldr	r0, .L9
  79 0006 FFF7FEFF 		bl	TMR_GetINTStatus
  80              	.LVL1:
  81 000a 00B9     		cbnz	r0, .L8
  82              	.L5:
  64:Src/TimerForRunTimeState.c **** 	{
  65:Src/TimerForRunTimeState.c **** 		ulHighFrequencyTimerTicks++;
  66:Src/TimerForRunTimeState.c **** 		TMR_ClearITPendingBit(TMR6, TMR_INT_Overflow);
  67:Src/TimerForRunTimeState.c **** 	}
  68:Src/TimerForRunTimeState.c **** }
  83              		.loc 1 68 0
  84 000c 08BD     		pop	{r3, pc}
  85              	.L8:
  65:Src/TimerForRunTimeState.c **** 		TMR_ClearITPendingBit(TMR6, TMR_INT_Overflow);
  86              		.loc 1 65 0
  87 000e 054A     		ldr	r2, .L9+4
  88 0010 1368     		ldr	r3, [r2]
  89 0012 0133     		adds	r3, r3, #1
  90 0014 1360     		str	r3, [r2]
  66:Src/TimerForRunTimeState.c **** 	}
  91              		.loc 1 66 0
  92 0016 0121     		movs	r1, #1
  93 0018 0148     		ldr	r0, .L9
  94 001a FFF7FEFF 		bl	TMR_ClearITPendingBit
  95              	.LVL2:
  96              		.loc 1 68 0
  97 001e F5E7     		b	.L5
  98              	.L10:
  99              		.align	2
 100              	.L9:
 101 0020 00100040 		.word	1073745920
 102 0024 00000000 		.word	.LANCHOR0
 103              		.cfi_endproc
 104              	.LFE137:
ARM GAS  /var/folders/l3/4y5292px21b4835bsnjwqc7w009kq1/T//ccR8VDJO.s 			page 4


 105              		.fnend
 107              		.global	ulHighFrequencyTimerTicks
 108              		.section	.bss.ulHighFrequencyTimerTicks,"aw",%nobits
 109              		.align	2
 110              		.set	.LANCHOR0,. + 0
 113              	ulHighFrequencyTimerTicks:
 114 0000 00000000 		.space	4
 115              		.text
 116              	.Letext0:
 117              		.file 2 "/usr/local/Cellar/gcc-arm-none-eabi/20180627/lib/gcc/arm-none-eabi/7.3.1/include/stddef.h
 118              		.file 3 "/usr/local/Cellar/gcc-arm-none-eabi/20180627/arm-none-eabi/include/machine/_default_types
 119              		.file 4 "/usr/local/Cellar/gcc-arm-none-eabi/20180627/arm-none-eabi/include/sys/_stdint.h"
 120              		.file 5 "../Libraries/CMSIS/CM4/CoreSupport/core_cm4.h"
 121              		.file 6 "../Libraries/CMSIS/CM4/DeviceSupport/system_at32f4xx.h"
 122              		.file 7 "../Libraries/CMSIS/CM4/DeviceSupport/at32f4xx.h"
 123              		.file 8 "Inc/FreeRTOSConfig.h"
 124              		.file 9 "/usr/local/Cellar/gcc-arm-none-eabi/20180627/arm-none-eabi/include/sys/lock.h"
 125              		.file 10 "/usr/local/Cellar/gcc-arm-none-eabi/20180627/arm-none-eabi/include/sys/_types.h"
 126              		.file 11 "/usr/local/Cellar/gcc-arm-none-eabi/20180627/arm-none-eabi/include/sys/reent.h"
 127              		.file 12 "/usr/local/Cellar/gcc-arm-none-eabi/20180627/arm-none-eabi/include/c++/7.3.1/cstdlib"
 128              		.file 13 "/usr/local/Cellar/gcc-arm-none-eabi/20180627/arm-none-eabi/include/c++/7.3.1/arm-none-ea
 129              		.file 14 "/usr/local/Cellar/gcc-arm-none-eabi/20180627/arm-none-eabi/include/stdlib.h"
 130              		.file 15 "/usr/local/Cellar/gcc-arm-none-eabi/20180627/arm-none-eabi/include/c++/7.3.1/stdlib.h"
 131              		.file 16 "../Libraries/AT32F4xx_StdPeriph_Driver/inc/at32f4xx_tim.h"
 132              		.file 17 "<built-in>"
 133              		.file 18 "bsp/inc/bsp_tim_pwm.h"
ARM GAS  /var/folders/l3/4y5292px21b4835bsnjwqc7w009kq1/T//ccR8VDJO.s 			page 5

