ARM GAS  /var/folders/l3/4y5292px21b4835bsnjwqc7w009kq1/T//ccUQPhZJ.s 			page 1


   1              		.cpu cortex-m4
   2              		.eabi_attribute 27, 1
   3              		.eabi_attribute 20, 1
   4              		.eabi_attribute 21, 1
   5              		.eabi_attribute 23, 3
   6              		.eabi_attribute 24, 1
   7              		.eabi_attribute 25, 1
   8              		.eabi_attribute 26, 1
   9              		.eabi_attribute 30, 1
  10              		.eabi_attribute 34, 1
  11              		.eabi_attribute 18, 4
  12              		.file	"cmsis_os.c"
  13              		.text
  14              	.Ltext0:
  15              		.cfi_sections	.debug_frame
  16              		.section	.text.makeFreeRtosPriority,"ax",%progbits
  17              		.align	1
  18              		.syntax unified
  19              		.thumb
  20              		.thumb_func
  21              		.fpu fpv4-sp-d16
  23              	makeFreeRtosPriority:
  24              	.LFB128:
  25              		.file 1 "../Middlewares/FreeRTOS//Source/CMSIS_RTOS/cmsis_os.c"
   1:../Middlewares/FreeRTOS//Source/CMSIS_RTOS/cmsis_os.c **** /* ----------------------------------------------------------------------
   2:../Middlewares/FreeRTOS//Source/CMSIS_RTOS/cmsis_os.c ****  * $Date:        5. February 2013
   3:../Middlewares/FreeRTOS//Source/CMSIS_RTOS/cmsis_os.c ****  * $Revision:    V1.02
   4:../Middlewares/FreeRTOS//Source/CMSIS_RTOS/cmsis_os.c ****  *
   5:../Middlewares/FreeRTOS//Source/CMSIS_RTOS/cmsis_os.c ****  * Project:      CMSIS-RTOS API
   6:../Middlewares/FreeRTOS//Source/CMSIS_RTOS/cmsis_os.c ****  * Title:        cmsis_os.c
   7:../Middlewares/FreeRTOS//Source/CMSIS_RTOS/cmsis_os.c ****  *
   8:../Middlewares/FreeRTOS//Source/CMSIS_RTOS/cmsis_os.c ****  * Version 0.02
   9:../Middlewares/FreeRTOS//Source/CMSIS_RTOS/cmsis_os.c ****  *    Initial Proposal Phase
  10:../Middlewares/FreeRTOS//Source/CMSIS_RTOS/cmsis_os.c ****  * Version 0.03
  11:../Middlewares/FreeRTOS//Source/CMSIS_RTOS/cmsis_os.c ****  *    osKernelStart added, optional feature: main started as thread
  12:../Middlewares/FreeRTOS//Source/CMSIS_RTOS/cmsis_os.c ****  *    osSemaphores have standard behavior
  13:../Middlewares/FreeRTOS//Source/CMSIS_RTOS/cmsis_os.c ****  *    osTimerCreate does not start the timer, added osTimerStart
  14:../Middlewares/FreeRTOS//Source/CMSIS_RTOS/cmsis_os.c ****  *    osThreadPass is renamed to osThreadYield
  15:../Middlewares/FreeRTOS//Source/CMSIS_RTOS/cmsis_os.c ****  * Version 1.01
  16:../Middlewares/FreeRTOS//Source/CMSIS_RTOS/cmsis_os.c ****  *    Support for C++ interface
  17:../Middlewares/FreeRTOS//Source/CMSIS_RTOS/cmsis_os.c ****  *     - const attribute removed from the osXxxxDef_t typedef's
  18:../Middlewares/FreeRTOS//Source/CMSIS_RTOS/cmsis_os.c ****  *     - const attribute added to the osXxxxDef macros
  19:../Middlewares/FreeRTOS//Source/CMSIS_RTOS/cmsis_os.c ****  *    Added: osTimerDelete, osMutexDelete, osSemaphoreDelete
  20:../Middlewares/FreeRTOS//Source/CMSIS_RTOS/cmsis_os.c ****  *    Added: osKernelInitialize
  21:../Middlewares/FreeRTOS//Source/CMSIS_RTOS/cmsis_os.c ****  * Version 1.02
  22:../Middlewares/FreeRTOS//Source/CMSIS_RTOS/cmsis_os.c ****  *    Control functions for short timeouts in microsecond resolution:
  23:../Middlewares/FreeRTOS//Source/CMSIS_RTOS/cmsis_os.c ****  *    Added: osKernelSysTick, osKernelSysTickFrequency, osKernelSysTickMicroSec
  24:../Middlewares/FreeRTOS//Source/CMSIS_RTOS/cmsis_os.c ****  *    Removed: osSignalGet 
  25:../Middlewares/FreeRTOS//Source/CMSIS_RTOS/cmsis_os.c ****  *    
  26:../Middlewares/FreeRTOS//Source/CMSIS_RTOS/cmsis_os.c ****  *  
  27:../Middlewares/FreeRTOS//Source/CMSIS_RTOS/cmsis_os.c ****  *----------------------------------------------------------------------------
  28:../Middlewares/FreeRTOS//Source/CMSIS_RTOS/cmsis_os.c ****  *
  29:../Middlewares/FreeRTOS//Source/CMSIS_RTOS/cmsis_os.c ****  * Portions Copyright © 2016 STMicroelectronics International N.V. All rights reserved.
  30:../Middlewares/FreeRTOS//Source/CMSIS_RTOS/cmsis_os.c ****  * Portions Copyright (c) 2013 ARM LIMITED
  31:../Middlewares/FreeRTOS//Source/CMSIS_RTOS/cmsis_os.c ****  * All rights reserved.
  32:../Middlewares/FreeRTOS//Source/CMSIS_RTOS/cmsis_os.c ****  * Redistribution and use in source and binary forms, with or without
  33:../Middlewares/FreeRTOS//Source/CMSIS_RTOS/cmsis_os.c ****  * modification, are permitted provided that the following conditions are met:
ARM GAS  /var/folders/l3/4y5292px21b4835bsnjwqc7w009kq1/T//ccUQPhZJ.s 			page 2


  34:../Middlewares/FreeRTOS//Source/CMSIS_RTOS/cmsis_os.c ****  *  - Redistributions of source code must retain the above copyright
  35:../Middlewares/FreeRTOS//Source/CMSIS_RTOS/cmsis_os.c ****  *    notice, this list of conditions and the following disclaimer.
  36:../Middlewares/FreeRTOS//Source/CMSIS_RTOS/cmsis_os.c ****  *  - Redistributions in binary form must reproduce the above copyright
  37:../Middlewares/FreeRTOS//Source/CMSIS_RTOS/cmsis_os.c ****  *    notice, this list of conditions and the following disclaimer in the
  38:../Middlewares/FreeRTOS//Source/CMSIS_RTOS/cmsis_os.c ****  *    documentation and/or other materials provided with the distribution.
  39:../Middlewares/FreeRTOS//Source/CMSIS_RTOS/cmsis_os.c ****  *  - Neither the name of ARM  nor the names of its contributors may be used
  40:../Middlewares/FreeRTOS//Source/CMSIS_RTOS/cmsis_os.c ****  *    to endorse or promote products derived from this software without
  41:../Middlewares/FreeRTOS//Source/CMSIS_RTOS/cmsis_os.c ****  *    specific prior written permission.
  42:../Middlewares/FreeRTOS//Source/CMSIS_RTOS/cmsis_os.c ****  *
  43:../Middlewares/FreeRTOS//Source/CMSIS_RTOS/cmsis_os.c ****  * THIS SOFTWARE IS PROVIDED BY THE COPYRIGHT HOLDERS AND CONTRIBUTORS "AS IS"
  44:../Middlewares/FreeRTOS//Source/CMSIS_RTOS/cmsis_os.c ****  * AND ANY EXPRESS OR IMPLIED WARRANTIES, INCLUDING, BUT NOT LIMITED TO, THE
  45:../Middlewares/FreeRTOS//Source/CMSIS_RTOS/cmsis_os.c ****  * IMPLIED WARRANTIES OF MERCHANTABILITY AND FITNESS FOR A PARTICULAR PURPOSE
  46:../Middlewares/FreeRTOS//Source/CMSIS_RTOS/cmsis_os.c ****  * ARE DISCLAIMED. IN NO EVENT SHALL COPYRIGHT HOLDERS AND CONTRIBUTORS BE
  47:../Middlewares/FreeRTOS//Source/CMSIS_RTOS/cmsis_os.c ****  * LIABLE FOR ANY DIRECT, INDIRECT, INCIDENTAL, SPECIAL, EXEMPLARY, OR
  48:../Middlewares/FreeRTOS//Source/CMSIS_RTOS/cmsis_os.c ****  * CONSEQUENTIAL DAMAGES (INCLUDING, BUT NOT LIMITED TO, PROCUREMENT OF
  49:../Middlewares/FreeRTOS//Source/CMSIS_RTOS/cmsis_os.c ****  * SUBSTITUTE GOODS OR SERVICES; LOSS OF USE, DATA, OR PROFITS; OR BUSINESS
  50:../Middlewares/FreeRTOS//Source/CMSIS_RTOS/cmsis_os.c ****  * INTERRUPTION) HOWEVER CAUSED AND ON ANY THEORY OF LIABILITY, WHETHER IN
  51:../Middlewares/FreeRTOS//Source/CMSIS_RTOS/cmsis_os.c ****  * CONTRACT, STRICT LIABILITY, OR TORT (INCLUDING NEGLIGENCE OR OTHERWISE)
  52:../Middlewares/FreeRTOS//Source/CMSIS_RTOS/cmsis_os.c ****  * ARISING IN ANY WAY OUT OF THE USE OF THIS SOFTWARE, EVEN IF ADVISED OF THE
  53:../Middlewares/FreeRTOS//Source/CMSIS_RTOS/cmsis_os.c ****  * POSSIBILITY OF SUCH DAMAGE.
  54:../Middlewares/FreeRTOS//Source/CMSIS_RTOS/cmsis_os.c ****  *---------------------------------------------------------------------------*/
  55:../Middlewares/FreeRTOS//Source/CMSIS_RTOS/cmsis_os.c **** 
  56:../Middlewares/FreeRTOS//Source/CMSIS_RTOS/cmsis_os.c ****  /**
  57:../Middlewares/FreeRTOS//Source/CMSIS_RTOS/cmsis_os.c ****   ******************************************************************************
  58:../Middlewares/FreeRTOS//Source/CMSIS_RTOS/cmsis_os.c ****   * @file    cmsis_os.c
  59:../Middlewares/FreeRTOS//Source/CMSIS_RTOS/cmsis_os.c ****   * @author  MCD Application Team
  60:../Middlewares/FreeRTOS//Source/CMSIS_RTOS/cmsis_os.c ****   * @date    03-March-2017
  61:../Middlewares/FreeRTOS//Source/CMSIS_RTOS/cmsis_os.c ****   * @brief   CMSIS-RTOS API implementation for FreeRTOS V9.0.0
  62:../Middlewares/FreeRTOS//Source/CMSIS_RTOS/cmsis_os.c ****   ******************************************************************************
  63:../Middlewares/FreeRTOS//Source/CMSIS_RTOS/cmsis_os.c ****   * @attention
  64:../Middlewares/FreeRTOS//Source/CMSIS_RTOS/cmsis_os.c ****   *
  65:../Middlewares/FreeRTOS//Source/CMSIS_RTOS/cmsis_os.c ****   * Redistribution and use in source and binary forms, with or without 
  66:../Middlewares/FreeRTOS//Source/CMSIS_RTOS/cmsis_os.c ****   * modification, are permitted, provided that the following conditions are met:
  67:../Middlewares/FreeRTOS//Source/CMSIS_RTOS/cmsis_os.c ****   *
  68:../Middlewares/FreeRTOS//Source/CMSIS_RTOS/cmsis_os.c ****   * 1. Redistribution of source code must retain the above copyright notice, 
  69:../Middlewares/FreeRTOS//Source/CMSIS_RTOS/cmsis_os.c ****   *    this list of conditions and the following disclaimer.
  70:../Middlewares/FreeRTOS//Source/CMSIS_RTOS/cmsis_os.c ****   * 2. Redistributions in binary form must reproduce the above copyright notice,
  71:../Middlewares/FreeRTOS//Source/CMSIS_RTOS/cmsis_os.c ****   *    this list of conditions and the following disclaimer in the documentation
  72:../Middlewares/FreeRTOS//Source/CMSIS_RTOS/cmsis_os.c ****   *    and/or other materials provided with the distribution.
  73:../Middlewares/FreeRTOS//Source/CMSIS_RTOS/cmsis_os.c ****   * 3. Neither the name of STMicroelectronics nor the names of other 
  74:../Middlewares/FreeRTOS//Source/CMSIS_RTOS/cmsis_os.c ****   *    contributors to this software may be used to endorse or promote products 
  75:../Middlewares/FreeRTOS//Source/CMSIS_RTOS/cmsis_os.c ****   *    derived from this software without specific written permission.
  76:../Middlewares/FreeRTOS//Source/CMSIS_RTOS/cmsis_os.c ****   * 4. This software, including modifications and/or derivative works of this 
  77:../Middlewares/FreeRTOS//Source/CMSIS_RTOS/cmsis_os.c ****   *    software, must execute solely and exclusively on microcontroller or
  78:../Middlewares/FreeRTOS//Source/CMSIS_RTOS/cmsis_os.c ****   *    microprocessor devices manufactured by or for STMicroelectronics.
  79:../Middlewares/FreeRTOS//Source/CMSIS_RTOS/cmsis_os.c ****   * 5. Redistribution and use of this software other than as permitted under 
  80:../Middlewares/FreeRTOS//Source/CMSIS_RTOS/cmsis_os.c ****   *    this license is void and will automatically terminate your rights under 
  81:../Middlewares/FreeRTOS//Source/CMSIS_RTOS/cmsis_os.c ****   *    this license. 
  82:../Middlewares/FreeRTOS//Source/CMSIS_RTOS/cmsis_os.c ****   *
  83:../Middlewares/FreeRTOS//Source/CMSIS_RTOS/cmsis_os.c ****   * THIS SOFTWARE IS PROVIDED BY STMICROELECTRONICS AND CONTRIBUTORS "AS IS" 
  84:../Middlewares/FreeRTOS//Source/CMSIS_RTOS/cmsis_os.c ****   * AND ANY EXPRESS, IMPLIED OR STATUTORY WARRANTIES, INCLUDING, BUT NOT 
  85:../Middlewares/FreeRTOS//Source/CMSIS_RTOS/cmsis_os.c ****   * LIMITED TO, THE IMPLIED WARRANTIES OF MERCHANTABILITY, FITNESS FOR A 
  86:../Middlewares/FreeRTOS//Source/CMSIS_RTOS/cmsis_os.c ****   * PARTICULAR PURPOSE AND NON-INFRINGEMENT OF THIRD PARTY INTELLECTUAL PROPERTY
  87:../Middlewares/FreeRTOS//Source/CMSIS_RTOS/cmsis_os.c ****   * RIGHTS ARE DISCLAIMED TO THE FULLEST EXTENT PERMITTED BY LAW. IN NO EVENT 
  88:../Middlewares/FreeRTOS//Source/CMSIS_RTOS/cmsis_os.c ****   * SHALL STMICROELECTRONICS OR CONTRIBUTORS BE LIABLE FOR ANY DIRECT, INDIRECT,
  89:../Middlewares/FreeRTOS//Source/CMSIS_RTOS/cmsis_os.c ****   * INCIDENTAL, SPECIAL, EXEMPLARY, OR CONSEQUENTIAL DAMAGES (INCLUDING, BUT NOT
  90:../Middlewares/FreeRTOS//Source/CMSIS_RTOS/cmsis_os.c ****   * LIMITED TO, PROCUREMENT OF SUBSTITUTE GOODS OR SERVICES; LOSS OF USE, DATA, 
ARM GAS  /var/folders/l3/4y5292px21b4835bsnjwqc7w009kq1/T//ccUQPhZJ.s 			page 3


  91:../Middlewares/FreeRTOS//Source/CMSIS_RTOS/cmsis_os.c ****   * OR PROFITS; OR BUSINESS INTERRUPTION) HOWEVER CAUSED AND ON ANY THEORY OF 
  92:../Middlewares/FreeRTOS//Source/CMSIS_RTOS/cmsis_os.c ****   * LIABILITY, WHETHER IN CONTRACT, STRICT LIABILITY, OR TORT (INCLUDING 
  93:../Middlewares/FreeRTOS//Source/CMSIS_RTOS/cmsis_os.c ****   * NEGLIGENCE OR OTHERWISE) ARISING IN ANY WAY OUT OF THE USE OF THIS SOFTWARE,
  94:../Middlewares/FreeRTOS//Source/CMSIS_RTOS/cmsis_os.c ****   * EVEN IF ADVISED OF THE POSSIBILITY OF SUCH DAMAGE.
  95:../Middlewares/FreeRTOS//Source/CMSIS_RTOS/cmsis_os.c ****   *
  96:../Middlewares/FreeRTOS//Source/CMSIS_RTOS/cmsis_os.c ****   ******************************************************************************
  97:../Middlewares/FreeRTOS//Source/CMSIS_RTOS/cmsis_os.c ****   */ 
  98:../Middlewares/FreeRTOS//Source/CMSIS_RTOS/cmsis_os.c **** 
  99:../Middlewares/FreeRTOS//Source/CMSIS_RTOS/cmsis_os.c **** #include <string.h>
 100:../Middlewares/FreeRTOS//Source/CMSIS_RTOS/cmsis_os.c **** #include "cmsis_os.h"
 101:../Middlewares/FreeRTOS//Source/CMSIS_RTOS/cmsis_os.c **** 
 102:../Middlewares/FreeRTOS//Source/CMSIS_RTOS/cmsis_os.c **** /*
 103:../Middlewares/FreeRTOS//Source/CMSIS_RTOS/cmsis_os.c ****  * ARM Compiler 4/5
 104:../Middlewares/FreeRTOS//Source/CMSIS_RTOS/cmsis_os.c ****  */
 105:../Middlewares/FreeRTOS//Source/CMSIS_RTOS/cmsis_os.c **** #if   defined ( __CC_ARM )
 106:../Middlewares/FreeRTOS//Source/CMSIS_RTOS/cmsis_os.c **** 
 107:../Middlewares/FreeRTOS//Source/CMSIS_RTOS/cmsis_os.c ****   #define __ASM            __asm                                      
 108:../Middlewares/FreeRTOS//Source/CMSIS_RTOS/cmsis_os.c ****   #define __INLINE         __inline                                     
 109:../Middlewares/FreeRTOS//Source/CMSIS_RTOS/cmsis_os.c ****   #define __STATIC_INLINE  static __inline
 110:../Middlewares/FreeRTOS//Source/CMSIS_RTOS/cmsis_os.c ****   #include "cmsis_armcc.h"
 111:../Middlewares/FreeRTOS//Source/CMSIS_RTOS/cmsis_os.c **** 
 112:../Middlewares/FreeRTOS//Source/CMSIS_RTOS/cmsis_os.c **** /*
 113:../Middlewares/FreeRTOS//Source/CMSIS_RTOS/cmsis_os.c ****  * GNU Compiler
 114:../Middlewares/FreeRTOS//Source/CMSIS_RTOS/cmsis_os.c ****  */
 115:../Middlewares/FreeRTOS//Source/CMSIS_RTOS/cmsis_os.c **** #elif defined ( __GNUC__ )
 116:../Middlewares/FreeRTOS//Source/CMSIS_RTOS/cmsis_os.c **** 
 117:../Middlewares/FreeRTOS//Source/CMSIS_RTOS/cmsis_os.c ****   #define __ASM            __asm                                      /*!< asm keyword for GNU Comp
 118:../Middlewares/FreeRTOS//Source/CMSIS_RTOS/cmsis_os.c ****   #define __INLINE         inline                                     /*!< inline keyword for GNU C
 119:../Middlewares/FreeRTOS//Source/CMSIS_RTOS/cmsis_os.c ****   #define __STATIC_INLINE  static inline
 120:../Middlewares/FreeRTOS//Source/CMSIS_RTOS/cmsis_os.c **** 
 121:../Middlewares/FreeRTOS//Source/CMSIS_RTOS/cmsis_os.c **** 
 122:../Middlewares/FreeRTOS//Source/CMSIS_RTOS/cmsis_os.c ****   #include "cmsis_gcc.h"
 123:../Middlewares/FreeRTOS//Source/CMSIS_RTOS/cmsis_os.c **** 
 124:../Middlewares/FreeRTOS//Source/CMSIS_RTOS/cmsis_os.c **** 
 125:../Middlewares/FreeRTOS//Source/CMSIS_RTOS/cmsis_os.c **** /*
 126:../Middlewares/FreeRTOS//Source/CMSIS_RTOS/cmsis_os.c ****  * IAR Compiler
 127:../Middlewares/FreeRTOS//Source/CMSIS_RTOS/cmsis_os.c ****  */
 128:../Middlewares/FreeRTOS//Source/CMSIS_RTOS/cmsis_os.c **** #elif defined ( __ICCARM__ )
 129:../Middlewares/FreeRTOS//Source/CMSIS_RTOS/cmsis_os.c **** 
 130:../Middlewares/FreeRTOS//Source/CMSIS_RTOS/cmsis_os.c ****   #ifndef   __ASM
 131:../Middlewares/FreeRTOS//Source/CMSIS_RTOS/cmsis_os.c ****     #define __ASM                     __asm
 132:../Middlewares/FreeRTOS//Source/CMSIS_RTOS/cmsis_os.c ****   #endif
 133:../Middlewares/FreeRTOS//Source/CMSIS_RTOS/cmsis_os.c ****   #ifndef   __INLINE
 134:../Middlewares/FreeRTOS//Source/CMSIS_RTOS/cmsis_os.c ****     #define __INLINE                  inline
 135:../Middlewares/FreeRTOS//Source/CMSIS_RTOS/cmsis_os.c ****   #endif
 136:../Middlewares/FreeRTOS//Source/CMSIS_RTOS/cmsis_os.c ****   #ifndef   __STATIC_INLINE
 137:../Middlewares/FreeRTOS//Source/CMSIS_RTOS/cmsis_os.c ****     #define __STATIC_INLINE           static inline
 138:../Middlewares/FreeRTOS//Source/CMSIS_RTOS/cmsis_os.c ****   #endif
 139:../Middlewares/FreeRTOS//Source/CMSIS_RTOS/cmsis_os.c **** 
 140:../Middlewares/FreeRTOS//Source/CMSIS_RTOS/cmsis_os.c ****   #include <cmsis_iar.h>
 141:../Middlewares/FreeRTOS//Source/CMSIS_RTOS/cmsis_os.c **** #endif
 142:../Middlewares/FreeRTOS//Source/CMSIS_RTOS/cmsis_os.c **** 
 143:../Middlewares/FreeRTOS//Source/CMSIS_RTOS/cmsis_os.c **** extern void xPortSysTickHandler(void);
 144:../Middlewares/FreeRTOS//Source/CMSIS_RTOS/cmsis_os.c **** 
 145:../Middlewares/FreeRTOS//Source/CMSIS_RTOS/cmsis_os.c **** /* Convert from CMSIS type osPriority to FreeRTOS priority number */
 146:../Middlewares/FreeRTOS//Source/CMSIS_RTOS/cmsis_os.c **** static unsigned portBASE_TYPE makeFreeRtosPriority (osPriority priority)
 147:../Middlewares/FreeRTOS//Source/CMSIS_RTOS/cmsis_os.c **** {
ARM GAS  /var/folders/l3/4y5292px21b4835bsnjwqc7w009kq1/T//ccUQPhZJ.s 			page 4


  26              		.loc 1 147 0
  27              		.cfi_startproc
  28              		@ args = 0, pretend = 0, frame = 0
  29              		@ frame_needed = 0, uses_anonymous_args = 0
  30              		@ link register save eliminated.
  31              	.LVL0:
 148:../Middlewares/FreeRTOS//Source/CMSIS_RTOS/cmsis_os.c ****   unsigned portBASE_TYPE fpriority = tskIDLE_PRIORITY;
 149:../Middlewares/FreeRTOS//Source/CMSIS_RTOS/cmsis_os.c ****   
 150:../Middlewares/FreeRTOS//Source/CMSIS_RTOS/cmsis_os.c ****   if (priority != osPriorityError) {
  32              		.loc 1 150 0
  33 0000 8428     		cmp	r0, #132
  34 0002 01D0     		beq	.L3
 151:../Middlewares/FreeRTOS//Source/CMSIS_RTOS/cmsis_os.c ****     fpriority += (priority - osPriorityIdle);
  35              		.loc 1 151 0
  36 0004 0330     		adds	r0, r0, #3
  37              	.LVL1:
  38 0006 7047     		bx	lr
  39              	.LVL2:
  40              	.L3:
 148:../Middlewares/FreeRTOS//Source/CMSIS_RTOS/cmsis_os.c ****   unsigned portBASE_TYPE fpriority = tskIDLE_PRIORITY;
  41              		.loc 1 148 0
  42 0008 0020     		movs	r0, #0
  43              	.LVL3:
 152:../Middlewares/FreeRTOS//Source/CMSIS_RTOS/cmsis_os.c ****   }
 153:../Middlewares/FreeRTOS//Source/CMSIS_RTOS/cmsis_os.c ****   
 154:../Middlewares/FreeRTOS//Source/CMSIS_RTOS/cmsis_os.c ****   return fpriority;
 155:../Middlewares/FreeRTOS//Source/CMSIS_RTOS/cmsis_os.c **** }
  44              		.loc 1 155 0
  45 000a 7047     		bx	lr
  46              		.cfi_endproc
  47              	.LFE128:
  49              		.section	.text.makeCmsisPriority,"ax",%progbits
  50              		.align	1
  51              		.syntax unified
  52              		.thumb
  53              		.thumb_func
  54              		.fpu fpv4-sp-d16
  56              	makeCmsisPriority:
  57              	.LFB129:
 156:../Middlewares/FreeRTOS//Source/CMSIS_RTOS/cmsis_os.c **** 
 157:../Middlewares/FreeRTOS//Source/CMSIS_RTOS/cmsis_os.c **** #if (INCLUDE_uxTaskPriorityGet == 1)
 158:../Middlewares/FreeRTOS//Source/CMSIS_RTOS/cmsis_os.c **** /* Convert from FreeRTOS priority number to CMSIS type osPriority */
 159:../Middlewares/FreeRTOS//Source/CMSIS_RTOS/cmsis_os.c **** static osPriority makeCmsisPriority (unsigned portBASE_TYPE fpriority)
 160:../Middlewares/FreeRTOS//Source/CMSIS_RTOS/cmsis_os.c **** {
  58              		.loc 1 160 0
  59              		.cfi_startproc
  60              		@ args = 0, pretend = 0, frame = 0
  61              		@ frame_needed = 0, uses_anonymous_args = 0
  62              		@ link register save eliminated.
  63              	.LVL4:
 161:../Middlewares/FreeRTOS//Source/CMSIS_RTOS/cmsis_os.c ****   osPriority priority = osPriorityError;
 162:../Middlewares/FreeRTOS//Source/CMSIS_RTOS/cmsis_os.c ****   
 163:../Middlewares/FreeRTOS//Source/CMSIS_RTOS/cmsis_os.c ****   if ((fpriority - tskIDLE_PRIORITY) <= (osPriorityRealtime - osPriorityIdle)) {
  64              		.loc 1 163 0
  65 0000 0628     		cmp	r0, #6
  66 0002 02D8     		bhi	.L6
 164:../Middlewares/FreeRTOS//Source/CMSIS_RTOS/cmsis_os.c ****     priority = (osPriority)((int)osPriorityIdle + (int)(fpriority - tskIDLE_PRIORITY));
ARM GAS  /var/folders/l3/4y5292px21b4835bsnjwqc7w009kq1/T//ccUQPhZJ.s 			page 5


  67              		.loc 1 164 0
  68 0004 0338     		subs	r0, r0, #3
  69              	.LVL5:
  70 0006 00B2     		sxth	r0, r0
  71              	.LVL6:
  72 0008 7047     		bx	lr
  73              	.LVL7:
  74              	.L6:
 161:../Middlewares/FreeRTOS//Source/CMSIS_RTOS/cmsis_os.c ****   osPriority priority = osPriorityError;
  75              		.loc 1 161 0
  76 000a 8420     		movs	r0, #132
  77              	.LVL8:
 165:../Middlewares/FreeRTOS//Source/CMSIS_RTOS/cmsis_os.c ****   }
 166:../Middlewares/FreeRTOS//Source/CMSIS_RTOS/cmsis_os.c ****   
 167:../Middlewares/FreeRTOS//Source/CMSIS_RTOS/cmsis_os.c ****   return priority;
 168:../Middlewares/FreeRTOS//Source/CMSIS_RTOS/cmsis_os.c **** }
  78              		.loc 1 168 0
  79 000c 7047     		bx	lr
  80              		.cfi_endproc
  81              	.LFE129:
  83              		.section	.text.inHandlerMode,"ax",%progbits
  84              		.align	1
  85              		.syntax unified
  86              		.thumb
  87              		.thumb_func
  88              		.fpu fpv4-sp-d16
  90              	inHandlerMode:
  91              	.LFB130:
 169:../Middlewares/FreeRTOS//Source/CMSIS_RTOS/cmsis_os.c **** #endif
 170:../Middlewares/FreeRTOS//Source/CMSIS_RTOS/cmsis_os.c **** 
 171:../Middlewares/FreeRTOS//Source/CMSIS_RTOS/cmsis_os.c **** 
 172:../Middlewares/FreeRTOS//Source/CMSIS_RTOS/cmsis_os.c **** /* Determine whether we are in thread mode or handler mode. */
 173:../Middlewares/FreeRTOS//Source/CMSIS_RTOS/cmsis_os.c **** static int inHandlerMode (void)
 174:../Middlewares/FreeRTOS//Source/CMSIS_RTOS/cmsis_os.c **** {
  92              		.loc 1 174 0
  93              		.cfi_startproc
  94              		@ args = 0, pretend = 0, frame = 0
  95              		@ frame_needed = 0, uses_anonymous_args = 0
  96              		@ link register save eliminated.
  97              	.LBB8:
  98              	.LBB9:
  99              		.file 2 "../Libraries/CMSIS/CM4/CoreSupport/cmsis_gcc.h"
   1:../Libraries/CMSIS/CM4/CoreSupport/cmsis_gcc.h **** /**************************************************************************//**
   2:../Libraries/CMSIS/CM4/CoreSupport/cmsis_gcc.h ****  * @file     cmsis_gcc.h
   3:../Libraries/CMSIS/CM4/CoreSupport/cmsis_gcc.h ****  * @brief    CMSIS Cortex-M Core Function/Instruction Header File
   4:../Libraries/CMSIS/CM4/CoreSupport/cmsis_gcc.h ****  * @version  V4.30
   5:../Libraries/CMSIS/CM4/CoreSupport/cmsis_gcc.h ****  * @date     20. October 2015
   6:../Libraries/CMSIS/CM4/CoreSupport/cmsis_gcc.h ****  ******************************************************************************/
   7:../Libraries/CMSIS/CM4/CoreSupport/cmsis_gcc.h **** /* Copyright (c) 2009 - 2015 ARM LIMITED
   8:../Libraries/CMSIS/CM4/CoreSupport/cmsis_gcc.h **** 
   9:../Libraries/CMSIS/CM4/CoreSupport/cmsis_gcc.h ****    All rights reserved.
  10:../Libraries/CMSIS/CM4/CoreSupport/cmsis_gcc.h ****    Redistribution and use in source and binary forms, with or without
  11:../Libraries/CMSIS/CM4/CoreSupport/cmsis_gcc.h ****    modification, are permitted provided that the following conditions are met:
  12:../Libraries/CMSIS/CM4/CoreSupport/cmsis_gcc.h ****    - Redistributions of source code must retain the above copyright
  13:../Libraries/CMSIS/CM4/CoreSupport/cmsis_gcc.h ****      notice, this list of conditions and the following disclaimer.
  14:../Libraries/CMSIS/CM4/CoreSupport/cmsis_gcc.h ****    - Redistributions in binary form must reproduce the above copyright
  15:../Libraries/CMSIS/CM4/CoreSupport/cmsis_gcc.h ****      notice, this list of conditions and the following disclaimer in the
ARM GAS  /var/folders/l3/4y5292px21b4835bsnjwqc7w009kq1/T//ccUQPhZJ.s 			page 6


  16:../Libraries/CMSIS/CM4/CoreSupport/cmsis_gcc.h ****      documentation and/or other materials provided with the distribution.
  17:../Libraries/CMSIS/CM4/CoreSupport/cmsis_gcc.h ****    - Neither the name of ARM nor the names of its contributors may be used
  18:../Libraries/CMSIS/CM4/CoreSupport/cmsis_gcc.h ****      to endorse or promote products derived from this software without
  19:../Libraries/CMSIS/CM4/CoreSupport/cmsis_gcc.h ****      specific prior written permission.
  20:../Libraries/CMSIS/CM4/CoreSupport/cmsis_gcc.h ****    *
  21:../Libraries/CMSIS/CM4/CoreSupport/cmsis_gcc.h ****    THIS SOFTWARE IS PROVIDED BY THE COPYRIGHT HOLDERS AND CONTRIBUTORS "AS IS"
  22:../Libraries/CMSIS/CM4/CoreSupport/cmsis_gcc.h ****    AND ANY EXPRESS OR IMPLIED WARRANTIES, INCLUDING, BUT NOT LIMITED TO, THE
  23:../Libraries/CMSIS/CM4/CoreSupport/cmsis_gcc.h ****    IMPLIED WARRANTIES OF MERCHANTABILITY AND FITNESS FOR A PARTICULAR PURPOSE
  24:../Libraries/CMSIS/CM4/CoreSupport/cmsis_gcc.h ****    ARE DISCLAIMED. IN NO EVENT SHALL COPYRIGHT HOLDERS AND CONTRIBUTORS BE
  25:../Libraries/CMSIS/CM4/CoreSupport/cmsis_gcc.h ****    LIABLE FOR ANY DIRECT, INDIRECT, INCIDENTAL, SPECIAL, EXEMPLARY, OR
  26:../Libraries/CMSIS/CM4/CoreSupport/cmsis_gcc.h ****    CONSEQUENTIAL DAMAGES (INCLUDING, BUT NOT LIMITED TO, PROCUREMENT OF
  27:../Libraries/CMSIS/CM4/CoreSupport/cmsis_gcc.h ****    SUBSTITUTE GOODS OR SERVICES; LOSS OF USE, DATA, OR PROFITS; OR BUSINESS
  28:../Libraries/CMSIS/CM4/CoreSupport/cmsis_gcc.h ****    INTERRUPTION) HOWEVER CAUSED AND ON ANY THEORY OF LIABILITY, WHETHER IN
  29:../Libraries/CMSIS/CM4/CoreSupport/cmsis_gcc.h ****    CONTRACT, STRICT LIABILITY, OR TORT (INCLUDING NEGLIGENCE OR OTHERWISE)
  30:../Libraries/CMSIS/CM4/CoreSupport/cmsis_gcc.h ****    ARISING IN ANY WAY OUT OF THE USE OF THIS SOFTWARE, EVEN IF ADVISED OF THE
  31:../Libraries/CMSIS/CM4/CoreSupport/cmsis_gcc.h ****    POSSIBILITY OF SUCH DAMAGE.
  32:../Libraries/CMSIS/CM4/CoreSupport/cmsis_gcc.h ****    ---------------------------------------------------------------------------*/
  33:../Libraries/CMSIS/CM4/CoreSupport/cmsis_gcc.h **** 
  34:../Libraries/CMSIS/CM4/CoreSupport/cmsis_gcc.h **** 
  35:../Libraries/CMSIS/CM4/CoreSupport/cmsis_gcc.h **** #ifndef __CMSIS_GCC_H
  36:../Libraries/CMSIS/CM4/CoreSupport/cmsis_gcc.h **** #define __CMSIS_GCC_H
  37:../Libraries/CMSIS/CM4/CoreSupport/cmsis_gcc.h **** 
  38:../Libraries/CMSIS/CM4/CoreSupport/cmsis_gcc.h **** /* ignore some GCC warnings */
  39:../Libraries/CMSIS/CM4/CoreSupport/cmsis_gcc.h **** #if defined ( __GNUC__ )
  40:../Libraries/CMSIS/CM4/CoreSupport/cmsis_gcc.h **** #pragma GCC diagnostic push
  41:../Libraries/CMSIS/CM4/CoreSupport/cmsis_gcc.h **** #pragma GCC diagnostic ignored "-Wsign-conversion"
  42:../Libraries/CMSIS/CM4/CoreSupport/cmsis_gcc.h **** #pragma GCC diagnostic ignored "-Wconversion"
  43:../Libraries/CMSIS/CM4/CoreSupport/cmsis_gcc.h **** #pragma GCC diagnostic ignored "-Wunused-parameter"
  44:../Libraries/CMSIS/CM4/CoreSupport/cmsis_gcc.h **** #endif
  45:../Libraries/CMSIS/CM4/CoreSupport/cmsis_gcc.h **** 
  46:../Libraries/CMSIS/CM4/CoreSupport/cmsis_gcc.h **** 
  47:../Libraries/CMSIS/CM4/CoreSupport/cmsis_gcc.h **** /* ###########################  Core Function Access  ########################### */
  48:../Libraries/CMSIS/CM4/CoreSupport/cmsis_gcc.h **** /** \ingroup  CMSIS_Core_FunctionInterface
  49:../Libraries/CMSIS/CM4/CoreSupport/cmsis_gcc.h ****     \defgroup CMSIS_Core_RegAccFunctions CMSIS Core Register Access Functions
  50:../Libraries/CMSIS/CM4/CoreSupport/cmsis_gcc.h ****   @{
  51:../Libraries/CMSIS/CM4/CoreSupport/cmsis_gcc.h ****  */
  52:../Libraries/CMSIS/CM4/CoreSupport/cmsis_gcc.h **** 
  53:../Libraries/CMSIS/CM4/CoreSupport/cmsis_gcc.h **** /**
  54:../Libraries/CMSIS/CM4/CoreSupport/cmsis_gcc.h ****   \brief   Enable IRQ Interrupts
  55:../Libraries/CMSIS/CM4/CoreSupport/cmsis_gcc.h ****   \details Enables IRQ interrupts by clearing the I-bit in the CPSR.
  56:../Libraries/CMSIS/CM4/CoreSupport/cmsis_gcc.h ****            Can only be executed in Privileged modes.
  57:../Libraries/CMSIS/CM4/CoreSupport/cmsis_gcc.h ****  */
  58:../Libraries/CMSIS/CM4/CoreSupport/cmsis_gcc.h **** __attribute__( ( always_inline ) ) __STATIC_INLINE void __enable_irq(void)
  59:../Libraries/CMSIS/CM4/CoreSupport/cmsis_gcc.h **** {
  60:../Libraries/CMSIS/CM4/CoreSupport/cmsis_gcc.h ****   __ASM volatile ("cpsie i" : : : "memory");
  61:../Libraries/CMSIS/CM4/CoreSupport/cmsis_gcc.h **** }
  62:../Libraries/CMSIS/CM4/CoreSupport/cmsis_gcc.h **** 
  63:../Libraries/CMSIS/CM4/CoreSupport/cmsis_gcc.h **** 
  64:../Libraries/CMSIS/CM4/CoreSupport/cmsis_gcc.h **** /**
  65:../Libraries/CMSIS/CM4/CoreSupport/cmsis_gcc.h ****   \brief   Disable IRQ Interrupts
  66:../Libraries/CMSIS/CM4/CoreSupport/cmsis_gcc.h ****   \details Disables IRQ interrupts by setting the I-bit in the CPSR.
  67:../Libraries/CMSIS/CM4/CoreSupport/cmsis_gcc.h ****   Can only be executed in Privileged modes.
  68:../Libraries/CMSIS/CM4/CoreSupport/cmsis_gcc.h ****  */
  69:../Libraries/CMSIS/CM4/CoreSupport/cmsis_gcc.h **** __attribute__( ( always_inline ) ) __STATIC_INLINE void __disable_irq(void)
  70:../Libraries/CMSIS/CM4/CoreSupport/cmsis_gcc.h **** {
  71:../Libraries/CMSIS/CM4/CoreSupport/cmsis_gcc.h ****   __ASM volatile ("cpsid i" : : : "memory");
  72:../Libraries/CMSIS/CM4/CoreSupport/cmsis_gcc.h **** }
ARM GAS  /var/folders/l3/4y5292px21b4835bsnjwqc7w009kq1/T//ccUQPhZJ.s 			page 7


  73:../Libraries/CMSIS/CM4/CoreSupport/cmsis_gcc.h **** 
  74:../Libraries/CMSIS/CM4/CoreSupport/cmsis_gcc.h **** 
  75:../Libraries/CMSIS/CM4/CoreSupport/cmsis_gcc.h **** /**
  76:../Libraries/CMSIS/CM4/CoreSupport/cmsis_gcc.h ****   \brief   Get Control Register
  77:../Libraries/CMSIS/CM4/CoreSupport/cmsis_gcc.h ****   \details Returns the content of the Control Register.
  78:../Libraries/CMSIS/CM4/CoreSupport/cmsis_gcc.h ****   \return               Control Register value
  79:../Libraries/CMSIS/CM4/CoreSupport/cmsis_gcc.h ****  */
  80:../Libraries/CMSIS/CM4/CoreSupport/cmsis_gcc.h **** __attribute__( ( always_inline ) ) __STATIC_INLINE uint32_t __get_CONTROL(void)
  81:../Libraries/CMSIS/CM4/CoreSupport/cmsis_gcc.h **** {
  82:../Libraries/CMSIS/CM4/CoreSupport/cmsis_gcc.h ****   uint32_t result;
  83:../Libraries/CMSIS/CM4/CoreSupport/cmsis_gcc.h **** 
  84:../Libraries/CMSIS/CM4/CoreSupport/cmsis_gcc.h ****   __ASM volatile ("MRS %0, control" : "=r" (result) );
  85:../Libraries/CMSIS/CM4/CoreSupport/cmsis_gcc.h ****   return(result);
  86:../Libraries/CMSIS/CM4/CoreSupport/cmsis_gcc.h **** }
  87:../Libraries/CMSIS/CM4/CoreSupport/cmsis_gcc.h **** 
  88:../Libraries/CMSIS/CM4/CoreSupport/cmsis_gcc.h **** 
  89:../Libraries/CMSIS/CM4/CoreSupport/cmsis_gcc.h **** /**
  90:../Libraries/CMSIS/CM4/CoreSupport/cmsis_gcc.h ****   \brief   Set Control Register
  91:../Libraries/CMSIS/CM4/CoreSupport/cmsis_gcc.h ****   \details Writes the given value to the Control Register.
  92:../Libraries/CMSIS/CM4/CoreSupport/cmsis_gcc.h ****   \param [in]    control  Control Register value to set
  93:../Libraries/CMSIS/CM4/CoreSupport/cmsis_gcc.h ****  */
  94:../Libraries/CMSIS/CM4/CoreSupport/cmsis_gcc.h **** __attribute__( ( always_inline ) ) __STATIC_INLINE void __set_CONTROL(uint32_t control)
  95:../Libraries/CMSIS/CM4/CoreSupport/cmsis_gcc.h **** {
  96:../Libraries/CMSIS/CM4/CoreSupport/cmsis_gcc.h ****   __ASM volatile ("MSR control, %0" : : "r" (control) : "memory");
  97:../Libraries/CMSIS/CM4/CoreSupport/cmsis_gcc.h **** }
  98:../Libraries/CMSIS/CM4/CoreSupport/cmsis_gcc.h **** 
  99:../Libraries/CMSIS/CM4/CoreSupport/cmsis_gcc.h **** 
 100:../Libraries/CMSIS/CM4/CoreSupport/cmsis_gcc.h **** /**
 101:../Libraries/CMSIS/CM4/CoreSupport/cmsis_gcc.h ****   \brief   Get IPSR Register
 102:../Libraries/CMSIS/CM4/CoreSupport/cmsis_gcc.h ****   \details Returns the content of the IPSR Register.
 103:../Libraries/CMSIS/CM4/CoreSupport/cmsis_gcc.h ****   \return               IPSR Register value
 104:../Libraries/CMSIS/CM4/CoreSupport/cmsis_gcc.h ****  */
 105:../Libraries/CMSIS/CM4/CoreSupport/cmsis_gcc.h **** __attribute__( ( always_inline ) ) __STATIC_INLINE uint32_t __get_IPSR(void)
 106:../Libraries/CMSIS/CM4/CoreSupport/cmsis_gcc.h **** {
 107:../Libraries/CMSIS/CM4/CoreSupport/cmsis_gcc.h ****   uint32_t result;
 108:../Libraries/CMSIS/CM4/CoreSupport/cmsis_gcc.h **** 
 109:../Libraries/CMSIS/CM4/CoreSupport/cmsis_gcc.h ****   __ASM volatile ("MRS %0, ipsr" : "=r" (result) );
 100              		.loc 2 109 0
 101              		.syntax unified
 102              	@ 109 "../Libraries/CMSIS/CM4/CoreSupport/cmsis_gcc.h" 1
 103 0000 EFF30580 		MRS r0, ipsr
 104              	@ 0 "" 2
 105              		.thumb
 106              		.syntax unified
 107              	.LBE9:
 108              	.LBE8:
 175:../Middlewares/FreeRTOS//Source/CMSIS_RTOS/cmsis_os.c ****   return __get_IPSR() != 0;
 176:../Middlewares/FreeRTOS//Source/CMSIS_RTOS/cmsis_os.c **** }
 109              		.loc 1 176 0
 110 0004 0030     		adds	r0, r0, #0
 111 0006 18BF     		it	ne
 112 0008 0120     		movne	r0, #1
 113 000a 7047     		bx	lr
 114              		.cfi_endproc
 115              	.LFE130:
 117              		.section	.text.osKernelStart,"ax",%progbits
 118              		.align	1
ARM GAS  /var/folders/l3/4y5292px21b4835bsnjwqc7w009kq1/T//ccUQPhZJ.s 			page 8


 119              		.global	osKernelStart
 120              		.syntax unified
 121              		.thumb
 122              		.thumb_func
 123              		.fpu fpv4-sp-d16
 125              	osKernelStart:
 126              	.LFB131:
 177:../Middlewares/FreeRTOS//Source/CMSIS_RTOS/cmsis_os.c **** 
 178:../Middlewares/FreeRTOS//Source/CMSIS_RTOS/cmsis_os.c **** /*********************** Kernel Control Functions *****************************/
 179:../Middlewares/FreeRTOS//Source/CMSIS_RTOS/cmsis_os.c **** /**
 180:../Middlewares/FreeRTOS//Source/CMSIS_RTOS/cmsis_os.c **** * @brief  Initialize the RTOS Kernel for creating objects.
 181:../Middlewares/FreeRTOS//Source/CMSIS_RTOS/cmsis_os.c **** * @retval status code that indicates the execution status of the function.
 182:../Middlewares/FreeRTOS//Source/CMSIS_RTOS/cmsis_os.c **** * @note   MUST REMAIN UNCHANGED: \b osKernelInitialize shall be consistent in every CMSIS-RTOS.
 183:../Middlewares/FreeRTOS//Source/CMSIS_RTOS/cmsis_os.c **** */
 184:../Middlewares/FreeRTOS//Source/CMSIS_RTOS/cmsis_os.c **** osStatus osKernelInitialize (void);
 185:../Middlewares/FreeRTOS//Source/CMSIS_RTOS/cmsis_os.c **** 
 186:../Middlewares/FreeRTOS//Source/CMSIS_RTOS/cmsis_os.c **** /**
 187:../Middlewares/FreeRTOS//Source/CMSIS_RTOS/cmsis_os.c **** * @brief  Start the RTOS Kernel with executing the specified thread.
 188:../Middlewares/FreeRTOS//Source/CMSIS_RTOS/cmsis_os.c **** * @param  thread_def    thread definition referenced with \ref osThread.
 189:../Middlewares/FreeRTOS//Source/CMSIS_RTOS/cmsis_os.c **** * @param  argument      pointer that is passed to the thread function as start argument.
 190:../Middlewares/FreeRTOS//Source/CMSIS_RTOS/cmsis_os.c **** * @retval status code that indicates the execution status of the function
 191:../Middlewares/FreeRTOS//Source/CMSIS_RTOS/cmsis_os.c **** * @note   MUST REMAIN UNCHANGED: \b osKernelStart shall be consistent in every CMSIS-RTOS.
 192:../Middlewares/FreeRTOS//Source/CMSIS_RTOS/cmsis_os.c **** */
 193:../Middlewares/FreeRTOS//Source/CMSIS_RTOS/cmsis_os.c **** osStatus osKernelStart (void)
 194:../Middlewares/FreeRTOS//Source/CMSIS_RTOS/cmsis_os.c **** {
 127              		.loc 1 194 0
 128              		.cfi_startproc
 129              		@ args = 0, pretend = 0, frame = 0
 130              		@ frame_needed = 0, uses_anonymous_args = 0
 131 0000 08B5     		push	{r3, lr}
 132              	.LCFI0:
 133              		.cfi_def_cfa_offset 8
 134              		.cfi_offset 3, -8
 135              		.cfi_offset 14, -4
 195:../Middlewares/FreeRTOS//Source/CMSIS_RTOS/cmsis_os.c ****   vTaskStartScheduler();
 136              		.loc 1 195 0
 137 0002 FFF7FEFF 		bl	vTaskStartScheduler
 138              	.LVL9:
 196:../Middlewares/FreeRTOS//Source/CMSIS_RTOS/cmsis_os.c ****   
 197:../Middlewares/FreeRTOS//Source/CMSIS_RTOS/cmsis_os.c ****   return osOK;
 198:../Middlewares/FreeRTOS//Source/CMSIS_RTOS/cmsis_os.c **** }
 139              		.loc 1 198 0
 140 0006 0020     		movs	r0, #0
 141 0008 08BD     		pop	{r3, pc}
 142              		.cfi_endproc
 143              	.LFE131:
 145              		.section	.text.osKernelRunning,"ax",%progbits
 146              		.align	1
 147              		.global	osKernelRunning
 148              		.syntax unified
 149              		.thumb
 150              		.thumb_func
 151              		.fpu fpv4-sp-d16
 153              	osKernelRunning:
 154              	.LFB132:
 199:../Middlewares/FreeRTOS//Source/CMSIS_RTOS/cmsis_os.c **** 
 200:../Middlewares/FreeRTOS//Source/CMSIS_RTOS/cmsis_os.c **** /**
ARM GAS  /var/folders/l3/4y5292px21b4835bsnjwqc7w009kq1/T//ccUQPhZJ.s 			page 9


 201:../Middlewares/FreeRTOS//Source/CMSIS_RTOS/cmsis_os.c **** * @brief  Check if the RTOS kernel is already started
 202:../Middlewares/FreeRTOS//Source/CMSIS_RTOS/cmsis_os.c **** * @param  None
 203:../Middlewares/FreeRTOS//Source/CMSIS_RTOS/cmsis_os.c **** * @retval (0) RTOS is not started
 204:../Middlewares/FreeRTOS//Source/CMSIS_RTOS/cmsis_os.c **** *         (1) RTOS is started
 205:../Middlewares/FreeRTOS//Source/CMSIS_RTOS/cmsis_os.c **** *         (-1) if this feature is disabled in FreeRTOSConfig.h 
 206:../Middlewares/FreeRTOS//Source/CMSIS_RTOS/cmsis_os.c **** * @note  MUST REMAIN UNCHANGED: \b osKernelRunning shall be consistent in every CMSIS-RTOS.
 207:../Middlewares/FreeRTOS//Source/CMSIS_RTOS/cmsis_os.c **** */
 208:../Middlewares/FreeRTOS//Source/CMSIS_RTOS/cmsis_os.c **** int32_t osKernelRunning(void)
 209:../Middlewares/FreeRTOS//Source/CMSIS_RTOS/cmsis_os.c **** {
 155              		.loc 1 209 0
 156              		.cfi_startproc
 157              		@ args = 0, pretend = 0, frame = 0
 158              		@ frame_needed = 0, uses_anonymous_args = 0
 159 0000 08B5     		push	{r3, lr}
 160              	.LCFI1:
 161              		.cfi_def_cfa_offset 8
 162              		.cfi_offset 3, -8
 163              		.cfi_offset 14, -4
 210:../Middlewares/FreeRTOS//Source/CMSIS_RTOS/cmsis_os.c **** #if ( ( INCLUDE_xTaskGetSchedulerState == 1 ) || ( configUSE_TIMERS == 1 ) )
 211:../Middlewares/FreeRTOS//Source/CMSIS_RTOS/cmsis_os.c ****   if (xTaskGetSchedulerState() == taskSCHEDULER_NOT_STARTED)
 164              		.loc 1 211 0
 165 0002 FFF7FEFF 		bl	xTaskGetSchedulerState
 166              	.LVL10:
 167 0006 0128     		cmp	r0, #1
 168 0008 01D0     		beq	.L14
 212:../Middlewares/FreeRTOS//Source/CMSIS_RTOS/cmsis_os.c ****     return 0;
 213:../Middlewares/FreeRTOS//Source/CMSIS_RTOS/cmsis_os.c ****   else
 214:../Middlewares/FreeRTOS//Source/CMSIS_RTOS/cmsis_os.c ****     return 1;
 169              		.loc 1 214 0
 170 000a 0120     		movs	r0, #1
 171              	.L10:
 215:../Middlewares/FreeRTOS//Source/CMSIS_RTOS/cmsis_os.c **** #else
 216:../Middlewares/FreeRTOS//Source/CMSIS_RTOS/cmsis_os.c **** 	return (-1);
 217:../Middlewares/FreeRTOS//Source/CMSIS_RTOS/cmsis_os.c **** #endif	
 218:../Middlewares/FreeRTOS//Source/CMSIS_RTOS/cmsis_os.c **** }
 172              		.loc 1 218 0
 173 000c 08BD     		pop	{r3, pc}
 174              	.L14:
 212:../Middlewares/FreeRTOS//Source/CMSIS_RTOS/cmsis_os.c ****     return 0;
 175              		.loc 1 212 0
 176 000e 0020     		movs	r0, #0
 177 0010 FCE7     		b	.L10
 178              		.cfi_endproc
 179              	.LFE132:
 181              		.section	.text.osKernelSysTick,"ax",%progbits
 182              		.align	1
 183              		.global	osKernelSysTick
 184              		.syntax unified
 185              		.thumb
 186              		.thumb_func
 187              		.fpu fpv4-sp-d16
 189              	osKernelSysTick:
 190              	.LFB133:
 219:../Middlewares/FreeRTOS//Source/CMSIS_RTOS/cmsis_os.c **** 
 220:../Middlewares/FreeRTOS//Source/CMSIS_RTOS/cmsis_os.c **** #if (defined (osFeature_SysTick)  &&  (osFeature_SysTick != 0))     // System Timer available
 221:../Middlewares/FreeRTOS//Source/CMSIS_RTOS/cmsis_os.c **** /**
 222:../Middlewares/FreeRTOS//Source/CMSIS_RTOS/cmsis_os.c **** * @brief  Get the value of the Kernel SysTick timer
ARM GAS  /var/folders/l3/4y5292px21b4835bsnjwqc7w009kq1/T//ccUQPhZJ.s 			page 10


 223:../Middlewares/FreeRTOS//Source/CMSIS_RTOS/cmsis_os.c **** * @param  None
 224:../Middlewares/FreeRTOS//Source/CMSIS_RTOS/cmsis_os.c **** * @retval None
 225:../Middlewares/FreeRTOS//Source/CMSIS_RTOS/cmsis_os.c **** * @note   MUST REMAIN UNCHANGED: \b osKernelSysTick shall be consistent in every CMSIS-RTOS.
 226:../Middlewares/FreeRTOS//Source/CMSIS_RTOS/cmsis_os.c **** */
 227:../Middlewares/FreeRTOS//Source/CMSIS_RTOS/cmsis_os.c **** uint32_t osKernelSysTick(void)
 228:../Middlewares/FreeRTOS//Source/CMSIS_RTOS/cmsis_os.c **** {
 191              		.loc 1 228 0
 192              		.cfi_startproc
 193              		@ args = 0, pretend = 0, frame = 0
 194              		@ frame_needed = 0, uses_anonymous_args = 0
 195 0000 08B5     		push	{r3, lr}
 196              	.LCFI2:
 197              		.cfi_def_cfa_offset 8
 198              		.cfi_offset 3, -8
 199              		.cfi_offset 14, -4
 229:../Middlewares/FreeRTOS//Source/CMSIS_RTOS/cmsis_os.c ****   if (inHandlerMode()) {
 200              		.loc 1 229 0
 201 0002 FFF7FEFF 		bl	inHandlerMode
 202              	.LVL11:
 203 0006 10B9     		cbnz	r0, .L19
 230:../Middlewares/FreeRTOS//Source/CMSIS_RTOS/cmsis_os.c ****     return xTaskGetTickCountFromISR();
 231:../Middlewares/FreeRTOS//Source/CMSIS_RTOS/cmsis_os.c ****   }
 232:../Middlewares/FreeRTOS//Source/CMSIS_RTOS/cmsis_os.c ****   else {
 233:../Middlewares/FreeRTOS//Source/CMSIS_RTOS/cmsis_os.c ****     return xTaskGetTickCount();
 204              		.loc 1 233 0
 205 0008 FFF7FEFF 		bl	xTaskGetTickCount
 206              	.LVL12:
 207              	.L15:
 234:../Middlewares/FreeRTOS//Source/CMSIS_RTOS/cmsis_os.c ****   }
 235:../Middlewares/FreeRTOS//Source/CMSIS_RTOS/cmsis_os.c **** }
 208              		.loc 1 235 0
 209 000c 08BD     		pop	{r3, pc}
 210              	.L19:
 230:../Middlewares/FreeRTOS//Source/CMSIS_RTOS/cmsis_os.c ****     return xTaskGetTickCountFromISR();
 211              		.loc 1 230 0
 212 000e FFF7FEFF 		bl	xTaskGetTickCountFromISR
 213              	.LVL13:
 214 0012 FBE7     		b	.L15
 215              		.cfi_endproc
 216              	.LFE133:
 218              		.section	.text.osThreadCreate,"ax",%progbits
 219              		.align	1
 220              		.global	osThreadCreate
 221              		.syntax unified
 222              		.thumb
 223              		.thumb_func
 224              		.fpu fpv4-sp-d16
 226              	osThreadCreate:
 227              	.LFB134:
 236:../Middlewares/FreeRTOS//Source/CMSIS_RTOS/cmsis_os.c **** #endif    // System Timer available
 237:../Middlewares/FreeRTOS//Source/CMSIS_RTOS/cmsis_os.c **** /*********************** Thread Management *****************************/
 238:../Middlewares/FreeRTOS//Source/CMSIS_RTOS/cmsis_os.c **** /**
 239:../Middlewares/FreeRTOS//Source/CMSIS_RTOS/cmsis_os.c **** * @brief  Create a thread and add it to Active Threads and set it to state READY.
 240:../Middlewares/FreeRTOS//Source/CMSIS_RTOS/cmsis_os.c **** * @param  thread_def    thread definition referenced with \ref osThread.
 241:../Middlewares/FreeRTOS//Source/CMSIS_RTOS/cmsis_os.c **** * @param  argument      pointer that is passed to the thread function as start argument.
 242:../Middlewares/FreeRTOS//Source/CMSIS_RTOS/cmsis_os.c **** * @retval thread ID for reference by other functions or NULL in case of error.
 243:../Middlewares/FreeRTOS//Source/CMSIS_RTOS/cmsis_os.c **** * @note   MUST REMAIN UNCHANGED: \b osThreadCreate shall be consistent in every CMSIS-RTOS.
ARM GAS  /var/folders/l3/4y5292px21b4835bsnjwqc7w009kq1/T//ccUQPhZJ.s 			page 11


 244:../Middlewares/FreeRTOS//Source/CMSIS_RTOS/cmsis_os.c **** */
 245:../Middlewares/FreeRTOS//Source/CMSIS_RTOS/cmsis_os.c **** osThreadId osThreadCreate (const osThreadDef_t *thread_def, void *argument)
 246:../Middlewares/FreeRTOS//Source/CMSIS_RTOS/cmsis_os.c **** {
 228              		.loc 1 246 0
 229              		.cfi_startproc
 230              		@ args = 0, pretend = 0, frame = 8
 231              		@ frame_needed = 0, uses_anonymous_args = 0
 232              	.LVL14:
 233 0000 F0B5     		push	{r4, r5, r6, r7, lr}
 234              	.LCFI3:
 235              		.cfi_def_cfa_offset 20
 236              		.cfi_offset 4, -20
 237              		.cfi_offset 5, -16
 238              		.cfi_offset 6, -12
 239              		.cfi_offset 7, -8
 240              		.cfi_offset 14, -4
 241 0002 85B0     		sub	sp, sp, #20
 242              	.LCFI4:
 243              		.cfi_def_cfa_offset 40
 244 0004 0F46     		mov	r7, r1
 247:../Middlewares/FreeRTOS//Source/CMSIS_RTOS/cmsis_os.c ****   TaskHandle_t handle;
 248:../Middlewares/FreeRTOS//Source/CMSIS_RTOS/cmsis_os.c ****   
 249:../Middlewares/FreeRTOS//Source/CMSIS_RTOS/cmsis_os.c **** #if( configSUPPORT_STATIC_ALLOCATION == 1 ) &&  ( configSUPPORT_DYNAMIC_ALLOCATION == 1 )
 250:../Middlewares/FreeRTOS//Source/CMSIS_RTOS/cmsis_os.c ****   if((thread_def->buffer != NULL) && (thread_def->controlblock != NULL)) {
 251:../Middlewares/FreeRTOS//Source/CMSIS_RTOS/cmsis_os.c ****     handle = xTaskCreateStatic((TaskFunction_t)thread_def->pthread,(const portCHAR *)thread_def->na
 252:../Middlewares/FreeRTOS//Source/CMSIS_RTOS/cmsis_os.c ****               thread_def->stacksize, argument, makeFreeRtosPriority(thread_def->tpriority),
 253:../Middlewares/FreeRTOS//Source/CMSIS_RTOS/cmsis_os.c ****               thread_def->buffer, thread_def->controlblock);
 254:../Middlewares/FreeRTOS//Source/CMSIS_RTOS/cmsis_os.c ****   }
 255:../Middlewares/FreeRTOS//Source/CMSIS_RTOS/cmsis_os.c ****   else {
 256:../Middlewares/FreeRTOS//Source/CMSIS_RTOS/cmsis_os.c ****     if (xTaskCreate((TaskFunction_t)thread_def->pthread,(const portCHAR *)thread_def->name,
 257:../Middlewares/FreeRTOS//Source/CMSIS_RTOS/cmsis_os.c ****               thread_def->stacksize, argument, makeFreeRtosPriority(thread_def->tpriority),
 258:../Middlewares/FreeRTOS//Source/CMSIS_RTOS/cmsis_os.c ****               &handle) != pdPASS)  {
 259:../Middlewares/FreeRTOS//Source/CMSIS_RTOS/cmsis_os.c ****       return NULL;
 260:../Middlewares/FreeRTOS//Source/CMSIS_RTOS/cmsis_os.c ****     } 
 261:../Middlewares/FreeRTOS//Source/CMSIS_RTOS/cmsis_os.c ****   }
 262:../Middlewares/FreeRTOS//Source/CMSIS_RTOS/cmsis_os.c **** #elif( configSUPPORT_STATIC_ALLOCATION == 1 )
 263:../Middlewares/FreeRTOS//Source/CMSIS_RTOS/cmsis_os.c **** 
 264:../Middlewares/FreeRTOS//Source/CMSIS_RTOS/cmsis_os.c ****     handle = xTaskCreateStatic((TaskFunction_t)thread_def->pthread,(const portCHAR *)thread_def->na
 265:../Middlewares/FreeRTOS//Source/CMSIS_RTOS/cmsis_os.c ****               thread_def->stacksize, argument, makeFreeRtosPriority(thread_def->tpriority),
 266:../Middlewares/FreeRTOS//Source/CMSIS_RTOS/cmsis_os.c ****               thread_def->buffer, thread_def->controlblock);
 267:../Middlewares/FreeRTOS//Source/CMSIS_RTOS/cmsis_os.c **** #else
 268:../Middlewares/FreeRTOS//Source/CMSIS_RTOS/cmsis_os.c ****   if (xTaskCreate((TaskFunction_t)thread_def->pthread,(const portCHAR *)thread_def->name,
 245              		.loc 1 268 0
 246 0006 4468     		ldr	r4, [r0, #4]
 247 0008 0568     		ldr	r5, [r0]
 269:../Middlewares/FreeRTOS//Source/CMSIS_RTOS/cmsis_os.c ****                    thread_def->stacksize, argument, makeFreeRtosPriority(thread_def->tpriority),
 248              		.loc 1 269 0
 249 000a 0669     		ldr	r6, [r0, #16]
 268:../Middlewares/FreeRTOS//Source/CMSIS_RTOS/cmsis_os.c ****                    thread_def->stacksize, argument, makeFreeRtosPriority(thread_def->tpriority),
 250              		.loc 1 268 0
 251 000c B0F90800 		ldrsh	r0, [r0, #8]
 252              	.LVL15:
 253 0010 FFF7FEFF 		bl	makeFreeRtosPriority
 254              	.LVL16:
 255 0014 03AB     		add	r3, sp, #12
 256 0016 0193     		str	r3, [sp, #4]
 257 0018 0090     		str	r0, [sp]
ARM GAS  /var/folders/l3/4y5292px21b4835bsnjwqc7w009kq1/T//ccUQPhZJ.s 			page 12


 258 001a 3B46     		mov	r3, r7
 259 001c B2B2     		uxth	r2, r6
 260 001e 2946     		mov	r1, r5
 261 0020 2046     		mov	r0, r4
 262 0022 FFF7FEFF 		bl	xTaskCreate
 263              	.LVL17:
 264 0026 0128     		cmp	r0, #1
 265 0028 02D1     		bne	.L22
 270:../Middlewares/FreeRTOS//Source/CMSIS_RTOS/cmsis_os.c ****                    &handle) != pdPASS)  {
 271:../Middlewares/FreeRTOS//Source/CMSIS_RTOS/cmsis_os.c ****     return NULL;
 272:../Middlewares/FreeRTOS//Source/CMSIS_RTOS/cmsis_os.c ****   }     
 273:../Middlewares/FreeRTOS//Source/CMSIS_RTOS/cmsis_os.c **** #endif
 274:../Middlewares/FreeRTOS//Source/CMSIS_RTOS/cmsis_os.c ****   
 275:../Middlewares/FreeRTOS//Source/CMSIS_RTOS/cmsis_os.c ****   return handle;
 266              		.loc 1 275 0
 267 002a 0398     		ldr	r0, [sp, #12]
 268              	.L20:
 276:../Middlewares/FreeRTOS//Source/CMSIS_RTOS/cmsis_os.c **** }
 269              		.loc 1 276 0
 270 002c 05B0     		add	sp, sp, #20
 271              	.LCFI5:
 272              		.cfi_remember_state
 273              		.cfi_def_cfa_offset 20
 274              		@ sp needed
 275 002e F0BD     		pop	{r4, r5, r6, r7, pc}
 276              	.LVL18:
 277              	.L22:
 278              	.LCFI6:
 279              		.cfi_restore_state
 271:../Middlewares/FreeRTOS//Source/CMSIS_RTOS/cmsis_os.c ****   }     
 280              		.loc 1 271 0
 281 0030 0020     		movs	r0, #0
 282 0032 FBE7     		b	.L20
 283              		.cfi_endproc
 284              	.LFE134:
 286              		.section	.text.osThreadGetId,"ax",%progbits
 287              		.align	1
 288              		.global	osThreadGetId
 289              		.syntax unified
 290              		.thumb
 291              		.thumb_func
 292              		.fpu fpv4-sp-d16
 294              	osThreadGetId:
 295              	.LFB135:
 277:../Middlewares/FreeRTOS//Source/CMSIS_RTOS/cmsis_os.c **** 
 278:../Middlewares/FreeRTOS//Source/CMSIS_RTOS/cmsis_os.c **** /**
 279:../Middlewares/FreeRTOS//Source/CMSIS_RTOS/cmsis_os.c **** * @brief  Return the thread ID of the current running thread.
 280:../Middlewares/FreeRTOS//Source/CMSIS_RTOS/cmsis_os.c **** * @retval thread ID for reference by other functions or NULL in case of error.
 281:../Middlewares/FreeRTOS//Source/CMSIS_RTOS/cmsis_os.c **** * @note   MUST REMAIN UNCHANGED: \b osThreadGetId shall be consistent in every CMSIS-RTOS.
 282:../Middlewares/FreeRTOS//Source/CMSIS_RTOS/cmsis_os.c **** */
 283:../Middlewares/FreeRTOS//Source/CMSIS_RTOS/cmsis_os.c **** osThreadId osThreadGetId (void)
 284:../Middlewares/FreeRTOS//Source/CMSIS_RTOS/cmsis_os.c **** {
 296              		.loc 1 284 0
 297              		.cfi_startproc
 298              		@ args = 0, pretend = 0, frame = 0
 299              		@ frame_needed = 0, uses_anonymous_args = 0
 300 0000 08B5     		push	{r3, lr}
ARM GAS  /var/folders/l3/4y5292px21b4835bsnjwqc7w009kq1/T//ccUQPhZJ.s 			page 13


 301              	.LCFI7:
 302              		.cfi_def_cfa_offset 8
 303              		.cfi_offset 3, -8
 304              		.cfi_offset 14, -4
 285:../Middlewares/FreeRTOS//Source/CMSIS_RTOS/cmsis_os.c **** #if ( ( INCLUDE_xTaskGetCurrentTaskHandle == 1 ) || ( configUSE_MUTEXES == 1 ) )
 286:../Middlewares/FreeRTOS//Source/CMSIS_RTOS/cmsis_os.c ****   return xTaskGetCurrentTaskHandle();
 305              		.loc 1 286 0
 306 0002 FFF7FEFF 		bl	xTaskGetCurrentTaskHandle
 307              	.LVL19:
 287:../Middlewares/FreeRTOS//Source/CMSIS_RTOS/cmsis_os.c **** #else
 288:../Middlewares/FreeRTOS//Source/CMSIS_RTOS/cmsis_os.c **** 	return NULL;
 289:../Middlewares/FreeRTOS//Source/CMSIS_RTOS/cmsis_os.c **** #endif
 290:../Middlewares/FreeRTOS//Source/CMSIS_RTOS/cmsis_os.c **** }
 308              		.loc 1 290 0
 309 0006 08BD     		pop	{r3, pc}
 310              		.cfi_endproc
 311              	.LFE135:
 313              		.section	.text.osThreadTerminate,"ax",%progbits
 314              		.align	1
 315              		.global	osThreadTerminate
 316              		.syntax unified
 317              		.thumb
 318              		.thumb_func
 319              		.fpu fpv4-sp-d16
 321              	osThreadTerminate:
 322              	.LFB136:
 291:../Middlewares/FreeRTOS//Source/CMSIS_RTOS/cmsis_os.c **** 
 292:../Middlewares/FreeRTOS//Source/CMSIS_RTOS/cmsis_os.c **** /**
 293:../Middlewares/FreeRTOS//Source/CMSIS_RTOS/cmsis_os.c **** * @brief  Terminate execution of a thread and remove it from Active Threads.
 294:../Middlewares/FreeRTOS//Source/CMSIS_RTOS/cmsis_os.c **** * @param   thread_id   thread ID obtained by \ref osThreadCreate or \ref osThreadGetId.
 295:../Middlewares/FreeRTOS//Source/CMSIS_RTOS/cmsis_os.c **** * @retval  status code that indicates the execution status of the function.
 296:../Middlewares/FreeRTOS//Source/CMSIS_RTOS/cmsis_os.c **** * @note   MUST REMAIN UNCHANGED: \b osThreadTerminate shall be consistent in every CMSIS-RTOS.
 297:../Middlewares/FreeRTOS//Source/CMSIS_RTOS/cmsis_os.c **** */
 298:../Middlewares/FreeRTOS//Source/CMSIS_RTOS/cmsis_os.c **** osStatus osThreadTerminate (osThreadId thread_id)
 299:../Middlewares/FreeRTOS//Source/CMSIS_RTOS/cmsis_os.c **** {
 323              		.loc 1 299 0
 324              		.cfi_startproc
 325              		@ args = 0, pretend = 0, frame = 0
 326              		@ frame_needed = 0, uses_anonymous_args = 0
 327              	.LVL20:
 328 0000 08B5     		push	{r3, lr}
 329              	.LCFI8:
 330              		.cfi_def_cfa_offset 8
 331              		.cfi_offset 3, -8
 332              		.cfi_offset 14, -4
 300:../Middlewares/FreeRTOS//Source/CMSIS_RTOS/cmsis_os.c **** #if (INCLUDE_vTaskDelete == 1)
 301:../Middlewares/FreeRTOS//Source/CMSIS_RTOS/cmsis_os.c ****   vTaskDelete(thread_id);
 333              		.loc 1 301 0
 334 0002 FFF7FEFF 		bl	vTaskDelete
 335              	.LVL21:
 302:../Middlewares/FreeRTOS//Source/CMSIS_RTOS/cmsis_os.c ****   return osOK;
 303:../Middlewares/FreeRTOS//Source/CMSIS_RTOS/cmsis_os.c **** #else
 304:../Middlewares/FreeRTOS//Source/CMSIS_RTOS/cmsis_os.c ****   return osErrorOS;
 305:../Middlewares/FreeRTOS//Source/CMSIS_RTOS/cmsis_os.c **** #endif
 306:../Middlewares/FreeRTOS//Source/CMSIS_RTOS/cmsis_os.c **** }
 336              		.loc 1 306 0
 337 0006 0020     		movs	r0, #0
ARM GAS  /var/folders/l3/4y5292px21b4835bsnjwqc7w009kq1/T//ccUQPhZJ.s 			page 14


 338 0008 08BD     		pop	{r3, pc}
 339              		.cfi_endproc
 340              	.LFE136:
 342              		.section	.text.osThreadYield,"ax",%progbits
 343              		.align	1
 344              		.global	osThreadYield
 345              		.syntax unified
 346              		.thumb
 347              		.thumb_func
 348              		.fpu fpv4-sp-d16
 350              	osThreadYield:
 351              	.LFB137:
 307:../Middlewares/FreeRTOS//Source/CMSIS_RTOS/cmsis_os.c **** 
 308:../Middlewares/FreeRTOS//Source/CMSIS_RTOS/cmsis_os.c **** /**
 309:../Middlewares/FreeRTOS//Source/CMSIS_RTOS/cmsis_os.c **** * @brief  Pass control to next thread that is in state \b READY.
 310:../Middlewares/FreeRTOS//Source/CMSIS_RTOS/cmsis_os.c **** * @retval status code that indicates the execution status of the function.
 311:../Middlewares/FreeRTOS//Source/CMSIS_RTOS/cmsis_os.c **** * @note   MUST REMAIN UNCHANGED: \b osThreadYield shall be consistent in every CMSIS-RTOS.
 312:../Middlewares/FreeRTOS//Source/CMSIS_RTOS/cmsis_os.c **** */
 313:../Middlewares/FreeRTOS//Source/CMSIS_RTOS/cmsis_os.c **** osStatus osThreadYield (void)
 314:../Middlewares/FreeRTOS//Source/CMSIS_RTOS/cmsis_os.c **** {
 352              		.loc 1 314 0
 353              		.cfi_startproc
 354              		@ args = 0, pretend = 0, frame = 0
 355              		@ frame_needed = 0, uses_anonymous_args = 0
 356              		@ link register save eliminated.
 315:../Middlewares/FreeRTOS//Source/CMSIS_RTOS/cmsis_os.c ****   taskYIELD();
 357              		.loc 1 315 0
 358 0000 044B     		ldr	r3, .L29
 359 0002 4FF08052 		mov	r2, #268435456
 360 0006 1A60     		str	r2, [r3]
 361              		.syntax unified
 362              	@ 315 "../Middlewares/FreeRTOS//Source/CMSIS_RTOS/cmsis_os.c" 1
 363 0008 BFF34F8F 		dsb
 364              	@ 0 "" 2
 365              	@ 315 "../Middlewares/FreeRTOS//Source/CMSIS_RTOS/cmsis_os.c" 1
 366 000c BFF36F8F 		isb
 367              	@ 0 "" 2
 316:../Middlewares/FreeRTOS//Source/CMSIS_RTOS/cmsis_os.c ****   
 317:../Middlewares/FreeRTOS//Source/CMSIS_RTOS/cmsis_os.c ****   return osOK;
 318:../Middlewares/FreeRTOS//Source/CMSIS_RTOS/cmsis_os.c **** }
 368              		.loc 1 318 0
 369              		.thumb
 370              		.syntax unified
 371 0010 0020     		movs	r0, #0
 372 0012 7047     		bx	lr
 373              	.L30:
 374              		.align	2
 375              	.L29:
 376 0014 04ED00E0 		.word	-536810236
 377              		.cfi_endproc
 378              	.LFE137:
 380              		.section	.text.osThreadSetPriority,"ax",%progbits
 381              		.align	1
 382              		.global	osThreadSetPriority
 383              		.syntax unified
 384              		.thumb
 385              		.thumb_func
ARM GAS  /var/folders/l3/4y5292px21b4835bsnjwqc7w009kq1/T//ccUQPhZJ.s 			page 15


 386              		.fpu fpv4-sp-d16
 388              	osThreadSetPriority:
 389              	.LFB138:
 319:../Middlewares/FreeRTOS//Source/CMSIS_RTOS/cmsis_os.c **** 
 320:../Middlewares/FreeRTOS//Source/CMSIS_RTOS/cmsis_os.c **** /**
 321:../Middlewares/FreeRTOS//Source/CMSIS_RTOS/cmsis_os.c **** * @brief   Change priority of an active thread.
 322:../Middlewares/FreeRTOS//Source/CMSIS_RTOS/cmsis_os.c **** * @param   thread_id     thread ID obtained by \ref osThreadCreate or \ref osThreadGetId.
 323:../Middlewares/FreeRTOS//Source/CMSIS_RTOS/cmsis_os.c **** * @param   priority      new priority value for the thread function.
 324:../Middlewares/FreeRTOS//Source/CMSIS_RTOS/cmsis_os.c **** * @retval  status code that indicates the execution status of the function.
 325:../Middlewares/FreeRTOS//Source/CMSIS_RTOS/cmsis_os.c **** * @note   MUST REMAIN UNCHANGED: \b osThreadSetPriority shall be consistent in every CMSIS-RTOS.
 326:../Middlewares/FreeRTOS//Source/CMSIS_RTOS/cmsis_os.c **** */
 327:../Middlewares/FreeRTOS//Source/CMSIS_RTOS/cmsis_os.c **** osStatus osThreadSetPriority (osThreadId thread_id, osPriority priority)
 328:../Middlewares/FreeRTOS//Source/CMSIS_RTOS/cmsis_os.c **** {
 390              		.loc 1 328 0
 391              		.cfi_startproc
 392              		@ args = 0, pretend = 0, frame = 0
 393              		@ frame_needed = 0, uses_anonymous_args = 0
 394              	.LVL22:
 395 0000 10B5     		push	{r4, lr}
 396              	.LCFI9:
 397              		.cfi_def_cfa_offset 8
 398              		.cfi_offset 4, -8
 399              		.cfi_offset 14, -4
 400 0002 0446     		mov	r4, r0
 329:../Middlewares/FreeRTOS//Source/CMSIS_RTOS/cmsis_os.c **** #if (INCLUDE_vTaskPrioritySet == 1)
 330:../Middlewares/FreeRTOS//Source/CMSIS_RTOS/cmsis_os.c ****   vTaskPrioritySet(thread_id, makeFreeRtosPriority(priority));
 401              		.loc 1 330 0
 402 0004 0846     		mov	r0, r1
 403              	.LVL23:
 404 0006 FFF7FEFF 		bl	makeFreeRtosPriority
 405              	.LVL24:
 406 000a 0146     		mov	r1, r0
 407 000c 2046     		mov	r0, r4
 408 000e FFF7FEFF 		bl	vTaskPrioritySet
 409              	.LVL25:
 331:../Middlewares/FreeRTOS//Source/CMSIS_RTOS/cmsis_os.c ****   return osOK;
 332:../Middlewares/FreeRTOS//Source/CMSIS_RTOS/cmsis_os.c **** #else
 333:../Middlewares/FreeRTOS//Source/CMSIS_RTOS/cmsis_os.c ****   return osErrorOS;
 334:../Middlewares/FreeRTOS//Source/CMSIS_RTOS/cmsis_os.c **** #endif
 335:../Middlewares/FreeRTOS//Source/CMSIS_RTOS/cmsis_os.c **** }
 410              		.loc 1 335 0
 411 0012 0020     		movs	r0, #0
 412 0014 10BD     		pop	{r4, pc}
 413              		.cfi_endproc
 414              	.LFE138:
 416              		.section	.text.osThreadGetPriority,"ax",%progbits
 417              		.align	1
 418              		.global	osThreadGetPriority
 419              		.syntax unified
 420              		.thumb
 421              		.thumb_func
 422              		.fpu fpv4-sp-d16
 424              	osThreadGetPriority:
 425              	.LFB139:
 336:../Middlewares/FreeRTOS//Source/CMSIS_RTOS/cmsis_os.c **** 
 337:../Middlewares/FreeRTOS//Source/CMSIS_RTOS/cmsis_os.c **** /**
 338:../Middlewares/FreeRTOS//Source/CMSIS_RTOS/cmsis_os.c **** * @brief   Get current priority of an active thread.
ARM GAS  /var/folders/l3/4y5292px21b4835bsnjwqc7w009kq1/T//ccUQPhZJ.s 			page 16


 339:../Middlewares/FreeRTOS//Source/CMSIS_RTOS/cmsis_os.c **** * @param   thread_id     thread ID obtained by \ref osThreadCreate or \ref osThreadGetId.
 340:../Middlewares/FreeRTOS//Source/CMSIS_RTOS/cmsis_os.c **** * @retval  current priority value of the thread function.
 341:../Middlewares/FreeRTOS//Source/CMSIS_RTOS/cmsis_os.c **** * @note   MUST REMAIN UNCHANGED: \b osThreadGetPriority shall be consistent in every CMSIS-RTOS.
 342:../Middlewares/FreeRTOS//Source/CMSIS_RTOS/cmsis_os.c **** */
 343:../Middlewares/FreeRTOS//Source/CMSIS_RTOS/cmsis_os.c **** osPriority osThreadGetPriority (osThreadId thread_id)
 344:../Middlewares/FreeRTOS//Source/CMSIS_RTOS/cmsis_os.c **** {
 426              		.loc 1 344 0
 427              		.cfi_startproc
 428              		@ args = 0, pretend = 0, frame = 0
 429              		@ frame_needed = 0, uses_anonymous_args = 0
 430              	.LVL26:
 431 0000 10B5     		push	{r4, lr}
 432              	.LCFI10:
 433              		.cfi_def_cfa_offset 8
 434              		.cfi_offset 4, -8
 435              		.cfi_offset 14, -4
 436 0002 0446     		mov	r4, r0
 345:../Middlewares/FreeRTOS//Source/CMSIS_RTOS/cmsis_os.c **** #if (INCLUDE_uxTaskPriorityGet == 1)
 346:../Middlewares/FreeRTOS//Source/CMSIS_RTOS/cmsis_os.c ****   if (inHandlerMode())
 437              		.loc 1 346 0
 438 0004 FFF7FEFF 		bl	inHandlerMode
 439              	.LVL27:
 440 0008 28B9     		cbnz	r0, .L37
 347:../Middlewares/FreeRTOS//Source/CMSIS_RTOS/cmsis_os.c ****   {
 348:../Middlewares/FreeRTOS//Source/CMSIS_RTOS/cmsis_os.c ****     return makeCmsisPriority(uxTaskPriorityGetFromISR(thread_id));  
 349:../Middlewares/FreeRTOS//Source/CMSIS_RTOS/cmsis_os.c ****   }
 350:../Middlewares/FreeRTOS//Source/CMSIS_RTOS/cmsis_os.c ****   else
 351:../Middlewares/FreeRTOS//Source/CMSIS_RTOS/cmsis_os.c ****   {  
 352:../Middlewares/FreeRTOS//Source/CMSIS_RTOS/cmsis_os.c ****     return makeCmsisPriority(uxTaskPriorityGet(thread_id));
 441              		.loc 1 352 0
 442 000a 2046     		mov	r0, r4
 443 000c FFF7FEFF 		bl	uxTaskPriorityGet
 444              	.LVL28:
 445 0010 FFF7FEFF 		bl	makeCmsisPriority
 446              	.LVL29:
 447              	.L35:
 353:../Middlewares/FreeRTOS//Source/CMSIS_RTOS/cmsis_os.c ****   }
 354:../Middlewares/FreeRTOS//Source/CMSIS_RTOS/cmsis_os.c **** #else
 355:../Middlewares/FreeRTOS//Source/CMSIS_RTOS/cmsis_os.c ****   return osPriorityError;
 356:../Middlewares/FreeRTOS//Source/CMSIS_RTOS/cmsis_os.c **** #endif
 357:../Middlewares/FreeRTOS//Source/CMSIS_RTOS/cmsis_os.c **** }
 448              		.loc 1 357 0
 449 0014 10BD     		pop	{r4, pc}
 450              	.LVL30:
 451              	.L37:
 348:../Middlewares/FreeRTOS//Source/CMSIS_RTOS/cmsis_os.c ****   }
 452              		.loc 1 348 0
 453 0016 2046     		mov	r0, r4
 454 0018 FFF7FEFF 		bl	uxTaskPriorityGetFromISR
 455              	.LVL31:
 456 001c FFF7FEFF 		bl	makeCmsisPriority
 457              	.LVL32:
 458 0020 F8E7     		b	.L35
 459              		.cfi_endproc
 460              	.LFE139:
 462              		.section	.text.osDelay,"ax",%progbits
 463              		.align	1
ARM GAS  /var/folders/l3/4y5292px21b4835bsnjwqc7w009kq1/T//ccUQPhZJ.s 			page 17


 464              		.global	osDelay
 465              		.syntax unified
 466              		.thumb
 467              		.thumb_func
 468              		.fpu fpv4-sp-d16
 470              	osDelay:
 471              	.LFB140:
 358:../Middlewares/FreeRTOS//Source/CMSIS_RTOS/cmsis_os.c **** 
 359:../Middlewares/FreeRTOS//Source/CMSIS_RTOS/cmsis_os.c **** /*********************** Generic Wait Functions *******************************/
 360:../Middlewares/FreeRTOS//Source/CMSIS_RTOS/cmsis_os.c **** /**
 361:../Middlewares/FreeRTOS//Source/CMSIS_RTOS/cmsis_os.c **** * @brief   Wait for Timeout (Time Delay)
 362:../Middlewares/FreeRTOS//Source/CMSIS_RTOS/cmsis_os.c **** * @param   millisec      time delay value
 363:../Middlewares/FreeRTOS//Source/CMSIS_RTOS/cmsis_os.c **** * @retval  status code that indicates the execution status of the function.
 364:../Middlewares/FreeRTOS//Source/CMSIS_RTOS/cmsis_os.c **** */
 365:../Middlewares/FreeRTOS//Source/CMSIS_RTOS/cmsis_os.c **** osStatus osDelay (uint32_t millisec)
 366:../Middlewares/FreeRTOS//Source/CMSIS_RTOS/cmsis_os.c **** {
 472              		.loc 1 366 0
 473              		.cfi_startproc
 474              		@ args = 0, pretend = 0, frame = 0
 475              		@ frame_needed = 0, uses_anonymous_args = 0
 476              	.LVL33:
 477 0000 08B5     		push	{r3, lr}
 478              	.LCFI11:
 479              		.cfi_def_cfa_offset 8
 480              		.cfi_offset 3, -8
 481              		.cfi_offset 14, -4
 482              	.LVL34:
 367:../Middlewares/FreeRTOS//Source/CMSIS_RTOS/cmsis_os.c **** #if INCLUDE_vTaskDelay
 368:../Middlewares/FreeRTOS//Source/CMSIS_RTOS/cmsis_os.c ****   TickType_t ticks = millisec / portTICK_PERIOD_MS;
 369:../Middlewares/FreeRTOS//Source/CMSIS_RTOS/cmsis_os.c ****   
 370:../Middlewares/FreeRTOS//Source/CMSIS_RTOS/cmsis_os.c ****   vTaskDelay(ticks ? ticks : 1);          /* Minimum delay = 1 tick */
 483              		.loc 1 370 0
 484 0002 0346     		mov	r3, r0
 485 0004 00B9     		cbnz	r0, .L39
 486 0006 0123     		movs	r3, #1
 487              	.L39:
 488              		.loc 1 370 0 is_stmt 0 discriminator 4
 489 0008 1846     		mov	r0, r3
 490              	.LVL35:
 491 000a FFF7FEFF 		bl	vTaskDelay
 492              	.LVL36:
 371:../Middlewares/FreeRTOS//Source/CMSIS_RTOS/cmsis_os.c ****   
 372:../Middlewares/FreeRTOS//Source/CMSIS_RTOS/cmsis_os.c ****   return osOK;
 373:../Middlewares/FreeRTOS//Source/CMSIS_RTOS/cmsis_os.c **** #else
 374:../Middlewares/FreeRTOS//Source/CMSIS_RTOS/cmsis_os.c ****   (void) millisec;
 375:../Middlewares/FreeRTOS//Source/CMSIS_RTOS/cmsis_os.c ****   
 376:../Middlewares/FreeRTOS//Source/CMSIS_RTOS/cmsis_os.c ****   return osErrorResource;
 377:../Middlewares/FreeRTOS//Source/CMSIS_RTOS/cmsis_os.c **** #endif
 378:../Middlewares/FreeRTOS//Source/CMSIS_RTOS/cmsis_os.c **** }
 493              		.loc 1 378 0 is_stmt 1 discriminator 4
 494 000e 0020     		movs	r0, #0
 495 0010 08BD     		pop	{r3, pc}
 496              		.cfi_endproc
 497              	.LFE140:
 499              		.section	.text.osTimerCreate,"ax",%progbits
 500              		.align	1
 501              		.global	osTimerCreate
ARM GAS  /var/folders/l3/4y5292px21b4835bsnjwqc7w009kq1/T//ccUQPhZJ.s 			page 18


 502              		.syntax unified
 503              		.thumb
 504              		.thumb_func
 505              		.fpu fpv4-sp-d16
 507              	osTimerCreate:
 508              	.LFB141:
 379:../Middlewares/FreeRTOS//Source/CMSIS_RTOS/cmsis_os.c **** 
 380:../Middlewares/FreeRTOS//Source/CMSIS_RTOS/cmsis_os.c **** #if (defined (osFeature_Wait)  &&  (osFeature_Wait != 0)) /* Generic Wait available */
 381:../Middlewares/FreeRTOS//Source/CMSIS_RTOS/cmsis_os.c **** /**
 382:../Middlewares/FreeRTOS//Source/CMSIS_RTOS/cmsis_os.c **** * @brief  Wait for Signal, Message, Mail, or Timeout
 383:../Middlewares/FreeRTOS//Source/CMSIS_RTOS/cmsis_os.c **** * @param   millisec  timeout value or 0 in case of no time-out
 384:../Middlewares/FreeRTOS//Source/CMSIS_RTOS/cmsis_os.c **** * @retval  event that contains signal, message, or mail information or error code.
 385:../Middlewares/FreeRTOS//Source/CMSIS_RTOS/cmsis_os.c **** * @note   MUST REMAIN UNCHANGED: \b osWait shall be consistent in every CMSIS-RTOS.
 386:../Middlewares/FreeRTOS//Source/CMSIS_RTOS/cmsis_os.c **** */
 387:../Middlewares/FreeRTOS//Source/CMSIS_RTOS/cmsis_os.c **** osEvent osWait (uint32_t millisec);
 388:../Middlewares/FreeRTOS//Source/CMSIS_RTOS/cmsis_os.c **** 
 389:../Middlewares/FreeRTOS//Source/CMSIS_RTOS/cmsis_os.c **** #endif  /* Generic Wait available */
 390:../Middlewares/FreeRTOS//Source/CMSIS_RTOS/cmsis_os.c **** 
 391:../Middlewares/FreeRTOS//Source/CMSIS_RTOS/cmsis_os.c **** /***********************  Timer Management Functions ***************************/
 392:../Middlewares/FreeRTOS//Source/CMSIS_RTOS/cmsis_os.c **** /**
 393:../Middlewares/FreeRTOS//Source/CMSIS_RTOS/cmsis_os.c **** * @brief  Create a timer.
 394:../Middlewares/FreeRTOS//Source/CMSIS_RTOS/cmsis_os.c **** * @param  timer_def     timer object referenced with \ref osTimer.
 395:../Middlewares/FreeRTOS//Source/CMSIS_RTOS/cmsis_os.c **** * @param  type          osTimerOnce for one-shot or osTimerPeriodic for periodic behavior.
 396:../Middlewares/FreeRTOS//Source/CMSIS_RTOS/cmsis_os.c **** * @param  argument      argument to the timer call back function.
 397:../Middlewares/FreeRTOS//Source/CMSIS_RTOS/cmsis_os.c **** * @retval  timer ID for reference by other functions or NULL in case of error.
 398:../Middlewares/FreeRTOS//Source/CMSIS_RTOS/cmsis_os.c **** * @note   MUST REMAIN UNCHANGED: \b osTimerCreate shall be consistent in every CMSIS-RTOS.
 399:../Middlewares/FreeRTOS//Source/CMSIS_RTOS/cmsis_os.c **** */
 400:../Middlewares/FreeRTOS//Source/CMSIS_RTOS/cmsis_os.c **** osTimerId osTimerCreate (const osTimerDef_t *timer_def, os_timer_type type, void *argument)
 401:../Middlewares/FreeRTOS//Source/CMSIS_RTOS/cmsis_os.c **** {
 509              		.loc 1 401 0
 510              		.cfi_startproc
 511              		@ args = 0, pretend = 0, frame = 0
 512              		@ frame_needed = 0, uses_anonymous_args = 0
 513              	.LVL37:
 514 0000 00B5     		push	{lr}
 515              	.LCFI12:
 516              		.cfi_def_cfa_offset 4
 517              		.cfi_offset 14, -4
 518 0002 83B0     		sub	sp, sp, #12
 519              	.LCFI13:
 520              		.cfi_def_cfa_offset 16
 521 0004 1346     		mov	r3, r2
 402:../Middlewares/FreeRTOS//Source/CMSIS_RTOS/cmsis_os.c **** #if (configUSE_TIMERS == 1)
 403:../Middlewares/FreeRTOS//Source/CMSIS_RTOS/cmsis_os.c **** 
 404:../Middlewares/FreeRTOS//Source/CMSIS_RTOS/cmsis_os.c **** #if( ( configSUPPORT_STATIC_ALLOCATION == 1 ) && ( configSUPPORT_DYNAMIC_ALLOCATION == 1 ) ) 
 405:../Middlewares/FreeRTOS//Source/CMSIS_RTOS/cmsis_os.c ****   if(timer_def->controlblock != NULL) {
 406:../Middlewares/FreeRTOS//Source/CMSIS_RTOS/cmsis_os.c ****     return xTimerCreateStatic((const char *)"",
 407:../Middlewares/FreeRTOS//Source/CMSIS_RTOS/cmsis_os.c ****                       1, // period should be filled when starting the Timer using osTimerStart
 408:../Middlewares/FreeRTOS//Source/CMSIS_RTOS/cmsis_os.c ****                       (type == osTimerPeriodic) ? pdTRUE : pdFALSE,
 409:../Middlewares/FreeRTOS//Source/CMSIS_RTOS/cmsis_os.c ****                       (void *) argument,
 410:../Middlewares/FreeRTOS//Source/CMSIS_RTOS/cmsis_os.c ****                       (TaskFunction_t)timer_def->ptimer,
 411:../Middlewares/FreeRTOS//Source/CMSIS_RTOS/cmsis_os.c ****                       (StaticTimer_t *)timer_def->controlblock);
 412:../Middlewares/FreeRTOS//Source/CMSIS_RTOS/cmsis_os.c ****   }
 413:../Middlewares/FreeRTOS//Source/CMSIS_RTOS/cmsis_os.c ****   else {
 414:../Middlewares/FreeRTOS//Source/CMSIS_RTOS/cmsis_os.c ****     return xTimerCreate((const char *)"",
 415:../Middlewares/FreeRTOS//Source/CMSIS_RTOS/cmsis_os.c ****                       1, // period should be filled when starting the Timer using osTimerStart
 416:../Middlewares/FreeRTOS//Source/CMSIS_RTOS/cmsis_os.c ****                       (type == osTimerPeriodic) ? pdTRUE : pdFALSE,
ARM GAS  /var/folders/l3/4y5292px21b4835bsnjwqc7w009kq1/T//ccUQPhZJ.s 			page 19


 417:../Middlewares/FreeRTOS//Source/CMSIS_RTOS/cmsis_os.c ****                       (void *) argument,
 418:../Middlewares/FreeRTOS//Source/CMSIS_RTOS/cmsis_os.c ****                       (TaskFunction_t)timer_def->ptimer);
 419:../Middlewares/FreeRTOS//Source/CMSIS_RTOS/cmsis_os.c ****  }
 420:../Middlewares/FreeRTOS//Source/CMSIS_RTOS/cmsis_os.c **** #elif( configSUPPORT_STATIC_ALLOCATION == 1 )
 421:../Middlewares/FreeRTOS//Source/CMSIS_RTOS/cmsis_os.c ****   return xTimerCreateStatic((const char *)"",
 422:../Middlewares/FreeRTOS//Source/CMSIS_RTOS/cmsis_os.c ****                       1, // period should be filled when starting the Timer using osTimerStart
 423:../Middlewares/FreeRTOS//Source/CMSIS_RTOS/cmsis_os.c ****                       (type == osTimerPeriodic) ? pdTRUE : pdFALSE,
 424:../Middlewares/FreeRTOS//Source/CMSIS_RTOS/cmsis_os.c ****                       (void *) argument,
 425:../Middlewares/FreeRTOS//Source/CMSIS_RTOS/cmsis_os.c ****                       (TaskFunction_t)timer_def->ptimer,
 426:../Middlewares/FreeRTOS//Source/CMSIS_RTOS/cmsis_os.c ****                       (StaticTimer_t *)timer_def->controlblock);  
 427:../Middlewares/FreeRTOS//Source/CMSIS_RTOS/cmsis_os.c **** #else
 428:../Middlewares/FreeRTOS//Source/CMSIS_RTOS/cmsis_os.c ****   return xTimerCreate((const char *)"",
 522              		.loc 1 428 0
 523 0006 0129     		cmp	r1, #1
 524 0008 09D0     		beq	.L46
 525 000a 0022     		movs	r2, #0
 526              	.LVL38:
 527              	.L43:
 429:../Middlewares/FreeRTOS//Source/CMSIS_RTOS/cmsis_os.c ****                       1, // period should be filled when starting the Timer using osTimerStart
 430:../Middlewares/FreeRTOS//Source/CMSIS_RTOS/cmsis_os.c ****                       (type == osTimerPeriodic) ? pdTRUE : pdFALSE,
 431:../Middlewares/FreeRTOS//Source/CMSIS_RTOS/cmsis_os.c ****                       (void *) argument,
 432:../Middlewares/FreeRTOS//Source/CMSIS_RTOS/cmsis_os.c ****                       (TaskFunction_t)timer_def->ptimer);
 528              		.loc 1 432 0 discriminator 4
 529 000c 0168     		ldr	r1, [r0]
 530              	.LVL39:
 428:../Middlewares/FreeRTOS//Source/CMSIS_RTOS/cmsis_os.c ****                       1, // period should be filled when starting the Timer using osTimerStart
 531              		.loc 1 428 0 discriminator 4
 532 000e 0091     		str	r1, [sp]
 533 0010 0121     		movs	r1, #1
 534 0012 0448     		ldr	r0, .L47
 535              	.LVL40:
 536 0014 FFF7FEFF 		bl	xTimerCreate
 537              	.LVL41:
 433:../Middlewares/FreeRTOS//Source/CMSIS_RTOS/cmsis_os.c **** #endif
 434:../Middlewares/FreeRTOS//Source/CMSIS_RTOS/cmsis_os.c **** 
 435:../Middlewares/FreeRTOS//Source/CMSIS_RTOS/cmsis_os.c **** #else 
 436:../Middlewares/FreeRTOS//Source/CMSIS_RTOS/cmsis_os.c **** 	return NULL;
 437:../Middlewares/FreeRTOS//Source/CMSIS_RTOS/cmsis_os.c **** #endif
 438:../Middlewares/FreeRTOS//Source/CMSIS_RTOS/cmsis_os.c **** }
 538              		.loc 1 438 0 discriminator 4
 539 0018 03B0     		add	sp, sp, #12
 540              	.LCFI14:
 541              		.cfi_remember_state
 542              		.cfi_def_cfa_offset 4
 543              		@ sp needed
 544 001a 5DF804FB 		ldr	pc, [sp], #4
 545              	.LVL42:
 546              	.L46:
 547              	.LCFI15:
 548              		.cfi_restore_state
 428:../Middlewares/FreeRTOS//Source/CMSIS_RTOS/cmsis_os.c ****                       1, // period should be filled when starting the Timer using osTimerStart
 549              		.loc 1 428 0
 550 001e 0122     		movs	r2, #1
 551              	.LVL43:
 552 0020 F4E7     		b	.L43
 553              	.L48:
 554 0022 00BF     		.align	2
ARM GAS  /var/folders/l3/4y5292px21b4835bsnjwqc7w009kq1/T//ccUQPhZJ.s 			page 20


 555              	.L47:
 556 0024 00000000 		.word	.LC0
 557              		.cfi_endproc
 558              	.LFE141:
 560              		.section	.text.osTimerStart,"ax",%progbits
 561              		.align	1
 562              		.global	osTimerStart
 563              		.syntax unified
 564              		.thumb
 565              		.thumb_func
 566              		.fpu fpv4-sp-d16
 568              	osTimerStart:
 569              	.LFB142:
 439:../Middlewares/FreeRTOS//Source/CMSIS_RTOS/cmsis_os.c **** 
 440:../Middlewares/FreeRTOS//Source/CMSIS_RTOS/cmsis_os.c **** /**
 441:../Middlewares/FreeRTOS//Source/CMSIS_RTOS/cmsis_os.c **** * @brief  Start or restart a timer.
 442:../Middlewares/FreeRTOS//Source/CMSIS_RTOS/cmsis_os.c **** * @param  timer_id      timer ID obtained by \ref osTimerCreate.
 443:../Middlewares/FreeRTOS//Source/CMSIS_RTOS/cmsis_os.c **** * @param  millisec      time delay value of the timer.
 444:../Middlewares/FreeRTOS//Source/CMSIS_RTOS/cmsis_os.c **** * @retval  status code that indicates the execution status of the function
 445:../Middlewares/FreeRTOS//Source/CMSIS_RTOS/cmsis_os.c **** * @note   MUST REMAIN UNCHANGED: \b osTimerStart shall be consistent in every CMSIS-RTOS.
 446:../Middlewares/FreeRTOS//Source/CMSIS_RTOS/cmsis_os.c **** */
 447:../Middlewares/FreeRTOS//Source/CMSIS_RTOS/cmsis_os.c **** osStatus osTimerStart (osTimerId timer_id, uint32_t millisec)
 448:../Middlewares/FreeRTOS//Source/CMSIS_RTOS/cmsis_os.c **** {
 570              		.loc 1 448 0
 571              		.cfi_startproc
 572              		@ args = 0, pretend = 0, frame = 8
 573              		@ frame_needed = 0, uses_anonymous_args = 0
 574              	.LVL44:
 575 0000 30B5     		push	{r4, r5, lr}
 576              	.LCFI16:
 577              		.cfi_def_cfa_offset 12
 578              		.cfi_offset 4, -12
 579              		.cfi_offset 5, -8
 580              		.cfi_offset 14, -4
 581 0002 85B0     		sub	sp, sp, #20
 582              	.LCFI17:
 583              		.cfi_def_cfa_offset 32
 584 0004 0546     		mov	r5, r0
 585              	.LVL45:
 449:../Middlewares/FreeRTOS//Source/CMSIS_RTOS/cmsis_os.c ****   osStatus result = osOK;
 450:../Middlewares/FreeRTOS//Source/CMSIS_RTOS/cmsis_os.c **** #if (configUSE_TIMERS == 1)  
 451:../Middlewares/FreeRTOS//Source/CMSIS_RTOS/cmsis_os.c ****   portBASE_TYPE taskWoken = pdFALSE;
 586              		.loc 1 451 0
 587 0006 0023     		movs	r3, #0
 588 0008 0393     		str	r3, [sp, #12]
 589              	.LVL46:
 452:../Middlewares/FreeRTOS//Source/CMSIS_RTOS/cmsis_os.c ****   TickType_t ticks = millisec / portTICK_PERIOD_MS;
 453:../Middlewares/FreeRTOS//Source/CMSIS_RTOS/cmsis_os.c **** 
 454:../Middlewares/FreeRTOS//Source/CMSIS_RTOS/cmsis_os.c ****   if (ticks == 0)
 590              		.loc 1 454 0
 591 000a 0C46     		mov	r4, r1
 592 000c 01B9     		cbnz	r1, .L50
 455:../Middlewares/FreeRTOS//Source/CMSIS_RTOS/cmsis_os.c ****     ticks = 1;
 593              		.loc 1 455 0
 594 000e 0124     		movs	r4, #1
 595              	.L50:
 596              	.LVL47:
ARM GAS  /var/folders/l3/4y5292px21b4835bsnjwqc7w009kq1/T//ccUQPhZJ.s 			page 21


 456:../Middlewares/FreeRTOS//Source/CMSIS_RTOS/cmsis_os.c ****     
 457:../Middlewares/FreeRTOS//Source/CMSIS_RTOS/cmsis_os.c ****   if (inHandlerMode()) 
 597              		.loc 1 457 0
 598 0010 FFF7FEFF 		bl	inHandlerMode
 599              	.LVL48:
 600 0014 A8B1     		cbz	r0, .L51
 458:../Middlewares/FreeRTOS//Source/CMSIS_RTOS/cmsis_os.c ****   {
 459:../Middlewares/FreeRTOS//Source/CMSIS_RTOS/cmsis_os.c ****     if (xTimerChangePeriodFromISR(timer_id, ticks, &taskWoken) != pdPASS)
 601              		.loc 1 459 0
 602 0016 0023     		movs	r3, #0
 603 0018 0093     		str	r3, [sp]
 604 001a 03AB     		add	r3, sp, #12
 605 001c 2246     		mov	r2, r4
 606 001e 0921     		movs	r1, #9
 607 0020 2846     		mov	r0, r5
 608 0022 FFF7FEFF 		bl	xTimerGenericCommand
 609              	.LVL49:
 610 0026 0128     		cmp	r0, #1
 611 0028 17D1     		bne	.L54
 460:../Middlewares/FreeRTOS//Source/CMSIS_RTOS/cmsis_os.c ****     {
 461:../Middlewares/FreeRTOS//Source/CMSIS_RTOS/cmsis_os.c ****       result = osErrorOS;
 462:../Middlewares/FreeRTOS//Source/CMSIS_RTOS/cmsis_os.c ****     }
 463:../Middlewares/FreeRTOS//Source/CMSIS_RTOS/cmsis_os.c ****     else
 464:../Middlewares/FreeRTOS//Source/CMSIS_RTOS/cmsis_os.c ****     {
 465:../Middlewares/FreeRTOS//Source/CMSIS_RTOS/cmsis_os.c ****       portEND_SWITCHING_ISR(taskWoken);     
 612              		.loc 1 465 0
 613 002a 039B     		ldr	r3, [sp, #12]
 614 002c BBB1     		cbz	r3, .L55
 615              		.loc 1 465 0 is_stmt 0 discriminator 1
 616 002e 0E4B     		ldr	r3, .L58
 617 0030 4FF08052 		mov	r2, #268435456
 618 0034 1A60     		str	r2, [r3]
 619              		.syntax unified
 620              	@ 465 "../Middlewares/FreeRTOS//Source/CMSIS_RTOS/cmsis_os.c" 1
 621 0036 BFF34F8F 		dsb
 622              	@ 0 "" 2
 623              	@ 465 "../Middlewares/FreeRTOS//Source/CMSIS_RTOS/cmsis_os.c" 1
 624 003a BFF36F8F 		isb
 625              	@ 0 "" 2
 449:../Middlewares/FreeRTOS//Source/CMSIS_RTOS/cmsis_os.c **** #if (configUSE_TIMERS == 1)  
 626              		.loc 1 449 0 is_stmt 1 discriminator 1
 627              		.thumb
 628              		.syntax unified
 629 003e 0020     		movs	r0, #0
 630 0040 09E0     		b	.L49
 631              	.L51:
 466:../Middlewares/FreeRTOS//Source/CMSIS_RTOS/cmsis_os.c ****     }
 467:../Middlewares/FreeRTOS//Source/CMSIS_RTOS/cmsis_os.c ****   }
 468:../Middlewares/FreeRTOS//Source/CMSIS_RTOS/cmsis_os.c ****   else 
 469:../Middlewares/FreeRTOS//Source/CMSIS_RTOS/cmsis_os.c ****   {
 470:../Middlewares/FreeRTOS//Source/CMSIS_RTOS/cmsis_os.c ****     if (xTimerChangePeriod(timer_id, ticks, 0) != pdPASS)
 632              		.loc 1 470 0
 633 0042 0023     		movs	r3, #0
 634 0044 0093     		str	r3, [sp]
 635 0046 2246     		mov	r2, r4
 636 0048 0421     		movs	r1, #4
 637 004a 2846     		mov	r0, r5
ARM GAS  /var/folders/l3/4y5292px21b4835bsnjwqc7w009kq1/T//ccUQPhZJ.s 			page 22


 638 004c FFF7FEFF 		bl	xTimerGenericCommand
 639              	.LVL50:
 640 0050 0128     		cmp	r0, #1
 641 0052 06D1     		bne	.L56
 449:../Middlewares/FreeRTOS//Source/CMSIS_RTOS/cmsis_os.c **** #if (configUSE_TIMERS == 1)  
 642              		.loc 1 449 0
 643 0054 0020     		movs	r0, #0
 644              	.LVL51:
 645              	.L49:
 471:../Middlewares/FreeRTOS//Source/CMSIS_RTOS/cmsis_os.c ****       result = osErrorOS;
 472:../Middlewares/FreeRTOS//Source/CMSIS_RTOS/cmsis_os.c ****   }
 473:../Middlewares/FreeRTOS//Source/CMSIS_RTOS/cmsis_os.c **** 
 474:../Middlewares/FreeRTOS//Source/CMSIS_RTOS/cmsis_os.c **** #else 
 475:../Middlewares/FreeRTOS//Source/CMSIS_RTOS/cmsis_os.c ****   result = osErrorOS;
 476:../Middlewares/FreeRTOS//Source/CMSIS_RTOS/cmsis_os.c **** #endif
 477:../Middlewares/FreeRTOS//Source/CMSIS_RTOS/cmsis_os.c ****   return result;
 478:../Middlewares/FreeRTOS//Source/CMSIS_RTOS/cmsis_os.c **** }
 646              		.loc 1 478 0
 647 0056 05B0     		add	sp, sp, #20
 648              	.LCFI18:
 649              		.cfi_remember_state
 650              		.cfi_def_cfa_offset 12
 651              		@ sp needed
 652 0058 30BD     		pop	{r4, r5, pc}
 653              	.LVL52:
 654              	.L54:
 655              	.LCFI19:
 656              		.cfi_restore_state
 461:../Middlewares/FreeRTOS//Source/CMSIS_RTOS/cmsis_os.c ****     }
 657              		.loc 1 461 0
 658 005a FF20     		movs	r0, #255
 659 005c FBE7     		b	.L49
 660              	.L55:
 449:../Middlewares/FreeRTOS//Source/CMSIS_RTOS/cmsis_os.c **** #if (configUSE_TIMERS == 1)  
 661              		.loc 1 449 0
 662 005e 0020     		movs	r0, #0
 663 0060 F9E7     		b	.L49
 664              	.L56:
 471:../Middlewares/FreeRTOS//Source/CMSIS_RTOS/cmsis_os.c ****       result = osErrorOS;
 665              		.loc 1 471 0
 666 0062 FF20     		movs	r0, #255
 667              	.LVL53:
 477:../Middlewares/FreeRTOS//Source/CMSIS_RTOS/cmsis_os.c **** }
 668              		.loc 1 477 0
 669 0064 F7E7     		b	.L49
 670              	.L59:
 671 0066 00BF     		.align	2
 672              	.L58:
 673 0068 04ED00E0 		.word	-536810236
 674              		.cfi_endproc
 675              	.LFE142:
 677              		.section	.text.osTimerStop,"ax",%progbits
 678              		.align	1
 679              		.global	osTimerStop
 680              		.syntax unified
 681              		.thumb
 682              		.thumb_func
ARM GAS  /var/folders/l3/4y5292px21b4835bsnjwqc7w009kq1/T//ccUQPhZJ.s 			page 23


 683              		.fpu fpv4-sp-d16
 685              	osTimerStop:
 686              	.LFB143:
 479:../Middlewares/FreeRTOS//Source/CMSIS_RTOS/cmsis_os.c **** 
 480:../Middlewares/FreeRTOS//Source/CMSIS_RTOS/cmsis_os.c **** /**
 481:../Middlewares/FreeRTOS//Source/CMSIS_RTOS/cmsis_os.c **** * @brief  Stop a timer.
 482:../Middlewares/FreeRTOS//Source/CMSIS_RTOS/cmsis_os.c **** * @param  timer_id      timer ID obtained by \ref osTimerCreate
 483:../Middlewares/FreeRTOS//Source/CMSIS_RTOS/cmsis_os.c **** * @retval  status code that indicates the execution status of the function.
 484:../Middlewares/FreeRTOS//Source/CMSIS_RTOS/cmsis_os.c **** * @note   MUST REMAIN UNCHANGED: \b osTimerStop shall be consistent in every CMSIS-RTOS.
 485:../Middlewares/FreeRTOS//Source/CMSIS_RTOS/cmsis_os.c **** */
 486:../Middlewares/FreeRTOS//Source/CMSIS_RTOS/cmsis_os.c **** osStatus osTimerStop (osTimerId timer_id)
 487:../Middlewares/FreeRTOS//Source/CMSIS_RTOS/cmsis_os.c **** {
 687              		.loc 1 487 0
 688              		.cfi_startproc
 689              		@ args = 0, pretend = 0, frame = 8
 690              		@ frame_needed = 0, uses_anonymous_args = 0
 691              	.LVL54:
 692 0000 10B5     		push	{r4, lr}
 693              	.LCFI20:
 694              		.cfi_def_cfa_offset 8
 695              		.cfi_offset 4, -8
 696              		.cfi_offset 14, -4
 697 0002 84B0     		sub	sp, sp, #16
 698              	.LCFI21:
 699              		.cfi_def_cfa_offset 24
 700 0004 0446     		mov	r4, r0
 701              	.LVL55:
 488:../Middlewares/FreeRTOS//Source/CMSIS_RTOS/cmsis_os.c ****   osStatus result = osOK;
 489:../Middlewares/FreeRTOS//Source/CMSIS_RTOS/cmsis_os.c **** #if (configUSE_TIMERS == 1)  
 490:../Middlewares/FreeRTOS//Source/CMSIS_RTOS/cmsis_os.c ****   portBASE_TYPE taskWoken = pdFALSE;
 702              		.loc 1 490 0
 703 0006 0023     		movs	r3, #0
 704 0008 0393     		str	r3, [sp, #12]
 491:../Middlewares/FreeRTOS//Source/CMSIS_RTOS/cmsis_os.c **** 
 492:../Middlewares/FreeRTOS//Source/CMSIS_RTOS/cmsis_os.c ****   if (inHandlerMode()) {
 705              		.loc 1 492 0
 706 000a FFF7FEFF 		bl	inHandlerMode
 707              	.LVL56:
 708 000e A0B1     		cbz	r0, .L61
 493:../Middlewares/FreeRTOS//Source/CMSIS_RTOS/cmsis_os.c ****     if (xTimerStopFromISR(timer_id, &taskWoken) != pdPASS) {
 709              		.loc 1 493 0
 710 0010 0022     		movs	r2, #0
 711 0012 0092     		str	r2, [sp]
 712 0014 03AB     		add	r3, sp, #12
 713 0016 0821     		movs	r1, #8
 714 0018 2046     		mov	r0, r4
 715 001a FFF7FEFF 		bl	xTimerGenericCommand
 716              	.LVL57:
 717 001e 0128     		cmp	r0, #1
 718 0020 17D1     		bne	.L63
 494:../Middlewares/FreeRTOS//Source/CMSIS_RTOS/cmsis_os.c ****       return osErrorOS;
 495:../Middlewares/FreeRTOS//Source/CMSIS_RTOS/cmsis_os.c ****     }
 496:../Middlewares/FreeRTOS//Source/CMSIS_RTOS/cmsis_os.c ****     portEND_SWITCHING_ISR(taskWoken);
 719              		.loc 1 496 0
 720 0022 039B     		ldr	r3, [sp, #12]
 721 0024 BBB1     		cbz	r3, .L64
 722              		.loc 1 496 0 is_stmt 0 discriminator 1
ARM GAS  /var/folders/l3/4y5292px21b4835bsnjwqc7w009kq1/T//ccUQPhZJ.s 			page 24


 723 0026 0E4B     		ldr	r3, .L67
 724 0028 4FF08052 		mov	r2, #268435456
 725 002c 1A60     		str	r2, [r3]
 726              		.syntax unified
 727              	@ 496 "../Middlewares/FreeRTOS//Source/CMSIS_RTOS/cmsis_os.c" 1
 728 002e BFF34F8F 		dsb
 729              	@ 0 "" 2
 730              	@ 496 "../Middlewares/FreeRTOS//Source/CMSIS_RTOS/cmsis_os.c" 1
 731 0032 BFF36F8F 		isb
 732              	@ 0 "" 2
 488:../Middlewares/FreeRTOS//Source/CMSIS_RTOS/cmsis_os.c **** #if (configUSE_TIMERS == 1)  
 733              		.loc 1 488 0 is_stmt 1 discriminator 1
 734              		.thumb
 735              		.syntax unified
 736 0036 0020     		movs	r0, #0
 737 0038 09E0     		b	.L60
 738              	.L61:
 497:../Middlewares/FreeRTOS//Source/CMSIS_RTOS/cmsis_os.c ****   }
 498:../Middlewares/FreeRTOS//Source/CMSIS_RTOS/cmsis_os.c ****   else {
 499:../Middlewares/FreeRTOS//Source/CMSIS_RTOS/cmsis_os.c ****     if (xTimerStop(timer_id, 0) != pdPASS) {
 739              		.loc 1 499 0
 740 003a 0022     		movs	r2, #0
 741 003c 0092     		str	r2, [sp]
 742 003e 1346     		mov	r3, r2
 743 0040 0321     		movs	r1, #3
 744 0042 2046     		mov	r0, r4
 745 0044 FFF7FEFF 		bl	xTimerGenericCommand
 746              	.LVL58:
 747 0048 0128     		cmp	r0, #1
 748 004a 06D1     		bne	.L65
 488:../Middlewares/FreeRTOS//Source/CMSIS_RTOS/cmsis_os.c **** #if (configUSE_TIMERS == 1)  
 749              		.loc 1 488 0
 750 004c 0020     		movs	r0, #0
 751              	.L60:
 500:../Middlewares/FreeRTOS//Source/CMSIS_RTOS/cmsis_os.c ****       result = osErrorOS;
 501:../Middlewares/FreeRTOS//Source/CMSIS_RTOS/cmsis_os.c ****     }
 502:../Middlewares/FreeRTOS//Source/CMSIS_RTOS/cmsis_os.c ****   }
 503:../Middlewares/FreeRTOS//Source/CMSIS_RTOS/cmsis_os.c **** #else 
 504:../Middlewares/FreeRTOS//Source/CMSIS_RTOS/cmsis_os.c ****   result = osErrorOS;
 505:../Middlewares/FreeRTOS//Source/CMSIS_RTOS/cmsis_os.c **** #endif 
 506:../Middlewares/FreeRTOS//Source/CMSIS_RTOS/cmsis_os.c ****   return result;
 507:../Middlewares/FreeRTOS//Source/CMSIS_RTOS/cmsis_os.c **** }
 752              		.loc 1 507 0
 753 004e 04B0     		add	sp, sp, #16
 754              	.LCFI22:
 755              		.cfi_remember_state
 756              		.cfi_def_cfa_offset 8
 757              		@ sp needed
 758 0050 10BD     		pop	{r4, pc}
 759              	.LVL59:
 760              	.L63:
 761              	.LCFI23:
 762              		.cfi_restore_state
 494:../Middlewares/FreeRTOS//Source/CMSIS_RTOS/cmsis_os.c ****     }
 763              		.loc 1 494 0
 764 0052 FF20     		movs	r0, #255
 765 0054 FBE7     		b	.L60
ARM GAS  /var/folders/l3/4y5292px21b4835bsnjwqc7w009kq1/T//ccUQPhZJ.s 			page 25


 766              	.L64:
 488:../Middlewares/FreeRTOS//Source/CMSIS_RTOS/cmsis_os.c **** #if (configUSE_TIMERS == 1)  
 767              		.loc 1 488 0
 768 0056 0020     		movs	r0, #0
 769 0058 F9E7     		b	.L60
 770              	.L65:
 500:../Middlewares/FreeRTOS//Source/CMSIS_RTOS/cmsis_os.c ****       result = osErrorOS;
 771              		.loc 1 500 0
 772 005a FF20     		movs	r0, #255
 773 005c F7E7     		b	.L60
 774              	.L68:
 775 005e 00BF     		.align	2
 776              	.L67:
 777 0060 04ED00E0 		.word	-536810236
 778              		.cfi_endproc
 779              	.LFE143:
 781              		.section	.text.osTimerDelete,"ax",%progbits
 782              		.align	1
 783              		.global	osTimerDelete
 784              		.syntax unified
 785              		.thumb
 786              		.thumb_func
 787              		.fpu fpv4-sp-d16
 789              	osTimerDelete:
 790              	.LFB144:
 508:../Middlewares/FreeRTOS//Source/CMSIS_RTOS/cmsis_os.c **** 
 509:../Middlewares/FreeRTOS//Source/CMSIS_RTOS/cmsis_os.c **** /**
 510:../Middlewares/FreeRTOS//Source/CMSIS_RTOS/cmsis_os.c **** * @brief  Delete a timer.
 511:../Middlewares/FreeRTOS//Source/CMSIS_RTOS/cmsis_os.c **** * @param  timer_id      timer ID obtained by \ref osTimerCreate
 512:../Middlewares/FreeRTOS//Source/CMSIS_RTOS/cmsis_os.c **** * @retval  status code that indicates the execution status of the function.
 513:../Middlewares/FreeRTOS//Source/CMSIS_RTOS/cmsis_os.c **** * @note   MUST REMAIN UNCHANGED: \b osTimerDelete shall be consistent in every CMSIS-RTOS.
 514:../Middlewares/FreeRTOS//Source/CMSIS_RTOS/cmsis_os.c **** */
 515:../Middlewares/FreeRTOS//Source/CMSIS_RTOS/cmsis_os.c **** osStatus osTimerDelete (osTimerId timer_id)
 516:../Middlewares/FreeRTOS//Source/CMSIS_RTOS/cmsis_os.c **** {
 791              		.loc 1 516 0
 792              		.cfi_startproc
 793              		@ args = 0, pretend = 0, frame = 0
 794              		@ frame_needed = 0, uses_anonymous_args = 0
 795              	.LVL60:
 796 0000 10B5     		push	{r4, lr}
 797              	.LCFI24:
 798              		.cfi_def_cfa_offset 8
 799              		.cfi_offset 4, -8
 800              		.cfi_offset 14, -4
 801 0002 82B0     		sub	sp, sp, #8
 802              	.LCFI25:
 803              		.cfi_def_cfa_offset 16
 804 0004 0446     		mov	r4, r0
 805              	.LVL61:
 517:../Middlewares/FreeRTOS//Source/CMSIS_RTOS/cmsis_os.c **** osStatus result = osOK;
 518:../Middlewares/FreeRTOS//Source/CMSIS_RTOS/cmsis_os.c **** 
 519:../Middlewares/FreeRTOS//Source/CMSIS_RTOS/cmsis_os.c **** #if (configUSE_TIMERS == 1)
 520:../Middlewares/FreeRTOS//Source/CMSIS_RTOS/cmsis_os.c **** 
 521:../Middlewares/FreeRTOS//Source/CMSIS_RTOS/cmsis_os.c ****    if (inHandlerMode()) {
 806              		.loc 1 521 0
 807 0006 FFF7FEFF 		bl	inHandlerMode
 808              	.LVL62:
ARM GAS  /var/folders/l3/4y5292px21b4835bsnjwqc7w009kq1/T//ccUQPhZJ.s 			page 26


 809 000a 60B9     		cbnz	r0, .L71
 522:../Middlewares/FreeRTOS//Source/CMSIS_RTOS/cmsis_os.c ****      return osErrorISR;
 523:../Middlewares/FreeRTOS//Source/CMSIS_RTOS/cmsis_os.c ****   }
 524:../Middlewares/FreeRTOS//Source/CMSIS_RTOS/cmsis_os.c ****   else { 
 525:../Middlewares/FreeRTOS//Source/CMSIS_RTOS/cmsis_os.c ****     if ((xTimerDelete(timer_id, osWaitForever )) != pdPASS) {
 810              		.loc 1 525 0
 811 000c 4FF0FF33 		mov	r3, #-1
 812 0010 0093     		str	r3, [sp]
 813 0012 0023     		movs	r3, #0
 814 0014 1A46     		mov	r2, r3
 815 0016 0521     		movs	r1, #5
 816 0018 2046     		mov	r0, r4
 817 001a FFF7FEFF 		bl	xTimerGenericCommand
 818              	.LVL63:
 819 001e 0128     		cmp	r0, #1
 820 0020 04D1     		bne	.L72
 517:../Middlewares/FreeRTOS//Source/CMSIS_RTOS/cmsis_os.c **** osStatus result = osOK;
 821              		.loc 1 517 0
 822 0022 0020     		movs	r0, #0
 823 0024 00E0     		b	.L69
 824              	.L71:
 522:../Middlewares/FreeRTOS//Source/CMSIS_RTOS/cmsis_os.c ****      return osErrorISR;
 825              		.loc 1 522 0
 826 0026 8220     		movs	r0, #130
 827              	.L69:
 526:../Middlewares/FreeRTOS//Source/CMSIS_RTOS/cmsis_os.c ****       result = osErrorOS;
 527:../Middlewares/FreeRTOS//Source/CMSIS_RTOS/cmsis_os.c ****     }
 528:../Middlewares/FreeRTOS//Source/CMSIS_RTOS/cmsis_os.c ****   } 
 529:../Middlewares/FreeRTOS//Source/CMSIS_RTOS/cmsis_os.c ****     
 530:../Middlewares/FreeRTOS//Source/CMSIS_RTOS/cmsis_os.c **** #else 
 531:../Middlewares/FreeRTOS//Source/CMSIS_RTOS/cmsis_os.c ****   result = osErrorOS;
 532:../Middlewares/FreeRTOS//Source/CMSIS_RTOS/cmsis_os.c **** #endif 
 533:../Middlewares/FreeRTOS//Source/CMSIS_RTOS/cmsis_os.c ****  
 534:../Middlewares/FreeRTOS//Source/CMSIS_RTOS/cmsis_os.c ****   return result;
 535:../Middlewares/FreeRTOS//Source/CMSIS_RTOS/cmsis_os.c **** }
 828              		.loc 1 535 0
 829 0028 02B0     		add	sp, sp, #8
 830              	.LCFI26:
 831              		.cfi_remember_state
 832              		.cfi_def_cfa_offset 8
 833              		@ sp needed
 834 002a 10BD     		pop	{r4, pc}
 835              	.LVL64:
 836              	.L72:
 837              	.LCFI27:
 838              		.cfi_restore_state
 526:../Middlewares/FreeRTOS//Source/CMSIS_RTOS/cmsis_os.c ****       result = osErrorOS;
 839              		.loc 1 526 0
 840 002c FF20     		movs	r0, #255
 841 002e FBE7     		b	.L69
 842              		.cfi_endproc
 843              	.LFE144:
 845              		.section	.text.osSignalSet,"ax",%progbits
 846              		.align	1
 847              		.global	osSignalSet
 848              		.syntax unified
 849              		.thumb
ARM GAS  /var/folders/l3/4y5292px21b4835bsnjwqc7w009kq1/T//ccUQPhZJ.s 			page 27


 850              		.thumb_func
 851              		.fpu fpv4-sp-d16
 853              	osSignalSet:
 854              	.LFB145:
 536:../Middlewares/FreeRTOS//Source/CMSIS_RTOS/cmsis_os.c **** 
 537:../Middlewares/FreeRTOS//Source/CMSIS_RTOS/cmsis_os.c **** /***************************  Signal Management ********************************/
 538:../Middlewares/FreeRTOS//Source/CMSIS_RTOS/cmsis_os.c **** /**
 539:../Middlewares/FreeRTOS//Source/CMSIS_RTOS/cmsis_os.c **** * @brief  Set the specified Signal Flags of an active thread.
 540:../Middlewares/FreeRTOS//Source/CMSIS_RTOS/cmsis_os.c **** * @param  thread_id     thread ID obtained by \ref osThreadCreate or \ref osThreadGetId.
 541:../Middlewares/FreeRTOS//Source/CMSIS_RTOS/cmsis_os.c **** * @param  signals       specifies the signal flags of the thread that should be set.
 542:../Middlewares/FreeRTOS//Source/CMSIS_RTOS/cmsis_os.c **** * @retval previous signal flags of the specified thread or 0x80000000 in case of incorrect paramete
 543:../Middlewares/FreeRTOS//Source/CMSIS_RTOS/cmsis_os.c **** * @note   MUST REMAIN UNCHANGED: \b osSignalSet shall be consistent in every CMSIS-RTOS.
 544:../Middlewares/FreeRTOS//Source/CMSIS_RTOS/cmsis_os.c **** */
 545:../Middlewares/FreeRTOS//Source/CMSIS_RTOS/cmsis_os.c **** int32_t osSignalSet (osThreadId thread_id, int32_t signal)
 546:../Middlewares/FreeRTOS//Source/CMSIS_RTOS/cmsis_os.c **** {
 855              		.loc 1 546 0
 856              		.cfi_startproc
 857              		@ args = 0, pretend = 0, frame = 8
 858              		@ frame_needed = 0, uses_anonymous_args = 0
 859              	.LVL65:
 860 0000 30B5     		push	{r4, r5, lr}
 861              	.LCFI28:
 862              		.cfi_def_cfa_offset 12
 863              		.cfi_offset 4, -12
 864              		.cfi_offset 5, -8
 865              		.cfi_offset 14, -4
 866 0002 85B0     		sub	sp, sp, #20
 867              	.LCFI29:
 868              		.cfi_def_cfa_offset 32
 869 0004 0446     		mov	r4, r0
 870 0006 0D46     		mov	r5, r1
 547:../Middlewares/FreeRTOS//Source/CMSIS_RTOS/cmsis_os.c **** #if( configUSE_TASK_NOTIFICATIONS == 1 )	
 548:../Middlewares/FreeRTOS//Source/CMSIS_RTOS/cmsis_os.c ****   BaseType_t xHigherPriorityTaskWoken = pdFALSE;
 871              		.loc 1 548 0
 872 0008 0023     		movs	r3, #0
 873 000a 0393     		str	r3, [sp, #12]
 549:../Middlewares/FreeRTOS//Source/CMSIS_RTOS/cmsis_os.c ****   uint32_t ulPreviousNotificationValue = 0;
 874              		.loc 1 549 0
 875 000c 0293     		str	r3, [sp, #8]
 550:../Middlewares/FreeRTOS//Source/CMSIS_RTOS/cmsis_os.c ****   
 551:../Middlewares/FreeRTOS//Source/CMSIS_RTOS/cmsis_os.c ****   if (inHandlerMode())
 876              		.loc 1 551 0
 877 000e FFF7FEFF 		bl	inHandlerMode
 878              	.LVL66:
 879 0012 A0B1     		cbz	r0, .L75
 552:../Middlewares/FreeRTOS//Source/CMSIS_RTOS/cmsis_os.c ****   {
 553:../Middlewares/FreeRTOS//Source/CMSIS_RTOS/cmsis_os.c ****     if(xTaskGenericNotifyFromISR( thread_id , (uint32_t)signal, eSetBits, &ulPreviousNotificationVa
 880              		.loc 1 553 0
 881 0014 03AB     		add	r3, sp, #12
 882 0016 0093     		str	r3, [sp]
 883 0018 02AB     		add	r3, sp, #8
 884 001a 0122     		movs	r2, #1
 885 001c 2946     		mov	r1, r5
 886 001e 2046     		mov	r0, r4
 887 0020 FFF7FEFF 		bl	xTaskGenericNotifyFromISR
 888              	.LVL67:
 889 0024 0128     		cmp	r0, #1
ARM GAS  /var/folders/l3/4y5292px21b4835bsnjwqc7w009kq1/T//ccUQPhZJ.s 			page 28


 890 0026 15D1     		bne	.L78
 554:../Middlewares/FreeRTOS//Source/CMSIS_RTOS/cmsis_os.c ****       return 0x80000000;
 555:../Middlewares/FreeRTOS//Source/CMSIS_RTOS/cmsis_os.c ****     
 556:../Middlewares/FreeRTOS//Source/CMSIS_RTOS/cmsis_os.c ****     portYIELD_FROM_ISR( xHigherPriorityTaskWoken );
 891              		.loc 1 556 0
 892 0028 039B     		ldr	r3, [sp, #12]
 893 002a 83B1     		cbz	r3, .L77
 894              		.loc 1 556 0 is_stmt 0 discriminator 1
 895 002c 0C4B     		ldr	r3, .L81
 896 002e 4FF08052 		mov	r2, #268435456
 897 0032 1A60     		str	r2, [r3]
 898              		.syntax unified
 899              	@ 556 "../Middlewares/FreeRTOS//Source/CMSIS_RTOS/cmsis_os.c" 1
 900 0034 BFF34F8F 		dsb
 901              	@ 0 "" 2
 902              	@ 556 "../Middlewares/FreeRTOS//Source/CMSIS_RTOS/cmsis_os.c" 1
 903 0038 BFF36F8F 		isb
 904              	@ 0 "" 2
 905              		.thumb
 906              		.syntax unified
 907 003c 07E0     		b	.L77
 908              	.L75:
 557:../Middlewares/FreeRTOS//Source/CMSIS_RTOS/cmsis_os.c ****   }  
 558:../Middlewares/FreeRTOS//Source/CMSIS_RTOS/cmsis_os.c ****   else if(xTaskGenericNotify( thread_id , (uint32_t)signal, eSetBits, &ulPreviousNotificationValue)
 909              		.loc 1 558 0 is_stmt 1
 910 003e 02AB     		add	r3, sp, #8
 911 0040 0122     		movs	r2, #1
 912 0042 2946     		mov	r1, r5
 913 0044 2046     		mov	r0, r4
 914 0046 FFF7FEFF 		bl	xTaskGenericNotify
 915              	.LVL68:
 916 004a 0128     		cmp	r0, #1
 917 004c 05D1     		bne	.L79
 918              	.L77:
 559:../Middlewares/FreeRTOS//Source/CMSIS_RTOS/cmsis_os.c ****     return 0x80000000;
 560:../Middlewares/FreeRTOS//Source/CMSIS_RTOS/cmsis_os.c ****   
 561:../Middlewares/FreeRTOS//Source/CMSIS_RTOS/cmsis_os.c ****   return ulPreviousNotificationValue;
 919              		.loc 1 561 0
 920 004e 0298     		ldr	r0, [sp, #8]
 921              	.L74:
 562:../Middlewares/FreeRTOS//Source/CMSIS_RTOS/cmsis_os.c **** #else
 563:../Middlewares/FreeRTOS//Source/CMSIS_RTOS/cmsis_os.c ****   (void) thread_id;
 564:../Middlewares/FreeRTOS//Source/CMSIS_RTOS/cmsis_os.c ****   (void) signal;
 565:../Middlewares/FreeRTOS//Source/CMSIS_RTOS/cmsis_os.c **** 
 566:../Middlewares/FreeRTOS//Source/CMSIS_RTOS/cmsis_os.c ****   return 0x80000000; /* Task Notification not supported */ 	
 567:../Middlewares/FreeRTOS//Source/CMSIS_RTOS/cmsis_os.c **** #endif
 568:../Middlewares/FreeRTOS//Source/CMSIS_RTOS/cmsis_os.c **** }
 922              		.loc 1 568 0
 923 0050 05B0     		add	sp, sp, #20
 924              	.LCFI30:
 925              		.cfi_remember_state
 926              		.cfi_def_cfa_offset 12
 927              		@ sp needed
 928 0052 30BD     		pop	{r4, r5, pc}
 929              	.LVL69:
 930              	.L78:
 931              	.LCFI31:
ARM GAS  /var/folders/l3/4y5292px21b4835bsnjwqc7w009kq1/T//ccUQPhZJ.s 			page 29


 932              		.cfi_restore_state
 554:../Middlewares/FreeRTOS//Source/CMSIS_RTOS/cmsis_os.c ****     
 933              		.loc 1 554 0
 934 0054 4FF00040 		mov	r0, #-2147483648
 935 0058 FAE7     		b	.L74
 936              	.L79:
 559:../Middlewares/FreeRTOS//Source/CMSIS_RTOS/cmsis_os.c ****     return 0x80000000;
 937              		.loc 1 559 0
 938 005a 4FF00040 		mov	r0, #-2147483648
 939 005e F7E7     		b	.L74
 940              	.L82:
 941              		.align	2
 942              	.L81:
 943 0060 04ED00E0 		.word	-536810236
 944              		.cfi_endproc
 945              	.LFE145:
 947              		.section	.text.osSignalWait,"ax",%progbits
 948              		.align	1
 949              		.global	osSignalWait
 950              		.syntax unified
 951              		.thumb
 952              		.thumb_func
 953              		.fpu fpv4-sp-d16
 955              	osSignalWait:
 956              	.LFB146:
 569:../Middlewares/FreeRTOS//Source/CMSIS_RTOS/cmsis_os.c **** 
 570:../Middlewares/FreeRTOS//Source/CMSIS_RTOS/cmsis_os.c **** /**
 571:../Middlewares/FreeRTOS//Source/CMSIS_RTOS/cmsis_os.c **** * @brief  Clear the specified Signal Flags of an active thread.
 572:../Middlewares/FreeRTOS//Source/CMSIS_RTOS/cmsis_os.c **** * @param  thread_id  thread ID obtained by \ref osThreadCreate or \ref osThreadGetId.
 573:../Middlewares/FreeRTOS//Source/CMSIS_RTOS/cmsis_os.c **** * @param  signals    specifies the signal flags of the thread that shall be cleared.
 574:../Middlewares/FreeRTOS//Source/CMSIS_RTOS/cmsis_os.c **** * @retval  previous signal flags of the specified thread or 0x80000000 in case of incorrect paramet
 575:../Middlewares/FreeRTOS//Source/CMSIS_RTOS/cmsis_os.c **** * @note   MUST REMAIN UNCHANGED: \b osSignalClear shall be consistent in every CMSIS-RTOS.
 576:../Middlewares/FreeRTOS//Source/CMSIS_RTOS/cmsis_os.c **** */
 577:../Middlewares/FreeRTOS//Source/CMSIS_RTOS/cmsis_os.c **** int32_t osSignalClear (osThreadId thread_id, int32_t signal);
 578:../Middlewares/FreeRTOS//Source/CMSIS_RTOS/cmsis_os.c **** 
 579:../Middlewares/FreeRTOS//Source/CMSIS_RTOS/cmsis_os.c **** /**
 580:../Middlewares/FreeRTOS//Source/CMSIS_RTOS/cmsis_os.c **** * @brief  Wait for one or more Signal Flags to become signaled for the current \b RUNNING thread.
 581:../Middlewares/FreeRTOS//Source/CMSIS_RTOS/cmsis_os.c **** * @param  signals   wait until all specified signal flags set or 0 for any single signal flag.
 582:../Middlewares/FreeRTOS//Source/CMSIS_RTOS/cmsis_os.c **** * @param  millisec  timeout value or 0 in case of no time-out.
 583:../Middlewares/FreeRTOS//Source/CMSIS_RTOS/cmsis_os.c **** * @retval  event flag information or error code.
 584:../Middlewares/FreeRTOS//Source/CMSIS_RTOS/cmsis_os.c **** * @note   MUST REMAIN UNCHANGED: \b osSignalWait shall be consistent in every CMSIS-RTOS.
 585:../Middlewares/FreeRTOS//Source/CMSIS_RTOS/cmsis_os.c **** */
 586:../Middlewares/FreeRTOS//Source/CMSIS_RTOS/cmsis_os.c **** osEvent osSignalWait (int32_t signals, uint32_t millisec)
 587:../Middlewares/FreeRTOS//Source/CMSIS_RTOS/cmsis_os.c **** {
 957              		.loc 1 587 0
 958              		.cfi_startproc
 959              		@ args = 0, pretend = 0, frame = 16
 960              		@ frame_needed = 0, uses_anonymous_args = 0
 961              	.LVL70:
 962 0000 70B5     		push	{r4, r5, r6, lr}
 963              	.LCFI32:
 964              		.cfi_def_cfa_offset 16
 965              		.cfi_offset 4, -16
 966              		.cfi_offset 5, -12
 967              		.cfi_offset 6, -8
 968              		.cfi_offset 14, -4
 969 0002 84B0     		sub	sp, sp, #16
ARM GAS  /var/folders/l3/4y5292px21b4835bsnjwqc7w009kq1/T//ccUQPhZJ.s 			page 30


 970              	.LCFI33:
 971              		.cfi_def_cfa_offset 32
 972 0004 0446     		mov	r4, r0
 973 0006 0E46     		mov	r6, r1
 588:../Middlewares/FreeRTOS//Source/CMSIS_RTOS/cmsis_os.c ****   osEvent ret;
 589:../Middlewares/FreeRTOS//Source/CMSIS_RTOS/cmsis_os.c **** 
 590:../Middlewares/FreeRTOS//Source/CMSIS_RTOS/cmsis_os.c **** #if( configUSE_TASK_NOTIFICATIONS == 1 )
 591:../Middlewares/FreeRTOS//Source/CMSIS_RTOS/cmsis_os.c **** 	
 592:../Middlewares/FreeRTOS//Source/CMSIS_RTOS/cmsis_os.c ****   TickType_t ticks;
 593:../Middlewares/FreeRTOS//Source/CMSIS_RTOS/cmsis_os.c **** 
 594:../Middlewares/FreeRTOS//Source/CMSIS_RTOS/cmsis_os.c ****   ret.value.signals = 0;  
 974              		.loc 1 594 0
 975 0008 0023     		movs	r3, #0
 976 000a 0293     		str	r3, [sp, #8]
 977              	.LVL71:
 595:../Middlewares/FreeRTOS//Source/CMSIS_RTOS/cmsis_os.c ****   ticks = 0;
 596:../Middlewares/FreeRTOS//Source/CMSIS_RTOS/cmsis_os.c ****   if (millisec == osWaitForever) {
 978              		.loc 1 596 0
 979 000c B2F1FF3F 		cmp	r2, #-1
 980 0010 03D0     		beq	.L90
 981 0012 1546     		mov	r5, r2
 597:../Middlewares/FreeRTOS//Source/CMSIS_RTOS/cmsis_os.c ****     ticks = portMAX_DELAY;
 598:../Middlewares/FreeRTOS//Source/CMSIS_RTOS/cmsis_os.c ****   }
 599:../Middlewares/FreeRTOS//Source/CMSIS_RTOS/cmsis_os.c ****   else if (millisec != 0) {
 982              		.loc 1 599 0
 983 0014 1AB9     		cbnz	r2, .L84
 595:../Middlewares/FreeRTOS//Source/CMSIS_RTOS/cmsis_os.c ****   ticks = 0;
 984              		.loc 1 595 0
 985 0016 1D46     		mov	r5, r3
 986 0018 01E0     		b	.L84
 987              	.L90:
 597:../Middlewares/FreeRTOS//Source/CMSIS_RTOS/cmsis_os.c ****     ticks = portMAX_DELAY;
 988              		.loc 1 597 0
 989 001a 4FF0FF35 		mov	r5, #-1
 990              	.L84:
 991              	.LVL72:
 600:../Middlewares/FreeRTOS//Source/CMSIS_RTOS/cmsis_os.c ****     ticks = millisec / portTICK_PERIOD_MS;
 601:../Middlewares/FreeRTOS//Source/CMSIS_RTOS/cmsis_os.c ****     if (ticks == 0) {
 602:../Middlewares/FreeRTOS//Source/CMSIS_RTOS/cmsis_os.c ****       ticks = 1;
 603:../Middlewares/FreeRTOS//Source/CMSIS_RTOS/cmsis_os.c ****     }
 604:../Middlewares/FreeRTOS//Source/CMSIS_RTOS/cmsis_os.c ****   }  
 605:../Middlewares/FreeRTOS//Source/CMSIS_RTOS/cmsis_os.c ****   
 606:../Middlewares/FreeRTOS//Source/CMSIS_RTOS/cmsis_os.c ****   if (inHandlerMode())
 992              		.loc 1 606 0
 993 001e FFF7FEFF 		bl	inHandlerMode
 994              	.LVL73:
 995 0022 48B1     		cbz	r0, .L85
 607:../Middlewares/FreeRTOS//Source/CMSIS_RTOS/cmsis_os.c ****   {
 608:../Middlewares/FreeRTOS//Source/CMSIS_RTOS/cmsis_os.c ****     ret.status = osErrorISR;  /*Not allowed in ISR*/
 996              		.loc 1 608 0
 997 0024 8223     		movs	r3, #130
 998 0026 0193     		str	r3, [sp, #4]
 999              	.L86:
 609:../Middlewares/FreeRTOS//Source/CMSIS_RTOS/cmsis_os.c ****   }
 610:../Middlewares/FreeRTOS//Source/CMSIS_RTOS/cmsis_os.c ****   else
 611:../Middlewares/FreeRTOS//Source/CMSIS_RTOS/cmsis_os.c ****   {
 612:../Middlewares/FreeRTOS//Source/CMSIS_RTOS/cmsis_os.c ****     if(xTaskNotifyWait( 0,(uint32_t) signals, (uint32_t *)&ret.value.signals, ticks) != pdTRUE)
ARM GAS  /var/folders/l3/4y5292px21b4835bsnjwqc7w009kq1/T//ccUQPhZJ.s 			page 31


 613:../Middlewares/FreeRTOS//Source/CMSIS_RTOS/cmsis_os.c ****     {
 614:../Middlewares/FreeRTOS//Source/CMSIS_RTOS/cmsis_os.c ****       if(ticks == 0)  ret.status = osOK;
 615:../Middlewares/FreeRTOS//Source/CMSIS_RTOS/cmsis_os.c ****       else  ret.status = osEventTimeout;
 616:../Middlewares/FreeRTOS//Source/CMSIS_RTOS/cmsis_os.c ****     }
 617:../Middlewares/FreeRTOS//Source/CMSIS_RTOS/cmsis_os.c ****     else if(ret.value.signals < 0)
 618:../Middlewares/FreeRTOS//Source/CMSIS_RTOS/cmsis_os.c ****     {
 619:../Middlewares/FreeRTOS//Source/CMSIS_RTOS/cmsis_os.c ****       ret.status =  osErrorValue;     
 620:../Middlewares/FreeRTOS//Source/CMSIS_RTOS/cmsis_os.c ****     }
 621:../Middlewares/FreeRTOS//Source/CMSIS_RTOS/cmsis_os.c ****     else  ret.status =  osEventSignal;
 622:../Middlewares/FreeRTOS//Source/CMSIS_RTOS/cmsis_os.c ****   }
 623:../Middlewares/FreeRTOS//Source/CMSIS_RTOS/cmsis_os.c **** #else
 624:../Middlewares/FreeRTOS//Source/CMSIS_RTOS/cmsis_os.c ****   (void) signals;
 625:../Middlewares/FreeRTOS//Source/CMSIS_RTOS/cmsis_os.c ****   (void) millisec;
 626:../Middlewares/FreeRTOS//Source/CMSIS_RTOS/cmsis_os.c **** 	
 627:../Middlewares/FreeRTOS//Source/CMSIS_RTOS/cmsis_os.c ****   ret.status =  osErrorOS;	/* Task Notification not supported */
 628:../Middlewares/FreeRTOS//Source/CMSIS_RTOS/cmsis_os.c **** #endif
 629:../Middlewares/FreeRTOS//Source/CMSIS_RTOS/cmsis_os.c ****   
 630:../Middlewares/FreeRTOS//Source/CMSIS_RTOS/cmsis_os.c ****   return ret;
 1000              		.loc 1 630 0
 1001 0028 04AB     		add	r3, sp, #16
 1002 002a 13E90700 		ldmdb	r3, {r0, r1, r2}
 1003 002e 84E80700 		stm	r4, {r0, r1, r2}
 631:../Middlewares/FreeRTOS//Source/CMSIS_RTOS/cmsis_os.c **** }
 1004              		.loc 1 631 0
 1005 0032 2046     		mov	r0, r4
 1006 0034 04B0     		add	sp, sp, #16
 1007              	.LCFI34:
 1008              		.cfi_remember_state
 1009              		.cfi_def_cfa_offset 16
 1010              		@ sp needed
 1011 0036 70BD     		pop	{r4, r5, r6, pc}
 1012              	.LVL74:
 1013              	.L85:
 1014              	.LCFI35:
 1015              		.cfi_restore_state
 612:../Middlewares/FreeRTOS//Source/CMSIS_RTOS/cmsis_os.c ****     {
 1016              		.loc 1 612 0
 1017 0038 2B46     		mov	r3, r5
 1018 003a 02AA     		add	r2, sp, #8
 1019 003c 3146     		mov	r1, r6
 1020 003e 0020     		movs	r0, #0
 1021 0040 FFF7FEFF 		bl	xTaskNotifyWait
 1022              	.LVL75:
 1023 0044 0128     		cmp	r0, #1
 1024 0046 06D0     		beq	.L87
 614:../Middlewares/FreeRTOS//Source/CMSIS_RTOS/cmsis_os.c ****       else  ret.status = osEventTimeout;
 1025              		.loc 1 614 0
 1026 0048 15B9     		cbnz	r5, .L88
 614:../Middlewares/FreeRTOS//Source/CMSIS_RTOS/cmsis_os.c ****       else  ret.status = osEventTimeout;
 1027              		.loc 1 614 0 is_stmt 0 discriminator 1
 1028 004a 0023     		movs	r3, #0
 1029 004c 0193     		str	r3, [sp, #4]
 1030 004e EBE7     		b	.L86
 1031              	.L88:
 615:../Middlewares/FreeRTOS//Source/CMSIS_RTOS/cmsis_os.c ****     }
 1032              		.loc 1 615 0 is_stmt 1
 1033 0050 4023     		movs	r3, #64
ARM GAS  /var/folders/l3/4y5292px21b4835bsnjwqc7w009kq1/T//ccUQPhZJ.s 			page 32


 1034 0052 0193     		str	r3, [sp, #4]
 1035 0054 E8E7     		b	.L86
 1036              	.L87:
 617:../Middlewares/FreeRTOS//Source/CMSIS_RTOS/cmsis_os.c ****     {
 1037              		.loc 1 617 0
 1038 0056 029B     		ldr	r3, [sp, #8]
 1039 0058 002B     		cmp	r3, #0
 1040 005a 02DB     		blt	.L92
 621:../Middlewares/FreeRTOS//Source/CMSIS_RTOS/cmsis_os.c ****   }
 1041              		.loc 1 621 0
 1042 005c 0823     		movs	r3, #8
 1043 005e 0193     		str	r3, [sp, #4]
 1044 0060 E2E7     		b	.L86
 1045              	.L92:
 619:../Middlewares/FreeRTOS//Source/CMSIS_RTOS/cmsis_os.c ****     }
 1046              		.loc 1 619 0
 1047 0062 8623     		movs	r3, #134
 1048 0064 0193     		str	r3, [sp, #4]
 1049 0066 DFE7     		b	.L86
 1050              		.cfi_endproc
 1051              	.LFE146:
 1053              		.section	.text.osMutexCreate,"ax",%progbits
 1054              		.align	1
 1055              		.global	osMutexCreate
 1056              		.syntax unified
 1057              		.thumb
 1058              		.thumb_func
 1059              		.fpu fpv4-sp-d16
 1061              	osMutexCreate:
 1062              	.LFB147:
 632:../Middlewares/FreeRTOS//Source/CMSIS_RTOS/cmsis_os.c **** 
 633:../Middlewares/FreeRTOS//Source/CMSIS_RTOS/cmsis_os.c **** /****************************  Mutex Management ********************************/
 634:../Middlewares/FreeRTOS//Source/CMSIS_RTOS/cmsis_os.c **** /**
 635:../Middlewares/FreeRTOS//Source/CMSIS_RTOS/cmsis_os.c **** * @brief  Create and Initialize a Mutex object
 636:../Middlewares/FreeRTOS//Source/CMSIS_RTOS/cmsis_os.c **** * @param  mutex_def     mutex definition referenced with \ref osMutex.
 637:../Middlewares/FreeRTOS//Source/CMSIS_RTOS/cmsis_os.c **** * @retval  mutex ID for reference by other functions or NULL in case of error.
 638:../Middlewares/FreeRTOS//Source/CMSIS_RTOS/cmsis_os.c **** * @note   MUST REMAIN UNCHANGED: \b osMutexCreate shall be consistent in every CMSIS-RTOS.
 639:../Middlewares/FreeRTOS//Source/CMSIS_RTOS/cmsis_os.c **** */
 640:../Middlewares/FreeRTOS//Source/CMSIS_RTOS/cmsis_os.c **** osMutexId osMutexCreate (const osMutexDef_t *mutex_def)
 641:../Middlewares/FreeRTOS//Source/CMSIS_RTOS/cmsis_os.c **** {
 1063              		.loc 1 641 0
 1064              		.cfi_startproc
 1065              		@ args = 0, pretend = 0, frame = 0
 1066              		@ frame_needed = 0, uses_anonymous_args = 0
 1067              	.LVL76:
 1068 0000 08B5     		push	{r3, lr}
 1069              	.LCFI36:
 1070              		.cfi_def_cfa_offset 8
 1071              		.cfi_offset 3, -8
 1072              		.cfi_offset 14, -4
 642:../Middlewares/FreeRTOS//Source/CMSIS_RTOS/cmsis_os.c **** #if ( configUSE_MUTEXES == 1)
 643:../Middlewares/FreeRTOS//Source/CMSIS_RTOS/cmsis_os.c **** 
 644:../Middlewares/FreeRTOS//Source/CMSIS_RTOS/cmsis_os.c **** #if( configSUPPORT_STATIC_ALLOCATION == 1 ) && ( configSUPPORT_DYNAMIC_ALLOCATION == 1 )
 645:../Middlewares/FreeRTOS//Source/CMSIS_RTOS/cmsis_os.c **** 
 646:../Middlewares/FreeRTOS//Source/CMSIS_RTOS/cmsis_os.c ****   if (mutex_def->controlblock != NULL) {
 647:../Middlewares/FreeRTOS//Source/CMSIS_RTOS/cmsis_os.c ****     return xSemaphoreCreateMutexStatic( mutex_def->controlblock );
 648:../Middlewares/FreeRTOS//Source/CMSIS_RTOS/cmsis_os.c ****      }
ARM GAS  /var/folders/l3/4y5292px21b4835bsnjwqc7w009kq1/T//ccUQPhZJ.s 			page 33


 649:../Middlewares/FreeRTOS//Source/CMSIS_RTOS/cmsis_os.c ****   else {
 650:../Middlewares/FreeRTOS//Source/CMSIS_RTOS/cmsis_os.c ****     return xSemaphoreCreateMutex(); 
 651:../Middlewares/FreeRTOS//Source/CMSIS_RTOS/cmsis_os.c ****   }
 652:../Middlewares/FreeRTOS//Source/CMSIS_RTOS/cmsis_os.c **** #elif ( configSUPPORT_STATIC_ALLOCATION == 1 )
 653:../Middlewares/FreeRTOS//Source/CMSIS_RTOS/cmsis_os.c ****   return xSemaphoreCreateMutexStatic( mutex_def->controlblock );
 654:../Middlewares/FreeRTOS//Source/CMSIS_RTOS/cmsis_os.c **** #else  
 655:../Middlewares/FreeRTOS//Source/CMSIS_RTOS/cmsis_os.c ****     return xSemaphoreCreateMutex(); 
 1073              		.loc 1 655 0
 1074 0002 0120     		movs	r0, #1
 1075              	.LVL77:
 1076 0004 FFF7FEFF 		bl	xQueueCreateMutex
 1077              	.LVL78:
 656:../Middlewares/FreeRTOS//Source/CMSIS_RTOS/cmsis_os.c **** #endif
 657:../Middlewares/FreeRTOS//Source/CMSIS_RTOS/cmsis_os.c **** #else
 658:../Middlewares/FreeRTOS//Source/CMSIS_RTOS/cmsis_os.c ****   return NULL;
 659:../Middlewares/FreeRTOS//Source/CMSIS_RTOS/cmsis_os.c **** #endif
 660:../Middlewares/FreeRTOS//Source/CMSIS_RTOS/cmsis_os.c **** }
 1078              		.loc 1 660 0
 1079 0008 08BD     		pop	{r3, pc}
 1080              		.cfi_endproc
 1081              	.LFE147:
 1083              		.section	.text.osMutexWait,"ax",%progbits
 1084              		.align	1
 1085              		.global	osMutexWait
 1086              		.syntax unified
 1087              		.thumb
 1088              		.thumb_func
 1089              		.fpu fpv4-sp-d16
 1091              	osMutexWait:
 1092              	.LFB148:
 661:../Middlewares/FreeRTOS//Source/CMSIS_RTOS/cmsis_os.c **** 
 662:../Middlewares/FreeRTOS//Source/CMSIS_RTOS/cmsis_os.c **** /**
 663:../Middlewares/FreeRTOS//Source/CMSIS_RTOS/cmsis_os.c **** * @brief Wait until a Mutex becomes available
 664:../Middlewares/FreeRTOS//Source/CMSIS_RTOS/cmsis_os.c **** * @param mutex_id      mutex ID obtained by \ref osMutexCreate.
 665:../Middlewares/FreeRTOS//Source/CMSIS_RTOS/cmsis_os.c **** * @param millisec      timeout value or 0 in case of no time-out.
 666:../Middlewares/FreeRTOS//Source/CMSIS_RTOS/cmsis_os.c **** * @retval  status code that indicates the execution status of the function.
 667:../Middlewares/FreeRTOS//Source/CMSIS_RTOS/cmsis_os.c **** * @note   MUST REMAIN UNCHANGED: \b osMutexWait shall be consistent in every CMSIS-RTOS.
 668:../Middlewares/FreeRTOS//Source/CMSIS_RTOS/cmsis_os.c **** */
 669:../Middlewares/FreeRTOS//Source/CMSIS_RTOS/cmsis_os.c **** osStatus osMutexWait (osMutexId mutex_id, uint32_t millisec)
 670:../Middlewares/FreeRTOS//Source/CMSIS_RTOS/cmsis_os.c **** {
 1093              		.loc 1 670 0
 1094              		.cfi_startproc
 1095              		@ args = 0, pretend = 0, frame = 8
 1096              		@ frame_needed = 0, uses_anonymous_args = 0
 1097              	.LVL79:
 1098 0000 30B5     		push	{r4, r5, lr}
 1099              	.LCFI37:
 1100              		.cfi_def_cfa_offset 12
 1101              		.cfi_offset 4, -12
 1102              		.cfi_offset 5, -8
 1103              		.cfi_offset 14, -4
 1104 0002 83B0     		sub	sp, sp, #12
 1105              	.LCFI38:
 1106              		.cfi_def_cfa_offset 24
 671:../Middlewares/FreeRTOS//Source/CMSIS_RTOS/cmsis_os.c ****   TickType_t ticks;
 672:../Middlewares/FreeRTOS//Source/CMSIS_RTOS/cmsis_os.c ****   portBASE_TYPE taskWoken = pdFALSE;  
 1107              		.loc 1 672 0
ARM GAS  /var/folders/l3/4y5292px21b4835bsnjwqc7w009kq1/T//ccUQPhZJ.s 			page 34


 1108 0004 0023     		movs	r3, #0
 1109 0006 0193     		str	r3, [sp, #4]
 673:../Middlewares/FreeRTOS//Source/CMSIS_RTOS/cmsis_os.c ****   
 674:../Middlewares/FreeRTOS//Source/CMSIS_RTOS/cmsis_os.c ****   
 675:../Middlewares/FreeRTOS//Source/CMSIS_RTOS/cmsis_os.c ****   if (mutex_id == NULL) {
 1110              		.loc 1 675 0
 1111 0008 60B3     		cbz	r0, .L99
 1112 000a 0C46     		mov	r4, r1
 1113 000c 0546     		mov	r5, r0
 1114              	.LVL80:
 676:../Middlewares/FreeRTOS//Source/CMSIS_RTOS/cmsis_os.c ****     return osErrorParameter;
 677:../Middlewares/FreeRTOS//Source/CMSIS_RTOS/cmsis_os.c ****   }
 678:../Middlewares/FreeRTOS//Source/CMSIS_RTOS/cmsis_os.c ****   
 679:../Middlewares/FreeRTOS//Source/CMSIS_RTOS/cmsis_os.c ****   ticks = 0;
 680:../Middlewares/FreeRTOS//Source/CMSIS_RTOS/cmsis_os.c ****   if (millisec == osWaitForever) {
 1115              		.loc 1 680 0
 1116 000e B1F1FF3F 		cmp	r1, #-1
 1117 0012 02D0     		beq	.L100
 681:../Middlewares/FreeRTOS//Source/CMSIS_RTOS/cmsis_os.c ****     ticks = portMAX_DELAY;
 682:../Middlewares/FreeRTOS//Source/CMSIS_RTOS/cmsis_os.c ****   }
 683:../Middlewares/FreeRTOS//Source/CMSIS_RTOS/cmsis_os.c ****   else if (millisec != 0) {
 1118              		.loc 1 683 0
 1119 0014 19B9     		cbnz	r1, .L97
 679:../Middlewares/FreeRTOS//Source/CMSIS_RTOS/cmsis_os.c ****   if (millisec == osWaitForever) {
 1120              		.loc 1 679 0
 1121 0016 1C46     		mov	r4, r3
 1122 0018 01E0     		b	.L97
 1123              	.L100:
 681:../Middlewares/FreeRTOS//Source/CMSIS_RTOS/cmsis_os.c ****     ticks = portMAX_DELAY;
 1124              		.loc 1 681 0
 1125 001a 4FF0FF34 		mov	r4, #-1
 1126              	.L97:
 1127              	.LVL81:
 684:../Middlewares/FreeRTOS//Source/CMSIS_RTOS/cmsis_os.c ****     ticks = millisec / portTICK_PERIOD_MS;
 685:../Middlewares/FreeRTOS//Source/CMSIS_RTOS/cmsis_os.c ****     if (ticks == 0) {
 686:../Middlewares/FreeRTOS//Source/CMSIS_RTOS/cmsis_os.c ****       ticks = 1;
 687:../Middlewares/FreeRTOS//Source/CMSIS_RTOS/cmsis_os.c ****     }
 688:../Middlewares/FreeRTOS//Source/CMSIS_RTOS/cmsis_os.c ****   }
 689:../Middlewares/FreeRTOS//Source/CMSIS_RTOS/cmsis_os.c ****   
 690:../Middlewares/FreeRTOS//Source/CMSIS_RTOS/cmsis_os.c ****   if (inHandlerMode()) {
 1128              		.loc 1 690 0
 1129 001e FFF7FEFF 		bl	inHandlerMode
 1130              	.LVL82:
 1131 0022 90B1     		cbz	r0, .L98
 691:../Middlewares/FreeRTOS//Source/CMSIS_RTOS/cmsis_os.c ****     if (xSemaphoreTakeFromISR(mutex_id, &taskWoken) != pdTRUE) {
 1132              		.loc 1 691 0
 1133 0024 01AA     		add	r2, sp, #4
 1134 0026 0021     		movs	r1, #0
 1135 0028 2846     		mov	r0, r5
 1136 002a FFF7FEFF 		bl	xQueueReceiveFromISR
 1137              	.LVL83:
 1138 002e 0128     		cmp	r0, #1
 1139 0030 1AD1     		bne	.L101
 692:../Middlewares/FreeRTOS//Source/CMSIS_RTOS/cmsis_os.c ****       return osErrorOS;
 693:../Middlewares/FreeRTOS//Source/CMSIS_RTOS/cmsis_os.c ****     }
 694:../Middlewares/FreeRTOS//Source/CMSIS_RTOS/cmsis_os.c **** 	portEND_SWITCHING_ISR(taskWoken);
 1140              		.loc 1 694 0
ARM GAS  /var/folders/l3/4y5292px21b4835bsnjwqc7w009kq1/T//ccUQPhZJ.s 			page 35


 1141 0032 019B     		ldr	r3, [sp, #4]
 1142 0034 D3B1     		cbz	r3, .L102
 1143              		.loc 1 694 0 is_stmt 0 discriminator 1
 1144 0036 0E4B     		ldr	r3, .L106
 1145 0038 4FF08052 		mov	r2, #268435456
 1146 003c 1A60     		str	r2, [r3]
 1147              		.syntax unified
 1148              	@ 694 "../Middlewares/FreeRTOS//Source/CMSIS_RTOS/cmsis_os.c" 1
 1149 003e BFF34F8F 		dsb
 1150              	@ 0 "" 2
 1151              	@ 694 "../Middlewares/FreeRTOS//Source/CMSIS_RTOS/cmsis_os.c" 1
 1152 0042 BFF36F8F 		isb
 1153              	@ 0 "" 2
 695:../Middlewares/FreeRTOS//Source/CMSIS_RTOS/cmsis_os.c ****   } 
 696:../Middlewares/FreeRTOS//Source/CMSIS_RTOS/cmsis_os.c ****   else if (xSemaphoreTake(mutex_id, ticks) != pdTRUE) {
 697:../Middlewares/FreeRTOS//Source/CMSIS_RTOS/cmsis_os.c ****     return osErrorOS;
 698:../Middlewares/FreeRTOS//Source/CMSIS_RTOS/cmsis_os.c ****   }
 699:../Middlewares/FreeRTOS//Source/CMSIS_RTOS/cmsis_os.c ****   
 700:../Middlewares/FreeRTOS//Source/CMSIS_RTOS/cmsis_os.c ****   return osOK;
 1154              		.loc 1 700 0 is_stmt 1 discriminator 1
 1155              		.thumb
 1156              		.syntax unified
 1157 0046 0020     		movs	r0, #0
 1158 0048 08E0     		b	.L95
 1159              	.L98:
 696:../Middlewares/FreeRTOS//Source/CMSIS_RTOS/cmsis_os.c ****     return osErrorOS;
 1160              		.loc 1 696 0
 1161 004a 0023     		movs	r3, #0
 1162 004c 2246     		mov	r2, r4
 1163 004e 1946     		mov	r1, r3
 1164 0050 2846     		mov	r0, r5
 1165 0052 FFF7FEFF 		bl	xQueueGenericReceive
 1166              	.LVL84:
 1167 0056 0128     		cmp	r0, #1
 1168 0058 02D1     		bne	.L105
 1169              		.loc 1 700 0
 1170 005a 0020     		movs	r0, #0
 1171              	.LVL85:
 1172              	.L95:
 701:../Middlewares/FreeRTOS//Source/CMSIS_RTOS/cmsis_os.c **** }
 1173              		.loc 1 701 0
 1174 005c 03B0     		add	sp, sp, #12
 1175              	.LCFI39:
 1176              		.cfi_remember_state
 1177              		.cfi_def_cfa_offset 12
 1178              		@ sp needed
 1179 005e 30BD     		pop	{r4, r5, pc}
 1180              	.LVL86:
 1181              	.L105:
 1182              	.LCFI40:
 1183              		.cfi_restore_state
 697:../Middlewares/FreeRTOS//Source/CMSIS_RTOS/cmsis_os.c ****   }
 1184              		.loc 1 697 0
 1185 0060 FF20     		movs	r0, #255
 1186 0062 FBE7     		b	.L95
 1187              	.LVL87:
 1188              	.L99:
ARM GAS  /var/folders/l3/4y5292px21b4835bsnjwqc7w009kq1/T//ccUQPhZJ.s 			page 36


 676:../Middlewares/FreeRTOS//Source/CMSIS_RTOS/cmsis_os.c ****   }
 1189              		.loc 1 676 0
 1190 0064 8020     		movs	r0, #128
 1191              	.LVL88:
 1192 0066 F9E7     		b	.L95
 1193              	.LVL89:
 1194              	.L101:
 692:../Middlewares/FreeRTOS//Source/CMSIS_RTOS/cmsis_os.c ****     }
 1195              		.loc 1 692 0
 1196 0068 FF20     		movs	r0, #255
 1197 006a F7E7     		b	.L95
 1198              	.L102:
 700:../Middlewares/FreeRTOS//Source/CMSIS_RTOS/cmsis_os.c **** }
 1199              		.loc 1 700 0
 1200 006c 0020     		movs	r0, #0
 1201 006e F5E7     		b	.L95
 1202              	.L107:
 1203              		.align	2
 1204              	.L106:
 1205 0070 04ED00E0 		.word	-536810236
 1206              		.cfi_endproc
 1207              	.LFE148:
 1209              		.section	.text.osMutexRelease,"ax",%progbits
 1210              		.align	1
 1211              		.global	osMutexRelease
 1212              		.syntax unified
 1213              		.thumb
 1214              		.thumb_func
 1215              		.fpu fpv4-sp-d16
 1217              	osMutexRelease:
 1218              	.LFB149:
 702:../Middlewares/FreeRTOS//Source/CMSIS_RTOS/cmsis_os.c **** 
 703:../Middlewares/FreeRTOS//Source/CMSIS_RTOS/cmsis_os.c **** /**
 704:../Middlewares/FreeRTOS//Source/CMSIS_RTOS/cmsis_os.c **** * @brief Release a Mutex that was obtained by \ref osMutexWait
 705:../Middlewares/FreeRTOS//Source/CMSIS_RTOS/cmsis_os.c **** * @param mutex_id      mutex ID obtained by \ref osMutexCreate.
 706:../Middlewares/FreeRTOS//Source/CMSIS_RTOS/cmsis_os.c **** * @retval  status code that indicates the execution status of the function.
 707:../Middlewares/FreeRTOS//Source/CMSIS_RTOS/cmsis_os.c **** * @note   MUST REMAIN UNCHANGED: \b osMutexRelease shall be consistent in every CMSIS-RTOS.
 708:../Middlewares/FreeRTOS//Source/CMSIS_RTOS/cmsis_os.c **** */
 709:../Middlewares/FreeRTOS//Source/CMSIS_RTOS/cmsis_os.c **** osStatus osMutexRelease (osMutexId mutex_id)
 710:../Middlewares/FreeRTOS//Source/CMSIS_RTOS/cmsis_os.c **** {
 1219              		.loc 1 710 0
 1220              		.cfi_startproc
 1221              		@ args = 0, pretend = 0, frame = 8
 1222              		@ frame_needed = 0, uses_anonymous_args = 0
 1223              	.LVL90:
 1224 0000 10B5     		push	{r4, lr}
 1225              	.LCFI41:
 1226              		.cfi_def_cfa_offset 8
 1227              		.cfi_offset 4, -8
 1228              		.cfi_offset 14, -4
 1229 0002 82B0     		sub	sp, sp, #8
 1230              	.LCFI42:
 1231              		.cfi_def_cfa_offset 16
 1232 0004 0446     		mov	r4, r0
 1233              	.LVL91:
 711:../Middlewares/FreeRTOS//Source/CMSIS_RTOS/cmsis_os.c ****   osStatus result = osOK;
 712:../Middlewares/FreeRTOS//Source/CMSIS_RTOS/cmsis_os.c ****   portBASE_TYPE taskWoken = pdFALSE;
ARM GAS  /var/folders/l3/4y5292px21b4835bsnjwqc7w009kq1/T//ccUQPhZJ.s 			page 37


 1234              		.loc 1 712 0
 1235 0006 0023     		movs	r3, #0
 1236 0008 0193     		str	r3, [sp, #4]
 713:../Middlewares/FreeRTOS//Source/CMSIS_RTOS/cmsis_os.c ****   
 714:../Middlewares/FreeRTOS//Source/CMSIS_RTOS/cmsis_os.c ****   if (inHandlerMode()) {
 1237              		.loc 1 714 0
 1238 000a FFF7FEFF 		bl	inHandlerMode
 1239              	.LVL92:
 1240 000e 88B1     		cbz	r0, .L109
 715:../Middlewares/FreeRTOS//Source/CMSIS_RTOS/cmsis_os.c ****     if (xSemaphoreGiveFromISR(mutex_id, &taskWoken) != pdTRUE) {
 1241              		.loc 1 715 0
 1242 0010 01A9     		add	r1, sp, #4
 1243 0012 2046     		mov	r0, r4
 1244 0014 FFF7FEFF 		bl	xQueueGiveFromISR
 1245              	.LVL93:
 1246 0018 0128     		cmp	r0, #1
 1247 001a 16D1     		bne	.L111
 716:../Middlewares/FreeRTOS//Source/CMSIS_RTOS/cmsis_os.c ****       return osErrorOS;
 717:../Middlewares/FreeRTOS//Source/CMSIS_RTOS/cmsis_os.c ****     }
 718:../Middlewares/FreeRTOS//Source/CMSIS_RTOS/cmsis_os.c ****     portEND_SWITCHING_ISR(taskWoken);
 1248              		.loc 1 718 0
 1249 001c 019B     		ldr	r3, [sp, #4]
 1250 001e B3B1     		cbz	r3, .L112
 1251              		.loc 1 718 0 is_stmt 0 discriminator 1
 1252 0020 0D4B     		ldr	r3, .L115
 1253 0022 4FF08052 		mov	r2, #268435456
 1254 0026 1A60     		str	r2, [r3]
 1255              		.syntax unified
 1256              	@ 718 "../Middlewares/FreeRTOS//Source/CMSIS_RTOS/cmsis_os.c" 1
 1257 0028 BFF34F8F 		dsb
 1258              	@ 0 "" 2
 1259              	@ 718 "../Middlewares/FreeRTOS//Source/CMSIS_RTOS/cmsis_os.c" 1
 1260 002c BFF36F8F 		isb
 1261              	@ 0 "" 2
 711:../Middlewares/FreeRTOS//Source/CMSIS_RTOS/cmsis_os.c ****   portBASE_TYPE taskWoken = pdFALSE;
 1262              		.loc 1 711 0 is_stmt 1 discriminator 1
 1263              		.thumb
 1264              		.syntax unified
 1265 0030 0020     		movs	r0, #0
 1266 0032 08E0     		b	.L108
 1267              	.L109:
 719:../Middlewares/FreeRTOS//Source/CMSIS_RTOS/cmsis_os.c ****   }
 720:../Middlewares/FreeRTOS//Source/CMSIS_RTOS/cmsis_os.c ****   else if (xSemaphoreGive(mutex_id) != pdTRUE) 
 1268              		.loc 1 720 0
 1269 0034 0023     		movs	r3, #0
 1270 0036 1A46     		mov	r2, r3
 1271 0038 1946     		mov	r1, r3
 1272 003a 2046     		mov	r0, r4
 1273 003c FFF7FEFF 		bl	xQueueGenericSend
 1274              	.LVL94:
 1275 0040 0128     		cmp	r0, #1
 1276 0042 06D1     		bne	.L113
 711:../Middlewares/FreeRTOS//Source/CMSIS_RTOS/cmsis_os.c ****   portBASE_TYPE taskWoken = pdFALSE;
 1277              		.loc 1 711 0
 1278 0044 0020     		movs	r0, #0
 1279              	.L108:
 721:../Middlewares/FreeRTOS//Source/CMSIS_RTOS/cmsis_os.c ****   {
ARM GAS  /var/folders/l3/4y5292px21b4835bsnjwqc7w009kq1/T//ccUQPhZJ.s 			page 38


 722:../Middlewares/FreeRTOS//Source/CMSIS_RTOS/cmsis_os.c ****     result = osErrorOS;
 723:../Middlewares/FreeRTOS//Source/CMSIS_RTOS/cmsis_os.c ****   }
 724:../Middlewares/FreeRTOS//Source/CMSIS_RTOS/cmsis_os.c ****   return result;
 725:../Middlewares/FreeRTOS//Source/CMSIS_RTOS/cmsis_os.c **** }
 1280              		.loc 1 725 0
 1281 0046 02B0     		add	sp, sp, #8
 1282              	.LCFI43:
 1283              		.cfi_remember_state
 1284              		.cfi_def_cfa_offset 8
 1285              		@ sp needed
 1286 0048 10BD     		pop	{r4, pc}
 1287              	.LVL95:
 1288              	.L111:
 1289              	.LCFI44:
 1290              		.cfi_restore_state
 716:../Middlewares/FreeRTOS//Source/CMSIS_RTOS/cmsis_os.c ****     }
 1291              		.loc 1 716 0
 1292 004a FF20     		movs	r0, #255
 1293 004c FBE7     		b	.L108
 1294              	.L112:
 711:../Middlewares/FreeRTOS//Source/CMSIS_RTOS/cmsis_os.c ****   portBASE_TYPE taskWoken = pdFALSE;
 1295              		.loc 1 711 0
 1296 004e 0020     		movs	r0, #0
 1297 0050 F9E7     		b	.L108
 1298              	.L113:
 722:../Middlewares/FreeRTOS//Source/CMSIS_RTOS/cmsis_os.c ****   }
 1299              		.loc 1 722 0
 1300 0052 FF20     		movs	r0, #255
 1301 0054 F7E7     		b	.L108
 1302              	.L116:
 1303 0056 00BF     		.align	2
 1304              	.L115:
 1305 0058 04ED00E0 		.word	-536810236
 1306              		.cfi_endproc
 1307              	.LFE149:
 1309              		.section	.text.osMutexDelete,"ax",%progbits
 1310              		.align	1
 1311              		.global	osMutexDelete
 1312              		.syntax unified
 1313              		.thumb
 1314              		.thumb_func
 1315              		.fpu fpv4-sp-d16
 1317              	osMutexDelete:
 1318              	.LFB150:
 726:../Middlewares/FreeRTOS//Source/CMSIS_RTOS/cmsis_os.c **** 
 727:../Middlewares/FreeRTOS//Source/CMSIS_RTOS/cmsis_os.c **** /**
 728:../Middlewares/FreeRTOS//Source/CMSIS_RTOS/cmsis_os.c **** * @brief Delete a Mutex
 729:../Middlewares/FreeRTOS//Source/CMSIS_RTOS/cmsis_os.c **** * @param mutex_id  mutex ID obtained by \ref osMutexCreate.
 730:../Middlewares/FreeRTOS//Source/CMSIS_RTOS/cmsis_os.c **** * @retval  status code that indicates the execution status of the function.
 731:../Middlewares/FreeRTOS//Source/CMSIS_RTOS/cmsis_os.c **** * @note   MUST REMAIN UNCHANGED: \b osMutexDelete shall be consistent in every CMSIS-RTOS.
 732:../Middlewares/FreeRTOS//Source/CMSIS_RTOS/cmsis_os.c **** */
 733:../Middlewares/FreeRTOS//Source/CMSIS_RTOS/cmsis_os.c **** osStatus osMutexDelete (osMutexId mutex_id)
 734:../Middlewares/FreeRTOS//Source/CMSIS_RTOS/cmsis_os.c **** {
 1319              		.loc 1 734 0
 1320              		.cfi_startproc
 1321              		@ args = 0, pretend = 0, frame = 0
 1322              		@ frame_needed = 0, uses_anonymous_args = 0
ARM GAS  /var/folders/l3/4y5292px21b4835bsnjwqc7w009kq1/T//ccUQPhZJ.s 			page 39


 1323              	.LVL96:
 1324 0000 10B5     		push	{r4, lr}
 1325              	.LCFI45:
 1326              		.cfi_def_cfa_offset 8
 1327              		.cfi_offset 4, -8
 1328              		.cfi_offset 14, -4
 1329 0002 0446     		mov	r4, r0
 735:../Middlewares/FreeRTOS//Source/CMSIS_RTOS/cmsis_os.c ****   if (inHandlerMode()) {
 1330              		.loc 1 735 0
 1331 0004 FFF7FEFF 		bl	inHandlerMode
 1332              	.LVL97:
 1333 0008 20B9     		cbnz	r0, .L119
 736:../Middlewares/FreeRTOS//Source/CMSIS_RTOS/cmsis_os.c ****     return osErrorISR;
 737:../Middlewares/FreeRTOS//Source/CMSIS_RTOS/cmsis_os.c ****   }
 738:../Middlewares/FreeRTOS//Source/CMSIS_RTOS/cmsis_os.c **** 
 739:../Middlewares/FreeRTOS//Source/CMSIS_RTOS/cmsis_os.c ****   vQueueDelete(mutex_id);
 1334              		.loc 1 739 0
 1335 000a 2046     		mov	r0, r4
 1336 000c FFF7FEFF 		bl	vQueueDelete
 1337              	.LVL98:
 740:../Middlewares/FreeRTOS//Source/CMSIS_RTOS/cmsis_os.c **** 
 741:../Middlewares/FreeRTOS//Source/CMSIS_RTOS/cmsis_os.c ****   return osOK;
 1338              		.loc 1 741 0
 1339 0010 0020     		movs	r0, #0
 1340              	.L117:
 742:../Middlewares/FreeRTOS//Source/CMSIS_RTOS/cmsis_os.c **** }
 1341              		.loc 1 742 0
 1342 0012 10BD     		pop	{r4, pc}
 1343              	.LVL99:
 1344              	.L119:
 736:../Middlewares/FreeRTOS//Source/CMSIS_RTOS/cmsis_os.c ****     return osErrorISR;
 1345              		.loc 1 736 0
 1346 0014 8220     		movs	r0, #130
 1347 0016 FCE7     		b	.L117
 1348              		.cfi_endproc
 1349              	.LFE150:
 1351              		.section	.text.osSemaphoreCreate,"ax",%progbits
 1352              		.align	1
 1353              		.global	osSemaphoreCreate
 1354              		.syntax unified
 1355              		.thumb
 1356              		.thumb_func
 1357              		.fpu fpv4-sp-d16
 1359              	osSemaphoreCreate:
 1360              	.LFB151:
 743:../Middlewares/FreeRTOS//Source/CMSIS_RTOS/cmsis_os.c **** 
 744:../Middlewares/FreeRTOS//Source/CMSIS_RTOS/cmsis_os.c **** /********************  Semaphore Management Functions **************************/
 745:../Middlewares/FreeRTOS//Source/CMSIS_RTOS/cmsis_os.c **** 
 746:../Middlewares/FreeRTOS//Source/CMSIS_RTOS/cmsis_os.c **** #if (defined (osFeature_Semaphore)  &&  (osFeature_Semaphore != 0))
 747:../Middlewares/FreeRTOS//Source/CMSIS_RTOS/cmsis_os.c **** 
 748:../Middlewares/FreeRTOS//Source/CMSIS_RTOS/cmsis_os.c **** /**
 749:../Middlewares/FreeRTOS//Source/CMSIS_RTOS/cmsis_os.c **** * @brief Create and Initialize a Semaphore object used for managing resources
 750:../Middlewares/FreeRTOS//Source/CMSIS_RTOS/cmsis_os.c **** * @param semaphore_def semaphore definition referenced with \ref osSemaphore.
 751:../Middlewares/FreeRTOS//Source/CMSIS_RTOS/cmsis_os.c **** * @param count         number of available resources.
 752:../Middlewares/FreeRTOS//Source/CMSIS_RTOS/cmsis_os.c **** * @retval  semaphore ID for reference by other functions or NULL in case of error.
 753:../Middlewares/FreeRTOS//Source/CMSIS_RTOS/cmsis_os.c **** * @note   MUST REMAIN UNCHANGED: \b osSemaphoreCreate shall be consistent in every CMSIS-RTOS.
 754:../Middlewares/FreeRTOS//Source/CMSIS_RTOS/cmsis_os.c **** */
ARM GAS  /var/folders/l3/4y5292px21b4835bsnjwqc7w009kq1/T//ccUQPhZJ.s 			page 40


 755:../Middlewares/FreeRTOS//Source/CMSIS_RTOS/cmsis_os.c **** osSemaphoreId osSemaphoreCreate (const osSemaphoreDef_t *semaphore_def, int32_t count)
 756:../Middlewares/FreeRTOS//Source/CMSIS_RTOS/cmsis_os.c **** { 
 1361              		.loc 1 756 0
 1362              		.cfi_startproc
 1363              		@ args = 0, pretend = 0, frame = 0
 1364              		@ frame_needed = 0, uses_anonymous_args = 0
 1365              	.LVL100:
 1366 0000 10B5     		push	{r4, lr}
 1367              	.LCFI46:
 1368              		.cfi_def_cfa_offset 8
 1369              		.cfi_offset 4, -8
 1370              		.cfi_offset 14, -4
 1371 0002 0846     		mov	r0, r1
 1372              	.LVL101:
 757:../Middlewares/FreeRTOS//Source/CMSIS_RTOS/cmsis_os.c **** #if( configSUPPORT_STATIC_ALLOCATION == 1 ) && ( configSUPPORT_DYNAMIC_ALLOCATION == 1 )
 758:../Middlewares/FreeRTOS//Source/CMSIS_RTOS/cmsis_os.c **** 
 759:../Middlewares/FreeRTOS//Source/CMSIS_RTOS/cmsis_os.c ****   osSemaphoreId sema;
 760:../Middlewares/FreeRTOS//Source/CMSIS_RTOS/cmsis_os.c ****   
 761:../Middlewares/FreeRTOS//Source/CMSIS_RTOS/cmsis_os.c ****   if (semaphore_def->controlblock != NULL){
 762:../Middlewares/FreeRTOS//Source/CMSIS_RTOS/cmsis_os.c ****     if (count == 1) {
 763:../Middlewares/FreeRTOS//Source/CMSIS_RTOS/cmsis_os.c ****       return xSemaphoreCreateBinaryStatic( semaphore_def->controlblock );
 764:../Middlewares/FreeRTOS//Source/CMSIS_RTOS/cmsis_os.c ****     }
 765:../Middlewares/FreeRTOS//Source/CMSIS_RTOS/cmsis_os.c ****     else {
 766:../Middlewares/FreeRTOS//Source/CMSIS_RTOS/cmsis_os.c **** #if (configUSE_COUNTING_SEMAPHORES == 1 )
 767:../Middlewares/FreeRTOS//Source/CMSIS_RTOS/cmsis_os.c ****       return xSemaphoreCreateCountingStatic( count, count, semaphore_def->controlblock );
 768:../Middlewares/FreeRTOS//Source/CMSIS_RTOS/cmsis_os.c **** #else
 769:../Middlewares/FreeRTOS//Source/CMSIS_RTOS/cmsis_os.c ****       return NULL;
 770:../Middlewares/FreeRTOS//Source/CMSIS_RTOS/cmsis_os.c **** #endif
 771:../Middlewares/FreeRTOS//Source/CMSIS_RTOS/cmsis_os.c ****     }
 772:../Middlewares/FreeRTOS//Source/CMSIS_RTOS/cmsis_os.c ****   }
 773:../Middlewares/FreeRTOS//Source/CMSIS_RTOS/cmsis_os.c ****   else {
 774:../Middlewares/FreeRTOS//Source/CMSIS_RTOS/cmsis_os.c ****     if (count == 1) {
 775:../Middlewares/FreeRTOS//Source/CMSIS_RTOS/cmsis_os.c ****       vSemaphoreCreateBinary(sema);
 776:../Middlewares/FreeRTOS//Source/CMSIS_RTOS/cmsis_os.c ****       return sema;
 777:../Middlewares/FreeRTOS//Source/CMSIS_RTOS/cmsis_os.c ****     }
 778:../Middlewares/FreeRTOS//Source/CMSIS_RTOS/cmsis_os.c ****     else {
 779:../Middlewares/FreeRTOS//Source/CMSIS_RTOS/cmsis_os.c **** #if (configUSE_COUNTING_SEMAPHORES == 1 )	
 780:../Middlewares/FreeRTOS//Source/CMSIS_RTOS/cmsis_os.c ****       return xSemaphoreCreateCounting(count, count);
 781:../Middlewares/FreeRTOS//Source/CMSIS_RTOS/cmsis_os.c **** #else
 782:../Middlewares/FreeRTOS//Source/CMSIS_RTOS/cmsis_os.c ****       return NULL;
 783:../Middlewares/FreeRTOS//Source/CMSIS_RTOS/cmsis_os.c **** #endif    
 784:../Middlewares/FreeRTOS//Source/CMSIS_RTOS/cmsis_os.c ****     }
 785:../Middlewares/FreeRTOS//Source/CMSIS_RTOS/cmsis_os.c ****   }
 786:../Middlewares/FreeRTOS//Source/CMSIS_RTOS/cmsis_os.c **** #elif ( configSUPPORT_STATIC_ALLOCATION == 1 ) // configSUPPORT_DYNAMIC_ALLOCATION == 0
 787:../Middlewares/FreeRTOS//Source/CMSIS_RTOS/cmsis_os.c ****   if(count == 1) {
 788:../Middlewares/FreeRTOS//Source/CMSIS_RTOS/cmsis_os.c ****     return xSemaphoreCreateBinaryStatic( semaphore_def->controlblock );
 789:../Middlewares/FreeRTOS//Source/CMSIS_RTOS/cmsis_os.c ****   }
 790:../Middlewares/FreeRTOS//Source/CMSIS_RTOS/cmsis_os.c ****   else
 791:../Middlewares/FreeRTOS//Source/CMSIS_RTOS/cmsis_os.c ****   {
 792:../Middlewares/FreeRTOS//Source/CMSIS_RTOS/cmsis_os.c **** #if (configUSE_COUNTING_SEMAPHORES == 1 )
 793:../Middlewares/FreeRTOS//Source/CMSIS_RTOS/cmsis_os.c ****       return xSemaphoreCreateCountingStatic( count, count, semaphore_def->controlblock );
 794:../Middlewares/FreeRTOS//Source/CMSIS_RTOS/cmsis_os.c **** #else
 795:../Middlewares/FreeRTOS//Source/CMSIS_RTOS/cmsis_os.c ****       return NULL;
 796:../Middlewares/FreeRTOS//Source/CMSIS_RTOS/cmsis_os.c **** #endif    
 797:../Middlewares/FreeRTOS//Source/CMSIS_RTOS/cmsis_os.c ****   }
 798:../Middlewares/FreeRTOS//Source/CMSIS_RTOS/cmsis_os.c **** #else  // configSUPPORT_STATIC_ALLOCATION == 0  && configSUPPORT_DYNAMIC_ALLOCATION == 1
 799:../Middlewares/FreeRTOS//Source/CMSIS_RTOS/cmsis_os.c ****   osSemaphoreId sema;
ARM GAS  /var/folders/l3/4y5292px21b4835bsnjwqc7w009kq1/T//ccUQPhZJ.s 			page 41


 800:../Middlewares/FreeRTOS//Source/CMSIS_RTOS/cmsis_os.c ****  
 801:../Middlewares/FreeRTOS//Source/CMSIS_RTOS/cmsis_os.c ****   if (count == 1) {
 1373              		.loc 1 801 0
 1374 0004 0129     		cmp	r1, #1
 1375 0006 04D0     		beq	.L125
 802:../Middlewares/FreeRTOS//Source/CMSIS_RTOS/cmsis_os.c ****     vSemaphoreCreateBinary(sema);
 803:../Middlewares/FreeRTOS//Source/CMSIS_RTOS/cmsis_os.c ****     return sema;
 804:../Middlewares/FreeRTOS//Source/CMSIS_RTOS/cmsis_os.c ****   }
 805:../Middlewares/FreeRTOS//Source/CMSIS_RTOS/cmsis_os.c ****   else {
 806:../Middlewares/FreeRTOS//Source/CMSIS_RTOS/cmsis_os.c **** #if (configUSE_COUNTING_SEMAPHORES == 1 )	
 807:../Middlewares/FreeRTOS//Source/CMSIS_RTOS/cmsis_os.c ****     return xSemaphoreCreateCounting(count, count);
 1376              		.loc 1 807 0
 1377 0008 FFF7FEFF 		bl	xQueueCreateCountingSemaphore
 1378              	.LVL102:
 1379 000c 0446     		mov	r4, r0
 1380              	.L121:
 808:../Middlewares/FreeRTOS//Source/CMSIS_RTOS/cmsis_os.c **** #else
 809:../Middlewares/FreeRTOS//Source/CMSIS_RTOS/cmsis_os.c ****     return NULL;
 810:../Middlewares/FreeRTOS//Source/CMSIS_RTOS/cmsis_os.c **** #endif
 811:../Middlewares/FreeRTOS//Source/CMSIS_RTOS/cmsis_os.c ****   }
 812:../Middlewares/FreeRTOS//Source/CMSIS_RTOS/cmsis_os.c **** #endif
 813:../Middlewares/FreeRTOS//Source/CMSIS_RTOS/cmsis_os.c **** }
 1381              		.loc 1 813 0
 1382 000e 2046     		mov	r0, r4
 1383 0010 10BD     		pop	{r4, pc}
 1384              	.LVL103:
 1385              	.L125:
 802:../Middlewares/FreeRTOS//Source/CMSIS_RTOS/cmsis_os.c ****     vSemaphoreCreateBinary(sema);
 1386              		.loc 1 802 0
 1387 0012 0322     		movs	r2, #3
 1388 0014 0021     		movs	r1, #0
 1389 0016 FFF7FEFF 		bl	xQueueGenericCreate
 1390              	.LVL104:
 1391 001a 0446     		mov	r4, r0
 1392 001c 0028     		cmp	r0, #0
 1393 001e F6D0     		beq	.L121
 802:../Middlewares/FreeRTOS//Source/CMSIS_RTOS/cmsis_os.c ****     vSemaphoreCreateBinary(sema);
 1394              		.loc 1 802 0 is_stmt 0 discriminator 1
 1395 0020 0023     		movs	r3, #0
 1396 0022 1A46     		mov	r2, r3
 1397 0024 1946     		mov	r1, r3
 1398 0026 FFF7FEFF 		bl	xQueueGenericSend
 1399              	.LVL105:
 1400 002a F0E7     		b	.L121
 1401              		.cfi_endproc
 1402              	.LFE151:
 1404              		.section	.text.osSemaphoreWait,"ax",%progbits
 1405              		.align	1
 1406              		.global	osSemaphoreWait
 1407              		.syntax unified
 1408              		.thumb
 1409              		.thumb_func
 1410              		.fpu fpv4-sp-d16
 1412              	osSemaphoreWait:
 1413              	.LFB152:
 814:../Middlewares/FreeRTOS//Source/CMSIS_RTOS/cmsis_os.c **** 
 815:../Middlewares/FreeRTOS//Source/CMSIS_RTOS/cmsis_os.c **** /**
ARM GAS  /var/folders/l3/4y5292px21b4835bsnjwqc7w009kq1/T//ccUQPhZJ.s 			page 42


 816:../Middlewares/FreeRTOS//Source/CMSIS_RTOS/cmsis_os.c **** * @brief Wait until a Semaphore token becomes available
 817:../Middlewares/FreeRTOS//Source/CMSIS_RTOS/cmsis_os.c **** * @param  semaphore_id  semaphore object referenced with \ref osSemaphore.
 818:../Middlewares/FreeRTOS//Source/CMSIS_RTOS/cmsis_os.c **** * @param  millisec      timeout value or 0 in case of no time-out.
 819:../Middlewares/FreeRTOS//Source/CMSIS_RTOS/cmsis_os.c **** * @retval  number of available tokens, or -1 in case of incorrect parameters.
 820:../Middlewares/FreeRTOS//Source/CMSIS_RTOS/cmsis_os.c **** * @note   MUST REMAIN UNCHANGED: \b osSemaphoreWait shall be consistent in every CMSIS-RTOS.
 821:../Middlewares/FreeRTOS//Source/CMSIS_RTOS/cmsis_os.c **** */
 822:../Middlewares/FreeRTOS//Source/CMSIS_RTOS/cmsis_os.c **** int32_t osSemaphoreWait (osSemaphoreId semaphore_id, uint32_t millisec)
 823:../Middlewares/FreeRTOS//Source/CMSIS_RTOS/cmsis_os.c **** {
 1414              		.loc 1 823 0 is_stmt 1
 1415              		.cfi_startproc
 1416              		@ args = 0, pretend = 0, frame = 8
 1417              		@ frame_needed = 0, uses_anonymous_args = 0
 1418              	.LVL106:
 1419 0000 30B5     		push	{r4, r5, lr}
 1420              	.LCFI47:
 1421              		.cfi_def_cfa_offset 12
 1422              		.cfi_offset 4, -12
 1423              		.cfi_offset 5, -8
 1424              		.cfi_offset 14, -4
 1425 0002 83B0     		sub	sp, sp, #12
 1426              	.LCFI48:
 1427              		.cfi_def_cfa_offset 24
 824:../Middlewares/FreeRTOS//Source/CMSIS_RTOS/cmsis_os.c ****   TickType_t ticks;
 825:../Middlewares/FreeRTOS//Source/CMSIS_RTOS/cmsis_os.c ****   portBASE_TYPE taskWoken = pdFALSE;  
 1428              		.loc 1 825 0
 1429 0004 0023     		movs	r3, #0
 1430 0006 0193     		str	r3, [sp, #4]
 826:../Middlewares/FreeRTOS//Source/CMSIS_RTOS/cmsis_os.c ****   
 827:../Middlewares/FreeRTOS//Source/CMSIS_RTOS/cmsis_os.c ****   
 828:../Middlewares/FreeRTOS//Source/CMSIS_RTOS/cmsis_os.c ****   if (semaphore_id == NULL) {
 1431              		.loc 1 828 0
 1432 0008 60B3     		cbz	r0, .L130
 1433 000a 0C46     		mov	r4, r1
 1434 000c 0546     		mov	r5, r0
 1435              	.LVL107:
 829:../Middlewares/FreeRTOS//Source/CMSIS_RTOS/cmsis_os.c ****     return osErrorParameter;
 830:../Middlewares/FreeRTOS//Source/CMSIS_RTOS/cmsis_os.c ****   }
 831:../Middlewares/FreeRTOS//Source/CMSIS_RTOS/cmsis_os.c ****   
 832:../Middlewares/FreeRTOS//Source/CMSIS_RTOS/cmsis_os.c ****   ticks = 0;
 833:../Middlewares/FreeRTOS//Source/CMSIS_RTOS/cmsis_os.c ****   if (millisec == osWaitForever) {
 1436              		.loc 1 833 0
 1437 000e B1F1FF3F 		cmp	r1, #-1
 1438 0012 02D0     		beq	.L131
 834:../Middlewares/FreeRTOS//Source/CMSIS_RTOS/cmsis_os.c ****     ticks = portMAX_DELAY;
 835:../Middlewares/FreeRTOS//Source/CMSIS_RTOS/cmsis_os.c ****   }
 836:../Middlewares/FreeRTOS//Source/CMSIS_RTOS/cmsis_os.c ****   else if (millisec != 0) {
 1439              		.loc 1 836 0
 1440 0014 19B9     		cbnz	r1, .L128
 832:../Middlewares/FreeRTOS//Source/CMSIS_RTOS/cmsis_os.c ****   if (millisec == osWaitForever) {
 1441              		.loc 1 832 0
 1442 0016 1C46     		mov	r4, r3
 1443 0018 01E0     		b	.L128
 1444              	.L131:
 834:../Middlewares/FreeRTOS//Source/CMSIS_RTOS/cmsis_os.c ****     ticks = portMAX_DELAY;
 1445              		.loc 1 834 0
 1446 001a 4FF0FF34 		mov	r4, #-1
 1447              	.L128:
ARM GAS  /var/folders/l3/4y5292px21b4835bsnjwqc7w009kq1/T//ccUQPhZJ.s 			page 43


 1448              	.LVL108:
 837:../Middlewares/FreeRTOS//Source/CMSIS_RTOS/cmsis_os.c ****     ticks = millisec / portTICK_PERIOD_MS;
 838:../Middlewares/FreeRTOS//Source/CMSIS_RTOS/cmsis_os.c ****     if (ticks == 0) {
 839:../Middlewares/FreeRTOS//Source/CMSIS_RTOS/cmsis_os.c ****       ticks = 1;
 840:../Middlewares/FreeRTOS//Source/CMSIS_RTOS/cmsis_os.c ****     }
 841:../Middlewares/FreeRTOS//Source/CMSIS_RTOS/cmsis_os.c ****   }
 842:../Middlewares/FreeRTOS//Source/CMSIS_RTOS/cmsis_os.c ****   
 843:../Middlewares/FreeRTOS//Source/CMSIS_RTOS/cmsis_os.c ****   if (inHandlerMode()) {
 1449              		.loc 1 843 0
 1450 001e FFF7FEFF 		bl	inHandlerMode
 1451              	.LVL109:
 1452 0022 90B1     		cbz	r0, .L129
 844:../Middlewares/FreeRTOS//Source/CMSIS_RTOS/cmsis_os.c ****     if (xSemaphoreTakeFromISR(semaphore_id, &taskWoken) != pdTRUE) {
 1453              		.loc 1 844 0
 1454 0024 01AA     		add	r2, sp, #4
 1455 0026 0021     		movs	r1, #0
 1456 0028 2846     		mov	r0, r5
 1457 002a FFF7FEFF 		bl	xQueueReceiveFromISR
 1458              	.LVL110:
 1459 002e 0128     		cmp	r0, #1
 1460 0030 1AD1     		bne	.L132
 845:../Middlewares/FreeRTOS//Source/CMSIS_RTOS/cmsis_os.c ****       return osErrorOS;
 846:../Middlewares/FreeRTOS//Source/CMSIS_RTOS/cmsis_os.c ****     }
 847:../Middlewares/FreeRTOS//Source/CMSIS_RTOS/cmsis_os.c **** 	portEND_SWITCHING_ISR(taskWoken);
 1461              		.loc 1 847 0
 1462 0032 019B     		ldr	r3, [sp, #4]
 1463 0034 D3B1     		cbz	r3, .L133
 1464              		.loc 1 847 0 is_stmt 0 discriminator 1
 1465 0036 0E4B     		ldr	r3, .L137
 1466 0038 4FF08052 		mov	r2, #268435456
 1467 003c 1A60     		str	r2, [r3]
 1468              		.syntax unified
 1469              	@ 847 "../Middlewares/FreeRTOS//Source/CMSIS_RTOS/cmsis_os.c" 1
 1470 003e BFF34F8F 		dsb
 1471              	@ 0 "" 2
 1472              	@ 847 "../Middlewares/FreeRTOS//Source/CMSIS_RTOS/cmsis_os.c" 1
 1473 0042 BFF36F8F 		isb
 1474              	@ 0 "" 2
 848:../Middlewares/FreeRTOS//Source/CMSIS_RTOS/cmsis_os.c ****   }  
 849:../Middlewares/FreeRTOS//Source/CMSIS_RTOS/cmsis_os.c ****   else if (xSemaphoreTake(semaphore_id, ticks) != pdTRUE) {
 850:../Middlewares/FreeRTOS//Source/CMSIS_RTOS/cmsis_os.c ****     return osErrorOS;
 851:../Middlewares/FreeRTOS//Source/CMSIS_RTOS/cmsis_os.c ****   }
 852:../Middlewares/FreeRTOS//Source/CMSIS_RTOS/cmsis_os.c ****   
 853:../Middlewares/FreeRTOS//Source/CMSIS_RTOS/cmsis_os.c ****   return osOK;
 1475              		.loc 1 853 0 is_stmt 1 discriminator 1
 1476              		.thumb
 1477              		.syntax unified
 1478 0046 0020     		movs	r0, #0
 1479 0048 08E0     		b	.L126
 1480              	.L129:
 849:../Middlewares/FreeRTOS//Source/CMSIS_RTOS/cmsis_os.c ****     return osErrorOS;
 1481              		.loc 1 849 0
 1482 004a 0023     		movs	r3, #0
 1483 004c 2246     		mov	r2, r4
 1484 004e 1946     		mov	r1, r3
 1485 0050 2846     		mov	r0, r5
 1486 0052 FFF7FEFF 		bl	xQueueGenericReceive
ARM GAS  /var/folders/l3/4y5292px21b4835bsnjwqc7w009kq1/T//ccUQPhZJ.s 			page 44


 1487              	.LVL111:
 1488 0056 0128     		cmp	r0, #1
 1489 0058 02D1     		bne	.L136
 1490              		.loc 1 853 0
 1491 005a 0020     		movs	r0, #0
 1492              	.LVL112:
 1493              	.L126:
 854:../Middlewares/FreeRTOS//Source/CMSIS_RTOS/cmsis_os.c **** }
 1494              		.loc 1 854 0
 1495 005c 03B0     		add	sp, sp, #12
 1496              	.LCFI49:
 1497              		.cfi_remember_state
 1498              		.cfi_def_cfa_offset 12
 1499              		@ sp needed
 1500 005e 30BD     		pop	{r4, r5, pc}
 1501              	.LVL113:
 1502              	.L136:
 1503              	.LCFI50:
 1504              		.cfi_restore_state
 850:../Middlewares/FreeRTOS//Source/CMSIS_RTOS/cmsis_os.c ****   }
 1505              		.loc 1 850 0
 1506 0060 FF20     		movs	r0, #255
 1507 0062 FBE7     		b	.L126
 1508              	.LVL114:
 1509              	.L130:
 829:../Middlewares/FreeRTOS//Source/CMSIS_RTOS/cmsis_os.c ****   }
 1510              		.loc 1 829 0
 1511 0064 8020     		movs	r0, #128
 1512              	.LVL115:
 1513 0066 F9E7     		b	.L126
 1514              	.LVL116:
 1515              	.L132:
 845:../Middlewares/FreeRTOS//Source/CMSIS_RTOS/cmsis_os.c ****     }
 1516              		.loc 1 845 0
 1517 0068 FF20     		movs	r0, #255
 1518 006a F7E7     		b	.L126
 1519              	.L133:
 853:../Middlewares/FreeRTOS//Source/CMSIS_RTOS/cmsis_os.c **** }
 1520              		.loc 1 853 0
 1521 006c 0020     		movs	r0, #0
 1522 006e F5E7     		b	.L126
 1523              	.L138:
 1524              		.align	2
 1525              	.L137:
 1526 0070 04ED00E0 		.word	-536810236
 1527              		.cfi_endproc
 1528              	.LFE152:
 1530              		.section	.text.osSemaphoreRelease,"ax",%progbits
 1531              		.align	1
 1532              		.global	osSemaphoreRelease
 1533              		.syntax unified
 1534              		.thumb
 1535              		.thumb_func
 1536              		.fpu fpv4-sp-d16
 1538              	osSemaphoreRelease:
 1539              	.LFB153:
 855:../Middlewares/FreeRTOS//Source/CMSIS_RTOS/cmsis_os.c **** 
ARM GAS  /var/folders/l3/4y5292px21b4835bsnjwqc7w009kq1/T//ccUQPhZJ.s 			page 45


 856:../Middlewares/FreeRTOS//Source/CMSIS_RTOS/cmsis_os.c **** /**
 857:../Middlewares/FreeRTOS//Source/CMSIS_RTOS/cmsis_os.c **** * @brief Release a Semaphore token
 858:../Middlewares/FreeRTOS//Source/CMSIS_RTOS/cmsis_os.c **** * @param  semaphore_id  semaphore object referenced with \ref osSemaphore.
 859:../Middlewares/FreeRTOS//Source/CMSIS_RTOS/cmsis_os.c **** * @retval  status code that indicates the execution status of the function.
 860:../Middlewares/FreeRTOS//Source/CMSIS_RTOS/cmsis_os.c **** * @note   MUST REMAIN UNCHANGED: \b osSemaphoreRelease shall be consistent in every CMSIS-RTOS.
 861:../Middlewares/FreeRTOS//Source/CMSIS_RTOS/cmsis_os.c **** */
 862:../Middlewares/FreeRTOS//Source/CMSIS_RTOS/cmsis_os.c **** osStatus osSemaphoreRelease (osSemaphoreId semaphore_id)
 863:../Middlewares/FreeRTOS//Source/CMSIS_RTOS/cmsis_os.c **** {
 1540              		.loc 1 863 0
 1541              		.cfi_startproc
 1542              		@ args = 0, pretend = 0, frame = 8
 1543              		@ frame_needed = 0, uses_anonymous_args = 0
 1544              	.LVL117:
 1545 0000 10B5     		push	{r4, lr}
 1546              	.LCFI51:
 1547              		.cfi_def_cfa_offset 8
 1548              		.cfi_offset 4, -8
 1549              		.cfi_offset 14, -4
 1550 0002 82B0     		sub	sp, sp, #8
 1551              	.LCFI52:
 1552              		.cfi_def_cfa_offset 16
 1553 0004 0446     		mov	r4, r0
 1554              	.LVL118:
 864:../Middlewares/FreeRTOS//Source/CMSIS_RTOS/cmsis_os.c ****   osStatus result = osOK;
 865:../Middlewares/FreeRTOS//Source/CMSIS_RTOS/cmsis_os.c ****   portBASE_TYPE taskWoken = pdFALSE;
 1555              		.loc 1 865 0
 1556 0006 0023     		movs	r3, #0
 1557 0008 0193     		str	r3, [sp, #4]
 866:../Middlewares/FreeRTOS//Source/CMSIS_RTOS/cmsis_os.c ****   
 867:../Middlewares/FreeRTOS//Source/CMSIS_RTOS/cmsis_os.c ****   
 868:../Middlewares/FreeRTOS//Source/CMSIS_RTOS/cmsis_os.c ****   if (inHandlerMode()) {
 1558              		.loc 1 868 0
 1559 000a FFF7FEFF 		bl	inHandlerMode
 1560              	.LVL119:
 1561 000e 88B1     		cbz	r0, .L140
 869:../Middlewares/FreeRTOS//Source/CMSIS_RTOS/cmsis_os.c ****     if (xSemaphoreGiveFromISR(semaphore_id, &taskWoken) != pdTRUE) {
 1562              		.loc 1 869 0
 1563 0010 01A9     		add	r1, sp, #4
 1564 0012 2046     		mov	r0, r4
 1565 0014 FFF7FEFF 		bl	xQueueGiveFromISR
 1566              	.LVL120:
 1567 0018 0128     		cmp	r0, #1
 1568 001a 16D1     		bne	.L142
 870:../Middlewares/FreeRTOS//Source/CMSIS_RTOS/cmsis_os.c ****       return osErrorOS;
 871:../Middlewares/FreeRTOS//Source/CMSIS_RTOS/cmsis_os.c ****     }
 872:../Middlewares/FreeRTOS//Source/CMSIS_RTOS/cmsis_os.c ****     portEND_SWITCHING_ISR(taskWoken);
 1569              		.loc 1 872 0
 1570 001c 019B     		ldr	r3, [sp, #4]
 1571 001e B3B1     		cbz	r3, .L143
 1572              		.loc 1 872 0 is_stmt 0 discriminator 1
 1573 0020 0D4B     		ldr	r3, .L146
 1574 0022 4FF08052 		mov	r2, #268435456
 1575 0026 1A60     		str	r2, [r3]
 1576              		.syntax unified
 1577              	@ 872 "../Middlewares/FreeRTOS//Source/CMSIS_RTOS/cmsis_os.c" 1
 1578 0028 BFF34F8F 		dsb
 1579              	@ 0 "" 2
ARM GAS  /var/folders/l3/4y5292px21b4835bsnjwqc7w009kq1/T//ccUQPhZJ.s 			page 46


 1580              	@ 872 "../Middlewares/FreeRTOS//Source/CMSIS_RTOS/cmsis_os.c" 1
 1581 002c BFF36F8F 		isb
 1582              	@ 0 "" 2
 864:../Middlewares/FreeRTOS//Source/CMSIS_RTOS/cmsis_os.c ****   portBASE_TYPE taskWoken = pdFALSE;
 1583              		.loc 1 864 0 is_stmt 1 discriminator 1
 1584              		.thumb
 1585              		.syntax unified
 1586 0030 0020     		movs	r0, #0
 1587 0032 08E0     		b	.L139
 1588              	.L140:
 873:../Middlewares/FreeRTOS//Source/CMSIS_RTOS/cmsis_os.c ****   }
 874:../Middlewares/FreeRTOS//Source/CMSIS_RTOS/cmsis_os.c ****   else {
 875:../Middlewares/FreeRTOS//Source/CMSIS_RTOS/cmsis_os.c ****     if (xSemaphoreGive(semaphore_id) != pdTRUE) {
 1589              		.loc 1 875 0
 1590 0034 0023     		movs	r3, #0
 1591 0036 1A46     		mov	r2, r3
 1592 0038 1946     		mov	r1, r3
 1593 003a 2046     		mov	r0, r4
 1594 003c FFF7FEFF 		bl	xQueueGenericSend
 1595              	.LVL121:
 1596 0040 0128     		cmp	r0, #1
 1597 0042 06D1     		bne	.L144
 864:../Middlewares/FreeRTOS//Source/CMSIS_RTOS/cmsis_os.c ****   portBASE_TYPE taskWoken = pdFALSE;
 1598              		.loc 1 864 0
 1599 0044 0020     		movs	r0, #0
 1600              	.L139:
 876:../Middlewares/FreeRTOS//Source/CMSIS_RTOS/cmsis_os.c ****       result = osErrorOS;
 877:../Middlewares/FreeRTOS//Source/CMSIS_RTOS/cmsis_os.c ****     }
 878:../Middlewares/FreeRTOS//Source/CMSIS_RTOS/cmsis_os.c ****   }
 879:../Middlewares/FreeRTOS//Source/CMSIS_RTOS/cmsis_os.c ****   
 880:../Middlewares/FreeRTOS//Source/CMSIS_RTOS/cmsis_os.c ****   return result;
 881:../Middlewares/FreeRTOS//Source/CMSIS_RTOS/cmsis_os.c **** }
 1601              		.loc 1 881 0
 1602 0046 02B0     		add	sp, sp, #8
 1603              	.LCFI53:
 1604              		.cfi_remember_state
 1605              		.cfi_def_cfa_offset 8
 1606              		@ sp needed
 1607 0048 10BD     		pop	{r4, pc}
 1608              	.LVL122:
 1609              	.L142:
 1610              	.LCFI54:
 1611              		.cfi_restore_state
 870:../Middlewares/FreeRTOS//Source/CMSIS_RTOS/cmsis_os.c ****     }
 1612              		.loc 1 870 0
 1613 004a FF20     		movs	r0, #255
 1614 004c FBE7     		b	.L139
 1615              	.L143:
 864:../Middlewares/FreeRTOS//Source/CMSIS_RTOS/cmsis_os.c ****   portBASE_TYPE taskWoken = pdFALSE;
 1616              		.loc 1 864 0
 1617 004e 0020     		movs	r0, #0
 1618 0050 F9E7     		b	.L139
 1619              	.L144:
 876:../Middlewares/FreeRTOS//Source/CMSIS_RTOS/cmsis_os.c ****       result = osErrorOS;
 1620              		.loc 1 876 0
 1621 0052 FF20     		movs	r0, #255
 1622 0054 F7E7     		b	.L139
ARM GAS  /var/folders/l3/4y5292px21b4835bsnjwqc7w009kq1/T//ccUQPhZJ.s 			page 47


 1623              	.L147:
 1624 0056 00BF     		.align	2
 1625              	.L146:
 1626 0058 04ED00E0 		.word	-536810236
 1627              		.cfi_endproc
 1628              	.LFE153:
 1630              		.section	.text.osSemaphoreDelete,"ax",%progbits
 1631              		.align	1
 1632              		.global	osSemaphoreDelete
 1633              		.syntax unified
 1634              		.thumb
 1635              		.thumb_func
 1636              		.fpu fpv4-sp-d16
 1638              	osSemaphoreDelete:
 1639              	.LFB154:
 882:../Middlewares/FreeRTOS//Source/CMSIS_RTOS/cmsis_os.c **** 
 883:../Middlewares/FreeRTOS//Source/CMSIS_RTOS/cmsis_os.c **** /**
 884:../Middlewares/FreeRTOS//Source/CMSIS_RTOS/cmsis_os.c **** * @brief Delete a Semaphore
 885:../Middlewares/FreeRTOS//Source/CMSIS_RTOS/cmsis_os.c **** * @param  semaphore_id  semaphore object referenced with \ref osSemaphore.
 886:../Middlewares/FreeRTOS//Source/CMSIS_RTOS/cmsis_os.c **** * @retval  status code that indicates the execution status of the function.
 887:../Middlewares/FreeRTOS//Source/CMSIS_RTOS/cmsis_os.c **** * @note   MUST REMAIN UNCHANGED: \b osSemaphoreDelete shall be consistent in every CMSIS-RTOS.
 888:../Middlewares/FreeRTOS//Source/CMSIS_RTOS/cmsis_os.c **** */
 889:../Middlewares/FreeRTOS//Source/CMSIS_RTOS/cmsis_os.c **** osStatus osSemaphoreDelete (osSemaphoreId semaphore_id)
 890:../Middlewares/FreeRTOS//Source/CMSIS_RTOS/cmsis_os.c **** {
 1640              		.loc 1 890 0
 1641              		.cfi_startproc
 1642              		@ args = 0, pretend = 0, frame = 0
 1643              		@ frame_needed = 0, uses_anonymous_args = 0
 1644              	.LVL123:
 1645 0000 10B5     		push	{r4, lr}
 1646              	.LCFI55:
 1647              		.cfi_def_cfa_offset 8
 1648              		.cfi_offset 4, -8
 1649              		.cfi_offset 14, -4
 1650 0002 0446     		mov	r4, r0
 891:../Middlewares/FreeRTOS//Source/CMSIS_RTOS/cmsis_os.c ****   if (inHandlerMode()) {
 1651              		.loc 1 891 0
 1652 0004 FFF7FEFF 		bl	inHandlerMode
 1653              	.LVL124:
 1654 0008 20B9     		cbnz	r0, .L150
 892:../Middlewares/FreeRTOS//Source/CMSIS_RTOS/cmsis_os.c ****     return osErrorISR;
 893:../Middlewares/FreeRTOS//Source/CMSIS_RTOS/cmsis_os.c ****   }
 894:../Middlewares/FreeRTOS//Source/CMSIS_RTOS/cmsis_os.c **** 
 895:../Middlewares/FreeRTOS//Source/CMSIS_RTOS/cmsis_os.c ****   vSemaphoreDelete(semaphore_id);
 1655              		.loc 1 895 0
 1656 000a 2046     		mov	r0, r4
 1657 000c FFF7FEFF 		bl	vQueueDelete
 1658              	.LVL125:
 896:../Middlewares/FreeRTOS//Source/CMSIS_RTOS/cmsis_os.c **** 
 897:../Middlewares/FreeRTOS//Source/CMSIS_RTOS/cmsis_os.c ****   return osOK; 
 1659              		.loc 1 897 0
 1660 0010 0020     		movs	r0, #0
 1661              	.L148:
 898:../Middlewares/FreeRTOS//Source/CMSIS_RTOS/cmsis_os.c **** }
 1662              		.loc 1 898 0
 1663 0012 10BD     		pop	{r4, pc}
 1664              	.LVL126:
ARM GAS  /var/folders/l3/4y5292px21b4835bsnjwqc7w009kq1/T//ccUQPhZJ.s 			page 48


 1665              	.L150:
 892:../Middlewares/FreeRTOS//Source/CMSIS_RTOS/cmsis_os.c ****     return osErrorISR;
 1666              		.loc 1 892 0
 1667 0014 8220     		movs	r0, #130
 1668 0016 FCE7     		b	.L148
 1669              		.cfi_endproc
 1670              	.LFE154:
 1672              		.section	.text.osPoolCreate,"ax",%progbits
 1673              		.align	1
 1674              		.global	osPoolCreate
 1675              		.syntax unified
 1676              		.thumb
 1677              		.thumb_func
 1678              		.fpu fpv4-sp-d16
 1680              	osPoolCreate:
 1681              	.LFB155:
 899:../Middlewares/FreeRTOS//Source/CMSIS_RTOS/cmsis_os.c **** 
 900:../Middlewares/FreeRTOS//Source/CMSIS_RTOS/cmsis_os.c **** #endif    /* Use Semaphores */
 901:../Middlewares/FreeRTOS//Source/CMSIS_RTOS/cmsis_os.c **** 
 902:../Middlewares/FreeRTOS//Source/CMSIS_RTOS/cmsis_os.c **** /*******************   Memory Pool Management Functions  ***********************/
 903:../Middlewares/FreeRTOS//Source/CMSIS_RTOS/cmsis_os.c **** 
 904:../Middlewares/FreeRTOS//Source/CMSIS_RTOS/cmsis_os.c **** #if (defined (osFeature_Pool)  &&  (osFeature_Pool != 0)) 
 905:../Middlewares/FreeRTOS//Source/CMSIS_RTOS/cmsis_os.c **** 
 906:../Middlewares/FreeRTOS//Source/CMSIS_RTOS/cmsis_os.c **** //TODO
 907:../Middlewares/FreeRTOS//Source/CMSIS_RTOS/cmsis_os.c **** //This is a primitive and inefficient wrapper around the existing FreeRTOS memory management.
 908:../Middlewares/FreeRTOS//Source/CMSIS_RTOS/cmsis_os.c **** //A better implementation will have to modify heap_x.c!
 909:../Middlewares/FreeRTOS//Source/CMSIS_RTOS/cmsis_os.c **** 
 910:../Middlewares/FreeRTOS//Source/CMSIS_RTOS/cmsis_os.c **** 
 911:../Middlewares/FreeRTOS//Source/CMSIS_RTOS/cmsis_os.c **** typedef struct os_pool_cb {
 912:../Middlewares/FreeRTOS//Source/CMSIS_RTOS/cmsis_os.c ****   void *pool;
 913:../Middlewares/FreeRTOS//Source/CMSIS_RTOS/cmsis_os.c ****   uint8_t *markers;
 914:../Middlewares/FreeRTOS//Source/CMSIS_RTOS/cmsis_os.c ****   uint32_t pool_sz;
 915:../Middlewares/FreeRTOS//Source/CMSIS_RTOS/cmsis_os.c ****   uint32_t item_sz;
 916:../Middlewares/FreeRTOS//Source/CMSIS_RTOS/cmsis_os.c ****   uint32_t currentIndex;
 917:../Middlewares/FreeRTOS//Source/CMSIS_RTOS/cmsis_os.c **** } os_pool_cb_t;
 918:../Middlewares/FreeRTOS//Source/CMSIS_RTOS/cmsis_os.c **** 
 919:../Middlewares/FreeRTOS//Source/CMSIS_RTOS/cmsis_os.c **** 
 920:../Middlewares/FreeRTOS//Source/CMSIS_RTOS/cmsis_os.c **** /**
 921:../Middlewares/FreeRTOS//Source/CMSIS_RTOS/cmsis_os.c **** * @brief Create and Initialize a memory pool
 922:../Middlewares/FreeRTOS//Source/CMSIS_RTOS/cmsis_os.c **** * @param  pool_def      memory pool definition referenced with \ref osPool.
 923:../Middlewares/FreeRTOS//Source/CMSIS_RTOS/cmsis_os.c **** * @retval  memory pool ID for reference by other functions or NULL in case of error.
 924:../Middlewares/FreeRTOS//Source/CMSIS_RTOS/cmsis_os.c **** * @note   MUST REMAIN UNCHANGED: \b osPoolCreate shall be consistent in every CMSIS-RTOS.
 925:../Middlewares/FreeRTOS//Source/CMSIS_RTOS/cmsis_os.c **** */
 926:../Middlewares/FreeRTOS//Source/CMSIS_RTOS/cmsis_os.c **** osPoolId osPoolCreate (const osPoolDef_t *pool_def)
 927:../Middlewares/FreeRTOS//Source/CMSIS_RTOS/cmsis_os.c **** {
 1682              		.loc 1 927 0
 1683              		.cfi_startproc
 1684              		@ args = 0, pretend = 0, frame = 0
 1685              		@ frame_needed = 0, uses_anonymous_args = 0
 1686              	.LVL127:
 1687 0000 70B5     		push	{r4, r5, r6, lr}
 1688              	.LCFI56:
 1689              		.cfi_def_cfa_offset 16
 1690              		.cfi_offset 4, -16
 1691              		.cfi_offset 5, -12
 1692              		.cfi_offset 6, -8
 1693              		.cfi_offset 14, -4
ARM GAS  /var/folders/l3/4y5292px21b4835bsnjwqc7w009kq1/T//ccUQPhZJ.s 			page 49


 1694 0002 0546     		mov	r5, r0
 928:../Middlewares/FreeRTOS//Source/CMSIS_RTOS/cmsis_os.c **** #if (configSUPPORT_DYNAMIC_ALLOCATION == 1)
 929:../Middlewares/FreeRTOS//Source/CMSIS_RTOS/cmsis_os.c ****   osPoolId thePool;
 930:../Middlewares/FreeRTOS//Source/CMSIS_RTOS/cmsis_os.c ****   int itemSize = 4 * ((pool_def->item_sz + 3) / 4);
 1695              		.loc 1 930 0
 1696 0004 4668     		ldr	r6, [r0, #4]
 1697              	.LVL128:
 931:../Middlewares/FreeRTOS//Source/CMSIS_RTOS/cmsis_os.c ****   uint32_t i;
 932:../Middlewares/FreeRTOS//Source/CMSIS_RTOS/cmsis_os.c ****   
 933:../Middlewares/FreeRTOS//Source/CMSIS_RTOS/cmsis_os.c ****   /* First have to allocate memory for the pool control block. */
 934:../Middlewares/FreeRTOS//Source/CMSIS_RTOS/cmsis_os.c ****  thePool = pvPortMalloc(sizeof(os_pool_cb_t));
 1698              		.loc 1 934 0
 1699 0006 1420     		movs	r0, #20
 1700              	.LVL129:
 1701 0008 FFF7FEFF 		bl	pvPortMalloc
 1702              	.LVL130:
 935:../Middlewares/FreeRTOS//Source/CMSIS_RTOS/cmsis_os.c **** 
 936:../Middlewares/FreeRTOS//Source/CMSIS_RTOS/cmsis_os.c ****   
 937:../Middlewares/FreeRTOS//Source/CMSIS_RTOS/cmsis_os.c ****   if (thePool) {
 1703              		.loc 1 937 0
 1704 000c 0446     		mov	r4, r0
 1705 000e E0B1     		cbz	r0, .L152
 1706 0010 0336     		adds	r6, r6, #3
 1707              	.LVL131:
 1708 0012 26F00306 		bic	r6, r6, #3
 1709              	.LVL132:
 938:../Middlewares/FreeRTOS//Source/CMSIS_RTOS/cmsis_os.c ****     thePool->pool_sz = pool_def->pool_sz;
 1710              		.loc 1 938 0
 1711 0016 2B68     		ldr	r3, [r5]
 1712 0018 8360     		str	r3, [r0, #8]
 939:../Middlewares/FreeRTOS//Source/CMSIS_RTOS/cmsis_os.c ****     thePool->item_sz = itemSize;
 1713              		.loc 1 939 0
 1714 001a C660     		str	r6, [r0, #12]
 940:../Middlewares/FreeRTOS//Source/CMSIS_RTOS/cmsis_os.c ****     thePool->currentIndex = 0;
 1715              		.loc 1 940 0
 1716 001c 0023     		movs	r3, #0
 1717 001e 0361     		str	r3, [r0, #16]
 941:../Middlewares/FreeRTOS//Source/CMSIS_RTOS/cmsis_os.c ****     
 942:../Middlewares/FreeRTOS//Source/CMSIS_RTOS/cmsis_os.c ****     /* Memory for markers */
 943:../Middlewares/FreeRTOS//Source/CMSIS_RTOS/cmsis_os.c ****     thePool->markers = pvPortMalloc(pool_def->pool_sz);
 1718              		.loc 1 943 0
 1719 0020 2868     		ldr	r0, [r5]
 1720              	.LVL133:
 1721 0022 FFF7FEFF 		bl	pvPortMalloc
 1722              	.LVL134:
 1723 0026 6060     		str	r0, [r4, #4]
 944:../Middlewares/FreeRTOS//Source/CMSIS_RTOS/cmsis_os.c ****    
 945:../Middlewares/FreeRTOS//Source/CMSIS_RTOS/cmsis_os.c ****     if (thePool->markers) {
 1724              		.loc 1 945 0
 1725 0028 C8B1     		cbz	r0, .L154
 946:../Middlewares/FreeRTOS//Source/CMSIS_RTOS/cmsis_os.c ****       /* Now allocate the pool itself. */
 947:../Middlewares/FreeRTOS//Source/CMSIS_RTOS/cmsis_os.c ****      thePool->pool = pvPortMalloc(pool_def->pool_sz * itemSize);
 1726              		.loc 1 947 0
 1727 002a 2868     		ldr	r0, [r5]
 1728 002c 00FB06F0 		mul	r0, r0, r6
 1729 0030 FFF7FEFF 		bl	pvPortMalloc
 1730              	.LVL135:
ARM GAS  /var/folders/l3/4y5292px21b4835bsnjwqc7w009kq1/T//ccUQPhZJ.s 			page 50


 1731 0034 2060     		str	r0, [r4]
 948:../Middlewares/FreeRTOS//Source/CMSIS_RTOS/cmsis_os.c ****       
 949:../Middlewares/FreeRTOS//Source/CMSIS_RTOS/cmsis_os.c ****       if (thePool->pool) {
 1732              		.loc 1 949 0
 1733 0036 50B1     		cbz	r0, .L161
 950:../Middlewares/FreeRTOS//Source/CMSIS_RTOS/cmsis_os.c ****         for (i = 0; i < pool_def->pool_sz; i++) {
 1734              		.loc 1 950 0
 1735 0038 0023     		movs	r3, #0
 1736 003a 03E0     		b	.L155
 1737              	.LVL136:
 1738              	.L157:
 951:../Middlewares/FreeRTOS//Source/CMSIS_RTOS/cmsis_os.c ****           thePool->markers[i] = 0;
 1739              		.loc 1 951 0 discriminator 3
 1740 003c 6268     		ldr	r2, [r4, #4]
 1741 003e 0021     		movs	r1, #0
 1742 0040 D154     		strb	r1, [r2, r3]
 950:../Middlewares/FreeRTOS//Source/CMSIS_RTOS/cmsis_os.c ****         for (i = 0; i < pool_def->pool_sz; i++) {
 1743              		.loc 1 950 0 discriminator 3
 1744 0042 0133     		adds	r3, r3, #1
 1745              	.LVL137:
 1746              	.L155:
 950:../Middlewares/FreeRTOS//Source/CMSIS_RTOS/cmsis_os.c ****         for (i = 0; i < pool_def->pool_sz; i++) {
 1747              		.loc 1 950 0 is_stmt 0 discriminator 1
 1748 0044 2A68     		ldr	r2, [r5]
 1749 0046 9A42     		cmp	r2, r3
 1750 0048 F8D8     		bhi	.L157
 1751              	.LVL138:
 1752              	.L152:
 952:../Middlewares/FreeRTOS//Source/CMSIS_RTOS/cmsis_os.c ****         }
 953:../Middlewares/FreeRTOS//Source/CMSIS_RTOS/cmsis_os.c ****       }
 954:../Middlewares/FreeRTOS//Source/CMSIS_RTOS/cmsis_os.c ****       else {
 955:../Middlewares/FreeRTOS//Source/CMSIS_RTOS/cmsis_os.c ****         vPortFree(thePool->markers);
 956:../Middlewares/FreeRTOS//Source/CMSIS_RTOS/cmsis_os.c ****         vPortFree(thePool);
 957:../Middlewares/FreeRTOS//Source/CMSIS_RTOS/cmsis_os.c ****         thePool = NULL;
 958:../Middlewares/FreeRTOS//Source/CMSIS_RTOS/cmsis_os.c ****       }
 959:../Middlewares/FreeRTOS//Source/CMSIS_RTOS/cmsis_os.c ****     }
 960:../Middlewares/FreeRTOS//Source/CMSIS_RTOS/cmsis_os.c ****     else {
 961:../Middlewares/FreeRTOS//Source/CMSIS_RTOS/cmsis_os.c ****       vPortFree(thePool);
 962:../Middlewares/FreeRTOS//Source/CMSIS_RTOS/cmsis_os.c ****       thePool = NULL;
 963:../Middlewares/FreeRTOS//Source/CMSIS_RTOS/cmsis_os.c ****     }
 964:../Middlewares/FreeRTOS//Source/CMSIS_RTOS/cmsis_os.c ****   }
 965:../Middlewares/FreeRTOS//Source/CMSIS_RTOS/cmsis_os.c **** 
 966:../Middlewares/FreeRTOS//Source/CMSIS_RTOS/cmsis_os.c ****   return thePool;
 967:../Middlewares/FreeRTOS//Source/CMSIS_RTOS/cmsis_os.c ****  
 968:../Middlewares/FreeRTOS//Source/CMSIS_RTOS/cmsis_os.c **** #else
 969:../Middlewares/FreeRTOS//Source/CMSIS_RTOS/cmsis_os.c ****   return NULL;
 970:../Middlewares/FreeRTOS//Source/CMSIS_RTOS/cmsis_os.c **** #endif
 971:../Middlewares/FreeRTOS//Source/CMSIS_RTOS/cmsis_os.c **** }
 1753              		.loc 1 971 0 is_stmt 1
 1754 004a 2046     		mov	r0, r4
 1755 004c 70BD     		pop	{r4, r5, r6, pc}
 1756              	.LVL139:
 1757              	.L161:
 955:../Middlewares/FreeRTOS//Source/CMSIS_RTOS/cmsis_os.c ****         vPortFree(thePool);
 1758              		.loc 1 955 0
 1759 004e 6068     		ldr	r0, [r4, #4]
 1760 0050 FFF7FEFF 		bl	vPortFree
ARM GAS  /var/folders/l3/4y5292px21b4835bsnjwqc7w009kq1/T//ccUQPhZJ.s 			page 51


 1761              	.LVL140:
 956:../Middlewares/FreeRTOS//Source/CMSIS_RTOS/cmsis_os.c ****         thePool = NULL;
 1762              		.loc 1 956 0
 1763 0054 2046     		mov	r0, r4
 1764 0056 FFF7FEFF 		bl	vPortFree
 1765              	.LVL141:
 957:../Middlewares/FreeRTOS//Source/CMSIS_RTOS/cmsis_os.c ****       }
 1766              		.loc 1 957 0
 1767 005a 0024     		movs	r4, #0
 1768 005c F5E7     		b	.L152
 1769              	.LVL142:
 1770              	.L154:
 961:../Middlewares/FreeRTOS//Source/CMSIS_RTOS/cmsis_os.c ****       thePool = NULL;
 1771              		.loc 1 961 0
 1772 005e 2046     		mov	r0, r4
 1773 0060 FFF7FEFF 		bl	vPortFree
 1774              	.LVL143:
 962:../Middlewares/FreeRTOS//Source/CMSIS_RTOS/cmsis_os.c ****     }
 1775              		.loc 1 962 0
 1776 0064 0024     		movs	r4, #0
 966:../Middlewares/FreeRTOS//Source/CMSIS_RTOS/cmsis_os.c ****  
 1777              		.loc 1 966 0
 1778 0066 F0E7     		b	.L152
 1779              		.cfi_endproc
 1780              	.LFE155:
 1782              		.section	.text.osPoolAlloc,"ax",%progbits
 1783              		.align	1
 1784              		.global	osPoolAlloc
 1785              		.syntax unified
 1786              		.thumb
 1787              		.thumb_func
 1788              		.fpu fpv4-sp-d16
 1790              	osPoolAlloc:
 1791              	.LFB156:
 972:../Middlewares/FreeRTOS//Source/CMSIS_RTOS/cmsis_os.c **** 
 973:../Middlewares/FreeRTOS//Source/CMSIS_RTOS/cmsis_os.c **** /**
 974:../Middlewares/FreeRTOS//Source/CMSIS_RTOS/cmsis_os.c **** * @brief Allocate a memory block from a memory pool
 975:../Middlewares/FreeRTOS//Source/CMSIS_RTOS/cmsis_os.c **** * @param pool_id       memory pool ID obtain referenced with \ref osPoolCreate.
 976:../Middlewares/FreeRTOS//Source/CMSIS_RTOS/cmsis_os.c **** * @retval  address of the allocated memory block or NULL in case of no memory available.
 977:../Middlewares/FreeRTOS//Source/CMSIS_RTOS/cmsis_os.c **** * @note   MUST REMAIN UNCHANGED: \b osPoolAlloc shall be consistent in every CMSIS-RTOS.
 978:../Middlewares/FreeRTOS//Source/CMSIS_RTOS/cmsis_os.c **** */
 979:../Middlewares/FreeRTOS//Source/CMSIS_RTOS/cmsis_os.c **** void *osPoolAlloc (osPoolId pool_id)
 980:../Middlewares/FreeRTOS//Source/CMSIS_RTOS/cmsis_os.c **** {
 1792              		.loc 1 980 0
 1793              		.cfi_startproc
 1794              		@ args = 0, pretend = 0, frame = 0
 1795              		@ frame_needed = 0, uses_anonymous_args = 0
 1796              	.LVL144:
 1797 0000 70B5     		push	{r4, r5, r6, lr}
 1798              	.LCFI57:
 1799              		.cfi_def_cfa_offset 16
 1800              		.cfi_offset 4, -16
 1801              		.cfi_offset 5, -12
 1802              		.cfi_offset 6, -8
 1803              		.cfi_offset 14, -4
 1804 0002 0446     		mov	r4, r0
 1805              	.LVL145:
ARM GAS  /var/folders/l3/4y5292px21b4835bsnjwqc7w009kq1/T//ccUQPhZJ.s 			page 52


 981:../Middlewares/FreeRTOS//Source/CMSIS_RTOS/cmsis_os.c ****   int dummy = 0;
 982:../Middlewares/FreeRTOS//Source/CMSIS_RTOS/cmsis_os.c ****   void *p = NULL;
 983:../Middlewares/FreeRTOS//Source/CMSIS_RTOS/cmsis_os.c ****   uint32_t i;
 984:../Middlewares/FreeRTOS//Source/CMSIS_RTOS/cmsis_os.c ****   uint32_t index;
 985:../Middlewares/FreeRTOS//Source/CMSIS_RTOS/cmsis_os.c ****   
 986:../Middlewares/FreeRTOS//Source/CMSIS_RTOS/cmsis_os.c ****   if (inHandlerMode()) {
 1806              		.loc 1 986 0
 1807 0004 FFF7FEFF 		bl	inHandlerMode
 1808              	.LVL146:
 1809 0008 58B1     		cbz	r0, .L163
 1810              	.LBB10:
 1811              	.LBB11:
 1812              		.file 3 "../Middlewares/FreeRTOS//Source/portable/GCC/ARM_CM4F/portmacro.h"
   1:../Middlewares/FreeRTOS//Source/portable/GCC/ARM_CM4F/portmacro.h **** /*
   2:../Middlewares/FreeRTOS//Source/portable/GCC/ARM_CM4F/portmacro.h ****     FreeRTOS V9.0.0 - Copyright (C) 2016 Real Time Engineers Ltd.
   3:../Middlewares/FreeRTOS//Source/portable/GCC/ARM_CM4F/portmacro.h ****     All rights reserved
   4:../Middlewares/FreeRTOS//Source/portable/GCC/ARM_CM4F/portmacro.h **** 
   5:../Middlewares/FreeRTOS//Source/portable/GCC/ARM_CM4F/portmacro.h ****     VISIT http://www.FreeRTOS.org TO ENSURE YOU ARE USING THE LATEST VERSION.
   6:../Middlewares/FreeRTOS//Source/portable/GCC/ARM_CM4F/portmacro.h **** 
   7:../Middlewares/FreeRTOS//Source/portable/GCC/ARM_CM4F/portmacro.h ****     This file is part of the FreeRTOS distribution.
   8:../Middlewares/FreeRTOS//Source/portable/GCC/ARM_CM4F/portmacro.h **** 
   9:../Middlewares/FreeRTOS//Source/portable/GCC/ARM_CM4F/portmacro.h ****     FreeRTOS is free software; you can redistribute it and/or modify it under
  10:../Middlewares/FreeRTOS//Source/portable/GCC/ARM_CM4F/portmacro.h ****     the terms of the GNU General Public License (version 2) as published by the
  11:../Middlewares/FreeRTOS//Source/portable/GCC/ARM_CM4F/portmacro.h ****     Free Software Foundation >>>> AND MODIFIED BY <<<< the FreeRTOS exception.
  12:../Middlewares/FreeRTOS//Source/portable/GCC/ARM_CM4F/portmacro.h **** 
  13:../Middlewares/FreeRTOS//Source/portable/GCC/ARM_CM4F/portmacro.h ****     ***************************************************************************
  14:../Middlewares/FreeRTOS//Source/portable/GCC/ARM_CM4F/portmacro.h ****     >>!   NOTE: The modification to the GPL is included to allow you to     !<<
  15:../Middlewares/FreeRTOS//Source/portable/GCC/ARM_CM4F/portmacro.h ****     >>!   distribute a combined work that includes FreeRTOS without being   !<<
  16:../Middlewares/FreeRTOS//Source/portable/GCC/ARM_CM4F/portmacro.h ****     >>!   obliged to provide the source code for proprietary components     !<<
  17:../Middlewares/FreeRTOS//Source/portable/GCC/ARM_CM4F/portmacro.h ****     >>!   outside of the FreeRTOS kernel.                                   !<<
  18:../Middlewares/FreeRTOS//Source/portable/GCC/ARM_CM4F/portmacro.h ****     ***************************************************************************
  19:../Middlewares/FreeRTOS//Source/portable/GCC/ARM_CM4F/portmacro.h **** 
  20:../Middlewares/FreeRTOS//Source/portable/GCC/ARM_CM4F/portmacro.h ****     FreeRTOS is distributed in the hope that it will be useful, but WITHOUT ANY
  21:../Middlewares/FreeRTOS//Source/portable/GCC/ARM_CM4F/portmacro.h ****     WARRANTY; without even the implied warranty of MERCHANTABILITY or FITNESS
  22:../Middlewares/FreeRTOS//Source/portable/GCC/ARM_CM4F/portmacro.h ****     FOR A PARTICULAR PURPOSE.  Full license text is available on the following
  23:../Middlewares/FreeRTOS//Source/portable/GCC/ARM_CM4F/portmacro.h ****     link: http://www.freertos.org/a00114.html
  24:../Middlewares/FreeRTOS//Source/portable/GCC/ARM_CM4F/portmacro.h **** 
  25:../Middlewares/FreeRTOS//Source/portable/GCC/ARM_CM4F/portmacro.h ****     ***************************************************************************
  26:../Middlewares/FreeRTOS//Source/portable/GCC/ARM_CM4F/portmacro.h ****      *                                                                       *
  27:../Middlewares/FreeRTOS//Source/portable/GCC/ARM_CM4F/portmacro.h ****      *    FreeRTOS provides completely free yet professionally developed,    *
  28:../Middlewares/FreeRTOS//Source/portable/GCC/ARM_CM4F/portmacro.h ****      *    robust, strictly quality controlled, supported, and cross          *
  29:../Middlewares/FreeRTOS//Source/portable/GCC/ARM_CM4F/portmacro.h ****      *    platform software that is more than just the market leader, it     *
  30:../Middlewares/FreeRTOS//Source/portable/GCC/ARM_CM4F/portmacro.h ****      *    is the industry's de facto standard.                               *
  31:../Middlewares/FreeRTOS//Source/portable/GCC/ARM_CM4F/portmacro.h ****      *                                                                       *
  32:../Middlewares/FreeRTOS//Source/portable/GCC/ARM_CM4F/portmacro.h ****      *    Help yourself get started quickly while simultaneously helping     *
  33:../Middlewares/FreeRTOS//Source/portable/GCC/ARM_CM4F/portmacro.h ****      *    to support the FreeRTOS project by purchasing a FreeRTOS           *
  34:../Middlewares/FreeRTOS//Source/portable/GCC/ARM_CM4F/portmacro.h ****      *    tutorial book, reference manual, or both:                          *
  35:../Middlewares/FreeRTOS//Source/portable/GCC/ARM_CM4F/portmacro.h ****      *    http://www.FreeRTOS.org/Documentation                              *
  36:../Middlewares/FreeRTOS//Source/portable/GCC/ARM_CM4F/portmacro.h ****      *                                                                       *
  37:../Middlewares/FreeRTOS//Source/portable/GCC/ARM_CM4F/portmacro.h ****     ***************************************************************************
  38:../Middlewares/FreeRTOS//Source/portable/GCC/ARM_CM4F/portmacro.h **** 
  39:../Middlewares/FreeRTOS//Source/portable/GCC/ARM_CM4F/portmacro.h ****     http://www.FreeRTOS.org/FAQHelp.html - Having a problem?  Start by reading
  40:../Middlewares/FreeRTOS//Source/portable/GCC/ARM_CM4F/portmacro.h ****     the FAQ page "My application does not run, what could be wrong?".  Have you
  41:../Middlewares/FreeRTOS//Source/portable/GCC/ARM_CM4F/portmacro.h ****     defined configASSERT()?
  42:../Middlewares/FreeRTOS//Source/portable/GCC/ARM_CM4F/portmacro.h **** 
  43:../Middlewares/FreeRTOS//Source/portable/GCC/ARM_CM4F/portmacro.h ****     http://www.FreeRTOS.org/support - In return for receiving this top quality
  44:../Middlewares/FreeRTOS//Source/portable/GCC/ARM_CM4F/portmacro.h ****     embedded software for free we request you assist our global community by
ARM GAS  /var/folders/l3/4y5292px21b4835bsnjwqc7w009kq1/T//ccUQPhZJ.s 			page 53


  45:../Middlewares/FreeRTOS//Source/portable/GCC/ARM_CM4F/portmacro.h ****     participating in the support forum.
  46:../Middlewares/FreeRTOS//Source/portable/GCC/ARM_CM4F/portmacro.h **** 
  47:../Middlewares/FreeRTOS//Source/portable/GCC/ARM_CM4F/portmacro.h ****     http://www.FreeRTOS.org/training - Investing in training allows your team to
  48:../Middlewares/FreeRTOS//Source/portable/GCC/ARM_CM4F/portmacro.h ****     be as productive as possible as early as possible.  Now you can receive
  49:../Middlewares/FreeRTOS//Source/portable/GCC/ARM_CM4F/portmacro.h ****     FreeRTOS training directly from Richard Barry, CEO of Real Time Engineers
  50:../Middlewares/FreeRTOS//Source/portable/GCC/ARM_CM4F/portmacro.h ****     Ltd, and the world's leading authority on the world's leading RTOS.
  51:../Middlewares/FreeRTOS//Source/portable/GCC/ARM_CM4F/portmacro.h **** 
  52:../Middlewares/FreeRTOS//Source/portable/GCC/ARM_CM4F/portmacro.h ****     http://www.FreeRTOS.org/plus - A selection of FreeRTOS ecosystem products,
  53:../Middlewares/FreeRTOS//Source/portable/GCC/ARM_CM4F/portmacro.h ****     including FreeRTOS+Trace - an indispensable productivity tool, a DOS
  54:../Middlewares/FreeRTOS//Source/portable/GCC/ARM_CM4F/portmacro.h ****     compatible FAT file system, and our tiny thread aware UDP/IP stack.
  55:../Middlewares/FreeRTOS//Source/portable/GCC/ARM_CM4F/portmacro.h **** 
  56:../Middlewares/FreeRTOS//Source/portable/GCC/ARM_CM4F/portmacro.h ****     http://www.FreeRTOS.org/labs - Where new FreeRTOS products go to incubate.
  57:../Middlewares/FreeRTOS//Source/portable/GCC/ARM_CM4F/portmacro.h ****     Come and try FreeRTOS+TCP, our new open source TCP/IP stack for FreeRTOS.
  58:../Middlewares/FreeRTOS//Source/portable/GCC/ARM_CM4F/portmacro.h **** 
  59:../Middlewares/FreeRTOS//Source/portable/GCC/ARM_CM4F/portmacro.h ****     http://www.OpenRTOS.com - Real Time Engineers ltd. license FreeRTOS to High
  60:../Middlewares/FreeRTOS//Source/portable/GCC/ARM_CM4F/portmacro.h ****     Integrity Systems ltd. to sell under the OpenRTOS brand.  Low cost OpenRTOS
  61:../Middlewares/FreeRTOS//Source/portable/GCC/ARM_CM4F/portmacro.h ****     licenses offer ticketed support, indemnification and commercial middleware.
  62:../Middlewares/FreeRTOS//Source/portable/GCC/ARM_CM4F/portmacro.h **** 
  63:../Middlewares/FreeRTOS//Source/portable/GCC/ARM_CM4F/portmacro.h ****     http://www.SafeRTOS.com - High Integrity Systems also provide a safety
  64:../Middlewares/FreeRTOS//Source/portable/GCC/ARM_CM4F/portmacro.h ****     engineered and independently SIL3 certified version for use in safety and
  65:../Middlewares/FreeRTOS//Source/portable/GCC/ARM_CM4F/portmacro.h ****     mission critical applications that require provable dependability.
  66:../Middlewares/FreeRTOS//Source/portable/GCC/ARM_CM4F/portmacro.h **** 
  67:../Middlewares/FreeRTOS//Source/portable/GCC/ARM_CM4F/portmacro.h ****     1 tab == 4 spaces!
  68:../Middlewares/FreeRTOS//Source/portable/GCC/ARM_CM4F/portmacro.h **** */
  69:../Middlewares/FreeRTOS//Source/portable/GCC/ARM_CM4F/portmacro.h **** 
  70:../Middlewares/FreeRTOS//Source/portable/GCC/ARM_CM4F/portmacro.h **** 
  71:../Middlewares/FreeRTOS//Source/portable/GCC/ARM_CM4F/portmacro.h **** #ifndef PORTMACRO_H
  72:../Middlewares/FreeRTOS//Source/portable/GCC/ARM_CM4F/portmacro.h **** #define PORTMACRO_H
  73:../Middlewares/FreeRTOS//Source/portable/GCC/ARM_CM4F/portmacro.h **** 
  74:../Middlewares/FreeRTOS//Source/portable/GCC/ARM_CM4F/portmacro.h **** #ifdef __cplusplus
  75:../Middlewares/FreeRTOS//Source/portable/GCC/ARM_CM4F/portmacro.h **** extern "C" {
  76:../Middlewares/FreeRTOS//Source/portable/GCC/ARM_CM4F/portmacro.h **** #endif
  77:../Middlewares/FreeRTOS//Source/portable/GCC/ARM_CM4F/portmacro.h **** 
  78:../Middlewares/FreeRTOS//Source/portable/GCC/ARM_CM4F/portmacro.h **** /*-----------------------------------------------------------
  79:../Middlewares/FreeRTOS//Source/portable/GCC/ARM_CM4F/portmacro.h ****  * Port specific definitions.
  80:../Middlewares/FreeRTOS//Source/portable/GCC/ARM_CM4F/portmacro.h ****  *
  81:../Middlewares/FreeRTOS//Source/portable/GCC/ARM_CM4F/portmacro.h ****  * The settings in this file configure FreeRTOS correctly for the
  82:../Middlewares/FreeRTOS//Source/portable/GCC/ARM_CM4F/portmacro.h ****  * given hardware and compiler.
  83:../Middlewares/FreeRTOS//Source/portable/GCC/ARM_CM4F/portmacro.h ****  *
  84:../Middlewares/FreeRTOS//Source/portable/GCC/ARM_CM4F/portmacro.h ****  * These settings should not be altered.
  85:../Middlewares/FreeRTOS//Source/portable/GCC/ARM_CM4F/portmacro.h ****  *-----------------------------------------------------------
  86:../Middlewares/FreeRTOS//Source/portable/GCC/ARM_CM4F/portmacro.h ****  */
  87:../Middlewares/FreeRTOS//Source/portable/GCC/ARM_CM4F/portmacro.h **** 
  88:../Middlewares/FreeRTOS//Source/portable/GCC/ARM_CM4F/portmacro.h **** /* Type definitions. */
  89:../Middlewares/FreeRTOS//Source/portable/GCC/ARM_CM4F/portmacro.h **** #define portCHAR		char
  90:../Middlewares/FreeRTOS//Source/portable/GCC/ARM_CM4F/portmacro.h **** #define portFLOAT		float
  91:../Middlewares/FreeRTOS//Source/portable/GCC/ARM_CM4F/portmacro.h **** #define portDOUBLE		double
  92:../Middlewares/FreeRTOS//Source/portable/GCC/ARM_CM4F/portmacro.h **** #define portLONG		long
  93:../Middlewares/FreeRTOS//Source/portable/GCC/ARM_CM4F/portmacro.h **** #define portSHORT		short
  94:../Middlewares/FreeRTOS//Source/portable/GCC/ARM_CM4F/portmacro.h **** #define portSTACK_TYPE	uint32_t
  95:../Middlewares/FreeRTOS//Source/portable/GCC/ARM_CM4F/portmacro.h **** #define portBASE_TYPE	long
  96:../Middlewares/FreeRTOS//Source/portable/GCC/ARM_CM4F/portmacro.h **** 
  97:../Middlewares/FreeRTOS//Source/portable/GCC/ARM_CM4F/portmacro.h **** typedef portSTACK_TYPE StackType_t;
  98:../Middlewares/FreeRTOS//Source/portable/GCC/ARM_CM4F/portmacro.h **** typedef long BaseType_t;
  99:../Middlewares/FreeRTOS//Source/portable/GCC/ARM_CM4F/portmacro.h **** typedef unsigned long UBaseType_t;
 100:../Middlewares/FreeRTOS//Source/portable/GCC/ARM_CM4F/portmacro.h **** 
 101:../Middlewares/FreeRTOS//Source/portable/GCC/ARM_CM4F/portmacro.h **** #if( configUSE_16_BIT_TICKS == 1 )
ARM GAS  /var/folders/l3/4y5292px21b4835bsnjwqc7w009kq1/T//ccUQPhZJ.s 			page 54


 102:../Middlewares/FreeRTOS//Source/portable/GCC/ARM_CM4F/portmacro.h **** 	typedef uint16_t TickType_t;
 103:../Middlewares/FreeRTOS//Source/portable/GCC/ARM_CM4F/portmacro.h **** 	#define portMAX_DELAY ( TickType_t ) 0xffff
 104:../Middlewares/FreeRTOS//Source/portable/GCC/ARM_CM4F/portmacro.h **** #else
 105:../Middlewares/FreeRTOS//Source/portable/GCC/ARM_CM4F/portmacro.h **** 	typedef uint32_t TickType_t;
 106:../Middlewares/FreeRTOS//Source/portable/GCC/ARM_CM4F/portmacro.h **** 	#define portMAX_DELAY ( TickType_t ) 0xffffffffUL
 107:../Middlewares/FreeRTOS//Source/portable/GCC/ARM_CM4F/portmacro.h **** 
 108:../Middlewares/FreeRTOS//Source/portable/GCC/ARM_CM4F/portmacro.h **** 	/* 32-bit tick type on a 32-bit architecture, so reads of the tick count do
 109:../Middlewares/FreeRTOS//Source/portable/GCC/ARM_CM4F/portmacro.h **** 	not need to be guarded with a critical section. */
 110:../Middlewares/FreeRTOS//Source/portable/GCC/ARM_CM4F/portmacro.h **** 	#define portTICK_TYPE_IS_ATOMIC 1
 111:../Middlewares/FreeRTOS//Source/portable/GCC/ARM_CM4F/portmacro.h **** #endif
 112:../Middlewares/FreeRTOS//Source/portable/GCC/ARM_CM4F/portmacro.h **** /*-----------------------------------------------------------*/
 113:../Middlewares/FreeRTOS//Source/portable/GCC/ARM_CM4F/portmacro.h **** 
 114:../Middlewares/FreeRTOS//Source/portable/GCC/ARM_CM4F/portmacro.h **** /* Architecture specifics. */
 115:../Middlewares/FreeRTOS//Source/portable/GCC/ARM_CM4F/portmacro.h **** #define portSTACK_GROWTH			( -1 )
 116:../Middlewares/FreeRTOS//Source/portable/GCC/ARM_CM4F/portmacro.h **** #define portTICK_PERIOD_MS			( ( TickType_t ) 1000 / configTICK_RATE_HZ )
 117:../Middlewares/FreeRTOS//Source/portable/GCC/ARM_CM4F/portmacro.h **** #define portBYTE_ALIGNMENT			8
 118:../Middlewares/FreeRTOS//Source/portable/GCC/ARM_CM4F/portmacro.h **** /*-----------------------------------------------------------*/
 119:../Middlewares/FreeRTOS//Source/portable/GCC/ARM_CM4F/portmacro.h **** 
 120:../Middlewares/FreeRTOS//Source/portable/GCC/ARM_CM4F/portmacro.h **** /* Scheduler utilities. */
 121:../Middlewares/FreeRTOS//Source/portable/GCC/ARM_CM4F/portmacro.h **** #define portYIELD() 															\
 122:../Middlewares/FreeRTOS//Source/portable/GCC/ARM_CM4F/portmacro.h **** {																				\
 123:../Middlewares/FreeRTOS//Source/portable/GCC/ARM_CM4F/portmacro.h **** 	/* Set a PendSV to request a context switch. */								\
 124:../Middlewares/FreeRTOS//Source/portable/GCC/ARM_CM4F/portmacro.h **** 	portNVIC_INT_CTRL_REG = portNVIC_PENDSVSET_BIT;								\
 125:../Middlewares/FreeRTOS//Source/portable/GCC/ARM_CM4F/portmacro.h **** 																				\
 126:../Middlewares/FreeRTOS//Source/portable/GCC/ARM_CM4F/portmacro.h **** 	/* Barriers are normally not required but do ensure the code is completely	\
 127:../Middlewares/FreeRTOS//Source/portable/GCC/ARM_CM4F/portmacro.h **** 	within the specified behaviour for the architecture. */						\
 128:../Middlewares/FreeRTOS//Source/portable/GCC/ARM_CM4F/portmacro.h **** 	__asm volatile( "dsb" );													\
 129:../Middlewares/FreeRTOS//Source/portable/GCC/ARM_CM4F/portmacro.h **** 	__asm volatile( "isb" );													\
 130:../Middlewares/FreeRTOS//Source/portable/GCC/ARM_CM4F/portmacro.h **** }
 131:../Middlewares/FreeRTOS//Source/portable/GCC/ARM_CM4F/portmacro.h **** 
 132:../Middlewares/FreeRTOS//Source/portable/GCC/ARM_CM4F/portmacro.h **** #define portNVIC_INT_CTRL_REG		( * ( ( volatile uint32_t * ) 0xe000ed04 ) )
 133:../Middlewares/FreeRTOS//Source/portable/GCC/ARM_CM4F/portmacro.h **** #define portNVIC_PENDSVSET_BIT		( 1UL << 28UL )
 134:../Middlewares/FreeRTOS//Source/portable/GCC/ARM_CM4F/portmacro.h **** #define portEND_SWITCHING_ISR( xSwitchRequired ) if( xSwitchRequired != pdFALSE ) portYIELD()
 135:../Middlewares/FreeRTOS//Source/portable/GCC/ARM_CM4F/portmacro.h **** #define portYIELD_FROM_ISR( x ) portEND_SWITCHING_ISR( x )
 136:../Middlewares/FreeRTOS//Source/portable/GCC/ARM_CM4F/portmacro.h **** /*-----------------------------------------------------------*/
 137:../Middlewares/FreeRTOS//Source/portable/GCC/ARM_CM4F/portmacro.h **** 
 138:../Middlewares/FreeRTOS//Source/portable/GCC/ARM_CM4F/portmacro.h **** /* Critical section management. */
 139:../Middlewares/FreeRTOS//Source/portable/GCC/ARM_CM4F/portmacro.h **** extern void vPortEnterCritical( void );
 140:../Middlewares/FreeRTOS//Source/portable/GCC/ARM_CM4F/portmacro.h **** extern void vPortExitCritical( void );
 141:../Middlewares/FreeRTOS//Source/portable/GCC/ARM_CM4F/portmacro.h **** #define portSET_INTERRUPT_MASK_FROM_ISR()		ulPortRaiseBASEPRI()
 142:../Middlewares/FreeRTOS//Source/portable/GCC/ARM_CM4F/portmacro.h **** #define portCLEAR_INTERRUPT_MASK_FROM_ISR(x)	vPortSetBASEPRI(x)
 143:../Middlewares/FreeRTOS//Source/portable/GCC/ARM_CM4F/portmacro.h **** #define portDISABLE_INTERRUPTS()				vPortRaiseBASEPRI()
 144:../Middlewares/FreeRTOS//Source/portable/GCC/ARM_CM4F/portmacro.h **** #define portENABLE_INTERRUPTS()					vPortSetBASEPRI(0)
 145:../Middlewares/FreeRTOS//Source/portable/GCC/ARM_CM4F/portmacro.h **** #define portENTER_CRITICAL()					vPortEnterCritical()
 146:../Middlewares/FreeRTOS//Source/portable/GCC/ARM_CM4F/portmacro.h **** #define portEXIT_CRITICAL()						vPortExitCritical()
 147:../Middlewares/FreeRTOS//Source/portable/GCC/ARM_CM4F/portmacro.h **** 
 148:../Middlewares/FreeRTOS//Source/portable/GCC/ARM_CM4F/portmacro.h **** /*-----------------------------------------------------------*/
 149:../Middlewares/FreeRTOS//Source/portable/GCC/ARM_CM4F/portmacro.h **** 
 150:../Middlewares/FreeRTOS//Source/portable/GCC/ARM_CM4F/portmacro.h **** /* Task function macros as described on the FreeRTOS.org WEB site.  These are
 151:../Middlewares/FreeRTOS//Source/portable/GCC/ARM_CM4F/portmacro.h **** not necessary for to use this port.  They are defined so the common demo files
 152:../Middlewares/FreeRTOS//Source/portable/GCC/ARM_CM4F/portmacro.h **** (which build with all the ports) will build. */
 153:../Middlewares/FreeRTOS//Source/portable/GCC/ARM_CM4F/portmacro.h **** #define portTASK_FUNCTION_PROTO( vFunction, pvParameters ) void vFunction( void *pvParameters )
 154:../Middlewares/FreeRTOS//Source/portable/GCC/ARM_CM4F/portmacro.h **** #define portTASK_FUNCTION( vFunction, pvParameters ) void vFunction( void *pvParameters )
 155:../Middlewares/FreeRTOS//Source/portable/GCC/ARM_CM4F/portmacro.h **** /*-----------------------------------------------------------*/
 156:../Middlewares/FreeRTOS//Source/portable/GCC/ARM_CM4F/portmacro.h **** 
 157:../Middlewares/FreeRTOS//Source/portable/GCC/ARM_CM4F/portmacro.h **** /* Tickless idle/low power functionality. */
 158:../Middlewares/FreeRTOS//Source/portable/GCC/ARM_CM4F/portmacro.h **** #ifndef portSUPPRESS_TICKS_AND_SLEEP
ARM GAS  /var/folders/l3/4y5292px21b4835bsnjwqc7w009kq1/T//ccUQPhZJ.s 			page 55


 159:../Middlewares/FreeRTOS//Source/portable/GCC/ARM_CM4F/portmacro.h **** 	extern void vPortSuppressTicksAndSleep( TickType_t xExpectedIdleTime );
 160:../Middlewares/FreeRTOS//Source/portable/GCC/ARM_CM4F/portmacro.h **** 	#define portSUPPRESS_TICKS_AND_SLEEP( xExpectedIdleTime ) vPortSuppressTicksAndSleep( xExpectedIdl
 161:../Middlewares/FreeRTOS//Source/portable/GCC/ARM_CM4F/portmacro.h **** #endif
 162:../Middlewares/FreeRTOS//Source/portable/GCC/ARM_CM4F/portmacro.h **** /*-----------------------------------------------------------*/
 163:../Middlewares/FreeRTOS//Source/portable/GCC/ARM_CM4F/portmacro.h **** 
 164:../Middlewares/FreeRTOS//Source/portable/GCC/ARM_CM4F/portmacro.h **** /* Architecture specific optimisations. */
 165:../Middlewares/FreeRTOS//Source/portable/GCC/ARM_CM4F/portmacro.h **** #ifndef configUSE_PORT_OPTIMISED_TASK_SELECTION
 166:../Middlewares/FreeRTOS//Source/portable/GCC/ARM_CM4F/portmacro.h **** 	#define configUSE_PORT_OPTIMISED_TASK_SELECTION 1
 167:../Middlewares/FreeRTOS//Source/portable/GCC/ARM_CM4F/portmacro.h **** #endif
 168:../Middlewares/FreeRTOS//Source/portable/GCC/ARM_CM4F/portmacro.h **** 
 169:../Middlewares/FreeRTOS//Source/portable/GCC/ARM_CM4F/portmacro.h **** #if configUSE_PORT_OPTIMISED_TASK_SELECTION == 1
 170:../Middlewares/FreeRTOS//Source/portable/GCC/ARM_CM4F/portmacro.h **** 
 171:../Middlewares/FreeRTOS//Source/portable/GCC/ARM_CM4F/portmacro.h **** 	/* Generic helper function. */
 172:../Middlewares/FreeRTOS//Source/portable/GCC/ARM_CM4F/portmacro.h **** 	__attribute__( ( always_inline ) ) static inline uint8_t ucPortCountLeadingZeros( uint32_t ulBitma
 173:../Middlewares/FreeRTOS//Source/portable/GCC/ARM_CM4F/portmacro.h **** 	{
 174:../Middlewares/FreeRTOS//Source/portable/GCC/ARM_CM4F/portmacro.h **** 	uint8_t ucReturn;
 175:../Middlewares/FreeRTOS//Source/portable/GCC/ARM_CM4F/portmacro.h **** 
 176:../Middlewares/FreeRTOS//Source/portable/GCC/ARM_CM4F/portmacro.h **** 		__asm volatile ( "clz %0, %1" : "=r" ( ucReturn ) : "r" ( ulBitmap ) );
 177:../Middlewares/FreeRTOS//Source/portable/GCC/ARM_CM4F/portmacro.h **** 		return ucReturn;
 178:../Middlewares/FreeRTOS//Source/portable/GCC/ARM_CM4F/portmacro.h **** 	}
 179:../Middlewares/FreeRTOS//Source/portable/GCC/ARM_CM4F/portmacro.h **** 
 180:../Middlewares/FreeRTOS//Source/portable/GCC/ARM_CM4F/portmacro.h **** 	/* Check the configuration. */
 181:../Middlewares/FreeRTOS//Source/portable/GCC/ARM_CM4F/portmacro.h **** 	#if( configMAX_PRIORITIES > 32 )
 182:../Middlewares/FreeRTOS//Source/portable/GCC/ARM_CM4F/portmacro.h **** 		#error configUSE_PORT_OPTIMISED_TASK_SELECTION can only be set to 1 when configMAX_PRIORITIES is 
 183:../Middlewares/FreeRTOS//Source/portable/GCC/ARM_CM4F/portmacro.h **** 	#endif
 184:../Middlewares/FreeRTOS//Source/portable/GCC/ARM_CM4F/portmacro.h **** 
 185:../Middlewares/FreeRTOS//Source/portable/GCC/ARM_CM4F/portmacro.h **** 	/* Store/clear the ready priorities in a bit map. */
 186:../Middlewares/FreeRTOS//Source/portable/GCC/ARM_CM4F/portmacro.h **** 	#define portRECORD_READY_PRIORITY( uxPriority, uxReadyPriorities ) ( uxReadyPriorities ) |= ( 1UL 
 187:../Middlewares/FreeRTOS//Source/portable/GCC/ARM_CM4F/portmacro.h **** 	#define portRESET_READY_PRIORITY( uxPriority, uxReadyPriorities ) ( uxReadyPriorities ) &= ~( 1UL 
 188:../Middlewares/FreeRTOS//Source/portable/GCC/ARM_CM4F/portmacro.h **** 
 189:../Middlewares/FreeRTOS//Source/portable/GCC/ARM_CM4F/portmacro.h **** 	/*-----------------------------------------------------------*/
 190:../Middlewares/FreeRTOS//Source/portable/GCC/ARM_CM4F/portmacro.h **** 
 191:../Middlewares/FreeRTOS//Source/portable/GCC/ARM_CM4F/portmacro.h **** 	#define portGET_HIGHEST_PRIORITY( uxTopPriority, uxReadyPriorities ) uxTopPriority = ( 31UL - ( ui
 192:../Middlewares/FreeRTOS//Source/portable/GCC/ARM_CM4F/portmacro.h **** 
 193:../Middlewares/FreeRTOS//Source/portable/GCC/ARM_CM4F/portmacro.h **** #endif /* configUSE_PORT_OPTIMISED_TASK_SELECTION */
 194:../Middlewares/FreeRTOS//Source/portable/GCC/ARM_CM4F/portmacro.h **** 
 195:../Middlewares/FreeRTOS//Source/portable/GCC/ARM_CM4F/portmacro.h **** /*-----------------------------------------------------------*/
 196:../Middlewares/FreeRTOS//Source/portable/GCC/ARM_CM4F/portmacro.h **** 
 197:../Middlewares/FreeRTOS//Source/portable/GCC/ARM_CM4F/portmacro.h **** #ifdef configASSERT
 198:../Middlewares/FreeRTOS//Source/portable/GCC/ARM_CM4F/portmacro.h **** 	void vPortValidateInterruptPriority( void );
 199:../Middlewares/FreeRTOS//Source/portable/GCC/ARM_CM4F/portmacro.h **** 	#define portASSERT_IF_INTERRUPT_PRIORITY_INVALID() 	vPortValidateInterruptPriority()
 200:../Middlewares/FreeRTOS//Source/portable/GCC/ARM_CM4F/portmacro.h **** #endif
 201:../Middlewares/FreeRTOS//Source/portable/GCC/ARM_CM4F/portmacro.h **** 
 202:../Middlewares/FreeRTOS//Source/portable/GCC/ARM_CM4F/portmacro.h **** /* portNOP() is not required by this port. */
 203:../Middlewares/FreeRTOS//Source/portable/GCC/ARM_CM4F/portmacro.h **** #define portNOP()
 204:../Middlewares/FreeRTOS//Source/portable/GCC/ARM_CM4F/portmacro.h **** 
 205:../Middlewares/FreeRTOS//Source/portable/GCC/ARM_CM4F/portmacro.h **** #define portINLINE	__inline
 206:../Middlewares/FreeRTOS//Source/portable/GCC/ARM_CM4F/portmacro.h **** 
 207:../Middlewares/FreeRTOS//Source/portable/GCC/ARM_CM4F/portmacro.h **** #ifndef portFORCE_INLINE
 208:../Middlewares/FreeRTOS//Source/portable/GCC/ARM_CM4F/portmacro.h **** 	#define portFORCE_INLINE inline __attribute__(( always_inline))
 209:../Middlewares/FreeRTOS//Source/portable/GCC/ARM_CM4F/portmacro.h **** #endif
 210:../Middlewares/FreeRTOS//Source/portable/GCC/ARM_CM4F/portmacro.h **** 
 211:../Middlewares/FreeRTOS//Source/portable/GCC/ARM_CM4F/portmacro.h **** portFORCE_INLINE static BaseType_t xPortIsInsideInterrupt( void )
 212:../Middlewares/FreeRTOS//Source/portable/GCC/ARM_CM4F/portmacro.h **** {
 213:../Middlewares/FreeRTOS//Source/portable/GCC/ARM_CM4F/portmacro.h **** uint32_t ulCurrentInterrupt;
 214:../Middlewares/FreeRTOS//Source/portable/GCC/ARM_CM4F/portmacro.h **** BaseType_t xReturn;
 215:../Middlewares/FreeRTOS//Source/portable/GCC/ARM_CM4F/portmacro.h **** 
ARM GAS  /var/folders/l3/4y5292px21b4835bsnjwqc7w009kq1/T//ccUQPhZJ.s 			page 56


 216:../Middlewares/FreeRTOS//Source/portable/GCC/ARM_CM4F/portmacro.h **** 	/* Obtain the number of the currently executing interrupt. */
 217:../Middlewares/FreeRTOS//Source/portable/GCC/ARM_CM4F/portmacro.h **** 	__asm volatile( "mrs %0, ipsr" : "=r"( ulCurrentInterrupt ) );
 218:../Middlewares/FreeRTOS//Source/portable/GCC/ARM_CM4F/portmacro.h **** 
 219:../Middlewares/FreeRTOS//Source/portable/GCC/ARM_CM4F/portmacro.h **** 	if( ulCurrentInterrupt == 0 )
 220:../Middlewares/FreeRTOS//Source/portable/GCC/ARM_CM4F/portmacro.h **** 	{
 221:../Middlewares/FreeRTOS//Source/portable/GCC/ARM_CM4F/portmacro.h **** 		xReturn = pdFALSE;
 222:../Middlewares/FreeRTOS//Source/portable/GCC/ARM_CM4F/portmacro.h **** 	}
 223:../Middlewares/FreeRTOS//Source/portable/GCC/ARM_CM4F/portmacro.h **** 	else
 224:../Middlewares/FreeRTOS//Source/portable/GCC/ARM_CM4F/portmacro.h **** 	{
 225:../Middlewares/FreeRTOS//Source/portable/GCC/ARM_CM4F/portmacro.h **** 		xReturn = pdTRUE;
 226:../Middlewares/FreeRTOS//Source/portable/GCC/ARM_CM4F/portmacro.h **** 	}
 227:../Middlewares/FreeRTOS//Source/portable/GCC/ARM_CM4F/portmacro.h **** 
 228:../Middlewares/FreeRTOS//Source/portable/GCC/ARM_CM4F/portmacro.h **** 	return xReturn;
 229:../Middlewares/FreeRTOS//Source/portable/GCC/ARM_CM4F/portmacro.h **** }
 230:../Middlewares/FreeRTOS//Source/portable/GCC/ARM_CM4F/portmacro.h **** 
 231:../Middlewares/FreeRTOS//Source/portable/GCC/ARM_CM4F/portmacro.h **** /*-----------------------------------------------------------*/
 232:../Middlewares/FreeRTOS//Source/portable/GCC/ARM_CM4F/portmacro.h **** 
 233:../Middlewares/FreeRTOS//Source/portable/GCC/ARM_CM4F/portmacro.h **** portFORCE_INLINE static void vPortRaiseBASEPRI( void )
 234:../Middlewares/FreeRTOS//Source/portable/GCC/ARM_CM4F/portmacro.h **** {
 235:../Middlewares/FreeRTOS//Source/portable/GCC/ARM_CM4F/portmacro.h **** uint32_t ulNewBASEPRI;
 236:../Middlewares/FreeRTOS//Source/portable/GCC/ARM_CM4F/portmacro.h **** 
 237:../Middlewares/FreeRTOS//Source/portable/GCC/ARM_CM4F/portmacro.h **** 	__asm volatile
 238:../Middlewares/FreeRTOS//Source/portable/GCC/ARM_CM4F/portmacro.h **** 	(
 239:../Middlewares/FreeRTOS//Source/portable/GCC/ARM_CM4F/portmacro.h **** 		"	mov %0, %1												\n"	\
 240:../Middlewares/FreeRTOS//Source/portable/GCC/ARM_CM4F/portmacro.h **** 		"	msr basepri, %0											\n" \
 241:../Middlewares/FreeRTOS//Source/portable/GCC/ARM_CM4F/portmacro.h **** 		"	isb														\n" \
 242:../Middlewares/FreeRTOS//Source/portable/GCC/ARM_CM4F/portmacro.h **** 		"	dsb														\n" \
 243:../Middlewares/FreeRTOS//Source/portable/GCC/ARM_CM4F/portmacro.h **** 		:"=r" (ulNewBASEPRI) : "i" ( configMAX_SYSCALL_INTERRUPT_PRIORITY )
 244:../Middlewares/FreeRTOS//Source/portable/GCC/ARM_CM4F/portmacro.h **** 	);
 245:../Middlewares/FreeRTOS//Source/portable/GCC/ARM_CM4F/portmacro.h **** }
 246:../Middlewares/FreeRTOS//Source/portable/GCC/ARM_CM4F/portmacro.h **** 
 247:../Middlewares/FreeRTOS//Source/portable/GCC/ARM_CM4F/portmacro.h **** /*-----------------------------------------------------------*/
 248:../Middlewares/FreeRTOS//Source/portable/GCC/ARM_CM4F/portmacro.h **** 
 249:../Middlewares/FreeRTOS//Source/portable/GCC/ARM_CM4F/portmacro.h **** portFORCE_INLINE static uint32_t ulPortRaiseBASEPRI( void )
 250:../Middlewares/FreeRTOS//Source/portable/GCC/ARM_CM4F/portmacro.h **** {
 251:../Middlewares/FreeRTOS//Source/portable/GCC/ARM_CM4F/portmacro.h **** uint32_t ulOriginalBASEPRI, ulNewBASEPRI;
 252:../Middlewares/FreeRTOS//Source/portable/GCC/ARM_CM4F/portmacro.h **** 
 253:../Middlewares/FreeRTOS//Source/portable/GCC/ARM_CM4F/portmacro.h **** 	__asm volatile
 1813              		.loc 3 253 0
 1814              		.syntax unified
 1815              	@ 253 "../Middlewares/FreeRTOS//Source/portable/GCC/ARM_CM4F/portmacro.h" 1
 1816 000a EFF31185 			mrs r5, basepri											
 1817 000e 4FF01003 		mov r3, #16												
 1818 0012 83F31188 		msr basepri, r3											
 1819 0016 BFF36F8F 		isb														
 1820 001a BFF34F8F 		dsb														
 1821              	
 1822              	@ 0 "" 2
 1823              	.LVL147:
 1824              		.thumb
 1825              		.syntax unified
 1826              	.L164:
 1827              	.LBE11:
 1828              	.LBE10:
 987:../Middlewares/FreeRTOS//Source/CMSIS_RTOS/cmsis_os.c ****     dummy = portSET_INTERRUPT_MASK_FROM_ISR();
 988:../Middlewares/FreeRTOS//Source/CMSIS_RTOS/cmsis_os.c ****   }
 989:../Middlewares/FreeRTOS//Source/CMSIS_RTOS/cmsis_os.c ****   else {
ARM GAS  /var/folders/l3/4y5292px21b4835bsnjwqc7w009kq1/T//ccUQPhZJ.s 			page 57


 990:../Middlewares/FreeRTOS//Source/CMSIS_RTOS/cmsis_os.c ****     vPortEnterCritical();
 991:../Middlewares/FreeRTOS//Source/CMSIS_RTOS/cmsis_os.c ****   }
 992:../Middlewares/FreeRTOS//Source/CMSIS_RTOS/cmsis_os.c ****   
 993:../Middlewares/FreeRTOS//Source/CMSIS_RTOS/cmsis_os.c ****   for (i = 0; i < pool_id->pool_sz; i++) {
 1829              		.loc 1 993 0
 1830 001e 0022     		movs	r2, #0
 1831 0020 08E0     		b	.L165
 1832              	.LVL148:
 1833              	.L163:
 1834 0022 0546     		mov	r5, r0
 990:../Middlewares/FreeRTOS//Source/CMSIS_RTOS/cmsis_os.c ****   }
 1835              		.loc 1 990 0
 1836 0024 FFF7FEFF 		bl	vPortEnterCritical
 1837              	.LVL149:
 1838 0028 F9E7     		b	.L164
 1839              	.LVL150:
 1840              	.L166:
 994:../Middlewares/FreeRTOS//Source/CMSIS_RTOS/cmsis_os.c ****     index = pool_id->currentIndex + i;
 995:../Middlewares/FreeRTOS//Source/CMSIS_RTOS/cmsis_os.c ****     if (index >= pool_id->pool_sz) {
 996:../Middlewares/FreeRTOS//Source/CMSIS_RTOS/cmsis_os.c ****       index = 0;
 997:../Middlewares/FreeRTOS//Source/CMSIS_RTOS/cmsis_os.c ****     }
 998:../Middlewares/FreeRTOS//Source/CMSIS_RTOS/cmsis_os.c ****     
 999:../Middlewares/FreeRTOS//Source/CMSIS_RTOS/cmsis_os.c ****     if (pool_id->markers[index] == 0) {
 1841              		.loc 1 999 0
 1842 002a 6168     		ldr	r1, [r4, #4]
 1843 002c C818     		adds	r0, r1, r3
 1844 002e C95C     		ldrb	r1, [r1, r3]	@ zero_extendqisi2
 1845 0030 49B1     		cbz	r1, .L174
 993:../Middlewares/FreeRTOS//Source/CMSIS_RTOS/cmsis_os.c ****     index = pool_id->currentIndex + i;
 1846              		.loc 1 993 0 discriminator 2
 1847 0032 0132     		adds	r2, r2, #1
 1848              	.LVL151:
 1849              	.L165:
 993:../Middlewares/FreeRTOS//Source/CMSIS_RTOS/cmsis_os.c ****     index = pool_id->currentIndex + i;
 1850              		.loc 1 993 0 is_stmt 0 discriminator 1
 1851 0034 A168     		ldr	r1, [r4, #8]
 1852 0036 9142     		cmp	r1, r2
 1853 0038 0DD9     		bls	.L175
 994:../Middlewares/FreeRTOS//Source/CMSIS_RTOS/cmsis_os.c ****     index = pool_id->currentIndex + i;
 1854              		.loc 1 994 0 is_stmt 1
 1855 003a 2369     		ldr	r3, [r4, #16]
 1856 003c 1344     		add	r3, r3, r2
 1857              	.LVL152:
 995:../Middlewares/FreeRTOS//Source/CMSIS_RTOS/cmsis_os.c ****       index = 0;
 1858              		.loc 1 995 0
 1859 003e 9942     		cmp	r1, r3
 1860 0040 F3D8     		bhi	.L166
 996:../Middlewares/FreeRTOS//Source/CMSIS_RTOS/cmsis_os.c ****     }
 1861              		.loc 1 996 0
 1862 0042 0023     		movs	r3, #0
 1863              	.LVL153:
 1864 0044 F1E7     		b	.L166
 1865              	.LVL154:
 1866              	.L174:
1000:../Middlewares/FreeRTOS//Source/CMSIS_RTOS/cmsis_os.c ****       pool_id->markers[index] = 1;
 1867              		.loc 1 1000 0
 1868 0046 0122     		movs	r2, #1
ARM GAS  /var/folders/l3/4y5292px21b4835bsnjwqc7w009kq1/T//ccUQPhZJ.s 			page 58


 1869              	.LVL155:
 1870 0048 0270     		strb	r2, [r0]
1001:../Middlewares/FreeRTOS//Source/CMSIS_RTOS/cmsis_os.c ****       p = (void *)((uint32_t)(pool_id->pool) + (index * pool_id->item_sz));
 1871              		.loc 1 1001 0
 1872 004a 2268     		ldr	r2, [r4]
 1873 004c E668     		ldr	r6, [r4, #12]
 1874 004e 03FB0626 		mla	r6, r3, r6, r2
 1875              	.LVL156:
1002:../Middlewares/FreeRTOS//Source/CMSIS_RTOS/cmsis_os.c ****       pool_id->currentIndex = index;
 1876              		.loc 1 1002 0
 1877 0052 2361     		str	r3, [r4, #16]
1003:../Middlewares/FreeRTOS//Source/CMSIS_RTOS/cmsis_os.c ****       break;
 1878              		.loc 1 1003 0
 1879 0054 00E0     		b	.L168
 1880              	.LVL157:
 1881              	.L175:
 982:../Middlewares/FreeRTOS//Source/CMSIS_RTOS/cmsis_os.c ****   uint32_t i;
 1882              		.loc 1 982 0
 1883 0056 0026     		movs	r6, #0
 1884              	.LVL158:
 1885              	.L168:
1004:../Middlewares/FreeRTOS//Source/CMSIS_RTOS/cmsis_os.c ****     }
1005:../Middlewares/FreeRTOS//Source/CMSIS_RTOS/cmsis_os.c ****   }
1006:../Middlewares/FreeRTOS//Source/CMSIS_RTOS/cmsis_os.c ****   
1007:../Middlewares/FreeRTOS//Source/CMSIS_RTOS/cmsis_os.c ****   if (inHandlerMode()) {
 1886              		.loc 1 1007 0
 1887 0058 FFF7FEFF 		bl	inHandlerMode
 1888              	.LVL159:
 1889 005c 18B1     		cbz	r0, .L170
 1890              	.LVL160:
 1891              	.LBB12:
 1892              	.LBB13:
 254:../Middlewares/FreeRTOS//Source/portable/GCC/ARM_CM4F/portmacro.h **** 	(
 255:../Middlewares/FreeRTOS//Source/portable/GCC/ARM_CM4F/portmacro.h **** 		"	mrs %0, basepri											\n" \
 256:../Middlewares/FreeRTOS//Source/portable/GCC/ARM_CM4F/portmacro.h **** 		"	mov %1, %2												\n"	\
 257:../Middlewares/FreeRTOS//Source/portable/GCC/ARM_CM4F/portmacro.h **** 		"	msr basepri, %1											\n" \
 258:../Middlewares/FreeRTOS//Source/portable/GCC/ARM_CM4F/portmacro.h **** 		"	isb														\n" \
 259:../Middlewares/FreeRTOS//Source/portable/GCC/ARM_CM4F/portmacro.h **** 		"	dsb														\n" \
 260:../Middlewares/FreeRTOS//Source/portable/GCC/ARM_CM4F/portmacro.h **** 		:"=r" (ulOriginalBASEPRI), "=r" (ulNewBASEPRI) : "i" ( configMAX_SYSCALL_INTERRUPT_PRIORITY )
 261:../Middlewares/FreeRTOS//Source/portable/GCC/ARM_CM4F/portmacro.h **** 	);
 262:../Middlewares/FreeRTOS//Source/portable/GCC/ARM_CM4F/portmacro.h **** 
 263:../Middlewares/FreeRTOS//Source/portable/GCC/ARM_CM4F/portmacro.h **** 	/* This return will not be reached but is necessary to prevent compiler
 264:../Middlewares/FreeRTOS//Source/portable/GCC/ARM_CM4F/portmacro.h **** 	warnings. */
 265:../Middlewares/FreeRTOS//Source/portable/GCC/ARM_CM4F/portmacro.h **** 	return ulOriginalBASEPRI;
 266:../Middlewares/FreeRTOS//Source/portable/GCC/ARM_CM4F/portmacro.h **** }
 267:../Middlewares/FreeRTOS//Source/portable/GCC/ARM_CM4F/portmacro.h **** /*-----------------------------------------------------------*/
 268:../Middlewares/FreeRTOS//Source/portable/GCC/ARM_CM4F/portmacro.h **** 
 269:../Middlewares/FreeRTOS//Source/portable/GCC/ARM_CM4F/portmacro.h **** portFORCE_INLINE static void vPortSetBASEPRI( uint32_t ulNewMaskValue )
 270:../Middlewares/FreeRTOS//Source/portable/GCC/ARM_CM4F/portmacro.h **** {
 271:../Middlewares/FreeRTOS//Source/portable/GCC/ARM_CM4F/portmacro.h **** 	__asm volatile
 1893              		.loc 3 271 0
 1894              		.syntax unified
 1895              	@ 271 "../Middlewares/FreeRTOS//Source/portable/GCC/ARM_CM4F/portmacro.h" 1
 1896 005e 85F31188 			msr basepri, r5	
 1897              	@ 0 "" 2
 1898              	.LVL161:
 1899              		.thumb
ARM GAS  /var/folders/l3/4y5292px21b4835bsnjwqc7w009kq1/T//ccUQPhZJ.s 			page 59


 1900              		.syntax unified
 1901              	.L162:
 1902              	.LBE13:
 1903              	.LBE12:
1008:../Middlewares/FreeRTOS//Source/CMSIS_RTOS/cmsis_os.c ****     portCLEAR_INTERRUPT_MASK_FROM_ISR(dummy);
1009:../Middlewares/FreeRTOS//Source/CMSIS_RTOS/cmsis_os.c ****   }
1010:../Middlewares/FreeRTOS//Source/CMSIS_RTOS/cmsis_os.c ****   else {
1011:../Middlewares/FreeRTOS//Source/CMSIS_RTOS/cmsis_os.c ****     vPortExitCritical();
1012:../Middlewares/FreeRTOS//Source/CMSIS_RTOS/cmsis_os.c ****   }
1013:../Middlewares/FreeRTOS//Source/CMSIS_RTOS/cmsis_os.c ****   
1014:../Middlewares/FreeRTOS//Source/CMSIS_RTOS/cmsis_os.c ****   return p;
1015:../Middlewares/FreeRTOS//Source/CMSIS_RTOS/cmsis_os.c **** }
 1904              		.loc 1 1015 0
 1905 0062 3046     		mov	r0, r6
 1906 0064 70BD     		pop	{r4, r5, r6, pc}
 1907              	.LVL162:
 1908              	.L170:
1011:../Middlewares/FreeRTOS//Source/CMSIS_RTOS/cmsis_os.c ****   }
 1909              		.loc 1 1011 0
 1910 0066 FFF7FEFF 		bl	vPortExitCritical
 1911              	.LVL163:
1014:../Middlewares/FreeRTOS//Source/CMSIS_RTOS/cmsis_os.c **** }
 1912              		.loc 1 1014 0
 1913 006a FAE7     		b	.L162
 1914              		.cfi_endproc
 1915              	.LFE156:
 1917              		.section	.text.osPoolCAlloc,"ax",%progbits
 1918              		.align	1
 1919              		.global	osPoolCAlloc
 1920              		.syntax unified
 1921              		.thumb
 1922              		.thumb_func
 1923              		.fpu fpv4-sp-d16
 1925              	osPoolCAlloc:
 1926              	.LFB157:
1016:../Middlewares/FreeRTOS//Source/CMSIS_RTOS/cmsis_os.c **** 
1017:../Middlewares/FreeRTOS//Source/CMSIS_RTOS/cmsis_os.c **** /**
1018:../Middlewares/FreeRTOS//Source/CMSIS_RTOS/cmsis_os.c **** * @brief Allocate a memory block from a memory pool and set memory block to zero
1019:../Middlewares/FreeRTOS//Source/CMSIS_RTOS/cmsis_os.c **** * @param  pool_id       memory pool ID obtain referenced with \ref osPoolCreate.
1020:../Middlewares/FreeRTOS//Source/CMSIS_RTOS/cmsis_os.c **** * @retval  address of the allocated memory block or NULL in case of no memory available.
1021:../Middlewares/FreeRTOS//Source/CMSIS_RTOS/cmsis_os.c **** * @note   MUST REMAIN UNCHANGED: \b osPoolCAlloc shall be consistent in every CMSIS-RTOS.
1022:../Middlewares/FreeRTOS//Source/CMSIS_RTOS/cmsis_os.c **** */
1023:../Middlewares/FreeRTOS//Source/CMSIS_RTOS/cmsis_os.c **** void *osPoolCAlloc (osPoolId pool_id)
1024:../Middlewares/FreeRTOS//Source/CMSIS_RTOS/cmsis_os.c **** {
 1927              		.loc 1 1024 0
 1928              		.cfi_startproc
 1929              		@ args = 0, pretend = 0, frame = 0
 1930              		@ frame_needed = 0, uses_anonymous_args = 0
 1931              	.LVL164:
 1932 0000 08B5     		push	{r3, lr}
 1933              	.LCFI58:
 1934              		.cfi_def_cfa_offset 8
 1935              		.cfi_offset 3, -8
 1936              		.cfi_offset 14, -4
1025:../Middlewares/FreeRTOS//Source/CMSIS_RTOS/cmsis_os.c ****   void *p = osPoolAlloc(pool_id);
 1937              		.loc 1 1025 0
 1938 0002 FFF7FEFF 		bl	osPoolAlloc
ARM GAS  /var/folders/l3/4y5292px21b4835bsnjwqc7w009kq1/T//ccUQPhZJ.s 			page 60


 1939              	.LVL165:
1026:../Middlewares/FreeRTOS//Source/CMSIS_RTOS/cmsis_os.c ****   
1027:../Middlewares/FreeRTOS//Source/CMSIS_RTOS/cmsis_os.c ****   if (p != NULL)
 1940              		.loc 1 1027 0
 1941 0006 0346     		mov	r3, r0
 1942 0008 08B1     		cbz	r0, .L176
1028:../Middlewares/FreeRTOS//Source/CMSIS_RTOS/cmsis_os.c ****   {
1029:../Middlewares/FreeRTOS//Source/CMSIS_RTOS/cmsis_os.c ****     memset(p, 0, sizeof(pool_id->pool_sz));
 1943              		.loc 1 1029 0
 1944 000a 0022     		movs	r2, #0
 1945 000c 0260     		str	r2, [r0]	@ unaligned
 1946              	.L176:
1030:../Middlewares/FreeRTOS//Source/CMSIS_RTOS/cmsis_os.c ****   }
1031:../Middlewares/FreeRTOS//Source/CMSIS_RTOS/cmsis_os.c ****   
1032:../Middlewares/FreeRTOS//Source/CMSIS_RTOS/cmsis_os.c ****   return p;
1033:../Middlewares/FreeRTOS//Source/CMSIS_RTOS/cmsis_os.c **** }
 1947              		.loc 1 1033 0
 1948 000e 1846     		mov	r0, r3
 1949              	.LVL166:
 1950 0010 08BD     		pop	{r3, pc}
 1951              		.cfi_endproc
 1952              	.LFE157:
 1954              		.section	.text.osPoolFree,"ax",%progbits
 1955              		.align	1
 1956              		.global	osPoolFree
 1957              		.syntax unified
 1958              		.thumb
 1959              		.thumb_func
 1960              		.fpu fpv4-sp-d16
 1962              	osPoolFree:
 1963              	.LFB158:
1034:../Middlewares/FreeRTOS//Source/CMSIS_RTOS/cmsis_os.c **** 
1035:../Middlewares/FreeRTOS//Source/CMSIS_RTOS/cmsis_os.c **** /**
1036:../Middlewares/FreeRTOS//Source/CMSIS_RTOS/cmsis_os.c **** * @brief Return an allocated memory block back to a specific memory pool
1037:../Middlewares/FreeRTOS//Source/CMSIS_RTOS/cmsis_os.c **** * @param  pool_id       memory pool ID obtain referenced with \ref osPoolCreate.
1038:../Middlewares/FreeRTOS//Source/CMSIS_RTOS/cmsis_os.c **** * @param  block         address of the allocated memory block that is returned to the memory pool.
1039:../Middlewares/FreeRTOS//Source/CMSIS_RTOS/cmsis_os.c **** * @retval  status code that indicates the execution status of the function.
1040:../Middlewares/FreeRTOS//Source/CMSIS_RTOS/cmsis_os.c **** * @note   MUST REMAIN UNCHANGED: \b osPoolFree shall be consistent in every CMSIS-RTOS.
1041:../Middlewares/FreeRTOS//Source/CMSIS_RTOS/cmsis_os.c **** */
1042:../Middlewares/FreeRTOS//Source/CMSIS_RTOS/cmsis_os.c **** osStatus osPoolFree (osPoolId pool_id, void *block)
1043:../Middlewares/FreeRTOS//Source/CMSIS_RTOS/cmsis_os.c **** {
 1964              		.loc 1 1043 0
 1965              		.cfi_startproc
 1966              		@ args = 0, pretend = 0, frame = 0
 1967              		@ frame_needed = 0, uses_anonymous_args = 0
 1968              		@ link register save eliminated.
 1969              	.LVL167:
1044:../Middlewares/FreeRTOS//Source/CMSIS_RTOS/cmsis_os.c ****   uint32_t index;
1045:../Middlewares/FreeRTOS//Source/CMSIS_RTOS/cmsis_os.c ****   
1046:../Middlewares/FreeRTOS//Source/CMSIS_RTOS/cmsis_os.c ****   if (pool_id == NULL) {
 1970              		.loc 1 1046 0
 1971 0000 0346     		mov	r3, r0
 1972 0002 98B1     		cbz	r0, .L181
1047:../Middlewares/FreeRTOS//Source/CMSIS_RTOS/cmsis_os.c ****     return osErrorParameter;
1048:../Middlewares/FreeRTOS//Source/CMSIS_RTOS/cmsis_os.c ****   }
1049:../Middlewares/FreeRTOS//Source/CMSIS_RTOS/cmsis_os.c ****   
1050:../Middlewares/FreeRTOS//Source/CMSIS_RTOS/cmsis_os.c ****   if (block == NULL) {
ARM GAS  /var/folders/l3/4y5292px21b4835bsnjwqc7w009kq1/T//ccUQPhZJ.s 			page 61


 1973              		.loc 1 1050 0
 1974 0004 A1B1     		cbz	r1, .L182
1051:../Middlewares/FreeRTOS//Source/CMSIS_RTOS/cmsis_os.c ****     return osErrorParameter;
1052:../Middlewares/FreeRTOS//Source/CMSIS_RTOS/cmsis_os.c ****   }
1053:../Middlewares/FreeRTOS//Source/CMSIS_RTOS/cmsis_os.c ****   
1054:../Middlewares/FreeRTOS//Source/CMSIS_RTOS/cmsis_os.c ****   if (block < pool_id->pool) {
 1975              		.loc 1 1054 0
 1976 0006 0268     		ldr	r2, [r0]
 1977 0008 8A42     		cmp	r2, r1
 1978 000a 13D8     		bhi	.L183
1055:../Middlewares/FreeRTOS//Source/CMSIS_RTOS/cmsis_os.c ****     return osErrorParameter;
1056:../Middlewares/FreeRTOS//Source/CMSIS_RTOS/cmsis_os.c ****   }
1057:../Middlewares/FreeRTOS//Source/CMSIS_RTOS/cmsis_os.c ****   
1058:../Middlewares/FreeRTOS//Source/CMSIS_RTOS/cmsis_os.c ****   index = (uint32_t)block - (uint32_t)(pool_id->pool);
 1979              		.loc 1 1058 0
 1980 000c 891A     		subs	r1, r1, r2
 1981              	.LVL168:
1059:../Middlewares/FreeRTOS//Source/CMSIS_RTOS/cmsis_os.c ****   if (index % pool_id->item_sz) {
 1982              		.loc 1 1059 0
 1983 000e C068     		ldr	r0, [r0, #12]
 1984              	.LVL169:
 1985 0010 B1FBF0F2 		udiv	r2, r1, r0
 1986 0014 00FB1212 		mls	r2, r0, r2, r1
 1987 0018 72B9     		cbnz	r2, .L184
1060:../Middlewares/FreeRTOS//Source/CMSIS_RTOS/cmsis_os.c ****     return osErrorParameter;
1061:../Middlewares/FreeRTOS//Source/CMSIS_RTOS/cmsis_os.c ****   }
1062:../Middlewares/FreeRTOS//Source/CMSIS_RTOS/cmsis_os.c ****   index = index / pool_id->item_sz;
 1988              		.loc 1 1062 0
 1989 001a B1FBF0F1 		udiv	r1, r1, r0
 1990              	.LVL170:
1063:../Middlewares/FreeRTOS//Source/CMSIS_RTOS/cmsis_os.c ****   if (index >= pool_id->pool_sz) {
 1991              		.loc 1 1063 0
 1992 001e 9A68     		ldr	r2, [r3, #8]
 1993 0020 8A42     		cmp	r2, r1
 1994 0022 0BD9     		bls	.L185
1064:../Middlewares/FreeRTOS//Source/CMSIS_RTOS/cmsis_os.c ****     return osErrorParameter;
1065:../Middlewares/FreeRTOS//Source/CMSIS_RTOS/cmsis_os.c ****   }
1066:../Middlewares/FreeRTOS//Source/CMSIS_RTOS/cmsis_os.c ****   
1067:../Middlewares/FreeRTOS//Source/CMSIS_RTOS/cmsis_os.c ****   pool_id->markers[index] = 0;
 1995              		.loc 1 1067 0
 1996 0024 5B68     		ldr	r3, [r3, #4]
 1997              	.LVL171:
 1998 0026 0020     		movs	r0, #0
 1999 0028 5854     		strb	r0, [r3, r1]
1068:../Middlewares/FreeRTOS//Source/CMSIS_RTOS/cmsis_os.c ****   
1069:../Middlewares/FreeRTOS//Source/CMSIS_RTOS/cmsis_os.c ****   return osOK;
 2000              		.loc 1 1069 0
 2001 002a 7047     		bx	lr
 2002              	.LVL172:
 2003              	.L181:
1047:../Middlewares/FreeRTOS//Source/CMSIS_RTOS/cmsis_os.c ****   }
 2004              		.loc 1 1047 0
 2005 002c 8020     		movs	r0, #128
 2006              	.LVL173:
 2007 002e 7047     		bx	lr
 2008              	.LVL174:
 2009              	.L182:
ARM GAS  /var/folders/l3/4y5292px21b4835bsnjwqc7w009kq1/T//ccUQPhZJ.s 			page 62


1051:../Middlewares/FreeRTOS//Source/CMSIS_RTOS/cmsis_os.c ****   }
 2010              		.loc 1 1051 0
 2011 0030 8020     		movs	r0, #128
 2012              	.LVL175:
 2013 0032 7047     		bx	lr
 2014              	.LVL176:
 2015              	.L183:
1055:../Middlewares/FreeRTOS//Source/CMSIS_RTOS/cmsis_os.c ****   }
 2016              		.loc 1 1055 0
 2017 0034 8020     		movs	r0, #128
 2018              	.LVL177:
 2019 0036 7047     		bx	lr
 2020              	.LVL178:
 2021              	.L184:
1060:../Middlewares/FreeRTOS//Source/CMSIS_RTOS/cmsis_os.c ****   }
 2022              		.loc 1 1060 0
 2023 0038 8020     		movs	r0, #128
 2024 003a 7047     		bx	lr
 2025              	.L185:
1064:../Middlewares/FreeRTOS//Source/CMSIS_RTOS/cmsis_os.c ****   }
 2026              		.loc 1 1064 0
 2027 003c 8020     		movs	r0, #128
1070:../Middlewares/FreeRTOS//Source/CMSIS_RTOS/cmsis_os.c **** }
 2028              		.loc 1 1070 0
 2029 003e 7047     		bx	lr
 2030              		.cfi_endproc
 2031              	.LFE158:
 2033              		.section	.text.osMessageCreate,"ax",%progbits
 2034              		.align	1
 2035              		.global	osMessageCreate
 2036              		.syntax unified
 2037              		.thumb
 2038              		.thumb_func
 2039              		.fpu fpv4-sp-d16
 2041              	osMessageCreate:
 2042              	.LFB159:
1071:../Middlewares/FreeRTOS//Source/CMSIS_RTOS/cmsis_os.c **** 
1072:../Middlewares/FreeRTOS//Source/CMSIS_RTOS/cmsis_os.c **** 
1073:../Middlewares/FreeRTOS//Source/CMSIS_RTOS/cmsis_os.c **** #endif   /* Use Memory Pool Management */
1074:../Middlewares/FreeRTOS//Source/CMSIS_RTOS/cmsis_os.c **** 
1075:../Middlewares/FreeRTOS//Source/CMSIS_RTOS/cmsis_os.c **** /*******************   Message Queue Management Functions  *********************/
1076:../Middlewares/FreeRTOS//Source/CMSIS_RTOS/cmsis_os.c **** 
1077:../Middlewares/FreeRTOS//Source/CMSIS_RTOS/cmsis_os.c **** #if (defined (osFeature_MessageQ)  &&  (osFeature_MessageQ != 0)) /* Use Message Queues */
1078:../Middlewares/FreeRTOS//Source/CMSIS_RTOS/cmsis_os.c **** 
1079:../Middlewares/FreeRTOS//Source/CMSIS_RTOS/cmsis_os.c **** /**
1080:../Middlewares/FreeRTOS//Source/CMSIS_RTOS/cmsis_os.c **** * @brief Create and Initialize a Message Queue
1081:../Middlewares/FreeRTOS//Source/CMSIS_RTOS/cmsis_os.c **** * @param queue_def     queue definition referenced with \ref osMessageQ.
1082:../Middlewares/FreeRTOS//Source/CMSIS_RTOS/cmsis_os.c **** * @param  thread_id     thread ID (obtained by \ref osThreadCreate or \ref osThreadGetId) or NULL.
1083:../Middlewares/FreeRTOS//Source/CMSIS_RTOS/cmsis_os.c **** * @retval  message queue ID for reference by other functions or NULL in case of error.
1084:../Middlewares/FreeRTOS//Source/CMSIS_RTOS/cmsis_os.c **** * @note   MUST REMAIN UNCHANGED: \b osMessageCreate shall be consistent in every CMSIS-RTOS.
1085:../Middlewares/FreeRTOS//Source/CMSIS_RTOS/cmsis_os.c **** */
1086:../Middlewares/FreeRTOS//Source/CMSIS_RTOS/cmsis_os.c **** osMessageQId osMessageCreate (const osMessageQDef_t *queue_def, osThreadId thread_id)
1087:../Middlewares/FreeRTOS//Source/CMSIS_RTOS/cmsis_os.c **** {
 2043              		.loc 1 1087 0
 2044              		.cfi_startproc
 2045              		@ args = 0, pretend = 0, frame = 0
 2046              		@ frame_needed = 0, uses_anonymous_args = 0
ARM GAS  /var/folders/l3/4y5292px21b4835bsnjwqc7w009kq1/T//ccUQPhZJ.s 			page 63


 2047              	.LVL179:
 2048 0000 08B5     		push	{r3, lr}
 2049              	.LCFI59:
 2050              		.cfi_def_cfa_offset 8
 2051              		.cfi_offset 3, -8
 2052              		.cfi_offset 14, -4
1088:../Middlewares/FreeRTOS//Source/CMSIS_RTOS/cmsis_os.c ****   (void) thread_id;
1089:../Middlewares/FreeRTOS//Source/CMSIS_RTOS/cmsis_os.c ****   
1090:../Middlewares/FreeRTOS//Source/CMSIS_RTOS/cmsis_os.c **** #if( configSUPPORT_STATIC_ALLOCATION == 1 ) && ( configSUPPORT_DYNAMIC_ALLOCATION == 1 )
1091:../Middlewares/FreeRTOS//Source/CMSIS_RTOS/cmsis_os.c **** 
1092:../Middlewares/FreeRTOS//Source/CMSIS_RTOS/cmsis_os.c ****   if ((queue_def->buffer != NULL) && (queue_def->controlblock != NULL)) {
1093:../Middlewares/FreeRTOS//Source/CMSIS_RTOS/cmsis_os.c ****     return xQueueCreateStatic(queue_def->queue_sz, queue_def->item_sz, queue_def->buffer, queue_def
1094:../Middlewares/FreeRTOS//Source/CMSIS_RTOS/cmsis_os.c ****   }
1095:../Middlewares/FreeRTOS//Source/CMSIS_RTOS/cmsis_os.c ****   else {
1096:../Middlewares/FreeRTOS//Source/CMSIS_RTOS/cmsis_os.c ****     return xQueueCreate(queue_def->queue_sz, queue_def->item_sz);
1097:../Middlewares/FreeRTOS//Source/CMSIS_RTOS/cmsis_os.c ****   }
1098:../Middlewares/FreeRTOS//Source/CMSIS_RTOS/cmsis_os.c **** #elif ( configSUPPORT_STATIC_ALLOCATION == 1 )
1099:../Middlewares/FreeRTOS//Source/CMSIS_RTOS/cmsis_os.c ****   return xQueueCreateStatic(queue_def->queue_sz, queue_def->item_sz, queue_def->buffer, queue_def->
1100:../Middlewares/FreeRTOS//Source/CMSIS_RTOS/cmsis_os.c **** #else  
1101:../Middlewares/FreeRTOS//Source/CMSIS_RTOS/cmsis_os.c ****   return xQueueCreate(queue_def->queue_sz, queue_def->item_sz);
 2053              		.loc 1 1101 0
 2054 0002 0022     		movs	r2, #0
 2055 0004 4168     		ldr	r1, [r0, #4]
 2056              	.LVL180:
 2057 0006 0068     		ldr	r0, [r0]
 2058              	.LVL181:
 2059 0008 FFF7FEFF 		bl	xQueueGenericCreate
 2060              	.LVL182:
1102:../Middlewares/FreeRTOS//Source/CMSIS_RTOS/cmsis_os.c **** #endif
1103:../Middlewares/FreeRTOS//Source/CMSIS_RTOS/cmsis_os.c **** }
 2061              		.loc 1 1103 0
 2062 000c 08BD     		pop	{r3, pc}
 2063              		.cfi_endproc
 2064              	.LFE159:
 2066              		.section	.text.osMessagePut,"ax",%progbits
 2067              		.align	1
 2068              		.global	osMessagePut
 2069              		.syntax unified
 2070              		.thumb
 2071              		.thumb_func
 2072              		.fpu fpv4-sp-d16
 2074              	osMessagePut:
 2075              	.LFB160:
1104:../Middlewares/FreeRTOS//Source/CMSIS_RTOS/cmsis_os.c **** 
1105:../Middlewares/FreeRTOS//Source/CMSIS_RTOS/cmsis_os.c **** /**
1106:../Middlewares/FreeRTOS//Source/CMSIS_RTOS/cmsis_os.c **** * @brief Put a Message to a Queue.
1107:../Middlewares/FreeRTOS//Source/CMSIS_RTOS/cmsis_os.c **** * @param  queue_id  message queue ID obtained with \ref osMessageCreate.
1108:../Middlewares/FreeRTOS//Source/CMSIS_RTOS/cmsis_os.c **** * @param  info      message information.
1109:../Middlewares/FreeRTOS//Source/CMSIS_RTOS/cmsis_os.c **** * @param  millisec  timeout value or 0 in case of no time-out.
1110:../Middlewares/FreeRTOS//Source/CMSIS_RTOS/cmsis_os.c **** * @retval status code that indicates the execution status of the function.
1111:../Middlewares/FreeRTOS//Source/CMSIS_RTOS/cmsis_os.c **** * @note   MUST REMAIN UNCHANGED: \b osMessagePut shall be consistent in every CMSIS-RTOS.
1112:../Middlewares/FreeRTOS//Source/CMSIS_RTOS/cmsis_os.c **** */
1113:../Middlewares/FreeRTOS//Source/CMSIS_RTOS/cmsis_os.c **** osStatus osMessagePut (osMessageQId queue_id, uint32_t info, uint32_t millisec)
1114:../Middlewares/FreeRTOS//Source/CMSIS_RTOS/cmsis_os.c **** {
 2076              		.loc 1 1114 0
 2077              		.cfi_startproc
 2078              		@ args = 0, pretend = 0, frame = 16
ARM GAS  /var/folders/l3/4y5292px21b4835bsnjwqc7w009kq1/T//ccUQPhZJ.s 			page 64


 2079              		@ frame_needed = 0, uses_anonymous_args = 0
 2080              	.LVL183:
 2081 0000 30B5     		push	{r4, r5, lr}
 2082              	.LCFI60:
 2083              		.cfi_def_cfa_offset 12
 2084              		.cfi_offset 4, -12
 2085              		.cfi_offset 5, -8
 2086              		.cfi_offset 14, -4
 2087 0002 85B0     		sub	sp, sp, #20
 2088              	.LCFI61:
 2089              		.cfi_def_cfa_offset 32
 2090 0004 0446     		mov	r4, r0
 2091 0006 0191     		str	r1, [sp, #4]
1115:../Middlewares/FreeRTOS//Source/CMSIS_RTOS/cmsis_os.c ****   portBASE_TYPE taskWoken = pdFALSE;
 2092              		.loc 1 1115 0
 2093 0008 0023     		movs	r3, #0
 2094 000a 0393     		str	r3, [sp, #12]
 2095              	.LVL184:
1116:../Middlewares/FreeRTOS//Source/CMSIS_RTOS/cmsis_os.c ****   TickType_t ticks;
1117:../Middlewares/FreeRTOS//Source/CMSIS_RTOS/cmsis_os.c ****   
1118:../Middlewares/FreeRTOS//Source/CMSIS_RTOS/cmsis_os.c ****   ticks = millisec / portTICK_PERIOD_MS;
1119:../Middlewares/FreeRTOS//Source/CMSIS_RTOS/cmsis_os.c ****   if (ticks == 0) {
 2096              		.loc 1 1119 0
 2097 000c 1546     		mov	r5, r2
 2098 000e 02B9     		cbnz	r2, .L189
1120:../Middlewares/FreeRTOS//Source/CMSIS_RTOS/cmsis_os.c ****     ticks = 1;
 2099              		.loc 1 1120 0
 2100 0010 0125     		movs	r5, #1
 2101              	.L189:
 2102              	.LVL185:
1121:../Middlewares/FreeRTOS//Source/CMSIS_RTOS/cmsis_os.c ****   }
1122:../Middlewares/FreeRTOS//Source/CMSIS_RTOS/cmsis_os.c ****   
1123:../Middlewares/FreeRTOS//Source/CMSIS_RTOS/cmsis_os.c ****   if (inHandlerMode()) {
 2103              		.loc 1 1123 0
 2104 0012 FFF7FEFF 		bl	inHandlerMode
 2105              	.LVL186:
 2106 0016 98B1     		cbz	r0, .L190
1124:../Middlewares/FreeRTOS//Source/CMSIS_RTOS/cmsis_os.c ****     if (xQueueSendFromISR(queue_id, &info, &taskWoken) != pdTRUE) {
 2107              		.loc 1 1124 0
 2108 0018 0023     		movs	r3, #0
 2109 001a 03AA     		add	r2, sp, #12
 2110 001c 01A9     		add	r1, sp, #4
 2111 001e 2046     		mov	r0, r4
 2112 0020 FFF7FEFF 		bl	xQueueGenericSendFromISR
 2113              	.LVL187:
 2114 0024 0128     		cmp	r0, #1
 2115 0026 18D1     		bne	.L193
1125:../Middlewares/FreeRTOS//Source/CMSIS_RTOS/cmsis_os.c ****       return osErrorOS;
1126:../Middlewares/FreeRTOS//Source/CMSIS_RTOS/cmsis_os.c ****     }
1127:../Middlewares/FreeRTOS//Source/CMSIS_RTOS/cmsis_os.c ****     portEND_SWITCHING_ISR(taskWoken);
 2116              		.loc 1 1127 0
 2117 0028 039B     		ldr	r3, [sp, #12]
 2118 002a C3B1     		cbz	r3, .L194
 2119              		.loc 1 1127 0 is_stmt 0 discriminator 1
 2120 002c 0D4B     		ldr	r3, .L198
 2121 002e 4FF08052 		mov	r2, #268435456
 2122 0032 1A60     		str	r2, [r3]
ARM GAS  /var/folders/l3/4y5292px21b4835bsnjwqc7w009kq1/T//ccUQPhZJ.s 			page 65


 2123              		.syntax unified
 2124              	@ 1127 "../Middlewares/FreeRTOS//Source/CMSIS_RTOS/cmsis_os.c" 1
 2125 0034 BFF34F8F 		dsb
 2126              	@ 0 "" 2
 2127              	@ 1127 "../Middlewares/FreeRTOS//Source/CMSIS_RTOS/cmsis_os.c" 1
 2128 0038 BFF36F8F 		isb
 2129              	@ 0 "" 2
1128:../Middlewares/FreeRTOS//Source/CMSIS_RTOS/cmsis_os.c ****   }
1129:../Middlewares/FreeRTOS//Source/CMSIS_RTOS/cmsis_os.c ****   else {
1130:../Middlewares/FreeRTOS//Source/CMSIS_RTOS/cmsis_os.c ****     if (xQueueSend(queue_id, &info, ticks) != pdTRUE) {
1131:../Middlewares/FreeRTOS//Source/CMSIS_RTOS/cmsis_os.c ****       return osErrorOS;
1132:../Middlewares/FreeRTOS//Source/CMSIS_RTOS/cmsis_os.c ****     }
1133:../Middlewares/FreeRTOS//Source/CMSIS_RTOS/cmsis_os.c ****   }
1134:../Middlewares/FreeRTOS//Source/CMSIS_RTOS/cmsis_os.c ****   
1135:../Middlewares/FreeRTOS//Source/CMSIS_RTOS/cmsis_os.c ****   return osOK;
 2130              		.loc 1 1135 0 is_stmt 1 discriminator 1
 2131              		.thumb
 2132              		.syntax unified
 2133 003c 0020     		movs	r0, #0
 2134 003e 08E0     		b	.L188
 2135              	.L190:
1130:../Middlewares/FreeRTOS//Source/CMSIS_RTOS/cmsis_os.c ****       return osErrorOS;
 2136              		.loc 1 1130 0
 2137 0040 0023     		movs	r3, #0
 2138 0042 2A46     		mov	r2, r5
 2139 0044 01A9     		add	r1, sp, #4
 2140 0046 2046     		mov	r0, r4
 2141 0048 FFF7FEFF 		bl	xQueueGenericSend
 2142              	.LVL188:
 2143 004c 0128     		cmp	r0, #1
 2144 004e 02D1     		bne	.L197
 2145              		.loc 1 1135 0
 2146 0050 0020     		movs	r0, #0
 2147              	.L188:
1136:../Middlewares/FreeRTOS//Source/CMSIS_RTOS/cmsis_os.c **** }
 2148              		.loc 1 1136 0
 2149 0052 05B0     		add	sp, sp, #20
 2150              	.LCFI62:
 2151              		.cfi_remember_state
 2152              		.cfi_def_cfa_offset 12
 2153              		@ sp needed
 2154 0054 30BD     		pop	{r4, r5, pc}
 2155              	.LVL189:
 2156              	.L197:
 2157              	.LCFI63:
 2158              		.cfi_restore_state
1131:../Middlewares/FreeRTOS//Source/CMSIS_RTOS/cmsis_os.c ****     }
 2159              		.loc 1 1131 0
 2160 0056 FF20     		movs	r0, #255
 2161 0058 FBE7     		b	.L188
 2162              	.L193:
1125:../Middlewares/FreeRTOS//Source/CMSIS_RTOS/cmsis_os.c ****     }
 2163              		.loc 1 1125 0
 2164 005a FF20     		movs	r0, #255
 2165 005c F9E7     		b	.L188
 2166              	.L194:
1135:../Middlewares/FreeRTOS//Source/CMSIS_RTOS/cmsis_os.c **** }
ARM GAS  /var/folders/l3/4y5292px21b4835bsnjwqc7w009kq1/T//ccUQPhZJ.s 			page 66


 2167              		.loc 1 1135 0
 2168 005e 0020     		movs	r0, #0
 2169 0060 F7E7     		b	.L188
 2170              	.L199:
 2171 0062 00BF     		.align	2
 2172              	.L198:
 2173 0064 04ED00E0 		.word	-536810236
 2174              		.cfi_endproc
 2175              	.LFE160:
 2177              		.section	.text.osMessageGet,"ax",%progbits
 2178              		.align	1
 2179              		.global	osMessageGet
 2180              		.syntax unified
 2181              		.thumb
 2182              		.thumb_func
 2183              		.fpu fpv4-sp-d16
 2185              	osMessageGet:
 2186              	.LFB161:
1137:../Middlewares/FreeRTOS//Source/CMSIS_RTOS/cmsis_os.c **** 
1138:../Middlewares/FreeRTOS//Source/CMSIS_RTOS/cmsis_os.c **** /**
1139:../Middlewares/FreeRTOS//Source/CMSIS_RTOS/cmsis_os.c **** * @brief Get a Message or Wait for a Message from a Queue.
1140:../Middlewares/FreeRTOS//Source/CMSIS_RTOS/cmsis_os.c **** * @param  queue_id  message queue ID obtained with \ref osMessageCreate.
1141:../Middlewares/FreeRTOS//Source/CMSIS_RTOS/cmsis_os.c **** * @param  millisec  timeout value or 0 in case of no time-out.
1142:../Middlewares/FreeRTOS//Source/CMSIS_RTOS/cmsis_os.c **** * @retval event information that includes status code.
1143:../Middlewares/FreeRTOS//Source/CMSIS_RTOS/cmsis_os.c **** * @note   MUST REMAIN UNCHANGED: \b osMessageGet shall be consistent in every CMSIS-RTOS.
1144:../Middlewares/FreeRTOS//Source/CMSIS_RTOS/cmsis_os.c **** */
1145:../Middlewares/FreeRTOS//Source/CMSIS_RTOS/cmsis_os.c **** osEvent osMessageGet (osMessageQId queue_id, uint32_t millisec)
1146:../Middlewares/FreeRTOS//Source/CMSIS_RTOS/cmsis_os.c **** {
 2187              		.loc 1 1146 0
 2188              		.cfi_startproc
 2189              		@ args = 0, pretend = 0, frame = 16
 2190              		@ frame_needed = 0, uses_anonymous_args = 0
 2191              	.LVL190:
 2192 0000 70B5     		push	{r4, r5, r6, lr}
 2193              	.LCFI64:
 2194              		.cfi_def_cfa_offset 16
 2195              		.cfi_offset 4, -16
 2196              		.cfi_offset 5, -12
 2197              		.cfi_offset 6, -8
 2198              		.cfi_offset 14, -4
 2199 0002 84B0     		sub	sp, sp, #16
 2200              	.LCFI65:
 2201              		.cfi_def_cfa_offset 32
 2202 0004 0446     		mov	r4, r0
1147:../Middlewares/FreeRTOS//Source/CMSIS_RTOS/cmsis_os.c ****   portBASE_TYPE taskWoken;
1148:../Middlewares/FreeRTOS//Source/CMSIS_RTOS/cmsis_os.c ****   TickType_t ticks;
1149:../Middlewares/FreeRTOS//Source/CMSIS_RTOS/cmsis_os.c ****   osEvent event;
1150:../Middlewares/FreeRTOS//Source/CMSIS_RTOS/cmsis_os.c ****   
1151:../Middlewares/FreeRTOS//Source/CMSIS_RTOS/cmsis_os.c ****   event.def.message_id = queue_id;
 2203              		.loc 1 1151 0
 2204 0006 0291     		str	r1, [sp, #8]
1152:../Middlewares/FreeRTOS//Source/CMSIS_RTOS/cmsis_os.c ****   event.value.v = 0;
 2205              		.loc 1 1152 0
 2206 0008 0023     		movs	r3, #0
 2207 000a 0193     		str	r3, [sp, #4]
1153:../Middlewares/FreeRTOS//Source/CMSIS_RTOS/cmsis_os.c ****   
1154:../Middlewares/FreeRTOS//Source/CMSIS_RTOS/cmsis_os.c ****   if (queue_id == NULL) {
ARM GAS  /var/folders/l3/4y5292px21b4835bsnjwqc7w009kq1/T//ccUQPhZJ.s 			page 67


 2208              		.loc 1 1154 0
 2209 000c 49B1     		cbz	r1, .L213
 2210 000e 0D46     		mov	r5, r1
 2211 0010 1646     		mov	r6, r2
1155:../Middlewares/FreeRTOS//Source/CMSIS_RTOS/cmsis_os.c ****     event.status = osErrorParameter;
1156:../Middlewares/FreeRTOS//Source/CMSIS_RTOS/cmsis_os.c ****     return event;
1157:../Middlewares/FreeRTOS//Source/CMSIS_RTOS/cmsis_os.c ****   }
1158:../Middlewares/FreeRTOS//Source/CMSIS_RTOS/cmsis_os.c ****   
1159:../Middlewares/FreeRTOS//Source/CMSIS_RTOS/cmsis_os.c ****   taskWoken = pdFALSE;
 2212              		.loc 1 1159 0
 2213 0012 0023     		movs	r3, #0
 2214 0014 0393     		str	r3, [sp, #12]
 2215              	.LVL191:
1160:../Middlewares/FreeRTOS//Source/CMSIS_RTOS/cmsis_os.c ****   
1161:../Middlewares/FreeRTOS//Source/CMSIS_RTOS/cmsis_os.c ****   ticks = 0;
1162:../Middlewares/FreeRTOS//Source/CMSIS_RTOS/cmsis_os.c ****   if (millisec == osWaitForever) {
 2216              		.loc 1 1162 0
 2217 0016 B2F1FF3F 		cmp	r2, #-1
 2218 001a 0BD0     		beq	.L210
1163:../Middlewares/FreeRTOS//Source/CMSIS_RTOS/cmsis_os.c ****     ticks = portMAX_DELAY;
1164:../Middlewares/FreeRTOS//Source/CMSIS_RTOS/cmsis_os.c ****   }
1165:../Middlewares/FreeRTOS//Source/CMSIS_RTOS/cmsis_os.c ****   else if (millisec != 0) {
 2219              		.loc 1 1165 0
 2220 001c 62B9     		cbnz	r2, .L203
1161:../Middlewares/FreeRTOS//Source/CMSIS_RTOS/cmsis_os.c ****   if (millisec == osWaitForever) {
 2221              		.loc 1 1161 0
 2222 001e 1E46     		mov	r6, r3
 2223 0020 0AE0     		b	.L203
 2224              	.LVL192:
 2225              	.L213:
1155:../Middlewares/FreeRTOS//Source/CMSIS_RTOS/cmsis_os.c ****     return event;
 2226              		.loc 1 1155 0
 2227 0022 04AB     		add	r3, sp, #16
 2228 0024 8022     		movs	r2, #128
 2229              	.LVL193:
 2230 0026 43F8102D 		str	r2, [r3, #-16]!
1156:../Middlewares/FreeRTOS//Source/CMSIS_RTOS/cmsis_os.c ****   }
 2231              		.loc 1 1156 0
 2232 002a 93E80700 		ldm	r3, {r0, r1, r2}
 2233              	.LVL194:
 2234 002e 84E80700 		stm	r4, {r0, r1, r2}
 2235 0032 2BE0     		b	.L200
 2236              	.LVL195:
 2237              	.L210:
1163:../Middlewares/FreeRTOS//Source/CMSIS_RTOS/cmsis_os.c ****   }
 2238              		.loc 1 1163 0
 2239 0034 4FF0FF36 		mov	r6, #-1
 2240              	.L203:
 2241              	.LVL196:
1166:../Middlewares/FreeRTOS//Source/CMSIS_RTOS/cmsis_os.c ****     ticks = millisec / portTICK_PERIOD_MS;
1167:../Middlewares/FreeRTOS//Source/CMSIS_RTOS/cmsis_os.c ****     if (ticks == 0) {
1168:../Middlewares/FreeRTOS//Source/CMSIS_RTOS/cmsis_os.c ****       ticks = 1;
1169:../Middlewares/FreeRTOS//Source/CMSIS_RTOS/cmsis_os.c ****     }
1170:../Middlewares/FreeRTOS//Source/CMSIS_RTOS/cmsis_os.c ****   }
1171:../Middlewares/FreeRTOS//Source/CMSIS_RTOS/cmsis_os.c ****   
1172:../Middlewares/FreeRTOS//Source/CMSIS_RTOS/cmsis_os.c ****   if (inHandlerMode()) {
 2242              		.loc 1 1172 0
ARM GAS  /var/folders/l3/4y5292px21b4835bsnjwqc7w009kq1/T//ccUQPhZJ.s 			page 68


 2243 0038 FFF7FEFF 		bl	inHandlerMode
 2244              	.LVL197:
 2245 003c B0B1     		cbz	r0, .L204
1173:../Middlewares/FreeRTOS//Source/CMSIS_RTOS/cmsis_os.c ****     if (xQueueReceiveFromISR(queue_id, &event.value.v, &taskWoken) == pdTRUE) {
 2246              		.loc 1 1173 0
 2247 003e 03AA     		add	r2, sp, #12
 2248 0040 01A9     		add	r1, sp, #4
 2249 0042 2846     		mov	r0, r5
 2250 0044 FFF7FEFF 		bl	xQueueReceiveFromISR
 2251              	.LVL198:
 2252 0048 0128     		cmp	r0, #1
 2253 004a 0CD0     		beq	.L214
1174:../Middlewares/FreeRTOS//Source/CMSIS_RTOS/cmsis_os.c ****       /* We have mail */
1175:../Middlewares/FreeRTOS//Source/CMSIS_RTOS/cmsis_os.c ****       event.status = osEventMessage;
1176:../Middlewares/FreeRTOS//Source/CMSIS_RTOS/cmsis_os.c ****     }
1177:../Middlewares/FreeRTOS//Source/CMSIS_RTOS/cmsis_os.c ****     else {
1178:../Middlewares/FreeRTOS//Source/CMSIS_RTOS/cmsis_os.c ****       event.status = osOK;
 2254              		.loc 1 1178 0
 2255 004c 0023     		movs	r3, #0
 2256 004e 0093     		str	r3, [sp]
 2257              	.L206:
1179:../Middlewares/FreeRTOS//Source/CMSIS_RTOS/cmsis_os.c ****     }
1180:../Middlewares/FreeRTOS//Source/CMSIS_RTOS/cmsis_os.c ****     portEND_SWITCHING_ISR(taskWoken);
 2258              		.loc 1 1180 0
 2259 0050 039B     		ldr	r3, [sp, #12]
 2260 0052 B3B1     		cbz	r3, .L207
 2261              		.loc 1 1180 0 is_stmt 0 discriminator 1
 2262 0054 114B     		ldr	r3, .L216
 2263 0056 4FF08052 		mov	r2, #268435456
 2264 005a 1A60     		str	r2, [r3]
 2265              		.syntax unified
 2266              	@ 1180 "../Middlewares/FreeRTOS//Source/CMSIS_RTOS/cmsis_os.c" 1
 2267 005c BFF34F8F 		dsb
 2268              	@ 0 "" 2
 2269              	@ 1180 "../Middlewares/FreeRTOS//Source/CMSIS_RTOS/cmsis_os.c" 1
 2270 0060 BFF36F8F 		isb
 2271              	@ 0 "" 2
 2272              		.thumb
 2273              		.syntax unified
 2274 0064 0DE0     		b	.L207
 2275              	.L214:
1175:../Middlewares/FreeRTOS//Source/CMSIS_RTOS/cmsis_os.c ****     }
 2276              		.loc 1 1175 0 is_stmt 1
 2277 0066 1023     		movs	r3, #16
 2278 0068 0093     		str	r3, [sp]
 2279 006a F1E7     		b	.L206
 2280              	.L204:
1181:../Middlewares/FreeRTOS//Source/CMSIS_RTOS/cmsis_os.c ****   }
1182:../Middlewares/FreeRTOS//Source/CMSIS_RTOS/cmsis_os.c ****   else {
1183:../Middlewares/FreeRTOS//Source/CMSIS_RTOS/cmsis_os.c ****     if (xQueueReceive(queue_id, &event.value.v, ticks) == pdTRUE) {
 2281              		.loc 1 1183 0
 2282 006c 0023     		movs	r3, #0
 2283 006e 3246     		mov	r2, r6
 2284 0070 01A9     		add	r1, sp, #4
 2285 0072 2846     		mov	r0, r5
 2286 0074 FFF7FEFF 		bl	xQueueGenericReceive
 2287              	.LVL199:
ARM GAS  /var/folders/l3/4y5292px21b4835bsnjwqc7w009kq1/T//ccUQPhZJ.s 			page 69


 2288 0078 0128     		cmp	r0, #1
 2289 007a 0AD0     		beq	.L215
1184:../Middlewares/FreeRTOS//Source/CMSIS_RTOS/cmsis_os.c ****       /* We have mail */
1185:../Middlewares/FreeRTOS//Source/CMSIS_RTOS/cmsis_os.c ****       event.status = osEventMessage;
1186:../Middlewares/FreeRTOS//Source/CMSIS_RTOS/cmsis_os.c ****     }
1187:../Middlewares/FreeRTOS//Source/CMSIS_RTOS/cmsis_os.c ****     else {
1188:../Middlewares/FreeRTOS//Source/CMSIS_RTOS/cmsis_os.c ****       event.status = (ticks == 0) ? osOK : osEventTimeout;
 2290              		.loc 1 1188 0
 2291 007c 66B9     		cbnz	r6, .L211
 2292 007e 0023     		movs	r3, #0
 2293              	.L209:
 2294              		.loc 1 1188 0 is_stmt 0 discriminator 4
 2295 0080 0093     		str	r3, [sp]
 2296              	.L207:
1189:../Middlewares/FreeRTOS//Source/CMSIS_RTOS/cmsis_os.c ****     }
1190:../Middlewares/FreeRTOS//Source/CMSIS_RTOS/cmsis_os.c ****   }
1191:../Middlewares/FreeRTOS//Source/CMSIS_RTOS/cmsis_os.c ****   
1192:../Middlewares/FreeRTOS//Source/CMSIS_RTOS/cmsis_os.c ****   return event;
 2297              		.loc 1 1192 0 is_stmt 1
 2298 0082 6B46     		mov	r3, sp
 2299 0084 93E80700 		ldm	r3, {r0, r1, r2}
 2300 0088 84E80700 		stm	r4, {r0, r1, r2}
 2301              	.LVL200:
 2302              	.L200:
1193:../Middlewares/FreeRTOS//Source/CMSIS_RTOS/cmsis_os.c **** }
 2303              		.loc 1 1193 0
 2304 008c 2046     		mov	r0, r4
 2305 008e 04B0     		add	sp, sp, #16
 2306              	.LCFI66:
 2307              		.cfi_remember_state
 2308              		.cfi_def_cfa_offset 16
 2309              		@ sp needed
 2310 0090 70BD     		pop	{r4, r5, r6, pc}
 2311              	.LVL201:
 2312              	.L215:
 2313              	.LCFI67:
 2314              		.cfi_restore_state
1185:../Middlewares/FreeRTOS//Source/CMSIS_RTOS/cmsis_os.c ****     }
 2315              		.loc 1 1185 0
 2316 0092 1023     		movs	r3, #16
 2317 0094 0093     		str	r3, [sp]
 2318 0096 F4E7     		b	.L207
 2319              	.L211:
1188:../Middlewares/FreeRTOS//Source/CMSIS_RTOS/cmsis_os.c ****     }
 2320              		.loc 1 1188 0
 2321 0098 4023     		movs	r3, #64
 2322 009a F1E7     		b	.L209
 2323              	.L217:
 2324              		.align	2
 2325              	.L216:
 2326 009c 04ED00E0 		.word	-536810236
 2327              		.cfi_endproc
 2328              	.LFE161:
 2330              		.section	.text.osMailCreate,"ax",%progbits
 2331              		.align	1
 2332              		.global	osMailCreate
 2333              		.syntax unified
ARM GAS  /var/folders/l3/4y5292px21b4835bsnjwqc7w009kq1/T//ccUQPhZJ.s 			page 70


 2334              		.thumb
 2335              		.thumb_func
 2336              		.fpu fpv4-sp-d16
 2338              	osMailCreate:
 2339              	.LFB162:
1194:../Middlewares/FreeRTOS//Source/CMSIS_RTOS/cmsis_os.c **** 
1195:../Middlewares/FreeRTOS//Source/CMSIS_RTOS/cmsis_os.c **** #endif     /* Use Message Queues */
1196:../Middlewares/FreeRTOS//Source/CMSIS_RTOS/cmsis_os.c **** 
1197:../Middlewares/FreeRTOS//Source/CMSIS_RTOS/cmsis_os.c **** /********************   Mail Queue Management Functions  ***********************/
1198:../Middlewares/FreeRTOS//Source/CMSIS_RTOS/cmsis_os.c **** #if (defined (osFeature_MailQ)  &&  (osFeature_MailQ != 0))  /* Use Mail Queues */
1199:../Middlewares/FreeRTOS//Source/CMSIS_RTOS/cmsis_os.c **** 
1200:../Middlewares/FreeRTOS//Source/CMSIS_RTOS/cmsis_os.c **** 
1201:../Middlewares/FreeRTOS//Source/CMSIS_RTOS/cmsis_os.c **** typedef struct os_mailQ_cb {
1202:../Middlewares/FreeRTOS//Source/CMSIS_RTOS/cmsis_os.c ****   const osMailQDef_t *queue_def;
