ARM GAS  /var/folders/l3/4y5292px21b4835bsnjwqc7w009kq1/T//ccsIHHIW.s 			page 1


   1              		.cpu cortex-m4
   2              		.eabi_attribute 27, 1
   3              		.eabi_attribute 20, 1
   4              		.eabi_attribute 21, 1
   5              		.eabi_attribute 23, 3
   6              		.eabi_attribute 24, 1
   7              		.eabi_attribute 25, 1
   8              		.eabi_attribute 26, 1
   9              		.eabi_attribute 30, 1
  10              		.eabi_attribute 34, 1
  11              		.eabi_attribute 18, 4
  12              		.file	"main.cpp"
  13              		.text
  14              	.Ltext0:
  15              		.cfi_sections	.debug_frame
  16              		.section	.text._ZNK8std_msgs4Time9serializeEPh,"axG",%progbits,_ZNK8std_msgs4Time9serializeEPh,com
  17              		.align	1
  18              		.weak	_ZNK8std_msgs4Time9serializeEPh
  19              		.syntax unified
  20              		.thumb
  21              		.thumb_func
  22              		.fpu fpv4-sp-d16
  24              	_ZNK8std_msgs4Time9serializeEPh:
  25              		.fnstart
  26              	.LFB383:
  27              		.file 1 "../Libraries/ROSSerial/std_msgs/Time.h"
   1:../Libraries/ROSSerial/std_msgs/Time.h **** #ifndef _ROS_std_msgs_Time_h
   2:../Libraries/ROSSerial/std_msgs/Time.h **** #define _ROS_std_msgs_Time_h
   3:../Libraries/ROSSerial/std_msgs/Time.h **** 
   4:../Libraries/ROSSerial/std_msgs/Time.h **** #include <stdint.h>
   5:../Libraries/ROSSerial/std_msgs/Time.h **** #include <string.h>
   6:../Libraries/ROSSerial/std_msgs/Time.h **** #include <stdlib.h>
   7:../Libraries/ROSSerial/std_msgs/Time.h **** #include "ros/msg.h"
   8:../Libraries/ROSSerial/std_msgs/Time.h **** #include "ros/time.h"
   9:../Libraries/ROSSerial/std_msgs/Time.h **** 
  10:../Libraries/ROSSerial/std_msgs/Time.h **** 
  11:../Libraries/ROSSerial/std_msgs/Time.h **** namespace std_msgs
  12:../Libraries/ROSSerial/std_msgs/Time.h **** {
  13:../Libraries/ROSSerial/std_msgs/Time.h **** 
  14:../Libraries/ROSSerial/std_msgs/Time.h ****   class Time : public ros::Msg
  15:../Libraries/ROSSerial/std_msgs/Time.h ****   {
  16:../Libraries/ROSSerial/std_msgs/Time.h ****     public:
  17:../Libraries/ROSSerial/std_msgs/Time.h ****       ros::Time data;
  18:../Libraries/ROSSerial/std_msgs/Time.h **** 
  19:../Libraries/ROSSerial/std_msgs/Time.h ****     virtual int serialize(unsigned char *outbuffer) const
  28              		.loc 1 19 0
  29              		.cfi_startproc
  30              		@ args = 0, pretend = 0, frame = 0
  31              		@ frame_needed = 0, uses_anonymous_args = 0
  32              		@ link register save eliminated.
  33              	.LVL0:
  20:../Libraries/ROSSerial/std_msgs/Time.h ****     {
  21:../Libraries/ROSSerial/std_msgs/Time.h ****       int offset = 0;
  22:../Libraries/ROSSerial/std_msgs/Time.h ****       *(outbuffer + offset + 0) = (this->data.sec >> (8 * 0)) & 0xFF;
  34              		.loc 1 22 0
  35 0000 4368     		ldr	r3, [r0, #4]
  36 0002 0B70     		strb	r3, [r1]
ARM GAS  /var/folders/l3/4y5292px21b4835bsnjwqc7w009kq1/T//ccsIHHIW.s 			page 2


  23:../Libraries/ROSSerial/std_msgs/Time.h ****       *(outbuffer + offset + 1) = (this->data.sec >> (8 * 1)) & 0xFF;
  37              		.loc 1 23 0
  38 0004 4368     		ldr	r3, [r0, #4]
  39 0006 1B0A     		lsrs	r3, r3, #8
  40 0008 4B70     		strb	r3, [r1, #1]
  24:../Libraries/ROSSerial/std_msgs/Time.h ****       *(outbuffer + offset + 2) = (this->data.sec >> (8 * 2)) & 0xFF;
  41              		.loc 1 24 0
  42 000a C388     		ldrh	r3, [r0, #6]
  43 000c 8B70     		strb	r3, [r1, #2]
  25:../Libraries/ROSSerial/std_msgs/Time.h ****       *(outbuffer + offset + 3) = (this->data.sec >> (8 * 3)) & 0xFF;
  44              		.loc 1 25 0
  45 000e C379     		ldrb	r3, [r0, #7]	@ zero_extendqisi2
  46 0010 CB70     		strb	r3, [r1, #3]
  47              	.LVL1:
  26:../Libraries/ROSSerial/std_msgs/Time.h ****       offset += sizeof(this->data.sec);
  27:../Libraries/ROSSerial/std_msgs/Time.h ****       *(outbuffer + offset + 0) = (this->data.nsec >> (8 * 0)) & 0xFF;
  48              		.loc 1 27 0
  49 0012 8368     		ldr	r3, [r0, #8]
  50 0014 0B71     		strb	r3, [r1, #4]
  28:../Libraries/ROSSerial/std_msgs/Time.h ****       *(outbuffer + offset + 1) = (this->data.nsec >> (8 * 1)) & 0xFF;
  51              		.loc 1 28 0
  52 0016 8368     		ldr	r3, [r0, #8]
  53 0018 1B0A     		lsrs	r3, r3, #8
  54 001a 4B71     		strb	r3, [r1, #5]
  29:../Libraries/ROSSerial/std_msgs/Time.h ****       *(outbuffer + offset + 2) = (this->data.nsec >> (8 * 2)) & 0xFF;
  55              		.loc 1 29 0
  56 001c 4389     		ldrh	r3, [r0, #10]
  57 001e 8B71     		strb	r3, [r1, #6]
  30:../Libraries/ROSSerial/std_msgs/Time.h ****       *(outbuffer + offset + 3) = (this->data.nsec >> (8 * 3)) & 0xFF;
  58              		.loc 1 30 0
  59 0020 C37A     		ldrb	r3, [r0, #11]	@ zero_extendqisi2
  60 0022 CB71     		strb	r3, [r1, #7]
  61              	.LVL2:
  31:../Libraries/ROSSerial/std_msgs/Time.h ****       offset += sizeof(this->data.nsec);
  32:../Libraries/ROSSerial/std_msgs/Time.h ****       return offset;
  33:../Libraries/ROSSerial/std_msgs/Time.h ****     }
  62              		.loc 1 33 0
  63 0024 0820     		movs	r0, #8
  64              	.LVL3:
  65 0026 7047     		bx	lr
  66              		.cfi_endproc
  67              	.LFE383:
  68              		.cantunwind
  69              		.fnend
  71              		.section	.text._ZN8std_msgs4Time11deserializeEPh,"axG",%progbits,_ZN8std_msgs4Time11deserializeEPh
  72              		.align	1
  73              		.weak	_ZN8std_msgs4Time11deserializeEPh
  74              		.syntax unified
  75              		.thumb
  76              		.thumb_func
  77              		.fpu fpv4-sp-d16
  79              	_ZN8std_msgs4Time11deserializeEPh:
  80              		.fnstart
  81              	.LFB384:
  34:../Libraries/ROSSerial/std_msgs/Time.h **** 
  35:../Libraries/ROSSerial/std_msgs/Time.h ****     virtual int deserialize(unsigned char *inbuffer)
  82              		.loc 1 35 0
ARM GAS  /var/folders/l3/4y5292px21b4835bsnjwqc7w009kq1/T//ccsIHHIW.s 			page 3


  83              		.cfi_startproc
  84              		@ args = 0, pretend = 0, frame = 0
  85              		@ frame_needed = 0, uses_anonymous_args = 0
  86              		@ link register save eliminated.
  87              	.LVL4:
  36:../Libraries/ROSSerial/std_msgs/Time.h ****     {
  37:../Libraries/ROSSerial/std_msgs/Time.h ****       int offset = 0;
  38:../Libraries/ROSSerial/std_msgs/Time.h ****       this->data.sec =  ((uint32_t) (*(inbuffer + offset)));
  88              		.loc 1 38 0
  89 0000 0B78     		ldrb	r3, [r1]	@ zero_extendqisi2
  90 0002 4360     		str	r3, [r0, #4]
  39:../Libraries/ROSSerial/std_msgs/Time.h ****       this->data.sec |= ((uint32_t) (*(inbuffer + offset + 1))) << (8 * 1);
  91              		.loc 1 39 0
  92 0004 4A78     		ldrb	r2, [r1, #1]	@ zero_extendqisi2
  93 0006 43EA0223 		orr	r3, r3, r2, lsl #8
  94 000a 4360     		str	r3, [r0, #4]
  40:../Libraries/ROSSerial/std_msgs/Time.h ****       this->data.sec |= ((uint32_t) (*(inbuffer + offset + 2))) << (8 * 2);
  95              		.loc 1 40 0
  96 000c 8A78     		ldrb	r2, [r1, #2]	@ zero_extendqisi2
  97 000e 43EA0243 		orr	r3, r3, r2, lsl #16
  98 0012 4360     		str	r3, [r0, #4]
  41:../Libraries/ROSSerial/std_msgs/Time.h ****       this->data.sec |= ((uint32_t) (*(inbuffer + offset + 3))) << (8 * 3);
  99              		.loc 1 41 0
 100 0014 CA78     		ldrb	r2, [r1, #3]	@ zero_extendqisi2
 101 0016 43EA0263 		orr	r3, r3, r2, lsl #24
 102 001a 4360     		str	r3, [r0, #4]
 103              	.LVL5:
  42:../Libraries/ROSSerial/std_msgs/Time.h ****       offset += sizeof(this->data.sec);
  43:../Libraries/ROSSerial/std_msgs/Time.h ****       this->data.nsec =  ((uint32_t) (*(inbuffer + offset)));
 104              		.loc 1 43 0
 105 001c 0B79     		ldrb	r3, [r1, #4]	@ zero_extendqisi2
 106 001e 8360     		str	r3, [r0, #8]
  44:../Libraries/ROSSerial/std_msgs/Time.h ****       this->data.nsec |= ((uint32_t) (*(inbuffer + offset + 1))) << (8 * 1);
 107              		.loc 1 44 0
 108 0020 4A79     		ldrb	r2, [r1, #5]	@ zero_extendqisi2
 109 0022 43EA0223 		orr	r3, r3, r2, lsl #8
 110 0026 8360     		str	r3, [r0, #8]
  45:../Libraries/ROSSerial/std_msgs/Time.h ****       this->data.nsec |= ((uint32_t) (*(inbuffer + offset + 2))) << (8 * 2);
 111              		.loc 1 45 0
 112 0028 8A79     		ldrb	r2, [r1, #6]	@ zero_extendqisi2
 113 002a 43EA0243 		orr	r3, r3, r2, lsl #16
 114 002e 8360     		str	r3, [r0, #8]
  46:../Libraries/ROSSerial/std_msgs/Time.h ****       this->data.nsec |= ((uint32_t) (*(inbuffer + offset + 3))) << (8 * 3);
 115              		.loc 1 46 0
 116 0030 CA79     		ldrb	r2, [r1, #7]	@ zero_extendqisi2
 117 0032 43EA0263 		orr	r3, r3, r2, lsl #24
 118 0036 8360     		str	r3, [r0, #8]
 119              	.LVL6:
  47:../Libraries/ROSSerial/std_msgs/Time.h ****       offset += sizeof(this->data.nsec);
  48:../Libraries/ROSSerial/std_msgs/Time.h ****      return offset;
  49:../Libraries/ROSSerial/std_msgs/Time.h ****     }
 120              		.loc 1 49 0
 121 0038 0820     		movs	r0, #8
 122              	.LVL7:
 123 003a 7047     		bx	lr
 124              		.cfi_endproc
 125              	.LFE384:
ARM GAS  /var/folders/l3/4y5292px21b4835bsnjwqc7w009kq1/T//ccsIHHIW.s 			page 4


 126              		.cantunwind
 127              		.fnend
 129              		.section	.text._ZN8std_msgs4Time7getTypeEv,"axG",%progbits,_ZN8std_msgs4Time7getTypeEv,comdat
 130              		.align	1
 131              		.weak	_ZN8std_msgs4Time7getTypeEv
 132              		.syntax unified
 133              		.thumb
 134              		.thumb_func
 135              		.fpu fpv4-sp-d16
 137              	_ZN8std_msgs4Time7getTypeEv:
 138              		.fnstart
 139              	.LFB385:
  50:../Libraries/ROSSerial/std_msgs/Time.h **** 
  51:../Libraries/ROSSerial/std_msgs/Time.h ****     const char * getType(){ return "std_msgs/Time"; };
 140              		.loc 1 51 0
 141              		.cfi_startproc
 142              		@ args = 0, pretend = 0, frame = 0
 143              		@ frame_needed = 0, uses_anonymous_args = 0
 144              		@ link register save eliminated.
 145              	.LVL8:
 146              		.loc 1 51 0
 147 0000 0048     		ldr	r0, .L4
 148              	.LVL9:
 149 0002 7047     		bx	lr
 150              	.L5:
 151              		.align	2
 152              	.L4:
 153 0004 00000000 		.word	.LC0
 154              		.cfi_endproc
 155              	.LFE385:
 156              		.cantunwind
 157              		.fnend
 159              		.section	.text._ZN8std_msgs4Time6getMD5Ev,"axG",%progbits,_ZN8std_msgs4Time6getMD5Ev,comdat
 160              		.align	1
 161              		.weak	_ZN8std_msgs4Time6getMD5Ev
 162              		.syntax unified
 163              		.thumb
 164              		.thumb_func
 165              		.fpu fpv4-sp-d16
 167              	_ZN8std_msgs4Time6getMD5Ev:
 168              		.fnstart
 169              	.LFB386:
  52:../Libraries/ROSSerial/std_msgs/Time.h ****     const char * getMD5(){ return "cd7166c74c552c311fbcc2fe5a7bc289"; };
 170              		.loc 1 52 0
 171              		.cfi_startproc
 172              		@ args = 0, pretend = 0, frame = 0
 173              		@ frame_needed = 0, uses_anonymous_args = 0
 174              		@ link register save eliminated.
 175              	.LVL10:
 176              		.loc 1 52 0
 177 0000 0048     		ldr	r0, .L7
 178              	.LVL11:
 179 0002 7047     		bx	lr
 180              	.L8:
 181              		.align	2
 182              	.L7:
 183 0004 00000000 		.word	.LC1
ARM GAS  /var/folders/l3/4y5292px21b4835bsnjwqc7w009kq1/T//ccsIHHIW.s 			page 5


 184              		.cfi_endproc
 185              	.LFE386:
 186              		.cantunwind
 187              		.fnend
 189              		.section	.text._ZN14rosserial_msgs9TopicInfo11deserializeEPh,"axG",%progbits,_ZN14rosserial_msgs9T
 190              		.align	1
 191              		.weak	_ZN14rosserial_msgs9TopicInfo11deserializeEPh
 192              		.syntax unified
 193              		.thumb
 194              		.thumb_func
 195              		.fpu fpv4-sp-d16
 197              	_ZN14rosserial_msgs9TopicInfo11deserializeEPh:
 198              		.fnstart
 199              	.LFB388:
 200              		.file 2 "../Libraries/ROSSerial/rosserial_msgs/TopicInfo.h"
   1:../Libraries/ROSSerial/rosserial_msgs/TopicInfo.h **** #ifndef _ROS_rosserial_msgs_TopicInfo_h
   2:../Libraries/ROSSerial/rosserial_msgs/TopicInfo.h **** #define _ROS_rosserial_msgs_TopicInfo_h
   3:../Libraries/ROSSerial/rosserial_msgs/TopicInfo.h **** 
   4:../Libraries/ROSSerial/rosserial_msgs/TopicInfo.h **** #include <stdint.h>
   5:../Libraries/ROSSerial/rosserial_msgs/TopicInfo.h **** #include <string.h>
   6:../Libraries/ROSSerial/rosserial_msgs/TopicInfo.h **** #include <stdlib.h>
   7:../Libraries/ROSSerial/rosserial_msgs/TopicInfo.h **** #include "ros/msg.h"
   8:../Libraries/ROSSerial/rosserial_msgs/TopicInfo.h **** 
   9:../Libraries/ROSSerial/rosserial_msgs/TopicInfo.h **** namespace rosserial_msgs
  10:../Libraries/ROSSerial/rosserial_msgs/TopicInfo.h **** {
  11:../Libraries/ROSSerial/rosserial_msgs/TopicInfo.h **** 
  12:../Libraries/ROSSerial/rosserial_msgs/TopicInfo.h ****   class TopicInfo : public ros::Msg
  13:../Libraries/ROSSerial/rosserial_msgs/TopicInfo.h ****   {
  14:../Libraries/ROSSerial/rosserial_msgs/TopicInfo.h ****     public:
  15:../Libraries/ROSSerial/rosserial_msgs/TopicInfo.h ****       uint16_t topic_id;
  16:../Libraries/ROSSerial/rosserial_msgs/TopicInfo.h ****       const char* topic_name;
  17:../Libraries/ROSSerial/rosserial_msgs/TopicInfo.h ****       const char* message_type;
  18:../Libraries/ROSSerial/rosserial_msgs/TopicInfo.h ****       const char* md5sum;
  19:../Libraries/ROSSerial/rosserial_msgs/TopicInfo.h ****       int32_t buffer_size;
  20:../Libraries/ROSSerial/rosserial_msgs/TopicInfo.h ****       enum { ID_PUBLISHER = 0 };
  21:../Libraries/ROSSerial/rosserial_msgs/TopicInfo.h ****       enum { ID_SUBSCRIBER = 1 };
  22:../Libraries/ROSSerial/rosserial_msgs/TopicInfo.h ****       enum { ID_SERVICE_SERVER = 2 };
  23:../Libraries/ROSSerial/rosserial_msgs/TopicInfo.h ****       enum { ID_SERVICE_CLIENT = 4 };
  24:../Libraries/ROSSerial/rosserial_msgs/TopicInfo.h ****       enum { ID_PARAMETER_REQUEST = 6 };
  25:../Libraries/ROSSerial/rosserial_msgs/TopicInfo.h ****       enum { ID_LOG = 7 };
  26:../Libraries/ROSSerial/rosserial_msgs/TopicInfo.h ****       enum { ID_TIME = 10 };
  27:../Libraries/ROSSerial/rosserial_msgs/TopicInfo.h ****       enum { ID_TX_STOP = 11 };
  28:../Libraries/ROSSerial/rosserial_msgs/TopicInfo.h **** 
  29:../Libraries/ROSSerial/rosserial_msgs/TopicInfo.h ****     virtual int serialize(unsigned char *outbuffer) const
  30:../Libraries/ROSSerial/rosserial_msgs/TopicInfo.h ****     {
  31:../Libraries/ROSSerial/rosserial_msgs/TopicInfo.h ****       int offset = 0;
  32:../Libraries/ROSSerial/rosserial_msgs/TopicInfo.h ****       *(outbuffer + offset + 0) = (this->topic_id >> (8 * 0)) & 0xFF;
  33:../Libraries/ROSSerial/rosserial_msgs/TopicInfo.h ****       *(outbuffer + offset + 1) = (this->topic_id >> (8 * 1)) & 0xFF;
  34:../Libraries/ROSSerial/rosserial_msgs/TopicInfo.h ****       offset += sizeof(this->topic_id);
  35:../Libraries/ROSSerial/rosserial_msgs/TopicInfo.h ****       uint32_t length_topic_name = strlen(this->topic_name);
  36:../Libraries/ROSSerial/rosserial_msgs/TopicInfo.h ****       memcpy(outbuffer + offset, &length_topic_name, sizeof(uint32_t));
  37:../Libraries/ROSSerial/rosserial_msgs/TopicInfo.h ****       offset += 4;
  38:../Libraries/ROSSerial/rosserial_msgs/TopicInfo.h ****       memcpy(outbuffer + offset, this->topic_name, length_topic_name);
  39:../Libraries/ROSSerial/rosserial_msgs/TopicInfo.h ****       offset += length_topic_name;
  40:../Libraries/ROSSerial/rosserial_msgs/TopicInfo.h ****       uint32_t length_message_type = strlen(this->message_type);
  41:../Libraries/ROSSerial/rosserial_msgs/TopicInfo.h ****       memcpy(outbuffer + offset, &length_message_type, sizeof(uint32_t));
  42:../Libraries/ROSSerial/rosserial_msgs/TopicInfo.h ****       offset += 4;
ARM GAS  /var/folders/l3/4y5292px21b4835bsnjwqc7w009kq1/T//ccsIHHIW.s 			page 6


  43:../Libraries/ROSSerial/rosserial_msgs/TopicInfo.h ****       memcpy(outbuffer + offset, this->message_type, length_message_type);
  44:../Libraries/ROSSerial/rosserial_msgs/TopicInfo.h ****       offset += length_message_type;
  45:../Libraries/ROSSerial/rosserial_msgs/TopicInfo.h ****       uint32_t length_md5sum = strlen(this->md5sum);
  46:../Libraries/ROSSerial/rosserial_msgs/TopicInfo.h ****       memcpy(outbuffer + offset, &length_md5sum, sizeof(uint32_t));
  47:../Libraries/ROSSerial/rosserial_msgs/TopicInfo.h ****       offset += 4;
  48:../Libraries/ROSSerial/rosserial_msgs/TopicInfo.h ****       memcpy(outbuffer + offset, this->md5sum, length_md5sum);
  49:../Libraries/ROSSerial/rosserial_msgs/TopicInfo.h ****       offset += length_md5sum;
  50:../Libraries/ROSSerial/rosserial_msgs/TopicInfo.h ****       union {
  51:../Libraries/ROSSerial/rosserial_msgs/TopicInfo.h ****         int32_t real;
  52:../Libraries/ROSSerial/rosserial_msgs/TopicInfo.h ****         uint32_t base;
  53:../Libraries/ROSSerial/rosserial_msgs/TopicInfo.h ****       } u_buffer_size;
  54:../Libraries/ROSSerial/rosserial_msgs/TopicInfo.h ****       u_buffer_size.real = this->buffer_size;
  55:../Libraries/ROSSerial/rosserial_msgs/TopicInfo.h ****       *(outbuffer + offset + 0) = (u_buffer_size.base >> (8 * 0)) & 0xFF;
  56:../Libraries/ROSSerial/rosserial_msgs/TopicInfo.h ****       *(outbuffer + offset + 1) = (u_buffer_size.base >> (8 * 1)) & 0xFF;
  57:../Libraries/ROSSerial/rosserial_msgs/TopicInfo.h ****       *(outbuffer + offset + 2) = (u_buffer_size.base >> (8 * 2)) & 0xFF;
  58:../Libraries/ROSSerial/rosserial_msgs/TopicInfo.h ****       *(outbuffer + offset + 3) = (u_buffer_size.base >> (8 * 3)) & 0xFF;
  59:../Libraries/ROSSerial/rosserial_msgs/TopicInfo.h ****       offset += sizeof(this->buffer_size);
  60:../Libraries/ROSSerial/rosserial_msgs/TopicInfo.h ****       return offset;
  61:../Libraries/ROSSerial/rosserial_msgs/TopicInfo.h ****     }
  62:../Libraries/ROSSerial/rosserial_msgs/TopicInfo.h **** 
  63:../Libraries/ROSSerial/rosserial_msgs/TopicInfo.h ****     virtual int deserialize(unsigned char *inbuffer)
 201              		.loc 2 63 0
 202              		.cfi_startproc
 203              		@ args = 0, pretend = 0, frame = 0
 204              		@ frame_needed = 0, uses_anonymous_args = 0
 205              		@ link register save eliminated.
 206              	.LVL12:
 207 0000 70B4     		push	{r4, r5, r6}
 208              	.LCFI0:
 209              		.cfi_def_cfa_offset 12
 210              		.cfi_offset 4, -12
 211              		.cfi_offset 5, -8
 212              		.cfi_offset 6, -4
 213              	.LVL13:
  64:../Libraries/ROSSerial/rosserial_msgs/TopicInfo.h ****     {
  65:../Libraries/ROSSerial/rosserial_msgs/TopicInfo.h ****       int offset = 0;
  66:../Libraries/ROSSerial/rosserial_msgs/TopicInfo.h ****       this->topic_id =  ((uint16_t) (*(inbuffer + offset)));
 214              		.loc 2 66 0
 215 0002 0B78     		ldrb	r3, [r1]	@ zero_extendqisi2
 216 0004 8380     		strh	r3, [r0, #4]	@ movhi
  67:../Libraries/ROSSerial/rosserial_msgs/TopicInfo.h ****       this->topic_id |= ((uint16_t) (*(inbuffer + offset + 1))) << (8 * 1);
 217              		.loc 2 67 0
 218 0006 4A78     		ldrb	r2, [r1, #1]	@ zero_extendqisi2
 219 0008 43EA0223 		orr	r3, r3, r2, lsl #8
 220 000c 8380     		strh	r3, [r0, #4]	@ movhi
 221              	.LVL14:
  68:../Libraries/ROSSerial/rosserial_msgs/TopicInfo.h ****       offset += sizeof(this->topic_id);
  69:../Libraries/ROSSerial/rosserial_msgs/TopicInfo.h ****       uint32_t length_topic_name;
  70:../Libraries/ROSSerial/rosserial_msgs/TopicInfo.h ****       memcpy(&length_topic_name, (inbuffer + offset), sizeof(uint32_t));
 222              		.loc 2 70 0
 223 000e D1F80250 		ldr	r5, [r1, #2]	@ unaligned
 224              	.LVL15:
 225              	.LBB98:
  71:../Libraries/ROSSerial/rosserial_msgs/TopicInfo.h ****       offset += 4;
  72:../Libraries/ROSSerial/rosserial_msgs/TopicInfo.h ****       for(unsigned int k= offset; k< offset+length_topic_name; ++k){
 226              		.loc 2 72 0
 227 0012 0623     		movs	r3, #6
ARM GAS  /var/folders/l3/4y5292px21b4835bsnjwqc7w009kq1/T//ccsIHHIW.s 			page 7


 228              	.LVL16:
 229              	.L11:
 230              		.loc 2 72 0 is_stmt 0 discriminator 3
 231 0014 AA1D     		adds	r2, r5, #6
 232 0016 9A42     		cmp	r2, r3
 233 0018 04D9     		bls	.L10
  73:../Libraries/ROSSerial/rosserial_msgs/TopicInfo.h ****           inbuffer[k-1]=inbuffer[k];
 234              		.loc 2 73 0 is_stmt 1 discriminator 2
 235 001a 5A1E     		subs	r2, r3, #1
 236 001c CC5C     		ldrb	r4, [r1, r3]	@ zero_extendqisi2
 237 001e 8C54     		strb	r4, [r1, r2]
  72:../Libraries/ROSSerial/rosserial_msgs/TopicInfo.h ****           inbuffer[k-1]=inbuffer[k];
 238              		.loc 2 72 0 discriminator 2
 239 0020 0133     		adds	r3, r3, #1
 240              	.LVL17:
 241 0022 F7E7     		b	.L11
 242              	.L10:
 243              	.LBE98:
  74:../Libraries/ROSSerial/rosserial_msgs/TopicInfo.h ****       }
  75:../Libraries/ROSSerial/rosserial_msgs/TopicInfo.h ****       inbuffer[offset+length_topic_name-1]=0;
 244              		.loc 2 75 0
 245 0024 0535     		adds	r5, r5, #5
 246              	.LVL18:
 247 0026 0023     		movs	r3, #0
 248              	.LVL19:
 249 0028 4B55     		strb	r3, [r1, r5]
  76:../Libraries/ROSSerial/rosserial_msgs/TopicInfo.h ****       this->topic_name = (char *)(inbuffer + offset-1);
 250              		.loc 2 76 0
 251 002a 4B1D     		adds	r3, r1, #5
 252 002c 8360     		str	r3, [r0, #8]
 253              	.LVL20:
  77:../Libraries/ROSSerial/rosserial_msgs/TopicInfo.h ****       offset += length_topic_name;
  78:../Libraries/ROSSerial/rosserial_msgs/TopicInfo.h ****       uint32_t length_message_type;
  79:../Libraries/ROSSerial/rosserial_msgs/TopicInfo.h ****       memcpy(&length_message_type, (inbuffer + offset), sizeof(uint32_t));
 254              		.loc 2 79 0
 255 002e 8E58     		ldr	r6, [r1, r2]	@ unaligned
 256              	.LVL21:
  80:../Libraries/ROSSerial/rosserial_msgs/TopicInfo.h ****       offset += 4;
 257              		.loc 2 80 0
 258 0030 141D     		adds	r4, r2, #4
 259              	.LVL22:
 260              	.LBB99:
  81:../Libraries/ROSSerial/rosserial_msgs/TopicInfo.h ****       for(unsigned int k= offset; k< offset+length_message_type; ++k){
 261              		.loc 2 81 0
 262 0032 2346     		mov	r3, r4
 263              	.LVL23:
 264              	.L13:
 265              		.loc 2 81 0 is_stmt 0 discriminator 3
 266 0034 3219     		adds	r2, r6, r4
 267 0036 9A42     		cmp	r2, r3
 268 0038 04D9     		bls	.L12
  82:../Libraries/ROSSerial/rosserial_msgs/TopicInfo.h ****           inbuffer[k-1]=inbuffer[k];
 269              		.loc 2 82 0 is_stmt 1 discriminator 2
 270 003a 5A1E     		subs	r2, r3, #1
 271 003c CD5C     		ldrb	r5, [r1, r3]	@ zero_extendqisi2
 272 003e 8D54     		strb	r5, [r1, r2]
  81:../Libraries/ROSSerial/rosserial_msgs/TopicInfo.h ****       for(unsigned int k= offset; k< offset+length_message_type; ++k){
ARM GAS  /var/folders/l3/4y5292px21b4835bsnjwqc7w009kq1/T//ccsIHHIW.s 			page 8


 273              		.loc 2 81 0 discriminator 2
 274 0040 0133     		adds	r3, r3, #1
 275              	.LVL24:
 276 0042 F7E7     		b	.L13
 277              	.L12:
 278              	.LBE99:
  83:../Libraries/ROSSerial/rosserial_msgs/TopicInfo.h ****       }
  84:../Libraries/ROSSerial/rosserial_msgs/TopicInfo.h ****       inbuffer[offset+length_message_type-1]=0;
 279              		.loc 2 84 0
 280 0044 531E     		subs	r3, r2, #1
 281              	.LVL25:
 282 0046 0025     		movs	r5, #0
 283 0048 CD54     		strb	r5, [r1, r3]
  85:../Libraries/ROSSerial/rosserial_msgs/TopicInfo.h ****       this->message_type = (char *)(inbuffer + offset-1);
 284              		.loc 2 85 0
 285 004a 013C     		subs	r4, r4, #1
 286              	.LVL26:
 287 004c 0C44     		add	r4, r4, r1
 288              	.LVL27:
 289 004e C460     		str	r4, [r0, #12]
 290              	.LVL28:
  86:../Libraries/ROSSerial/rosserial_msgs/TopicInfo.h ****       offset += length_message_type;
  87:../Libraries/ROSSerial/rosserial_msgs/TopicInfo.h ****       uint32_t length_md5sum;
  88:../Libraries/ROSSerial/rosserial_msgs/TopicInfo.h ****       memcpy(&length_md5sum, (inbuffer + offset), sizeof(uint32_t));
 291              		.loc 2 88 0
 292 0050 8E58     		ldr	r6, [r1, r2]	@ unaligned
 293              	.LVL29:
  89:../Libraries/ROSSerial/rosserial_msgs/TopicInfo.h ****       offset += 4;
 294              		.loc 2 89 0
 295 0052 0432     		adds	r2, r2, #4
 296              	.LVL30:
 297              	.LBB100:
  90:../Libraries/ROSSerial/rosserial_msgs/TopicInfo.h ****       for(unsigned int k= offset; k< offset+length_md5sum; ++k){
 298              		.loc 2 90 0
 299 0054 1346     		mov	r3, r2
 300              	.LVL31:
 301              	.L15:
 302              		.loc 2 90 0 is_stmt 0 discriminator 3
 303 0056 B418     		adds	r4, r6, r2
 304 0058 9C42     		cmp	r4, r3
 305 005a 04D9     		bls	.L14
  91:../Libraries/ROSSerial/rosserial_msgs/TopicInfo.h ****           inbuffer[k-1]=inbuffer[k];
 306              		.loc 2 91 0 is_stmt 1 discriminator 2
 307 005c 5C1E     		subs	r4, r3, #1
 308 005e CD5C     		ldrb	r5, [r1, r3]	@ zero_extendqisi2
 309 0060 0D55     		strb	r5, [r1, r4]
  90:../Libraries/ROSSerial/rosserial_msgs/TopicInfo.h ****       for(unsigned int k= offset; k< offset+length_md5sum; ++k){
 310              		.loc 2 90 0 discriminator 2
 311 0062 0133     		adds	r3, r3, #1
 312              	.LVL32:
 313 0064 F7E7     		b	.L15
 314              	.L14:
 315              	.LBE100:
  92:../Libraries/ROSSerial/rosserial_msgs/TopicInfo.h ****       }
  93:../Libraries/ROSSerial/rosserial_msgs/TopicInfo.h ****       inbuffer[offset+length_md5sum-1]=0;
 316              		.loc 2 93 0
 317 0066 631E     		subs	r3, r4, #1
ARM GAS  /var/folders/l3/4y5292px21b4835bsnjwqc7w009kq1/T//ccsIHHIW.s 			page 9


 318              	.LVL33:
 319 0068 0025     		movs	r5, #0
 320 006a CD54     		strb	r5, [r1, r3]
  94:../Libraries/ROSSerial/rosserial_msgs/TopicInfo.h ****       this->md5sum = (char *)(inbuffer + offset-1);
 321              		.loc 2 94 0
 322 006c 013A     		subs	r2, r2, #1
 323 006e 0A44     		add	r2, r2, r1
 324 0070 0261     		str	r2, [r0, #16]
 325              	.LVL34:
  95:../Libraries/ROSSerial/rosserial_msgs/TopicInfo.h ****       offset += length_md5sum;
  96:../Libraries/ROSSerial/rosserial_msgs/TopicInfo.h ****       union {
  97:../Libraries/ROSSerial/rosserial_msgs/TopicInfo.h ****         int32_t real;
  98:../Libraries/ROSSerial/rosserial_msgs/TopicInfo.h ****         uint32_t base;
  99:../Libraries/ROSSerial/rosserial_msgs/TopicInfo.h ****       } u_buffer_size;
 100:../Libraries/ROSSerial/rosserial_msgs/TopicInfo.h ****       u_buffer_size.base = 0;
 101:../Libraries/ROSSerial/rosserial_msgs/TopicInfo.h ****       u_buffer_size.base |= ((uint32_t) (*(inbuffer + offset + 0))) << (8 * 0);
 326              		.loc 2 101 0
 327 0072 0B5D     		ldrb	r3, [r1, r4]	@ zero_extendqisi2
 102:../Libraries/ROSSerial/rosserial_msgs/TopicInfo.h ****       u_buffer_size.base |= ((uint32_t) (*(inbuffer + offset + 1))) << (8 * 1);
 328              		.loc 2 102 0
 329 0074 621C     		adds	r2, r4, #1
 330 0076 8A5C     		ldrb	r2, [r1, r2]	@ zero_extendqisi2
 331 0078 43EA0223 		orr	r3, r3, r2, lsl #8
 103:../Libraries/ROSSerial/rosserial_msgs/TopicInfo.h ****       u_buffer_size.base |= ((uint32_t) (*(inbuffer + offset + 2))) << (8 * 2);
 332              		.loc 2 103 0
 333 007c A21C     		adds	r2, r4, #2
 334 007e 8A5C     		ldrb	r2, [r1, r2]	@ zero_extendqisi2
 335 0080 43EA0243 		orr	r3, r3, r2, lsl #16
 104:../Libraries/ROSSerial/rosserial_msgs/TopicInfo.h ****       u_buffer_size.base |= ((uint32_t) (*(inbuffer + offset + 3))) << (8 * 3);
 336              		.loc 2 104 0
 337 0084 E21C     		adds	r2, r4, #3
 338 0086 8A5C     		ldrb	r2, [r1, r2]	@ zero_extendqisi2
 339 0088 43EA0263 		orr	r3, r3, r2, lsl #24
 105:../Libraries/ROSSerial/rosserial_msgs/TopicInfo.h ****       this->buffer_size = u_buffer_size.real;
 340              		.loc 2 105 0
 341 008c 4361     		str	r3, [r0, #20]
 342              	.LVL35:
 106:../Libraries/ROSSerial/rosserial_msgs/TopicInfo.h ****       offset += sizeof(this->buffer_size);
 107:../Libraries/ROSSerial/rosserial_msgs/TopicInfo.h ****      return offset;
 108:../Libraries/ROSSerial/rosserial_msgs/TopicInfo.h ****     }
 343              		.loc 2 108 0
 344 008e 201D     		adds	r0, r4, #4
 345              	.LVL36:
 346 0090 70BC     		pop	{r4, r5, r6}
 347              	.LCFI1:
 348              		.cfi_restore 6
 349              		.cfi_restore 5
 350              		.cfi_restore 4
 351              		.cfi_def_cfa_offset 0
 352 0092 7047     		bx	lr
 353              		.cfi_endproc
 354              	.LFE388:
 355              		.cantunwind
 356              		.fnend
 358              		.section	.text._ZN14rosserial_msgs9TopicInfo7getTypeEv,"axG",%progbits,_ZN14rosserial_msgs9TopicIn
 359              		.align	1
 360              		.weak	_ZN14rosserial_msgs9TopicInfo7getTypeEv
ARM GAS  /var/folders/l3/4y5292px21b4835bsnjwqc7w009kq1/T//ccsIHHIW.s 			page 10


 361              		.syntax unified
 362              		.thumb
 363              		.thumb_func
 364              		.fpu fpv4-sp-d16
 366              	_ZN14rosserial_msgs9TopicInfo7getTypeEv:
 367              		.fnstart
 368              	.LFB389:
 109:../Libraries/ROSSerial/rosserial_msgs/TopicInfo.h **** 
 110:../Libraries/ROSSerial/rosserial_msgs/TopicInfo.h ****     const char * getType(){ return "rosserial_msgs/TopicInfo"; };
 369              		.loc 2 110 0
 370              		.cfi_startproc
 371              		@ args = 0, pretend = 0, frame = 0
 372              		@ frame_needed = 0, uses_anonymous_args = 0
 373              		@ link register save eliminated.
 374              	.LVL37:
 375              		.loc 2 110 0
 376 0000 0048     		ldr	r0, .L18
 377              	.LVL38:
 378 0002 7047     		bx	lr
 379              	.L19:
 380              		.align	2
 381              	.L18:
 382 0004 00000000 		.word	.LC2
 383              		.cfi_endproc
 384              	.LFE389:
 385              		.cantunwind
 386              		.fnend
 388              		.section	.text._ZN14rosserial_msgs9TopicInfo6getMD5Ev,"axG",%progbits,_ZN14rosserial_msgs9TopicInf
 389              		.align	1
 390              		.weak	_ZN14rosserial_msgs9TopicInfo6getMD5Ev
 391              		.syntax unified
 392              		.thumb
 393              		.thumb_func
 394              		.fpu fpv4-sp-d16
 396              	_ZN14rosserial_msgs9TopicInfo6getMD5Ev:
 397              		.fnstart
 398              	.LFB390:
 111:../Libraries/ROSSerial/rosserial_msgs/TopicInfo.h ****     const char * getMD5(){ return "0ad51f88fc44892f8c10684077646005"; };
 399              		.loc 2 111 0
 400              		.cfi_startproc
 401              		@ args = 0, pretend = 0, frame = 0
 402              		@ frame_needed = 0, uses_anonymous_args = 0
 403              		@ link register save eliminated.
 404              	.LVL39:
 405              		.loc 2 111 0
 406 0000 0048     		ldr	r0, .L21
 407              	.LVL40:
 408 0002 7047     		bx	lr
 409              	.L22:
 410              		.align	2
 411              	.L21:
 412 0004 00000000 		.word	.LC3
 413              		.cfi_endproc
 414              	.LFE390:
 415              		.cantunwind
 416              		.fnend
 418              		.section	.text._ZN14rosserial_msgs3Log11deserializeEPh,"axG",%progbits,_ZN14rosserial_msgs3Log11de
ARM GAS  /var/folders/l3/4y5292px21b4835bsnjwqc7w009kq1/T//ccsIHHIW.s 			page 11


 419              		.align	1
 420              		.weak	_ZN14rosserial_msgs3Log11deserializeEPh
 421              		.syntax unified
 422              		.thumb
 423              		.thumb_func
 424              		.fpu fpv4-sp-d16
 426              	_ZN14rosserial_msgs3Log11deserializeEPh:
 427              		.fnstart
 428              	.LFB392:
 429              		.file 3 "../Libraries/ROSSerial/rosserial_msgs/Log.h"
   1:../Libraries/ROSSerial/rosserial_msgs/Log.h **** #ifndef _ROS_rosserial_msgs_Log_h
   2:../Libraries/ROSSerial/rosserial_msgs/Log.h **** #define _ROS_rosserial_msgs_Log_h
   3:../Libraries/ROSSerial/rosserial_msgs/Log.h **** 
   4:../Libraries/ROSSerial/rosserial_msgs/Log.h **** #include <stdint.h>
   5:../Libraries/ROSSerial/rosserial_msgs/Log.h **** #include <string.h>
   6:../Libraries/ROSSerial/rosserial_msgs/Log.h **** #include <stdlib.h>
   7:../Libraries/ROSSerial/rosserial_msgs/Log.h **** #include "ros/msg.h"
   8:../Libraries/ROSSerial/rosserial_msgs/Log.h **** 
   9:../Libraries/ROSSerial/rosserial_msgs/Log.h **** 
  10:../Libraries/ROSSerial/rosserial_msgs/Log.h **** namespace rosserial_msgs
  11:../Libraries/ROSSerial/rosserial_msgs/Log.h **** {
  12:../Libraries/ROSSerial/rosserial_msgs/Log.h **** 
  13:../Libraries/ROSSerial/rosserial_msgs/Log.h ****   class Log : public ros::Msg
  14:../Libraries/ROSSerial/rosserial_msgs/Log.h ****   {
  15:../Libraries/ROSSerial/rosserial_msgs/Log.h ****     public:
  16:../Libraries/ROSSerial/rosserial_msgs/Log.h ****       uint8_t level;
  17:../Libraries/ROSSerial/rosserial_msgs/Log.h ****       const char* msg;
  18:../Libraries/ROSSerial/rosserial_msgs/Log.h ****       enum { ROSDEBUG = 0 };
  19:../Libraries/ROSSerial/rosserial_msgs/Log.h ****       enum { INFO = 1 };
  20:../Libraries/ROSSerial/rosserial_msgs/Log.h ****       enum { WARN = 2 };
  21:../Libraries/ROSSerial/rosserial_msgs/Log.h ****       enum { ERROR = 3 };
  22:../Libraries/ROSSerial/rosserial_msgs/Log.h ****       enum { FATAL = 4 };
  23:../Libraries/ROSSerial/rosserial_msgs/Log.h **** 
  24:../Libraries/ROSSerial/rosserial_msgs/Log.h ****     virtual int serialize(unsigned char *outbuffer) const
  25:../Libraries/ROSSerial/rosserial_msgs/Log.h ****     {
  26:../Libraries/ROSSerial/rosserial_msgs/Log.h ****       int offset = 0;
  27:../Libraries/ROSSerial/rosserial_msgs/Log.h ****       *(outbuffer + offset + 0) = (this->level >> (8 * 0)) & 0xFF;
  28:../Libraries/ROSSerial/rosserial_msgs/Log.h ****       offset += sizeof(this->level);
  29:../Libraries/ROSSerial/rosserial_msgs/Log.h ****       uint32_t length_msg = strlen(this->msg);
  30:../Libraries/ROSSerial/rosserial_msgs/Log.h ****       memcpy(outbuffer + offset, &length_msg, sizeof(uint32_t));
  31:../Libraries/ROSSerial/rosserial_msgs/Log.h ****       offset += 4;
  32:../Libraries/ROSSerial/rosserial_msgs/Log.h ****       memcpy(outbuffer + offset, this->msg, length_msg);
  33:../Libraries/ROSSerial/rosserial_msgs/Log.h ****       offset += length_msg;
  34:../Libraries/ROSSerial/rosserial_msgs/Log.h ****       return offset;
  35:../Libraries/ROSSerial/rosserial_msgs/Log.h ****     }
  36:../Libraries/ROSSerial/rosserial_msgs/Log.h **** 
  37:../Libraries/ROSSerial/rosserial_msgs/Log.h ****     virtual int deserialize(unsigned char *inbuffer)
 430              		.loc 3 37 0
 431              		.cfi_startproc
 432              		@ args = 0, pretend = 0, frame = 0
 433              		@ frame_needed = 0, uses_anonymous_args = 0
 434              		@ link register save eliminated.
 435              	.LVL41:
 436 0000 30B4     		push	{r4, r5}
 437              	.LCFI2:
 438              		.cfi_def_cfa_offset 8
 439              		.cfi_offset 4, -8
ARM GAS  /var/folders/l3/4y5292px21b4835bsnjwqc7w009kq1/T//ccsIHHIW.s 			page 12


 440              		.cfi_offset 5, -4
 441              	.LVL42:
  38:../Libraries/ROSSerial/rosserial_msgs/Log.h ****     {
  39:../Libraries/ROSSerial/rosserial_msgs/Log.h ****       int offset = 0;
  40:../Libraries/ROSSerial/rosserial_msgs/Log.h ****       this->level =  ((uint8_t) (*(inbuffer + offset)));
 442              		.loc 3 40 0
 443 0002 0B78     		ldrb	r3, [r1]	@ zero_extendqisi2
 444 0004 0371     		strb	r3, [r0, #4]
 445              	.LVL43:
  41:../Libraries/ROSSerial/rosserial_msgs/Log.h ****       offset += sizeof(this->level);
  42:../Libraries/ROSSerial/rosserial_msgs/Log.h ****       uint32_t length_msg;
  43:../Libraries/ROSSerial/rosserial_msgs/Log.h ****       memcpy(&length_msg, (inbuffer + offset), sizeof(uint32_t));
 446              		.loc 3 43 0
 447 0006 D1F80150 		ldr	r5, [r1, #1]	@ unaligned
 448              	.LVL44:
 449              	.LBB101:
  44:../Libraries/ROSSerial/rosserial_msgs/Log.h ****       offset += 4;
  45:../Libraries/ROSSerial/rosserial_msgs/Log.h ****       for(unsigned int k= offset; k< offset+length_msg; ++k){
 450              		.loc 3 45 0
 451 000a 0523     		movs	r3, #5
 452              	.LVL45:
 453              	.L25:
 454              		.loc 3 45 0 is_stmt 0 discriminator 3
 455 000c 6A1D     		adds	r2, r5, #5
 456 000e 9A42     		cmp	r2, r3
 457 0010 04D9     		bls	.L24
  46:../Libraries/ROSSerial/rosserial_msgs/Log.h ****           inbuffer[k-1]=inbuffer[k];
 458              		.loc 3 46 0 is_stmt 1 discriminator 2
 459 0012 5A1E     		subs	r2, r3, #1
 460 0014 CC5C     		ldrb	r4, [r1, r3]	@ zero_extendqisi2
 461 0016 8C54     		strb	r4, [r1, r2]
  45:../Libraries/ROSSerial/rosserial_msgs/Log.h ****           inbuffer[k-1]=inbuffer[k];
 462              		.loc 3 45 0 discriminator 2
 463 0018 0133     		adds	r3, r3, #1
 464              	.LVL46:
 465 001a F7E7     		b	.L25
 466              	.L24:
 467              	.LBE101:
  47:../Libraries/ROSSerial/rosserial_msgs/Log.h ****       }
  48:../Libraries/ROSSerial/rosserial_msgs/Log.h ****       inbuffer[offset+length_msg-1]=0;
 468              		.loc 3 48 0
 469 001c 0435     		adds	r5, r5, #4
 470              	.LVL47:
 471 001e 0023     		movs	r3, #0
 472              	.LVL48:
 473 0020 4B55     		strb	r3, [r1, r5]
  49:../Libraries/ROSSerial/rosserial_msgs/Log.h ****       this->msg = (char *)(inbuffer + offset-1);
 474              		.loc 3 49 0
 475 0022 0431     		adds	r1, r1, #4
 476              	.LVL49:
 477 0024 8160     		str	r1, [r0, #8]
 478              	.LVL50:
  50:../Libraries/ROSSerial/rosserial_msgs/Log.h ****       offset += length_msg;
  51:../Libraries/ROSSerial/rosserial_msgs/Log.h ****      return offset;
  52:../Libraries/ROSSerial/rosserial_msgs/Log.h ****     }
 479              		.loc 3 52 0
 480 0026 1046     		mov	r0, r2
ARM GAS  /var/folders/l3/4y5292px21b4835bsnjwqc7w009kq1/T//ccsIHHIW.s 			page 13


 481              	.LVL51:
 482 0028 30BC     		pop	{r4, r5}
 483              	.LCFI3:
 484              		.cfi_restore 5
 485              		.cfi_restore 4
 486              		.cfi_def_cfa_offset 0
 487 002a 7047     		bx	lr
 488              		.cfi_endproc
 489              	.LFE392:
 490              		.cantunwind
 491              		.fnend
 493              		.section	.text._ZN14rosserial_msgs3Log7getTypeEv,"axG",%progbits,_ZN14rosserial_msgs3Log7getTypeEv
 494              		.align	1
 495              		.weak	_ZN14rosserial_msgs3Log7getTypeEv
 496              		.syntax unified
 497              		.thumb
 498              		.thumb_func
 499              		.fpu fpv4-sp-d16
 501              	_ZN14rosserial_msgs3Log7getTypeEv:
 502              		.fnstart
 503              	.LFB393:
  53:../Libraries/ROSSerial/rosserial_msgs/Log.h **** 
  54:../Libraries/ROSSerial/rosserial_msgs/Log.h ****     const char * getType(){ return "rosserial_msgs/Log"; };
 504              		.loc 3 54 0
 505              		.cfi_startproc
 506              		@ args = 0, pretend = 0, frame = 0
 507              		@ frame_needed = 0, uses_anonymous_args = 0
 508              		@ link register save eliminated.
 509              	.LVL52:
 510              		.loc 3 54 0
 511 0000 0048     		ldr	r0, .L28
 512              	.LVL53:
 513 0002 7047     		bx	lr
 514              	.L29:
 515              		.align	2
 516              	.L28:
 517 0004 00000000 		.word	.LC4
 518              		.cfi_endproc
 519              	.LFE393:
 520              		.cantunwind
 521              		.fnend
 523              		.section	.text._ZN14rosserial_msgs3Log6getMD5Ev,"axG",%progbits,_ZN14rosserial_msgs3Log6getMD5Ev,c
 524              		.align	1
 525              		.weak	_ZN14rosserial_msgs3Log6getMD5Ev
 526              		.syntax unified
 527              		.thumb
 528              		.thumb_func
 529              		.fpu fpv4-sp-d16
 531              	_ZN14rosserial_msgs3Log6getMD5Ev:
 532              		.fnstart
 533              	.LFB394:
  55:../Libraries/ROSSerial/rosserial_msgs/Log.h ****     const char * getMD5(){ return "11abd731c25933261cd6183bd12d6295"; };
 534              		.loc 3 55 0
 535              		.cfi_startproc
 536              		@ args = 0, pretend = 0, frame = 0
 537              		@ frame_needed = 0, uses_anonymous_args = 0
 538              		@ link register save eliminated.
ARM GAS  /var/folders/l3/4y5292px21b4835bsnjwqc7w009kq1/T//ccsIHHIW.s 			page 14


 539              	.LVL54:
 540              		.loc 3 55 0
 541 0000 0048     		ldr	r0, .L31
 542              	.LVL55:
 543 0002 7047     		bx	lr
 544              	.L32:
 545              		.align	2
 546              	.L31:
 547 0004 00000000 		.word	.LC5
 548              		.cfi_endproc
 549              	.LFE394:
 550              		.cantunwind
 551              		.fnend
 553              		.section	.text._ZN14rosserial_msgs20RequestParamResponse7getTypeEv,"axG",%progbits,_ZN14rosserial_
 554              		.align	1
 555              		.weak	_ZN14rosserial_msgs20RequestParamResponse7getTypeEv
 556              		.syntax unified
 557              		.thumb
 558              		.thumb_func
 559              		.fpu fpv4-sp-d16
 561              	_ZN14rosserial_msgs20RequestParamResponse7getTypeEv:
 562              		.fnstart
 563              	.LFB401:
 564              		.file 4 "../Libraries/ROSSerial/rosserial_msgs/RequestParam.h"
   1:../Libraries/ROSSerial/rosserial_msgs/RequestParam.h **** #ifndef _ROS_SERVICE_RequestParam_h
   2:../Libraries/ROSSerial/rosserial_msgs/RequestParam.h **** #define _ROS_SERVICE_RequestParam_h
   3:../Libraries/ROSSerial/rosserial_msgs/RequestParam.h **** 
   4:../Libraries/ROSSerial/rosserial_msgs/RequestParam.h **** #include <stdint.h>
   5:../Libraries/ROSSerial/rosserial_msgs/RequestParam.h **** #include <string.h>
   6:../Libraries/ROSSerial/rosserial_msgs/RequestParam.h **** #include <stdlib.h>
   7:../Libraries/ROSSerial/rosserial_msgs/RequestParam.h **** #include "ros/msg.h"
   8:../Libraries/ROSSerial/rosserial_msgs/RequestParam.h **** 
   9:../Libraries/ROSSerial/rosserial_msgs/RequestParam.h **** 
  10:../Libraries/ROSSerial/rosserial_msgs/RequestParam.h **** namespace rosserial_msgs
  11:../Libraries/ROSSerial/rosserial_msgs/RequestParam.h **** {
  12:../Libraries/ROSSerial/rosserial_msgs/RequestParam.h **** 
  13:../Libraries/ROSSerial/rosserial_msgs/RequestParam.h **** static const char REQUESTPARAM[] = "rosserial_msgs/RequestParam";
  14:../Libraries/ROSSerial/rosserial_msgs/RequestParam.h **** 
  15:../Libraries/ROSSerial/rosserial_msgs/RequestParam.h ****   class RequestParamRequest : public ros::Msg
  16:../Libraries/ROSSerial/rosserial_msgs/RequestParam.h ****   {
  17:../Libraries/ROSSerial/rosserial_msgs/RequestParam.h ****     public:
  18:../Libraries/ROSSerial/rosserial_msgs/RequestParam.h ****       const char* name;
  19:../Libraries/ROSSerial/rosserial_msgs/RequestParam.h **** 
  20:../Libraries/ROSSerial/rosserial_msgs/RequestParam.h ****     virtual int serialize(unsigned char *outbuffer) const
  21:../Libraries/ROSSerial/rosserial_msgs/RequestParam.h ****     {
  22:../Libraries/ROSSerial/rosserial_msgs/RequestParam.h ****       int offset = 0;
  23:../Libraries/ROSSerial/rosserial_msgs/RequestParam.h ****       uint32_t length_name = strlen(this->name);
  24:../Libraries/ROSSerial/rosserial_msgs/RequestParam.h ****       memcpy(outbuffer + offset, &length_name, sizeof(uint32_t));
  25:../Libraries/ROSSerial/rosserial_msgs/RequestParam.h ****       offset += 4;
  26:../Libraries/ROSSerial/rosserial_msgs/RequestParam.h ****       memcpy(outbuffer + offset, this->name, length_name);
  27:../Libraries/ROSSerial/rosserial_msgs/RequestParam.h ****       offset += length_name;
  28:../Libraries/ROSSerial/rosserial_msgs/RequestParam.h ****       return offset;
  29:../Libraries/ROSSerial/rosserial_msgs/RequestParam.h ****     }
  30:../Libraries/ROSSerial/rosserial_msgs/RequestParam.h **** 
  31:../Libraries/ROSSerial/rosserial_msgs/RequestParam.h ****     virtual int deserialize(unsigned char *inbuffer)
  32:../Libraries/ROSSerial/rosserial_msgs/RequestParam.h ****     {
  33:../Libraries/ROSSerial/rosserial_msgs/RequestParam.h ****       int offset = 0;
ARM GAS  /var/folders/l3/4y5292px21b4835bsnjwqc7w009kq1/T//ccsIHHIW.s 			page 15


  34:../Libraries/ROSSerial/rosserial_msgs/RequestParam.h ****       uint32_t length_name;
  35:../Libraries/ROSSerial/rosserial_msgs/RequestParam.h ****       memcpy(&length_name, (inbuffer + offset), sizeof(uint32_t));
  36:../Libraries/ROSSerial/rosserial_msgs/RequestParam.h ****       offset += 4;
  37:../Libraries/ROSSerial/rosserial_msgs/RequestParam.h ****       for(unsigned int k= offset; k< offset+length_name; ++k){
  38:../Libraries/ROSSerial/rosserial_msgs/RequestParam.h ****           inbuffer[k-1]=inbuffer[k];
  39:../Libraries/ROSSerial/rosserial_msgs/RequestParam.h ****       }
  40:../Libraries/ROSSerial/rosserial_msgs/RequestParam.h ****       inbuffer[offset+length_name-1]=0;
  41:../Libraries/ROSSerial/rosserial_msgs/RequestParam.h ****       this->name = (char *)(inbuffer + offset-1);
  42:../Libraries/ROSSerial/rosserial_msgs/RequestParam.h ****       offset += length_name;
  43:../Libraries/ROSSerial/rosserial_msgs/RequestParam.h ****      return offset;
  44:../Libraries/ROSSerial/rosserial_msgs/RequestParam.h ****     }
  45:../Libraries/ROSSerial/rosserial_msgs/RequestParam.h **** 
  46:../Libraries/ROSSerial/rosserial_msgs/RequestParam.h ****     const char * getType(){ return REQUESTPARAM; };
  47:../Libraries/ROSSerial/rosserial_msgs/RequestParam.h ****     const char * getMD5(){ return "c1f3d28f1b044c871e6eff2e9fc3c667"; };
  48:../Libraries/ROSSerial/rosserial_msgs/RequestParam.h **** 
  49:../Libraries/ROSSerial/rosserial_msgs/RequestParam.h ****   };
  50:../Libraries/ROSSerial/rosserial_msgs/RequestParam.h **** 
  51:../Libraries/ROSSerial/rosserial_msgs/RequestParam.h ****   class RequestParamResponse : public ros::Msg
  52:../Libraries/ROSSerial/rosserial_msgs/RequestParam.h ****   {
  53:../Libraries/ROSSerial/rosserial_msgs/RequestParam.h ****     public:
  54:../Libraries/ROSSerial/rosserial_msgs/RequestParam.h ****       uint8_t ints_length;
  55:../Libraries/ROSSerial/rosserial_msgs/RequestParam.h ****       int32_t st_ints;
  56:../Libraries/ROSSerial/rosserial_msgs/RequestParam.h ****       int32_t * ints;
  57:../Libraries/ROSSerial/rosserial_msgs/RequestParam.h ****       uint8_t floats_length;
  58:../Libraries/ROSSerial/rosserial_msgs/RequestParam.h ****       float st_floats;
  59:../Libraries/ROSSerial/rosserial_msgs/RequestParam.h ****       float * floats;
  60:../Libraries/ROSSerial/rosserial_msgs/RequestParam.h ****       uint8_t strings_length;
  61:../Libraries/ROSSerial/rosserial_msgs/RequestParam.h ****       char* st_strings;
  62:../Libraries/ROSSerial/rosserial_msgs/RequestParam.h ****       char* * strings;
  63:../Libraries/ROSSerial/rosserial_msgs/RequestParam.h **** 
  64:../Libraries/ROSSerial/rosserial_msgs/RequestParam.h ****     virtual int serialize(unsigned char *outbuffer) const
  65:../Libraries/ROSSerial/rosserial_msgs/RequestParam.h ****     {
  66:../Libraries/ROSSerial/rosserial_msgs/RequestParam.h ****       int offset = 0;
  67:../Libraries/ROSSerial/rosserial_msgs/RequestParam.h ****       *(outbuffer + offset++) = ints_length;
  68:../Libraries/ROSSerial/rosserial_msgs/RequestParam.h ****       *(outbuffer + offset++) = 0;
  69:../Libraries/ROSSerial/rosserial_msgs/RequestParam.h ****       *(outbuffer + offset++) = 0;
  70:../Libraries/ROSSerial/rosserial_msgs/RequestParam.h ****       *(outbuffer + offset++) = 0;
  71:../Libraries/ROSSerial/rosserial_msgs/RequestParam.h ****       for( uint8_t i = 0; i < ints_length; i++){
  72:../Libraries/ROSSerial/rosserial_msgs/RequestParam.h ****       union {
  73:../Libraries/ROSSerial/rosserial_msgs/RequestParam.h ****         int32_t real;
  74:../Libraries/ROSSerial/rosserial_msgs/RequestParam.h ****         uint32_t base;
  75:../Libraries/ROSSerial/rosserial_msgs/RequestParam.h ****       } u_intsi;
  76:../Libraries/ROSSerial/rosserial_msgs/RequestParam.h ****       u_intsi.real = this->ints[i];
  77:../Libraries/ROSSerial/rosserial_msgs/RequestParam.h ****       *(outbuffer + offset + 0) = (u_intsi.base >> (8 * 0)) & 0xFF;
  78:../Libraries/ROSSerial/rosserial_msgs/RequestParam.h ****       *(outbuffer + offset + 1) = (u_intsi.base >> (8 * 1)) & 0xFF;
  79:../Libraries/ROSSerial/rosserial_msgs/RequestParam.h ****       *(outbuffer + offset + 2) = (u_intsi.base >> (8 * 2)) & 0xFF;
  80:../Libraries/ROSSerial/rosserial_msgs/RequestParam.h ****       *(outbuffer + offset + 3) = (u_intsi.base >> (8 * 3)) & 0xFF;
  81:../Libraries/ROSSerial/rosserial_msgs/RequestParam.h ****       offset += sizeof(this->ints[i]);
  82:../Libraries/ROSSerial/rosserial_msgs/RequestParam.h ****       }
  83:../Libraries/ROSSerial/rosserial_msgs/RequestParam.h ****       *(outbuffer + offset++) = floats_length;
  84:../Libraries/ROSSerial/rosserial_msgs/RequestParam.h ****       *(outbuffer + offset++) = 0;
  85:../Libraries/ROSSerial/rosserial_msgs/RequestParam.h ****       *(outbuffer + offset++) = 0;
  86:../Libraries/ROSSerial/rosserial_msgs/RequestParam.h ****       *(outbuffer + offset++) = 0;
  87:../Libraries/ROSSerial/rosserial_msgs/RequestParam.h ****       for( uint8_t i = 0; i < floats_length; i++){
  88:../Libraries/ROSSerial/rosserial_msgs/RequestParam.h ****       union {
  89:../Libraries/ROSSerial/rosserial_msgs/RequestParam.h ****         float real;
  90:../Libraries/ROSSerial/rosserial_msgs/RequestParam.h ****         uint32_t base;
ARM GAS  /var/folders/l3/4y5292px21b4835bsnjwqc7w009kq1/T//ccsIHHIW.s 			page 16


  91:../Libraries/ROSSerial/rosserial_msgs/RequestParam.h ****       } u_floatsi;
  92:../Libraries/ROSSerial/rosserial_msgs/RequestParam.h ****       u_floatsi.real = this->floats[i];
  93:../Libraries/ROSSerial/rosserial_msgs/RequestParam.h ****       *(outbuffer + offset + 0) = (u_floatsi.base >> (8 * 0)) & 0xFF;
  94:../Libraries/ROSSerial/rosserial_msgs/RequestParam.h ****       *(outbuffer + offset + 1) = (u_floatsi.base >> (8 * 1)) & 0xFF;
  95:../Libraries/ROSSerial/rosserial_msgs/RequestParam.h ****       *(outbuffer + offset + 2) = (u_floatsi.base >> (8 * 2)) & 0xFF;
  96:../Libraries/ROSSerial/rosserial_msgs/RequestParam.h ****       *(outbuffer + offset + 3) = (u_floatsi.base >> (8 * 3)) & 0xFF;
  97:../Libraries/ROSSerial/rosserial_msgs/RequestParam.h ****       offset += sizeof(this->floats[i]);
  98:../Libraries/ROSSerial/rosserial_msgs/RequestParam.h ****       }
  99:../Libraries/ROSSerial/rosserial_msgs/RequestParam.h ****       *(outbuffer + offset++) = strings_length;
 100:../Libraries/ROSSerial/rosserial_msgs/RequestParam.h ****       *(outbuffer + offset++) = 0;
 101:../Libraries/ROSSerial/rosserial_msgs/RequestParam.h ****       *(outbuffer + offset++) = 0;
 102:../Libraries/ROSSerial/rosserial_msgs/RequestParam.h ****       *(outbuffer + offset++) = 0;
 103:../Libraries/ROSSerial/rosserial_msgs/RequestParam.h ****       for( uint8_t i = 0; i < strings_length; i++){
 104:../Libraries/ROSSerial/rosserial_msgs/RequestParam.h ****       uint32_t length_stringsi = strlen(this->strings[i]);
 105:../Libraries/ROSSerial/rosserial_msgs/RequestParam.h ****       memcpy(outbuffer + offset, &length_stringsi, sizeof(uint32_t));
 106:../Libraries/ROSSerial/rosserial_msgs/RequestParam.h ****       offset += 4;
 107:../Libraries/ROSSerial/rosserial_msgs/RequestParam.h ****       memcpy(outbuffer + offset, this->strings[i], length_stringsi);
 108:../Libraries/ROSSerial/rosserial_msgs/RequestParam.h ****       offset += length_stringsi;
 109:../Libraries/ROSSerial/rosserial_msgs/RequestParam.h ****       }
 110:../Libraries/ROSSerial/rosserial_msgs/RequestParam.h ****       return offset;
 111:../Libraries/ROSSerial/rosserial_msgs/RequestParam.h ****     }
 112:../Libraries/ROSSerial/rosserial_msgs/RequestParam.h **** 
 113:../Libraries/ROSSerial/rosserial_msgs/RequestParam.h ****     virtual int deserialize(unsigned char *inbuffer)
 114:../Libraries/ROSSerial/rosserial_msgs/RequestParam.h ****     {
 115:../Libraries/ROSSerial/rosserial_msgs/RequestParam.h ****       int offset = 0;
 116:../Libraries/ROSSerial/rosserial_msgs/RequestParam.h ****       uint8_t ints_lengthT = *(inbuffer + offset++);
 117:../Libraries/ROSSerial/rosserial_msgs/RequestParam.h ****       if(ints_lengthT > ints_length)
 118:../Libraries/ROSSerial/rosserial_msgs/RequestParam.h ****         this->ints = (int32_t*)realloc(this->ints, ints_lengthT * sizeof(int32_t));
 119:../Libraries/ROSSerial/rosserial_msgs/RequestParam.h ****       offset += 3;
 120:../Libraries/ROSSerial/rosserial_msgs/RequestParam.h ****       ints_length = ints_lengthT;
 121:../Libraries/ROSSerial/rosserial_msgs/RequestParam.h ****       for( uint8_t i = 0; i < ints_length; i++){
 122:../Libraries/ROSSerial/rosserial_msgs/RequestParam.h ****       union {
 123:../Libraries/ROSSerial/rosserial_msgs/RequestParam.h ****         int32_t real;
 124:../Libraries/ROSSerial/rosserial_msgs/RequestParam.h ****         uint32_t base;
 125:../Libraries/ROSSerial/rosserial_msgs/RequestParam.h ****       } u_st_ints;
 126:../Libraries/ROSSerial/rosserial_msgs/RequestParam.h ****       u_st_ints.base = 0;
 127:../Libraries/ROSSerial/rosserial_msgs/RequestParam.h ****       u_st_ints.base |= ((uint32_t) (*(inbuffer + offset + 0))) << (8 * 0);
 128:../Libraries/ROSSerial/rosserial_msgs/RequestParam.h ****       u_st_ints.base |= ((uint32_t) (*(inbuffer + offset + 1))) << (8 * 1);
 129:../Libraries/ROSSerial/rosserial_msgs/RequestParam.h ****       u_st_ints.base |= ((uint32_t) (*(inbuffer + offset + 2))) << (8 * 2);
 130:../Libraries/ROSSerial/rosserial_msgs/RequestParam.h ****       u_st_ints.base |= ((uint32_t) (*(inbuffer + offset + 3))) << (8 * 3);
 131:../Libraries/ROSSerial/rosserial_msgs/RequestParam.h ****       this->st_ints = u_st_ints.real;
 132:../Libraries/ROSSerial/rosserial_msgs/RequestParam.h ****       offset += sizeof(this->st_ints);
 133:../Libraries/ROSSerial/rosserial_msgs/RequestParam.h ****         memcpy( &(this->ints[i]), &(this->st_ints), sizeof(int32_t));
 134:../Libraries/ROSSerial/rosserial_msgs/RequestParam.h ****       }
 135:../Libraries/ROSSerial/rosserial_msgs/RequestParam.h ****       uint8_t floats_lengthT = *(inbuffer + offset++);
 136:../Libraries/ROSSerial/rosserial_msgs/RequestParam.h ****       if(floats_lengthT > floats_length)
 137:../Libraries/ROSSerial/rosserial_msgs/RequestParam.h ****         this->floats = (float*)realloc(this->floats, floats_lengthT * sizeof(float));
 138:../Libraries/ROSSerial/rosserial_msgs/RequestParam.h ****       offset += 3;
 139:../Libraries/ROSSerial/rosserial_msgs/RequestParam.h ****       floats_length = floats_lengthT;
 140:../Libraries/ROSSerial/rosserial_msgs/RequestParam.h ****       for( uint8_t i = 0; i < floats_length; i++){
 141:../Libraries/ROSSerial/rosserial_msgs/RequestParam.h ****       union {
 142:../Libraries/ROSSerial/rosserial_msgs/RequestParam.h ****         float real;
 143:../Libraries/ROSSerial/rosserial_msgs/RequestParam.h ****         uint32_t base;
 144:../Libraries/ROSSerial/rosserial_msgs/RequestParam.h ****       } u_st_floats;
 145:../Libraries/ROSSerial/rosserial_msgs/RequestParam.h ****       u_st_floats.base = 0;
 146:../Libraries/ROSSerial/rosserial_msgs/RequestParam.h ****       u_st_floats.base |= ((uint32_t) (*(inbuffer + offset + 0))) << (8 * 0);
 147:../Libraries/ROSSerial/rosserial_msgs/RequestParam.h ****       u_st_floats.base |= ((uint32_t) (*(inbuffer + offset + 1))) << (8 * 1);
ARM GAS  /var/folders/l3/4y5292px21b4835bsnjwqc7w009kq1/T//ccsIHHIW.s 			page 17


 148:../Libraries/ROSSerial/rosserial_msgs/RequestParam.h ****       u_st_floats.base |= ((uint32_t) (*(inbuffer + offset + 2))) << (8 * 2);
 149:../Libraries/ROSSerial/rosserial_msgs/RequestParam.h ****       u_st_floats.base |= ((uint32_t) (*(inbuffer + offset + 3))) << (8 * 3);
 150:../Libraries/ROSSerial/rosserial_msgs/RequestParam.h ****       this->st_floats = u_st_floats.real;
 151:../Libraries/ROSSerial/rosserial_msgs/RequestParam.h ****       offset += sizeof(this->st_floats);
 152:../Libraries/ROSSerial/rosserial_msgs/RequestParam.h ****         memcpy( &(this->floats[i]), &(this->st_floats), sizeof(float));
 153:../Libraries/ROSSerial/rosserial_msgs/RequestParam.h ****       }
 154:../Libraries/ROSSerial/rosserial_msgs/RequestParam.h ****       uint8_t strings_lengthT = *(inbuffer + offset++);
 155:../Libraries/ROSSerial/rosserial_msgs/RequestParam.h ****       if(strings_lengthT > strings_length)
 156:../Libraries/ROSSerial/rosserial_msgs/RequestParam.h ****         this->strings = (char**)realloc(this->strings, strings_lengthT * sizeof(char*));
 157:../Libraries/ROSSerial/rosserial_msgs/RequestParam.h ****       offset += 3;
 158:../Libraries/ROSSerial/rosserial_msgs/RequestParam.h ****       strings_length = strings_lengthT;
 159:../Libraries/ROSSerial/rosserial_msgs/RequestParam.h ****       for( uint8_t i = 0; i < strings_length; i++){
 160:../Libraries/ROSSerial/rosserial_msgs/RequestParam.h ****       uint32_t length_st_strings;
 161:../Libraries/ROSSerial/rosserial_msgs/RequestParam.h ****       memcpy(&length_st_strings, (inbuffer + offset), sizeof(uint32_t));
 162:../Libraries/ROSSerial/rosserial_msgs/RequestParam.h ****       offset += 4;
 163:../Libraries/ROSSerial/rosserial_msgs/RequestParam.h ****       for(unsigned int k= offset; k< offset+length_st_strings; ++k){
 164:../Libraries/ROSSerial/rosserial_msgs/RequestParam.h ****           inbuffer[k-1]=inbuffer[k];
 165:../Libraries/ROSSerial/rosserial_msgs/RequestParam.h ****       }
 166:../Libraries/ROSSerial/rosserial_msgs/RequestParam.h ****       inbuffer[offset+length_st_strings-1]=0;
 167:../Libraries/ROSSerial/rosserial_msgs/RequestParam.h ****       this->st_strings = (char *)(inbuffer + offset-1);
 168:../Libraries/ROSSerial/rosserial_msgs/RequestParam.h ****       offset += length_st_strings;
 169:../Libraries/ROSSerial/rosserial_msgs/RequestParam.h ****         memcpy( &(this->strings[i]), &(this->st_strings), sizeof(char*));
 170:../Libraries/ROSSerial/rosserial_msgs/RequestParam.h ****       }
 171:../Libraries/ROSSerial/rosserial_msgs/RequestParam.h ****      return offset;
 172:../Libraries/ROSSerial/rosserial_msgs/RequestParam.h ****     }
 173:../Libraries/ROSSerial/rosserial_msgs/RequestParam.h **** 
 174:../Libraries/ROSSerial/rosserial_msgs/RequestParam.h ****     const char * getType(){ return REQUESTPARAM; };
 565              		.loc 4 174 0
 566              		.cfi_startproc
 567              		@ args = 0, pretend = 0, frame = 0
 568              		@ frame_needed = 0, uses_anonymous_args = 0
 569              		@ link register save eliminated.
 570              	.LVL56:
 571              		.loc 4 174 0
 572 0000 0048     		ldr	r0, .L34
 573              	.LVL57:
 574 0002 7047     		bx	lr
 575              	.L35:
 576              		.align	2
 577              	.L34:
 578 0004 00000000 		.word	.LANCHOR0
 579              		.cfi_endproc
 580              	.LFE401:
 581              		.cantunwind
 582              		.fnend
 584              		.section	.text._ZN14rosserial_msgs20RequestParamResponse6getMD5Ev,"axG",%progbits,_ZN14rosserial_m
 585              		.align	1
 586              		.weak	_ZN14rosserial_msgs20RequestParamResponse6getMD5Ev
 587              		.syntax unified
 588              		.thumb
 589              		.thumb_func
 590              		.fpu fpv4-sp-d16
 592              	_ZN14rosserial_msgs20RequestParamResponse6getMD5Ev:
 593              		.fnstart
 594              	.LFB402:
 175:../Libraries/ROSSerial/rosserial_msgs/RequestParam.h ****     const char * getMD5(){ return "9f0e98bda65981986ddf53afa7a40e49"; };
 595              		.loc 4 175 0
ARM GAS  /var/folders/l3/4y5292px21b4835bsnjwqc7w009kq1/T//ccsIHHIW.s 			page 18


 596              		.cfi_startproc
 597              		@ args = 0, pretend = 0, frame = 0
 598              		@ frame_needed = 0, uses_anonymous_args = 0
 599              		@ link register save eliminated.
 600              	.LVL58:
 601              		.loc 4 175 0
 602 0000 0048     		ldr	r0, .L37
 603              	.LVL59:
 604 0002 7047     		bx	lr
 605              	.L38:
 606              		.align	2
 607              	.L37:
 608 0004 00000000 		.word	.LC6
 609              		.cfi_endproc
 610              	.LFE402:
 611              		.cantunwind
 612              		.fnend
 614              		.section	.text._Z41__static_initialization_and_destruction_0ii,"ax",%progbits
 615              		.align	1
 616              		.syntax unified
 617              		.thumb
 618              		.thumb_func
 619              		.fpu fpv4-sp-d16
 621              	_Z41__static_initialization_and_destruction_0ii:
 622              		.fnstart
 623              	.LFB491:
 624              		.file 5 "Src/main.cpp"
   1:Src/main.cpp  **** /**
   2:Src/main.cpp  ****   ******************************************************************************
   3:Src/main.cpp  ****   * @file    FreeRTOS/ResManagement_SafelyPrint/main.c 
   4:Src/main.cpp  ****   * @author  Artery Technology
   5:Src/main.cpp  ****   * @version V1.1.2
   6:Src/main.cpp  ****   * @date    2019-01-04
   7:Src/main.cpp  ****   * @brief   Main program body
   8:Src/main.cpp  ****   ******************************************************************************
   9:Src/main.cpp  ****   * @attention
  10:Src/main.cpp  ****   *
  11:Src/main.cpp  ****   * THE PRESENT FIRMWARE WHICH IS FOR GUIDANCE ONLY AIMS AT PROVIDING CUSTOMERS
  12:Src/main.cpp  ****   * WITH CODING INFORMATION REGARDING THEIR PRODUCTS IN ORDER FOR THEM TO SAVE
  13:Src/main.cpp  ****   * TIME. AS A RESULT, ARTERYTEK SHALL NOT BE HELD LIABLE FOR ANY
  14:Src/main.cpp  ****   * DIRECT, INDIRECT OR CONSEQUENTIAL DAMAGES WITH RESPECT TO ANY CLAIMS ARISING
  15:Src/main.cpp  ****   * FROM THE CONTENT OF SUCH FIRMWARE AND/OR THE USE MADE BY CUSTOMERS OF THE
  16:Src/main.cpp  ****   * CODING INFORMATION CONTAINED HEREIN IN CONNECTION WITH THEIR PRODUCTS.
  17:Src/main.cpp  ****   *
  18:Src/main.cpp  ****   * <h2><center>&copy; COPYRIGHT 2018 ArteryTek</center></h2>
  19:Src/main.cpp  ****   ******************************************************************************
  20:Src/main.cpp  ****   */ 
  21:Src/main.cpp  **** 
  22:Src/main.cpp  **** #include "includes.h"
  23:Src/main.cpp  **** #include "spin_task.h"
  24:Src/main.cpp  **** #include "subscribe_task.h"
  25:Src/main.cpp  **** #include "heartbeat_task.h"
  26:Src/main.cpp  **** 
  27:Src/main.cpp  **** 
  28:Src/main.cpp  **** #ifdef __cplusplus
  29:Src/main.cpp  **** extern "C"
  30:Src/main.cpp  **** {
ARM GAS  /var/folders/l3/4y5292px21b4835bsnjwqc7w009kq1/T//ccsIHHIW.s 			page 19


  31:Src/main.cpp  **** #endif
  32:Src/main.cpp  **** void vTimerInitForRunTimeState(void);
  33:Src/main.cpp  **** void vApplicationStackOverflowHook( TaskHandle_t xTask, char *pcTaskName );
  34:Src/main.cpp  **** void vApplicationMallocFailedHook(void);
  35:Src/main.cpp  **** void vApplicationDaemonTaskStartupHook( void );
  36:Src/main.cpp  **** void vApplicationTickHook( void );
  37:Src/main.cpp  **** void vApplicationIdleHook( void );
  38:Src/main.cpp  **** #ifdef __cplusplus
  39:Src/main.cpp  **** }
  40:Src/main.cpp  **** #endif
  41:Src/main.cpp  **** 
  42:Src/main.cpp  **** /** @addtogroup AT32F403_StdPeriph_Examples
  43:Src/main.cpp  ****   * @{
  44:Src/main.cpp  ****   */
  45:Src/main.cpp  **** 
  46:Src/main.cpp  **** /** @addtogroup FreeRTOS_ResManagement_SafelyPrint
  47:Src/main.cpp  ****   * @{
  48:Src/main.cpp  ****   */
  49:Src/main.cpp  **** 
  50:Src/main.cpp  **** 
  51:Src/main.cpp  **** /* Private macro -------------------------------------------------------------*/
  52:Src/main.cpp  **** /* Private variables ---------------------------------------------------------*/ 
  53:Src/main.cpp  **** static void AppTaskCreate (void);
  54:Src/main.cpp  **** static void AppObjCreate(void);
  55:Src/main.cpp  **** void App_Printf(const char *format, ...);
  56:Src/main.cpp  **** static void vTaskLED(void *pvParameters);
  57:Src/main.cpp  **** static void vTaskMsgProcess(void *pvParameters);
  58:Src/main.cpp  **** static void TMR_CallBack1(void);
  59:Src/main.cpp  **** static void TMR_CallBack2(void);
  60:Src/main.cpp  **** static void vTaskCtrolProcess(void *pvParameters);
  61:Src/main.cpp  **** 
  62:Src/main.cpp  **** 
  63:Src/main.cpp  **** /* Private typedef -----------------------------------------------------------*/
  64:Src/main.cpp  **** /* Private define ------------------------------------------------------------*/
  65:Src/main.cpp  **** /* Declare variables that are used to hold the handle of task */
  66:Src/main.cpp  **** static TaskHandle_t xHandleTaskLED          = NULL;
  67:Src/main.cpp  **** static TaskHandle_t xHandleTaskMsgProcess   = NULL;
  68:Src/main.cpp  **** static TaskHandle_t xHandleTaskCtrolProcess      = NULL;
  69:Src/main.cpp  **** static SemaphoreHandle_t xHandleMutexPrint = NULL;
  70:Src/main.cpp  **** ros::NodeHandle nh; /* ROS node handle */
  71:Src/main.cpp  **** 
  72:Src/main.cpp  **** /**
  73:Src/main.cpp  ****  * @brief   Main program
  74:Src/main.cpp  ****  * @param   None
  75:Src/main.cpp  ****  * @retval  None
  76:Src/main.cpp  ****  */
  77:Src/main.cpp  **** int main(void)
  78:Src/main.cpp  **** {
  79:Src/main.cpp  **** 	__set_PRIMASK(1); //disable global interrupts 
  80:Src/main.cpp  **** 	
  81:Src/main.cpp  **** 	/* Perform any hardware setup necessary */
  82:Src/main.cpp  **** 	bsp_Init(); 
  83:Src/main.cpp  **** 
  84:Src/main.cpp  ****     /* ROS init, we can start UART hear in not in bsp */ 
  85:Src/main.cpp  ****      nh.initNode();
  86:Src/main.cpp  **** 
  87:Src/main.cpp  ****     /* USER CODE BEGIN 2 */
ARM GAS  /var/folders/l3/4y5292px21b4835bsnjwqc7w009kq1/T//ccsIHHIW.s 			page 20


  88:Src/main.cpp  ****     if(rosSpinTaskInit(&nh))
  89:Src/main.cpp  ****     {
  90:Src/main.cpp  ****         /* task is not created */
  91:Src/main.cpp  ****         while(1);
  92:Src/main.cpp  ****     }
  93:Src/main.cpp  **** 
  94:Src/main.cpp  ****     // if(rosSubscribeInitTask(&nh))
  95:Src/main.cpp  ****     // {
  96:Src/main.cpp  ****     //     /* task is not created */
  97:Src/main.cpp  ****     //     while(1);
  98:Src/main.cpp  ****     // }
  99:Src/main.cpp  **** 
 100:Src/main.cpp  ****     // if(publishInitTask(&nh))
 101:Src/main.cpp  ****     // {
 102:Src/main.cpp  ****     //     /* task is not created */
 103:Src/main.cpp  ****     //     while(1);
 104:Src/main.cpp  ****     // }
 105:Src/main.cpp  **** 
 106:Src/main.cpp  ****     // if (heartbeatInitTask())
 107:Src/main.cpp  ****     // {
 108:Src/main.cpp  ****     //     /* task is not created */
 109:Src/main.cpp  ****     //     while(1);
 110:Src/main.cpp  ****     // }
 111:Src/main.cpp  ****     /* setup a timer for gather task statistics */
 112:Src/main.cpp  **** 	//vTimerInitForRunTimeState();
 113:Src/main.cpp  **** 	
 114:Src/main.cpp  **** 	/* Application tasks created */
 115:Src/main.cpp  **** 	//AppTaskCreate();
 116:Src/main.cpp  **** 
 117:Src/main.cpp  ****     /* Application communication mechanism created */
 118:Src/main.cpp  **** 	AppObjCreate();
 119:Src/main.cpp  **** 	
 120:Src/main.cpp  ****     /* Start the created tasks running */
 121:Src/main.cpp  ****     vTaskStartScheduler();
 122:Src/main.cpp  **** 
 123:Src/main.cpp  ****     /* If all is well then main() will never reach here as the scheduler will
 124:Src/main.cpp  ****      * now be running the tasks. If main() does reach here then it is likely
 125:Src/main.cpp  ****      * that there was insufficient heap memory available for the idle task to be 
 126:Src/main.cpp  ****      * created
 127:Src/main.cpp  ****      */
 128:Src/main.cpp  **** 	while(1);
 129:Src/main.cpp  ****     //return 0;
 130:Src/main.cpp  **** }
 131:Src/main.cpp  **** 
 132:Src/main.cpp  **** /**
 133:Src/main.cpp  ****  * @brief   LED task
 134:Src/main.cpp  ****  * @param   pvParameters: passed to the task
 135:Src/main.cpp  ****  * @retval  None
 136:Src/main.cpp  ****  */
 137:Src/main.cpp  **** 
 138:Src/main.cpp  **** static void vTaskLED(void *pvParameters)
 139:Src/main.cpp  **** {
 140:Src/main.cpp  ****     while(1)
 141:Src/main.cpp  ****     {
 142:Src/main.cpp  **** 		bsp_LedToggle(2);//LED2
 143:Src/main.cpp  **** 		vTaskDelay(pdMS_TO_TICKS(1000));//delay in ms
 144:Src/main.cpp  **** 		App_Printf("This is LED Task, lower priority than Ctrol task and longer information needed to pri
ARM GAS  /var/folders/l3/4y5292px21b4835bsnjwqc7w009kq1/T//ccsIHHIW.s 			page 21


 145:Src/main.cpp  **** 	}
 146:Src/main.cpp  **** }
 147:Src/main.cpp  **** 
 148:Src/main.cpp  **** /**
 149:Src/main.cpp  ****  * @brief   obtain task run-time statistics 
 150:Src/main.cpp  ****  * @param   pvParameters: passed to the task
 151:Src/main.cpp  ****  * @retval  None
 152:Src/main.cpp  ****  */
 153:Src/main.cpp  **** static void vTaskMsgProcess(void *pvParameters)
 154:Src/main.cpp  **** {
 155:Src/main.cpp  ****     uint8_t ucCommandValue=0xFF;
 156:Src/main.cpp  ****     uint8_t pcWriteBuffer[500];
 157:Src/main.cpp  ****     
 158:Src/main.cpp  ****     App_Printf("\r\n1. Print task run-time statistics\r\n");    
 159:Src/main.cpp  ****     App_Printf("2. Enable Timer CC1 interrupt\r\n");  
 160:Src/main.cpp  ****     App_Printf("3. Enable Timer CC2 interrupt\r\n");  
 161:Src/main.cpp  ****     while(1)
 162:Src/main.cpp  ****     {
 163:Src/main.cpp  ****         comGetChar(COM1,&ucCommandValue);
 164:Src/main.cpp  ****         switch(ucCommandValue)
 165:Src/main.cpp  ****         {
 166:Src/main.cpp  ****             case '1':
 167:Src/main.cpp  ****                 App_Printf("==================================================\r\n");
 168:Src/main.cpp  ****                 App_Printf("Name                  State  Priority  Stack   Num\r\n");
 169:Src/main.cpp  ****                 vTaskList((char*)pcWriteBuffer);
 170:Src/main.cpp  ****                 App_Printf("%s\r\n", pcWriteBuffer);
 171:Src/main.cpp  **** 
 172:Src/main.cpp  ****                 App_Printf("\r\n");
 173:Src/main.cpp  ****                 App_Printf("Task                  Abs Time         %%Time      \r\n");
 174:Src/main.cpp  ****                 App_Printf("***************************************************\r\n");
 175:Src/main.cpp  ****                 vTaskGetRunTimeStats((char*)pcWriteBuffer);
 176:Src/main.cpp  ****                 App_Printf("%s\r\n", pcWriteBuffer);
 177:Src/main.cpp  ****                 break;
 178:Src/main.cpp  ****             case '2':
 179:Src/main.cpp  ****                 bsp_StartHardTimer(1, 50000, (void*)TMR_CallBack1);//after 50ms to execute ISR, and
 180:Src/main.cpp  ****                 break;
 181:Src/main.cpp  ****             case '3':
 182:Src/main.cpp  ****                 bsp_StartHardTimer(2, 50000, (void*)TMR_CallBack2);//after 50ms to execute ISR, and
 183:Src/main.cpp  ****                 break;
 184:Src/main.cpp  ****             default:
 185:Src/main.cpp  ****                 break;
 186:Src/main.cpp  ****         }
 187:Src/main.cpp  **** 
 188:Src/main.cpp  ****         if(ucCommandValue =='1' || ucCommandValue =='2' || ucCommandValue =='3')
 189:Src/main.cpp  ****         {
 190:Src/main.cpp  ****             App_Printf("1. Print task run-time statistics\r\n");
 191:Src/main.cpp  ****             App_Printf("2. Enable Timer CC1 interrupt\r\n");  
 192:Src/main.cpp  ****             App_Printf("3. Enable Timer CC2 interrupt\r\n"); 
 193:Src/main.cpp  ****             comClearRxFifo(COM1);
 194:Src/main.cpp  ****             ucCommandValue = 0xFF;
 195:Src/main.cpp  ****         }
 196:Src/main.cpp  ****            
 197:Src/main.cpp  ****         vTaskDelay(pdMS_TO_TICKS(100));
 198:Src/main.cpp  ****     }
 199:Src/main.cpp  **** }
 200:Src/main.cpp  **** 
 201:Src/main.cpp  **** /**
ARM GAS  /var/folders/l3/4y5292px21b4835bsnjwqc7w009kq1/T//ccsIHHIW.s 			page 22


 202:Src/main.cpp  ****  * @brief   Empty task
 203:Src/main.cpp  ****  * @param   pvParameters: passed to the task
 204:Src/main.cpp  ****  * @retval  None
 205:Src/main.cpp  ****  */
 206:Src/main.cpp  **** static void vTaskCtrolProcess(void *pvParameters)
 207:Src/main.cpp  **** {
 208:Src/main.cpp  ****     while(1)
 209:Src/main.cpp  ****     {
 210:Src/main.cpp  ****         vTaskDelay(pdMS_TO_TICKS(1000));
 211:Src/main.cpp  **** 		App_Printf("This is Ctrol Task\r\n");
 212:Src/main.cpp  ****     }
 213:Src/main.cpp  **** }
 214:Src/main.cpp  **** 
 215:Src/main.cpp  **** /**
 216:Src/main.cpp  ****  * @brief   Create tasks
 217:Src/main.cpp  ****  * @param   None
 218:Src/main.cpp  ****  * @retval  None
 219:Src/main.cpp  ****  */
 220:Src/main.cpp  **** static void AppTaskCreate (void)
 221:Src/main.cpp  **** {
 222:Src/main.cpp  ****     BaseType_t xReturn;
 223:Src/main.cpp  ****     
 224:Src/main.cpp  ****     xReturn = xTaskCreate(  vTaskLED,   	    // function of task
 225:Src/main.cpp  ****                             "vTaskLED",         // task name. used for debugging aid only*/
 226:Src/main.cpp  ****                             512,               	// stack size. specify the number of words(32bits) 
 227:Src/main.cpp  ****                             NULL,              	// task parameter*/
 228:Src/main.cpp  ****                             2,                 	// task priority. Note: the smaller number, the low
 229:Src/main.cpp  ****                             &xHandleTaskLED );  // task handle. used to reference the task in API c
 230:Src/main.cpp  **** 	if(xReturn != pdPASS)
 231:Src/main.cpp  **** 	{
 232:Src/main.cpp  **** 	    while(1);//There is insufficient heap memory
 233:Src/main.cpp  **** 	}
 234:Src/main.cpp  **** 	xReturn = xTaskCreate(  vTaskMsgProcess,     		
 235:Src/main.cpp  ****                             "vTaskMsgProcess",   		
 236:Src/main.cpp  ****                             512,             		
 237:Src/main.cpp  ****                             NULL,           		
 238:Src/main.cpp  ****                             3,               		
 239:Src/main.cpp  ****                             &xHandleTaskMsgProcess );  
 240:Src/main.cpp  ****     if(xReturn != pdPASS)
 241:Src/main.cpp  **** 	{
 242:Src/main.cpp  **** 	    while(1);//There is insufficient heap memory
 243:Src/main.cpp  **** 	}
 244:Src/main.cpp  **** 	
 245:Src/main.cpp  **** 	xReturn = xTaskCreate(  vTaskCtrolProcess,     		
 246:Src/main.cpp  ****                             "vTaskCtrolProcess",   		
 247:Src/main.cpp  ****                             512,            		
 248:Src/main.cpp  ****                             NULL,           		
 249:Src/main.cpp  ****                             4,              		
 250:Src/main.cpp  ****                             &xHandleTaskCtrolProcess ); 
 251:Src/main.cpp  ****     if(xReturn != pdPASS)
 252:Src/main.cpp  **** 	{
 253:Src/main.cpp  **** 	    while(1);//There is insufficient heap memory
 254:Src/main.cpp  **** 	}
 255:Src/main.cpp  **** 	
 256:Src/main.cpp  **** }
 257:Src/main.cpp  **** 
 258:Src/main.cpp  **** /**
ARM GAS  /var/folders/l3/4y5292px21b4835bsnjwqc7w009kq1/T//ccsIHHIW.s 			page 23


 259:Src/main.cpp  ****  * @brief   Create semaphore
 260:Src/main.cpp  ****  * @param   None
 261:Src/main.cpp  ****  * @retval  None
 262:Src/main.cpp  ****  */
 263:Src/main.cpp  **** static void AppObjCreate(void)
 264:Src/main.cpp  **** {
 265:Src/main.cpp  ****     xHandleMutexPrint = xSemaphoreCreateMutex();
 266:Src/main.cpp  **** 
 267:Src/main.cpp  ****     if(xHandleMutexPrint == NULL)
 268:Src/main.cpp  ****     {
 269:Src/main.cpp  ****         printf("There is insufficient heap memory\r\n");
 270:Src/main.cpp  ****     }
 271:Src/main.cpp  **** }
 272:Src/main.cpp  **** 
 273:Src/main.cpp  **** /**
 274:Src/main.cpp  ****  * @brief   Print function
 275:Src/main.cpp  ****  * @param   format: things to print
 276:Src/main.cpp  ****  * @retval  None
 277:Src/main.cpp  ****  */
 278:Src/main.cpp  **** void App_Printf(const char *format, ...)
 279:Src/main.cpp  **** {
 280:Src/main.cpp  ****     char buf_str[200+1];//max number contain character is 200
 281:Src/main.cpp  ****     va_list v_args;
 282:Src/main.cpp  **** 
 283:Src/main.cpp  ****     va_start(v_args, format);
 284:Src/main.cpp  ****     
 285:Src/main.cpp  ****     (void)vsnprintf((char*)&buf_str[0],
 286:Src/main.cpp  ****                     (size_t)sizeof(buf_str),
 287:Src/main.cpp  ****                     (char const*)format,
 288:Src/main.cpp  ****                                 v_args);
 289:Src/main.cpp  ****     va_end(v_args);
 290:Src/main.cpp  **** 
 291:Src/main.cpp  ****     xSemaphoreTake(xHandleMutexPrint, portMAX_DELAY);//block indefinitely until mutex be obtained
 292:Src/main.cpp  ****     printf("%s", buf_str);
 293:Src/main.cpp  ****     xSemaphoreGive(xHandleMutexPrint);//the mutex must be given back
 294:Src/main.cpp  **** }
 295:Src/main.cpp  **** 
 296:Src/main.cpp  **** /**
 297:Src/main.cpp  ****  * @brief   Toggle led3
 298:Src/main.cpp  ****  * @param   None
 299:Src/main.cpp  ****  * @retval  None
 300:Src/main.cpp  ****  */
 301:Src/main.cpp  **** static void TMR_CallBack1(void)
 302:Src/main.cpp  **** {
 303:Src/main.cpp  ****     bsp_LedToggle(3);
 304:Src/main.cpp  ****     printf("In callback 1\n");
 305:Src/main.cpp  **** }
 306:Src/main.cpp  **** 
 307:Src/main.cpp  **** /**
 308:Src/main.cpp  ****  * @brief   Toggle led4
 309:Src/main.cpp  ****  * @param   None
 310:Src/main.cpp  ****  * @retval  None
 311:Src/main.cpp  ****  */
 312:Src/main.cpp  **** static void TMR_CallBack2(void)
 313:Src/main.cpp  **** {
 314:Src/main.cpp  ****     bsp_LedToggle(4);
 315:Src/main.cpp  ****     printf("In callback 2\n"); //CANNOT USE App_Printf in interrupt callback as we deadlock on mute
ARM GAS  /var/folders/l3/4y5292px21b4835bsnjwqc7w009kq1/T//ccsIHHIW.s 			page 24


 316:Src/main.cpp  **** }
 317:Src/main.cpp  **** 
 318:Src/main.cpp  **** #if ( configUSE_IDLE_HOOK == 1 )
 319:Src/main.cpp  **** /* Call the user defined function from within the idle task.  This
 320:Src/main.cpp  ****  * allows the application designer to add background functionality
 321:Src/main.cpp  ****  * without the overhead of a separate task.
 322:Src/main.cpp  ****  *  
 323:Src/main.cpp  ****  * NOTE: vApplicationIdleHook() MUST NOT, UNDER ANY CIRCUMSTANCES,
 324:Src/main.cpp  ****  * CALL A FUNCTION THAT MIGHT BLOCK. THE FUNCTION NAME IS FIXED*/
 325:Src/main.cpp  **** 
 326:Src/main.cpp  **** void vApplicationIdleHook( void )
 327:Src/main.cpp  **** {
 328:Src/main.cpp  ****     while(1);
 329:Src/main.cpp  **** }
 330:Src/main.cpp  **** 
 331:Src/main.cpp  **** #endif /* configUSE_IDLE_HOOK */
 332:Src/main.cpp  **** 
 333:Src/main.cpp  **** #if ( configUSE_TICK_HOOK == 1 )
 334:Src/main.cpp  **** /* The tick hook gets called at regular intervals, even if the
 335:Src/main.cpp  ****  * scheduler is locked. 
 336:Src/main.cpp  ****  * NOTE: THE FUNCTION NAME IS FIXED */
 337:Src/main.cpp  **** 
 338:Src/main.cpp  **** void vApplicationTickHook( void )
 339:Src/main.cpp  **** {
 340:Src/main.cpp  ****     while(1);
 341:Src/main.cpp  **** }
 342:Src/main.cpp  **** 
 343:Src/main.cpp  **** #endif /* configUSE_TICK_HOOK */
 344:Src/main.cpp  **** 
 345:Src/main.cpp  **** #if ( configUSE_MALLOC_FAILED_HOOK == 1 )
 346:Src/main.cpp  **** /* NOTE: THE FUNCTION NAME IS FIXED */
 347:Src/main.cpp  **** 
 348:Src/main.cpp  **** void vApplicationMallocFailedHook(void)
 349:Src/main.cpp  **** {
 350:Src/main.cpp  ****     while(1);
 351:Src/main.cpp  **** }
 352:Src/main.cpp  **** 
 353:Src/main.cpp  **** #endif /* configUSE_MALLOC_FAILED_HOOK */
 354:Src/main.cpp  **** 
 355:Src/main.cpp  **** #if (  configCHECK_FOR_STACK_OVERFLOW > 0 )
 356:Src/main.cpp  **** /* The stack overflow hook function.
 357:Src/main.cpp  ****  * xTask: handle of the task that has exceeded its stack space
 358:Src/main.cpp  ****  * pcTaskName: name of the task that has exceeded its stack sapce
 359:Src/main.cpp  ****  * NOTE: stack overflow checking can only be used on architectures
 360:Src/main.cpp  ****  *       that have a linear memory map
 361:Src/main.cpp  ****  */
 362:Src/main.cpp  **** //extern "C" void __cxa_pure_virtual() { while (1); }
 363:Src/main.cpp  **** 
 364:Src/main.cpp  **** void vApplicationStackOverflowHook( TaskHandle_t xTask, char *pcTaskName )
 365:Src/main.cpp  **** {
 366:Src/main.cpp  ****     //App_Printf("task: %s stack is overFlow\r\n",pcTaskName);
 367:Src/main.cpp  ****     printf("task: %s stack is overFlow\r\n",pcTaskName);
 368:Src/main.cpp  **** }
 625              		.loc 5 368 0
 626              		.cfi_startproc
 627              		@ args = 0, pretend = 0, frame = 0
 628              		@ frame_needed = 0, uses_anonymous_args = 0
ARM GAS  /var/folders/l3/4y5292px21b4835bsnjwqc7w009kq1/T//ccsIHHIW.s 			page 25


 629              		@ link register save eliminated.
 630              	.LVL60:
 631              		.loc 5 368 0
 632 0000 0128     		cmp	r0, #1
 633 0002 00D0     		beq	.L49
 634              	.LVL61:
 635              	.L39:
 636 0004 7047     		bx	lr
 637              	.LVL62:
 638              	.L49:
 639              		.loc 5 368 0 is_stmt 0 discriminator 1
 640 0006 4FF6FF73 		movw	r3, #65535
 641 000a 9942     		cmp	r1, r3
 642 000c FAD1     		bne	.L39
 643              	.LVL63:
 644              	.LBB115:
 645              	.LBB116:
 646              	.LBB117:
 647              		.file 6 "../Libraries/ROSSerial/ros/node_handle.h"
   1:../Libraries/ROSSerial/ros/node_handle.h **** /*
   2:../Libraries/ROSSerial/ros/node_handle.h ****  * Software License Agreement (BSD License)
   3:../Libraries/ROSSerial/ros/node_handle.h ****  *
   4:../Libraries/ROSSerial/ros/node_handle.h ****  * Copyright (c) 2011, Willow Garage, Inc.
   5:../Libraries/ROSSerial/ros/node_handle.h ****  * All rights reserved.
   6:../Libraries/ROSSerial/ros/node_handle.h ****  *
   7:../Libraries/ROSSerial/ros/node_handle.h ****  * Redistribution and use in source and binary forms, with or without
   8:../Libraries/ROSSerial/ros/node_handle.h ****  * modification, are permitted provided that the following conditions
   9:../Libraries/ROSSerial/ros/node_handle.h ****  * are met:
  10:../Libraries/ROSSerial/ros/node_handle.h ****  *
  11:../Libraries/ROSSerial/ros/node_handle.h ****  *  * Redistributions of source code must retain the above copyright
  12:../Libraries/ROSSerial/ros/node_handle.h ****  *    notice, this list of conditions and the following disclaimer.
  13:../Libraries/ROSSerial/ros/node_handle.h ****  *  * Redistributions in binary form must reproduce the above
  14:../Libraries/ROSSerial/ros/node_handle.h ****  *    copyright notice, this list of conditions and the following
  15:../Libraries/ROSSerial/ros/node_handle.h ****  *    disclaimer in the documentation and/or other materials provided
  16:../Libraries/ROSSerial/ros/node_handle.h ****  *    with the distribution.
  17:../Libraries/ROSSerial/ros/node_handle.h ****  *  * Neither the name of Willow Garage, Inc. nor the names of its
  18:../Libraries/ROSSerial/ros/node_handle.h ****  *    contributors may be used to endorse or promote prducts derived
  19:../Libraries/ROSSerial/ros/node_handle.h ****  *    from this software without specific prior written permission.
  20:../Libraries/ROSSerial/ros/node_handle.h ****  *
  21:../Libraries/ROSSerial/ros/node_handle.h ****  * THIS SOFTWARE IS PROVIDED BY THE COPYRIGHT HOLDERS AND CONTRIBUTORS
  22:../Libraries/ROSSerial/ros/node_handle.h ****  * "AS IS" AND ANY EXPRESS OR IMPLIED WARRANTIES, INCLUDING, BUT NOT
  23:../Libraries/ROSSerial/ros/node_handle.h ****  * LIMITED TO, THE IMPLIED WARRANTIES OF MERCHANTABILITY AND FITNESS
  24:../Libraries/ROSSerial/ros/node_handle.h ****  * FOR A PARTICULAR PURPOSE ARE DISCLAIMED. IN NO EVENT SHALL THE
  25:../Libraries/ROSSerial/ros/node_handle.h ****  * COPYRIGHT OWNER OR CONTRIBUTORS BE LIABLE FOR ANY DIRECT, INDIRECT,
  26:../Libraries/ROSSerial/ros/node_handle.h ****  * INCIDENTAL, SPECIAL, EXEMPLARY, OR CONSEQUENTIAL DAMAGES (INCLUDING,
  27:../Libraries/ROSSerial/ros/node_handle.h ****  * BUT NOT LIMITED TO, PROCUREMENT OF SUBSTITUTE GOODS OR SERVICES;
  28:../Libraries/ROSSerial/ros/node_handle.h ****  * LOSS OF USE, DATA, OR PROFITS; OR BUSINESS INTERRUPTION) HOWEVER
  29:../Libraries/ROSSerial/ros/node_handle.h ****  * CAUSED AND ON ANY THEORY OF LIABILITY, WHETHER IN CONTRACT, STRICT
  30:../Libraries/ROSSerial/ros/node_handle.h ****  * LIABILITY, OR TORT (INCLUDING NEGLIGENCE OR OTHERWISE) ARISING IN
  31:../Libraries/ROSSerial/ros/node_handle.h ****  * ANY WAY OUT OF THE USE OF THIS SOFTWARE, EVEN IF ADVISED OF THE
  32:../Libraries/ROSSerial/ros/node_handle.h ****  * POSSIBILITY OF SUCH DAMAGE.
  33:../Libraries/ROSSerial/ros/node_handle.h ****  */
  34:../Libraries/ROSSerial/ros/node_handle.h **** 
  35:../Libraries/ROSSerial/ros/node_handle.h **** #ifndef ROS_NODE_HANDLE_H_
  36:../Libraries/ROSSerial/ros/node_handle.h **** #define ROS_NODE_HANDLE_H_
  37:../Libraries/ROSSerial/ros/node_handle.h **** 
  38:../Libraries/ROSSerial/ros/node_handle.h **** #include <stdint.h>
ARM GAS  /var/folders/l3/4y5292px21b4835bsnjwqc7w009kq1/T//ccsIHHIW.s 			page 26


  39:../Libraries/ROSSerial/ros/node_handle.h **** 
  40:../Libraries/ROSSerial/ros/node_handle.h **** #include "std_msgs/Time.h"
  41:../Libraries/ROSSerial/ros/node_handle.h **** #include "rosserial_msgs/TopicInfo.h"
  42:../Libraries/ROSSerial/ros/node_handle.h **** #include "rosserial_msgs/Log.h"
  43:../Libraries/ROSSerial/ros/node_handle.h **** #include "rosserial_msgs/RequestParam.h"
  44:../Libraries/ROSSerial/ros/node_handle.h **** 
  45:../Libraries/ROSSerial/ros/node_handle.h **** #include "ros/msg.h"
  46:../Libraries/ROSSerial/ros/node_handle.h **** 
  47:../Libraries/ROSSerial/ros/node_handle.h **** namespace ros
  48:../Libraries/ROSSerial/ros/node_handle.h **** {
  49:../Libraries/ROSSerial/ros/node_handle.h **** 
  50:../Libraries/ROSSerial/ros/node_handle.h **** class NodeHandleBase_
  51:../Libraries/ROSSerial/ros/node_handle.h **** {
  52:../Libraries/ROSSerial/ros/node_handle.h **** public:
  53:../Libraries/ROSSerial/ros/node_handle.h ****   virtual int publish(int id, const Msg* msg) = 0;
  54:../Libraries/ROSSerial/ros/node_handle.h ****   virtual int spinOnce() = 0;
  55:../Libraries/ROSSerial/ros/node_handle.h ****   virtual bool connected() = 0;
  56:../Libraries/ROSSerial/ros/node_handle.h **** };
  57:../Libraries/ROSSerial/ros/node_handle.h **** }
  58:../Libraries/ROSSerial/ros/node_handle.h **** 
  59:../Libraries/ROSSerial/ros/node_handle.h **** #include "ros/publisher.h"
  60:../Libraries/ROSSerial/ros/node_handle.h **** #include "ros/subscriber.h"
  61:../Libraries/ROSSerial/ros/node_handle.h **** #include "ros/service_server.h"
  62:../Libraries/ROSSerial/ros/node_handle.h **** #include "ros/service_client.h"
  63:../Libraries/ROSSerial/ros/node_handle.h **** 
  64:../Libraries/ROSSerial/ros/node_handle.h **** namespace ros
  65:../Libraries/ROSSerial/ros/node_handle.h **** {
  66:../Libraries/ROSSerial/ros/node_handle.h **** 
  67:../Libraries/ROSSerial/ros/node_handle.h **** const int SPIN_OK = 0;
  68:../Libraries/ROSSerial/ros/node_handle.h **** const int SPIN_ERR = -1;
  69:../Libraries/ROSSerial/ros/node_handle.h **** const int SPIN_TIMEOUT = -2;
  70:../Libraries/ROSSerial/ros/node_handle.h **** 
  71:../Libraries/ROSSerial/ros/node_handle.h **** const uint8_t SYNC_SECONDS  = 5;
  72:../Libraries/ROSSerial/ros/node_handle.h **** const uint8_t MODE_FIRST_FF = 0;
  73:../Libraries/ROSSerial/ros/node_handle.h **** /*
  74:../Libraries/ROSSerial/ros/node_handle.h ****  * The second sync byte is a protocol version. It's value is 0xff for the first
  75:../Libraries/ROSSerial/ros/node_handle.h ****  * version of the rosserial protocol (used up to hydro), 0xfe for the second version
  76:../Libraries/ROSSerial/ros/node_handle.h ****  * (introduced in hydro), 0xfd for the next, and so on. Its purpose is to enable
  77:../Libraries/ROSSerial/ros/node_handle.h ****  * detection of mismatched protocol versions (e.g. hydro rosserial_python with groovy
  78:../Libraries/ROSSerial/ros/node_handle.h ****  * rosserial_arduino. It must be changed in both this file and in
  79:../Libraries/ROSSerial/ros/node_handle.h ****  * rosserial_python/src/rosserial_python/SerialClient.py
  80:../Libraries/ROSSerial/ros/node_handle.h ****  */
  81:../Libraries/ROSSerial/ros/node_handle.h **** const uint8_t MODE_PROTOCOL_VER   = 1;
  82:../Libraries/ROSSerial/ros/node_handle.h **** const uint8_t PROTOCOL_VER1       = 0xff; // through groovy
  83:../Libraries/ROSSerial/ros/node_handle.h **** const uint8_t PROTOCOL_VER2       = 0xfe; // in hydro
  84:../Libraries/ROSSerial/ros/node_handle.h **** const uint8_t PROTOCOL_VER        = PROTOCOL_VER2;
  85:../Libraries/ROSSerial/ros/node_handle.h **** const uint8_t MODE_SIZE_L         = 2;
  86:../Libraries/ROSSerial/ros/node_handle.h **** const uint8_t MODE_SIZE_H         = 3;
  87:../Libraries/ROSSerial/ros/node_handle.h **** const uint8_t MODE_SIZE_CHECKSUM  = 4;    // checksum for msg size received from size L and H
  88:../Libraries/ROSSerial/ros/node_handle.h **** const uint8_t MODE_TOPIC_L        = 5;    // waiting for topic id
  89:../Libraries/ROSSerial/ros/node_handle.h **** const uint8_t MODE_TOPIC_H        = 6;
  90:../Libraries/ROSSerial/ros/node_handle.h **** const uint8_t MODE_MESSAGE        = 7;
  91:../Libraries/ROSSerial/ros/node_handle.h **** const uint8_t MODE_MSG_CHECKSUM   = 8;    // checksum for msg and topic id
  92:../Libraries/ROSSerial/ros/node_handle.h **** 
  93:../Libraries/ROSSerial/ros/node_handle.h **** 
  94:../Libraries/ROSSerial/ros/node_handle.h **** const uint8_t SERIAL_MSG_TIMEOUT  = 20;   // 20 milliseconds to recieve all of message data
  95:../Libraries/ROSSerial/ros/node_handle.h **** 
ARM GAS  /var/folders/l3/4y5292px21b4835bsnjwqc7w009kq1/T//ccsIHHIW.s 			page 27


  96:../Libraries/ROSSerial/ros/node_handle.h **** using rosserial_msgs::TopicInfo;
  97:../Libraries/ROSSerial/ros/node_handle.h **** 
  98:../Libraries/ROSSerial/ros/node_handle.h **** /* Node Handle */
  99:../Libraries/ROSSerial/ros/node_handle.h **** template<class Hardware,
 100:../Libraries/ROSSerial/ros/node_handle.h ****          int MAX_SUBSCRIBERS = 25,
 101:../Libraries/ROSSerial/ros/node_handle.h ****          int MAX_PUBLISHERS = 25,
 102:../Libraries/ROSSerial/ros/node_handle.h ****          int INPUT_SIZE = 512,
 103:../Libraries/ROSSerial/ros/node_handle.h ****          int OUTPUT_SIZE = 512>
 104:../Libraries/ROSSerial/ros/node_handle.h **** class NodeHandle_ : public NodeHandleBase_
 105:../Libraries/ROSSerial/ros/node_handle.h **** {
 106:../Libraries/ROSSerial/ros/node_handle.h **** protected:
 107:../Libraries/ROSSerial/ros/node_handle.h ****   Hardware hardware_;
 108:../Libraries/ROSSerial/ros/node_handle.h **** 
 109:../Libraries/ROSSerial/ros/node_handle.h ****   /* time used for syncing */
 110:../Libraries/ROSSerial/ros/node_handle.h ****   uint32_t rt_time;
 111:../Libraries/ROSSerial/ros/node_handle.h **** 
 112:../Libraries/ROSSerial/ros/node_handle.h ****   /* used for computing current time */
 113:../Libraries/ROSSerial/ros/node_handle.h ****   uint32_t sec_offset, nsec_offset;
 114:../Libraries/ROSSerial/ros/node_handle.h **** 
 115:../Libraries/ROSSerial/ros/node_handle.h ****   /* Spinonce maximum work timeout */
 116:../Libraries/ROSSerial/ros/node_handle.h ****   uint32_t spin_timeout_;
 117:../Libraries/ROSSerial/ros/node_handle.h **** 
 118:../Libraries/ROSSerial/ros/node_handle.h ****   uint8_t message_in[INPUT_SIZE];
 119:../Libraries/ROSSerial/ros/node_handle.h ****   uint8_t message_out[OUTPUT_SIZE];
 120:../Libraries/ROSSerial/ros/node_handle.h **** 
 121:../Libraries/ROSSerial/ros/node_handle.h ****   Publisher * publishers[MAX_PUBLISHERS];
 122:../Libraries/ROSSerial/ros/node_handle.h ****   Subscriber_ * subscribers[MAX_SUBSCRIBERS];
 123:../Libraries/ROSSerial/ros/node_handle.h **** 
 124:../Libraries/ROSSerial/ros/node_handle.h ****   /*
 125:../Libraries/ROSSerial/ros/node_handle.h ****    * Setup Functions
 126:../Libraries/ROSSerial/ros/node_handle.h ****    */
 127:../Libraries/ROSSerial/ros/node_handle.h **** public:
 128:../Libraries/ROSSerial/ros/node_handle.h ****   NodeHandle_() : configured_(false)
 648              		.loc 6 128 0 is_stmt 1
 649 000e 204A     		ldr	r2, .L50
 650 0010 204B     		ldr	r3, .L50+4
 651 0012 1360     		str	r3, [r2]
 652 0014 0023     		movs	r3, #0
 653 0016 82F85434 		strb	r3, [r2, #1108]
 654              	.LVL64:
 655              	.LBB118:
 656              	.LBB119:
  51:../Libraries/ROSSerial/rosserial_msgs/RequestParam.h ****   {
 657              		.loc 4 51 0
 658 001a 1F49     		ldr	r1, .L50+8
 659              	.LVL65:
 660 001c C2F86814 		str	r1, [r2, #1128]
 661              	.LVL66:
 662              	.L42:
 663              	.LBE119:
 664              	.LBE118:
 665              	.LBB120:
 666              	.LBB121:
 129:../Libraries/ROSSerial/ros/node_handle.h ****   {
 130:../Libraries/ROSSerial/ros/node_handle.h **** 
 131:../Libraries/ROSSerial/ros/node_handle.h ****     for (unsigned int i = 0; i < MAX_PUBLISHERS; i++)
 667              		.loc 6 131 0
ARM GAS  /var/folders/l3/4y5292px21b4835bsnjwqc7w009kq1/T//ccsIHHIW.s 			page 28


 668 0020 042B     		cmp	r3, #4
 669 0022 07D8     		bhi	.L46
 132:../Libraries/ROSSerial/ros/node_handle.h ****       publishers[i] = 0;
 670              		.loc 6 132 0
 671 0024 03F58371 		add	r1, r3, #262
 672 0028 194A     		ldr	r2, .L50
 673 002a 0020     		movs	r0, #0
 674 002c 42F82100 		str	r0, [r2, r1, lsl #2]
 131:../Libraries/ROSSerial/ros/node_handle.h ****       publishers[i] = 0;
 675              		.loc 6 131 0
 676 0030 0133     		adds	r3, r3, #1
 677              	.LVL67:
 678 0032 F5E7     		b	.L42
 679              	.L46:
 680              	.LBE121:
 681              	.LBB122:
 133:../Libraries/ROSSerial/ros/node_handle.h **** 
 134:../Libraries/ROSSerial/ros/node_handle.h ****     for (unsigned int i = 0; i < MAX_SUBSCRIBERS; i++)
 682              		.loc 6 134 0
 683 0034 0023     		movs	r3, #0
 684              	.LVL68:
 685              	.L41:
 686 0036 042B     		cmp	r3, #4
 687 0038 08D8     		bhi	.L47
 135:../Libraries/ROSSerial/ros/node_handle.h ****       subscribers[i] = 0;
 688              		.loc 6 135 0
 689 003a 03F58571 		add	r1, r3, #266
 690 003e 144A     		ldr	r2, .L50
 691 0040 02EB8102 		add	r2, r2, r1, lsl #2
 692 0044 0021     		movs	r1, #0
 693 0046 5160     		str	r1, [r2, #4]
 134:../Libraries/ROSSerial/ros/node_handle.h ****       subscribers[i] = 0;
 694              		.loc 6 134 0
 695 0048 0133     		adds	r3, r3, #1
 696              	.LVL69:
 697 004a F4E7     		b	.L41
 698              	.L47:
 699              	.LBE122:
 700              	.LBB123:
 136:../Libraries/ROSSerial/ros/node_handle.h **** 
 137:../Libraries/ROSSerial/ros/node_handle.h ****     for (unsigned int i = 0; i < INPUT_SIZE; i++)
 701              		.loc 6 137 0
 702 004c 0023     		movs	r3, #0
 703              	.LVL70:
 704              	.L43:
 705 004e B3F5007F 		cmp	r3, #512
 706 0052 05D2     		bcs	.L48
 138:../Libraries/ROSSerial/ros/node_handle.h ****       message_in[i] = 0;
 707              		.loc 6 138 0
 708 0054 0E4A     		ldr	r2, .L50
 709 0056 1A44     		add	r2, r2, r3
 710 0058 0021     		movs	r1, #0
 711 005a 1176     		strb	r1, [r2, #24]
 137:../Libraries/ROSSerial/ros/node_handle.h ****       message_in[i] = 0;
 712              		.loc 6 137 0
 713 005c 0133     		adds	r3, r3, #1
 714              	.LVL71:
ARM GAS  /var/folders/l3/4y5292px21b4835bsnjwqc7w009kq1/T//ccsIHHIW.s 			page 29


 715 005e F6E7     		b	.L43
 716              	.L48:
 717              	.LBE123:
 718              	.LBB124:
 139:../Libraries/ROSSerial/ros/node_handle.h **** 
 140:../Libraries/ROSSerial/ros/node_handle.h ****     for (unsigned int i = 0; i < OUTPUT_SIZE; i++)
 719              		.loc 6 140 0
 720 0060 0023     		movs	r3, #0
 721              	.LVL72:
 722              	.L44:
 723 0062 B3F5007F 		cmp	r3, #512
 724 0066 06D2     		bcs	.L45
 141:../Libraries/ROSSerial/ros/node_handle.h ****       message_out[i] = 0;
 725              		.loc 6 141 0
 726 0068 094A     		ldr	r2, .L50
 727 006a 1A44     		add	r2, r2, r3
 728 006c 0021     		movs	r1, #0
 729 006e 82F81812 		strb	r1, [r2, #536]
 140:../Libraries/ROSSerial/ros/node_handle.h ****       message_out[i] = 0;
 730              		.loc 6 140 0
 731 0072 0133     		adds	r3, r3, #1
 732              	.LVL73:
 733 0074 F5E7     		b	.L44
 734              	.L45:
 735              	.LBE124:
 142:../Libraries/ROSSerial/ros/node_handle.h **** 
 143:../Libraries/ROSSerial/ros/node_handle.h ****     req_param_resp.ints_length = 0;
 736              		.loc 6 143 0
 737 0076 064B     		ldr	r3, .L50
 738              	.LVL74:
 739 0078 0022     		movs	r2, #0
 740 007a 83F86C24 		strb	r2, [r3, #1132]
 144:../Libraries/ROSSerial/ros/node_handle.h ****     req_param_resp.ints = NULL;
 741              		.loc 6 144 0
 742 007e C3F87424 		str	r2, [r3, #1140]
 145:../Libraries/ROSSerial/ros/node_handle.h ****     req_param_resp.floats_length = 0;
 743              		.loc 6 145 0
 744 0082 83F87824 		strb	r2, [r3, #1144]
 146:../Libraries/ROSSerial/ros/node_handle.h ****     req_param_resp.floats = NULL;
 745              		.loc 6 146 0
 746 0086 C3F88024 		str	r2, [r3, #1152]
 147:../Libraries/ROSSerial/ros/node_handle.h ****     req_param_resp.ints_length = 0;
 148:../Libraries/ROSSerial/ros/node_handle.h ****     req_param_resp.ints = NULL;
 149:../Libraries/ROSSerial/ros/node_handle.h **** 
 150:../Libraries/ROSSerial/ros/node_handle.h ****     spin_timeout_ = 0;
 747              		.loc 6 150 0
 748 008a 5A61     		str	r2, [r3, #20]
 749              	.LBE120:
 750              	.LBE117:
 751              	.LBE116:
 752              	.LBE115:
 753              		.loc 5 368 0
 754 008c BAE7     		b	.L39
 755              	.L51:
 756 008e 00BF     		.align	2
 757              	.L50:
 758 0090 00000000 		.word	.LANCHOR1
ARM GAS  /var/folders/l3/4y5292px21b4835bsnjwqc7w009kq1/T//ccsIHHIW.s 			page 30


 759 0094 08000000 		.word	_ZTVN3ros11NodeHandle_I13STM32HardwareLi5ELi5ELi512ELi512EEE+8
 760 0098 08000000 		.word	_ZTVN14rosserial_msgs20RequestParamResponseE+8
 761              		.cfi_endproc
 762              	.LFE491:
 763              		.cantunwind
 764              		.fnend
 766              		.section	.text._ZN3ros11NodeHandle_I13STM32HardwareLi5ELi5ELi512ELi512EE9connectedEv,"axG",%progbi
 767              		.align	1
 768              		.weak	_ZN3ros11NodeHandle_I13STM32HardwareLi5ELi5ELi512ELi512EE9connectedEv
 769              		.syntax unified
 770              		.thumb
 771              		.thumb_func
 772              		.fpu fpv4-sp-d16
 774              	_ZN3ros11NodeHandle_I13STM32HardwareLi5ELi5ELi512ELi512EE9connectedEv:
 775              		.fnstart
 776              	.LFB494:
 151:../Libraries/ROSSerial/ros/node_handle.h ****   }
 152:../Libraries/ROSSerial/ros/node_handle.h **** 
 153:../Libraries/ROSSerial/ros/node_handle.h ****   Hardware* getHardware()
 154:../Libraries/ROSSerial/ros/node_handle.h ****   {
 155:../Libraries/ROSSerial/ros/node_handle.h ****     return &hardware_;
 156:../Libraries/ROSSerial/ros/node_handle.h ****   }
 157:../Libraries/ROSSerial/ros/node_handle.h **** 
 158:../Libraries/ROSSerial/ros/node_handle.h ****   /* Start serial, initialize buffers */
 159:../Libraries/ROSSerial/ros/node_handle.h ****   void initNode()
 160:../Libraries/ROSSerial/ros/node_handle.h ****   {
 161:../Libraries/ROSSerial/ros/node_handle.h ****     hardware_.init();
 162:../Libraries/ROSSerial/ros/node_handle.h ****     mode_ = 0;
 163:../Libraries/ROSSerial/ros/node_handle.h ****     bytes_ = 0;
 164:../Libraries/ROSSerial/ros/node_handle.h ****     index_ = 0;
 165:../Libraries/ROSSerial/ros/node_handle.h ****     topic_ = 0;
 166:../Libraries/ROSSerial/ros/node_handle.h ****     printf("Node init\n");
 167:../Libraries/ROSSerial/ros/node_handle.h ****   };
 168:../Libraries/ROSSerial/ros/node_handle.h **** 
 169:../Libraries/ROSSerial/ros/node_handle.h ****   /* Start a named port, which may be network server IP, initialize buffers */
 170:../Libraries/ROSSerial/ros/node_handle.h ****   void initNode(char *portName)
 171:../Libraries/ROSSerial/ros/node_handle.h ****   {
 172:../Libraries/ROSSerial/ros/node_handle.h ****     hardware_.init(portName);
 173:../Libraries/ROSSerial/ros/node_handle.h ****     mode_ = 0;
 174:../Libraries/ROSSerial/ros/node_handle.h ****     bytes_ = 0;
 175:../Libraries/ROSSerial/ros/node_handle.h ****     index_ = 0;
 176:../Libraries/ROSSerial/ros/node_handle.h ****     topic_ = 0;
 177:../Libraries/ROSSerial/ros/node_handle.h ****   };
 178:../Libraries/ROSSerial/ros/node_handle.h **** 
 179:../Libraries/ROSSerial/ros/node_handle.h ****   /**
 180:../Libraries/ROSSerial/ros/node_handle.h ****    * @brief Sets the maximum time in millisconds that spinOnce() can work.
 181:../Libraries/ROSSerial/ros/node_handle.h ****    * This will not effect the processing of the buffer, as spinOnce processes
 182:../Libraries/ROSSerial/ros/node_handle.h ****    * one byte at a time. It simply sets the maximum time that one call can
 183:../Libraries/ROSSerial/ros/node_handle.h ****    * process for. You can choose to clear the buffer if that is beneficial if
 184:../Libraries/ROSSerial/ros/node_handle.h ****    * SPIN_TIMEOUT is returned from spinOnce().
 185:../Libraries/ROSSerial/ros/node_handle.h ****    * @param timeout The timeout in milliseconds that spinOnce will function.
 186:../Libraries/ROSSerial/ros/node_handle.h ****    */
 187:../Libraries/ROSSerial/ros/node_handle.h ****   void setSpinTimeout(const uint32_t& timeout)
 188:../Libraries/ROSSerial/ros/node_handle.h ****   {
 189:../Libraries/ROSSerial/ros/node_handle.h ****      spin_timeout_ = timeout;
 190:../Libraries/ROSSerial/ros/node_handle.h ****   }
 191:../Libraries/ROSSerial/ros/node_handle.h **** 
ARM GAS  /var/folders/l3/4y5292px21b4835bsnjwqc7w009kq1/T//ccsIHHIW.s 			page 31


 192:../Libraries/ROSSerial/ros/node_handle.h **** protected:
 193:../Libraries/ROSSerial/ros/node_handle.h ****   //State machine variables for spinOnce
 194:../Libraries/ROSSerial/ros/node_handle.h ****   int mode_;
 195:../Libraries/ROSSerial/ros/node_handle.h ****   int bytes_;
 196:../Libraries/ROSSerial/ros/node_handle.h ****   int topic_;
 197:../Libraries/ROSSerial/ros/node_handle.h ****   int index_;
 198:../Libraries/ROSSerial/ros/node_handle.h ****   int checksum_;
 199:../Libraries/ROSSerial/ros/node_handle.h **** 
 200:../Libraries/ROSSerial/ros/node_handle.h ****   bool configured_;
 201:../Libraries/ROSSerial/ros/node_handle.h **** 
 202:../Libraries/ROSSerial/ros/node_handle.h ****   /* used for syncing the time */
 203:../Libraries/ROSSerial/ros/node_handle.h ****   uint32_t last_sync_time;
 204:../Libraries/ROSSerial/ros/node_handle.h ****   uint32_t last_sync_receive_time;
 205:../Libraries/ROSSerial/ros/node_handle.h ****   uint32_t last_msg_timeout_time;
 206:../Libraries/ROSSerial/ros/node_handle.h **** 
 207:../Libraries/ROSSerial/ros/node_handle.h **** public:
 208:../Libraries/ROSSerial/ros/node_handle.h ****   /* This function goes in your loop() function, it handles
 209:../Libraries/ROSSerial/ros/node_handle.h ****    *  serial input and callbacks for subscribers.
 210:../Libraries/ROSSerial/ros/node_handle.h ****    */
 211:../Libraries/ROSSerial/ros/node_handle.h **** 
 212:../Libraries/ROSSerial/ros/node_handle.h ****   virtual int spinOnce() {
 213:../Libraries/ROSSerial/ros/node_handle.h ****     return spinOnce1();
 214:../Libraries/ROSSerial/ros/node_handle.h ****   }
 215:../Libraries/ROSSerial/ros/node_handle.h **** 
 216:../Libraries/ROSSerial/ros/node_handle.h ****   int spinOnce1()
 217:../Libraries/ROSSerial/ros/node_handle.h ****   {
 218:../Libraries/ROSSerial/ros/node_handle.h ****     printf("spinOnce\n");
 219:../Libraries/ROSSerial/ros/node_handle.h ****     /* restart if timed out */
 220:../Libraries/ROSSerial/ros/node_handle.h ****     uint32_t c_time = hardware_.time();
 221:../Libraries/ROSSerial/ros/node_handle.h ****     printf("spinOnce %ld\n",c_time);
 222:../Libraries/ROSSerial/ros/node_handle.h **** 
 223:../Libraries/ROSSerial/ros/node_handle.h ****     if ((c_time - last_sync_receive_time) > (SYNC_SECONDS * 2200))
 224:../Libraries/ROSSerial/ros/node_handle.h ****     {
 225:../Libraries/ROSSerial/ros/node_handle.h ****       configured_ = false;
 226:../Libraries/ROSSerial/ros/node_handle.h ****     }
 227:../Libraries/ROSSerial/ros/node_handle.h **** 
 228:../Libraries/ROSSerial/ros/node_handle.h ****     /* reset if message has timed out */
 229:../Libraries/ROSSerial/ros/node_handle.h ****     if (mode_ != MODE_FIRST_FF)
 230:../Libraries/ROSSerial/ros/node_handle.h ****     {
 231:../Libraries/ROSSerial/ros/node_handle.h ****       if (c_time > last_msg_timeout_time)
 232:../Libraries/ROSSerial/ros/node_handle.h ****       {
 233:../Libraries/ROSSerial/ros/node_handle.h ****         mode_ = MODE_FIRST_FF;
 234:../Libraries/ROSSerial/ros/node_handle.h ****       }
 235:../Libraries/ROSSerial/ros/node_handle.h ****     }
 236:../Libraries/ROSSerial/ros/node_handle.h **** 
 237:../Libraries/ROSSerial/ros/node_handle.h ****     /* while available buffer, read data */
 238:../Libraries/ROSSerial/ros/node_handle.h ****     while (true)
 239:../Libraries/ROSSerial/ros/node_handle.h ****     {
 240:../Libraries/ROSSerial/ros/node_handle.h ****       // If a timeout has been specified, check how long spinOnce has been running.
 241:../Libraries/ROSSerial/ros/node_handle.h ****       if (spin_timeout_ > 0)
 242:../Libraries/ROSSerial/ros/node_handle.h ****       {
 243:../Libraries/ROSSerial/ros/node_handle.h ****         // If the maximum processing timeout has been exceeded, exit with error.
 244:../Libraries/ROSSerial/ros/node_handle.h ****         // The next spinOnce can continue where it left off, or optionally
 245:../Libraries/ROSSerial/ros/node_handle.h ****         // based on the application in use, the hardware buffer could be flushed
 246:../Libraries/ROSSerial/ros/node_handle.h ****         // and start fresh.
 247:../Libraries/ROSSerial/ros/node_handle.h ****         if ((hardware_.time() - c_time) > spin_timeout_)
 248:../Libraries/ROSSerial/ros/node_handle.h ****         {
ARM GAS  /var/folders/l3/4y5292px21b4835bsnjwqc7w009kq1/T//ccsIHHIW.s 			page 32


 249:../Libraries/ROSSerial/ros/node_handle.h ****           // Exit the spin, processing timeout exceeded.
 250:../Libraries/ROSSerial/ros/node_handle.h ****           return SPIN_TIMEOUT;
 251:../Libraries/ROSSerial/ros/node_handle.h ****         }
 252:../Libraries/ROSSerial/ros/node_handle.h ****       }
 253:../Libraries/ROSSerial/ros/node_handle.h ****       int data = hardware_.read();
 254:../Libraries/ROSSerial/ros/node_handle.h ****       if (data < 0)
 255:../Libraries/ROSSerial/ros/node_handle.h ****         break;
 256:../Libraries/ROSSerial/ros/node_handle.h ****       checksum_ += data;
 257:../Libraries/ROSSerial/ros/node_handle.h ****       if (mode_ == MODE_MESSAGE)          /* message data being recieved */
 258:../Libraries/ROSSerial/ros/node_handle.h ****       {
 259:../Libraries/ROSSerial/ros/node_handle.h ****         message_in[index_++] = data;
 260:../Libraries/ROSSerial/ros/node_handle.h ****         bytes_--;
 261:../Libraries/ROSSerial/ros/node_handle.h ****         if (bytes_ == 0)                 /* is message complete? if so, checksum */
 262:../Libraries/ROSSerial/ros/node_handle.h ****           mode_ = MODE_MSG_CHECKSUM;
 263:../Libraries/ROSSerial/ros/node_handle.h ****       }
 264:../Libraries/ROSSerial/ros/node_handle.h ****       else if (mode_ == MODE_FIRST_FF)
 265:../Libraries/ROSSerial/ros/node_handle.h ****       {
 266:../Libraries/ROSSerial/ros/node_handle.h ****         if (data == 0xff)
 267:../Libraries/ROSSerial/ros/node_handle.h ****         {
 268:../Libraries/ROSSerial/ros/node_handle.h ****           mode_++;
 269:../Libraries/ROSSerial/ros/node_handle.h ****           last_msg_timeout_time = c_time + SERIAL_MSG_TIMEOUT;
 270:../Libraries/ROSSerial/ros/node_handle.h ****         }
 271:../Libraries/ROSSerial/ros/node_handle.h ****         else if (hardware_.time() - c_time > (SYNC_SECONDS * 1000))
 272:../Libraries/ROSSerial/ros/node_handle.h ****         {
 273:../Libraries/ROSSerial/ros/node_handle.h ****           /* We have been stuck in spinOnce too long, return error */
 274:../Libraries/ROSSerial/ros/node_handle.h ****           configured_ = false;
 275:../Libraries/ROSSerial/ros/node_handle.h ****           return SPIN_TIMEOUT;
 276:../Libraries/ROSSerial/ros/node_handle.h ****         }
 277:../Libraries/ROSSerial/ros/node_handle.h ****       }
 278:../Libraries/ROSSerial/ros/node_handle.h ****       else if (mode_ == MODE_PROTOCOL_VER)
 279:../Libraries/ROSSerial/ros/node_handle.h ****       {
 280:../Libraries/ROSSerial/ros/node_handle.h ****         if (data == PROTOCOL_VER)
 281:../Libraries/ROSSerial/ros/node_handle.h ****         {
 282:../Libraries/ROSSerial/ros/node_handle.h ****           mode_++;
 283:../Libraries/ROSSerial/ros/node_handle.h ****         }
 284:../Libraries/ROSSerial/ros/node_handle.h ****         else
 285:../Libraries/ROSSerial/ros/node_handle.h ****         {
 286:../Libraries/ROSSerial/ros/node_handle.h ****           mode_ = MODE_FIRST_FF;
 287:../Libraries/ROSSerial/ros/node_handle.h ****           if (configured_ == false)
 288:../Libraries/ROSSerial/ros/node_handle.h ****             requestSyncTime();  /* send a msg back showing our protocol version */
 289:../Libraries/ROSSerial/ros/node_handle.h ****         }
 290:../Libraries/ROSSerial/ros/node_handle.h ****       }
 291:../Libraries/ROSSerial/ros/node_handle.h ****       else if (mode_ == MODE_SIZE_L)      /* bottom half of message size */
 292:../Libraries/ROSSerial/ros/node_handle.h ****       {
 293:../Libraries/ROSSerial/ros/node_handle.h ****         bytes_ = data;
 294:../Libraries/ROSSerial/ros/node_handle.h ****         index_ = 0;
 295:../Libraries/ROSSerial/ros/node_handle.h ****         mode_++;
 296:../Libraries/ROSSerial/ros/node_handle.h ****         checksum_ = data;               /* first byte for calculating size checksum */
 297:../Libraries/ROSSerial/ros/node_handle.h ****       }
 298:../Libraries/ROSSerial/ros/node_handle.h ****       else if (mode_ == MODE_SIZE_H)      /* top half of message size */
 299:../Libraries/ROSSerial/ros/node_handle.h ****       {
 300:../Libraries/ROSSerial/ros/node_handle.h ****         bytes_ += data << 8;
 301:../Libraries/ROSSerial/ros/node_handle.h ****         mode_++;
 302:../Libraries/ROSSerial/ros/node_handle.h ****       }
 303:../Libraries/ROSSerial/ros/node_handle.h ****       else if (mode_ == MODE_SIZE_CHECKSUM)
 304:../Libraries/ROSSerial/ros/node_handle.h ****       {
 305:../Libraries/ROSSerial/ros/node_handle.h ****         if ((checksum_ % 256) == 255)
ARM GAS  /var/folders/l3/4y5292px21b4835bsnjwqc7w009kq1/T//ccsIHHIW.s 			page 33


 306:../Libraries/ROSSerial/ros/node_handle.h ****           mode_++;
 307:../Libraries/ROSSerial/ros/node_handle.h ****         else
 308:../Libraries/ROSSerial/ros/node_handle.h ****           mode_ = MODE_FIRST_FF;          /* Abandon the frame if the msg len is wrong */
 309:../Libraries/ROSSerial/ros/node_handle.h ****       }
 310:../Libraries/ROSSerial/ros/node_handle.h ****       else if (mode_ == MODE_TOPIC_L)     /* bottom half of topic id */
 311:../Libraries/ROSSerial/ros/node_handle.h ****       {
 312:../Libraries/ROSSerial/ros/node_handle.h ****         topic_ = data;
 313:../Libraries/ROSSerial/ros/node_handle.h ****         mode_++;
 314:../Libraries/ROSSerial/ros/node_handle.h ****         checksum_ = data;               /* first byte included in checksum */
 315:../Libraries/ROSSerial/ros/node_handle.h ****       }
 316:../Libraries/ROSSerial/ros/node_handle.h ****       else if (mode_ == MODE_TOPIC_H)     /* top half of topic id */
 317:../Libraries/ROSSerial/ros/node_handle.h ****       {
 318:../Libraries/ROSSerial/ros/node_handle.h ****         topic_ += data << 8;
 319:../Libraries/ROSSerial/ros/node_handle.h ****         mode_ = MODE_MESSAGE;
 320:../Libraries/ROSSerial/ros/node_handle.h ****         if (bytes_ == 0)
 321:../Libraries/ROSSerial/ros/node_handle.h ****           mode_ = MODE_MSG_CHECKSUM;
 322:../Libraries/ROSSerial/ros/node_handle.h ****       }
 323:../Libraries/ROSSerial/ros/node_handle.h ****       else if (mode_ == MODE_MSG_CHECKSUM)    /* do checksum */
 324:../Libraries/ROSSerial/ros/node_handle.h ****       {
 325:../Libraries/ROSSerial/ros/node_handle.h ****         mode_ = MODE_FIRST_FF;
 326:../Libraries/ROSSerial/ros/node_handle.h ****         if ((checksum_ % 256) == 255)
 327:../Libraries/ROSSerial/ros/node_handle.h ****         {
 328:../Libraries/ROSSerial/ros/node_handle.h ****           if (topic_ == TopicInfo::ID_PUBLISHER)
 329:../Libraries/ROSSerial/ros/node_handle.h ****           {
 330:../Libraries/ROSSerial/ros/node_handle.h ****             requestSyncTime();
 331:../Libraries/ROSSerial/ros/node_handle.h ****             negotiateTopics();
 332:../Libraries/ROSSerial/ros/node_handle.h ****             last_sync_time = c_time;
 333:../Libraries/ROSSerial/ros/node_handle.h ****             last_sync_receive_time = c_time;
 334:../Libraries/ROSSerial/ros/node_handle.h ****             return SPIN_ERR;
 335:../Libraries/ROSSerial/ros/node_handle.h ****           }
 336:../Libraries/ROSSerial/ros/node_handle.h ****           else if (topic_ == TopicInfo::ID_TIME)
 337:../Libraries/ROSSerial/ros/node_handle.h ****           {
 338:../Libraries/ROSSerial/ros/node_handle.h ****             syncTime(message_in);
 339:../Libraries/ROSSerial/ros/node_handle.h ****           }
 340:../Libraries/ROSSerial/ros/node_handle.h ****           else if (topic_ == TopicInfo::ID_PARAMETER_REQUEST)
 341:../Libraries/ROSSerial/ros/node_handle.h ****           {
 342:../Libraries/ROSSerial/ros/node_handle.h ****             req_param_resp.deserialize(message_in);
 343:../Libraries/ROSSerial/ros/node_handle.h ****             param_recieved = true;
 344:../Libraries/ROSSerial/ros/node_handle.h ****           }
 345:../Libraries/ROSSerial/ros/node_handle.h ****           else if (topic_ == TopicInfo::ID_TX_STOP)
 346:../Libraries/ROSSerial/ros/node_handle.h ****           {
 347:../Libraries/ROSSerial/ros/node_handle.h ****             configured_ = false;
 348:../Libraries/ROSSerial/ros/node_handle.h ****           }
 349:../Libraries/ROSSerial/ros/node_handle.h ****           else
 350:../Libraries/ROSSerial/ros/node_handle.h ****           {
 351:../Libraries/ROSSerial/ros/node_handle.h ****             if (subscribers[topic_ - 100])
 352:../Libraries/ROSSerial/ros/node_handle.h ****               subscribers[topic_ - 100]->callback(message_in);
 353:../Libraries/ROSSerial/ros/node_handle.h ****           }
 354:../Libraries/ROSSerial/ros/node_handle.h ****         }
 355:../Libraries/ROSSerial/ros/node_handle.h ****       }
 356:../Libraries/ROSSerial/ros/node_handle.h ****     }
 357:../Libraries/ROSSerial/ros/node_handle.h **** 
 358:../Libraries/ROSSerial/ros/node_handle.h ****     /* occasionally sync time */
 359:../Libraries/ROSSerial/ros/node_handle.h ****     if (configured_ && ((c_time - last_sync_time) > (SYNC_SECONDS * 500)))
 360:../Libraries/ROSSerial/ros/node_handle.h ****     {
 361:../Libraries/ROSSerial/ros/node_handle.h ****       requestSyncTime();
 362:../Libraries/ROSSerial/ros/node_handle.h ****       last_sync_time = c_time;
ARM GAS  /var/folders/l3/4y5292px21b4835bsnjwqc7w009kq1/T//ccsIHHIW.s 			page 34


 363:../Libraries/ROSSerial/ros/node_handle.h ****     }
 364:../Libraries/ROSSerial/ros/node_handle.h **** 
 365:../Libraries/ROSSerial/ros/node_handle.h ****     return SPIN_OK;
 366:../Libraries/ROSSerial/ros/node_handle.h ****   }
 367:../Libraries/ROSSerial/ros/node_handle.h **** 
 368:../Libraries/ROSSerial/ros/node_handle.h **** 
 369:../Libraries/ROSSerial/ros/node_handle.h ****   /* Are we connected to the PC? */
 370:../Libraries/ROSSerial/ros/node_handle.h ****   virtual bool connected()
 777              		.loc 6 370 0
 778              		.cfi_startproc
 779              		@ args = 0, pretend = 0, frame = 0
 780              		@ frame_needed = 0, uses_anonymous_args = 0
 781              		@ link register save eliminated.
 782              	.LVL75:
 371:../Libraries/ROSSerial/ros/node_handle.h ****   {
 372:../Libraries/ROSSerial/ros/node_handle.h ****     return configured_;
 373:../Libraries/ROSSerial/ros/node_handle.h ****   };
 783              		.loc 6 373 0
 784 0000 90F85404 		ldrb	r0, [r0, #1108]	@ zero_extendqisi2
 785              	.LVL76:
 786 0004 7047     		bx	lr
 787              		.cfi_endproc
 788              	.LFE494:
 789              		.cantunwind
 790              		.fnend
 792              		.section	.text._ZL12AppObjCreatev,"ax",%progbits
 793              		.align	1
 794              		.syntax unified
 795              		.thumb
 796              		.thumb_func
 797              		.fpu fpv4-sp-d16
 799              	_ZL12AppObjCreatev:
 800              		.fnstart
 801              	.LFB472:
 264:Src/main.cpp  ****     xHandleMutexPrint = xSemaphoreCreateMutex();
 802              		.loc 5 264 0
 803              		.cfi_startproc
 804              		@ args = 0, pretend = 0, frame = 0
 805              		@ frame_needed = 0, uses_anonymous_args = 0
 806 0000 08B5     		push	{r3, lr}
 807              		.save {r3, lr}
 808              	.LCFI4:
 809              		.cfi_def_cfa_offset 8
 810              		.cfi_offset 3, -8
 811              		.cfi_offset 14, -4
 265:Src/main.cpp  **** 
 812              		.loc 5 265 0
 813 0002 0120     		movs	r0, #1
 814 0004 FFF7FEFF 		bl	xQueueCreateMutex
 815              	.LVL77:
 816 0008 034B     		ldr	r3, .L56
 817 000a 1860     		str	r0, [r3]
 267:Src/main.cpp  ****     {
 818              		.loc 5 267 0
 819 000c 10B9     		cbnz	r0, .L53
 269:Src/main.cpp  ****     }
 820              		.loc 5 269 0
ARM GAS  /var/folders/l3/4y5292px21b4835bsnjwqc7w009kq1/T//ccsIHHIW.s 			page 35


 821 000e 0348     		ldr	r0, .L56+4
 822 0010 FFF7FEFF 		bl	puts
 823              	.LVL78:
 824              	.L53:
 271:Src/main.cpp  **** 
 825              		.loc 5 271 0
 826 0014 08BD     		pop	{r3, pc}
 827              	.L57:
 828 0016 00BF     		.align	2
 829              	.L56:
 830 0018 00000000 		.word	.LANCHOR2
 831 001c 00000000 		.word	.LC7
 832              		.cfi_endproc
 833              	.LFE472:
 834              		.fnend
 836              		.section	.text._ZNK14rosserial_msgs9TopicInfo9serializeEPh,"axG",%progbits,_ZNK14rosserial_msgs9To
 837              		.align	1
 838              		.weak	_ZNK14rosserial_msgs9TopicInfo9serializeEPh
 839              		.syntax unified
 840              		.thumb
 841              		.thumb_func
 842              		.fpu fpv4-sp-d16
 844              	_ZNK14rosserial_msgs9TopicInfo9serializeEPh:
 845              		.fnstart
 846              	.LFB387:
  29:../Libraries/ROSSerial/rosserial_msgs/TopicInfo.h ****     {
 847              		.loc 2 29 0
 848              		.cfi_startproc
 849              		@ args = 0, pretend = 0, frame = 0
 850              		@ frame_needed = 0, uses_anonymous_args = 0
 851              	.LVL79:
 852 0000 2DE9F041 		push	{r4, r5, r6, r7, r8, lr}
 853              	.LCFI5:
 854              		.cfi_def_cfa_offset 24
 855              		.cfi_offset 4, -24
 856              		.cfi_offset 5, -20
 857              		.cfi_offset 6, -16
 858              		.cfi_offset 7, -12
 859              		.cfi_offset 8, -8
 860              		.cfi_offset 14, -4
 861 0004 0646     		mov	r6, r0
 862 0006 0C46     		mov	r4, r1
 863              	.LVL80:
  32:../Libraries/ROSSerial/rosserial_msgs/TopicInfo.h ****       *(outbuffer + offset + 1) = (this->topic_id >> (8 * 1)) & 0xFF;
 864              		.loc 2 32 0
 865 0008 8388     		ldrh	r3, [r0, #4]
 866 000a 0B70     		strb	r3, [r1]
  33:../Libraries/ROSSerial/rosserial_msgs/TopicInfo.h ****       offset += sizeof(this->topic_id);
 867              		.loc 2 33 0
 868 000c 8388     		ldrh	r3, [r0, #4]
 869 000e 1B0A     		lsrs	r3, r3, #8
 870 0010 4B70     		strb	r3, [r1, #1]
 871              	.LVL81:
  35:../Libraries/ROSSerial/rosserial_msgs/TopicInfo.h ****       memcpy(outbuffer + offset, &length_topic_name, sizeof(uint32_t));
 872              		.loc 2 35 0
 873 0012 8068     		ldr	r0, [r0, #8]
 874              	.LVL82:
ARM GAS  /var/folders/l3/4y5292px21b4835bsnjwqc7w009kq1/T//ccsIHHIW.s 			page 36


 875 0014 FFF7FEFF 		bl	strlen
 876              	.LVL83:
 877 0018 0746     		mov	r7, r0
 878              	.LVL84:
  36:../Libraries/ROSSerial/rosserial_msgs/TopicInfo.h ****       offset += 4;
 879              		.loc 2 36 0
 880 001a C4F80200 		str	r0, [r4, #2]	@ unaligned
 881              	.LVL85:
  38:../Libraries/ROSSerial/rosserial_msgs/TopicInfo.h ****       offset += length_topic_name;
 882              		.loc 2 38 0
 883 001e 0246     		mov	r2, r0
 884 0020 B168     		ldr	r1, [r6, #8]
 885 0022 A01D     		adds	r0, r4, #6
 886              	.LVL86:
 887 0024 FFF7FEFF 		bl	memcpy
 888              	.LVL87:
  39:../Libraries/ROSSerial/rosserial_msgs/TopicInfo.h ****       uint32_t length_message_type = strlen(this->message_type);
 889              		.loc 2 39 0
 890 0028 07F10608 		add	r8, r7, #6
 891              	.LVL88:
  40:../Libraries/ROSSerial/rosserial_msgs/TopicInfo.h ****       memcpy(outbuffer + offset, &length_message_type, sizeof(uint32_t));
 892              		.loc 2 40 0
 893 002c F068     		ldr	r0, [r6, #12]
 894 002e FFF7FEFF 		bl	strlen
 895              	.LVL89:
 896 0032 0546     		mov	r5, r0
 897              	.LVL90:
  41:../Libraries/ROSSerial/rosserial_msgs/TopicInfo.h ****       offset += 4;
 898              		.loc 2 41 0
 899 0034 44F80800 		str	r0, [r4, r8]	@ unaligned
  42:../Libraries/ROSSerial/rosserial_msgs/TopicInfo.h ****       memcpy(outbuffer + offset, this->message_type, length_message_type);
 900              		.loc 2 42 0
 901 0038 0A37     		adds	r7, r7, #10
 902              	.LVL91:
  43:../Libraries/ROSSerial/rosserial_msgs/TopicInfo.h ****       offset += length_message_type;
 903              		.loc 2 43 0
 904 003a 0246     		mov	r2, r0
 905 003c F168     		ldr	r1, [r6, #12]
 906 003e E019     		adds	r0, r4, r7
 907              	.LVL92:
 908 0040 FFF7FEFF 		bl	memcpy
 909              	.LVL93:
  44:../Libraries/ROSSerial/rosserial_msgs/TopicInfo.h ****       uint32_t length_md5sum = strlen(this->md5sum);
 910              		.loc 2 44 0
 911 0044 2F44     		add	r7, r7, r5
 912              	.LVL94:
  45:../Libraries/ROSSerial/rosserial_msgs/TopicInfo.h ****       memcpy(outbuffer + offset, &length_md5sum, sizeof(uint32_t));
 913              		.loc 2 45 0
 914 0046 3069     		ldr	r0, [r6, #16]
 915 0048 FFF7FEFF 		bl	strlen
 916              	.LVL95:
 917 004c 0546     		mov	r5, r0
 918              	.LVL96:
  46:../Libraries/ROSSerial/rosserial_msgs/TopicInfo.h ****       offset += 4;
 919              		.loc 2 46 0
 920 004e E051     		str	r0, [r4, r7]	@ unaligned
  47:../Libraries/ROSSerial/rosserial_msgs/TopicInfo.h ****       memcpy(outbuffer + offset, this->md5sum, length_md5sum);
ARM GAS  /var/folders/l3/4y5292px21b4835bsnjwqc7w009kq1/T//ccsIHHIW.s 			page 37


 921              		.loc 2 47 0
 922 0050 0437     		adds	r7, r7, #4
 923              	.LVL97:
  48:../Libraries/ROSSerial/rosserial_msgs/TopicInfo.h ****       offset += length_md5sum;
 924              		.loc 2 48 0
 925 0052 0246     		mov	r2, r0
 926 0054 3169     		ldr	r1, [r6, #16]
 927 0056 E019     		adds	r0, r4, r7
 928              	.LVL98:
 929 0058 FFF7FEFF 		bl	memcpy
 930              	.LVL99:
  49:../Libraries/ROSSerial/rosserial_msgs/TopicInfo.h ****       union {
 931              		.loc 2 49 0
 932 005c E819     		adds	r0, r5, r7
 933              	.LVL100:
  54:../Libraries/ROSSerial/rosserial_msgs/TopicInfo.h ****       *(outbuffer + offset + 0) = (u_buffer_size.base >> (8 * 0)) & 0xFF;
 934              		.loc 2 54 0
 935 005e 7369     		ldr	r3, [r6, #20]
  55:../Libraries/ROSSerial/rosserial_msgs/TopicInfo.h ****       *(outbuffer + offset + 1) = (u_buffer_size.base >> (8 * 1)) & 0xFF;
 936              		.loc 2 55 0
 937 0060 2354     		strb	r3, [r4, r0]
  56:../Libraries/ROSSerial/rosserial_msgs/TopicInfo.h ****       *(outbuffer + offset + 2) = (u_buffer_size.base >> (8 * 2)) & 0xFF;
 938              		.loc 2 56 0
 939 0062 190A     		lsrs	r1, r3, #8
 940 0064 421C     		adds	r2, r0, #1
 941 0066 A154     		strb	r1, [r4, r2]
  57:../Libraries/ROSSerial/rosserial_msgs/TopicInfo.h ****       *(outbuffer + offset + 3) = (u_buffer_size.base >> (8 * 3)) & 0xFF;
 942              		.loc 2 57 0
 943 0068 190C     		lsrs	r1, r3, #16
 944 006a 821C     		adds	r2, r0, #2
 945 006c A154     		strb	r1, [r4, r2]
  58:../Libraries/ROSSerial/rosserial_msgs/TopicInfo.h ****       offset += sizeof(this->buffer_size);
 946              		.loc 2 58 0
 947 006e 1B0E     		lsrs	r3, r3, #24
 948 0070 C21C     		adds	r2, r0, #3
 949 0072 A354     		strb	r3, [r4, r2]
 950              	.LVL101:
  61:../Libraries/ROSSerial/rosserial_msgs/TopicInfo.h **** 
 951              		.loc 2 61 0
 952 0074 0430     		adds	r0, r0, #4
 953              	.LVL102:
 954 0076 BDE8F081 		pop	{r4, r5, r6, r7, r8, pc}
 955              		.cfi_endproc
 956              	.LFE387:
 957              		.cantunwind
 958              		.fnend
 960              		.section	.text._ZNK14rosserial_msgs3Log9serializeEPh,"axG",%progbits,_ZNK14rosserial_msgs3Log9seri
 961              		.align	1
 962              		.weak	_ZNK14rosserial_msgs3Log9serializeEPh
 963              		.syntax unified
 964              		.thumb
 965              		.thumb_func
 966              		.fpu fpv4-sp-d16
 968              	_ZNK14rosserial_msgs3Log9serializeEPh:
 969              		.fnstart
 970              	.LFB391:
  24:../Libraries/ROSSerial/rosserial_msgs/Log.h ****     {
ARM GAS  /var/folders/l3/4y5292px21b4835bsnjwqc7w009kq1/T//ccsIHHIW.s 			page 38


 971              		.loc 3 24 0
 972              		.cfi_startproc
 973              		@ args = 0, pretend = 0, frame = 0
 974              		@ frame_needed = 0, uses_anonymous_args = 0
 975              	.LVL103:
 976 0000 70B5     		push	{r4, r5, r6, lr}
 977              	.LCFI6:
 978              		.cfi_def_cfa_offset 16
 979              		.cfi_offset 4, -16
 980              		.cfi_offset 5, -12
 981              		.cfi_offset 6, -8
 982              		.cfi_offset 14, -4
 983 0002 0646     		mov	r6, r0
 984 0004 0D46     		mov	r5, r1
 985              	.LVL104:
  27:../Libraries/ROSSerial/rosserial_msgs/Log.h ****       offset += sizeof(this->level);
 986              		.loc 3 27 0
 987 0006 0379     		ldrb	r3, [r0, #4]	@ zero_extendqisi2
 988 0008 0B70     		strb	r3, [r1]
 989              	.LVL105:
  29:../Libraries/ROSSerial/rosserial_msgs/Log.h ****       memcpy(outbuffer + offset, &length_msg, sizeof(uint32_t));
 990              		.loc 3 29 0
 991 000a 8068     		ldr	r0, [r0, #8]
 992              	.LVL106:
 993 000c FFF7FEFF 		bl	strlen
 994              	.LVL107:
 995 0010 0446     		mov	r4, r0
 996              	.LVL108:
  30:../Libraries/ROSSerial/rosserial_msgs/Log.h ****       offset += 4;
 997              		.loc 3 30 0
 998 0012 C5F80100 		str	r0, [r5, #1]	@ unaligned
 999              	.LVL109:
  32:../Libraries/ROSSerial/rosserial_msgs/Log.h ****       offset += length_msg;
 1000              		.loc 3 32 0
 1001 0016 0246     		mov	r2, r0
 1002 0018 B168     		ldr	r1, [r6, #8]
 1003 001a 681D     		adds	r0, r5, #5
 1004              	.LVL110:
 1005 001c FFF7FEFF 		bl	memcpy
 1006              	.LVL111:
  35:../Libraries/ROSSerial/rosserial_msgs/Log.h **** 
 1007              		.loc 3 35 0
 1008 0020 601D     		adds	r0, r4, #5
 1009              	.LVL112:
 1010 0022 70BD     		pop	{r4, r5, r6, pc}
 1011              		.cfi_endproc
 1012              	.LFE391:
 1013              		.cantunwind
 1014              		.fnend
 1016              		.section	.text._ZNK14rosserial_msgs20RequestParamResponse9serializeEPh,"axG",%progbits,_ZNK14rosse
 1017              		.align	1
 1018              		.weak	_ZNK14rosserial_msgs20RequestParamResponse9serializeEPh
 1019              		.syntax unified
 1020              		.thumb
 1021              		.thumb_func
 1022              		.fpu fpv4-sp-d16
 1024              	_ZNK14rosserial_msgs20RequestParamResponse9serializeEPh:
ARM GAS  /var/folders/l3/4y5292px21b4835bsnjwqc7w009kq1/T//ccsIHHIW.s 			page 39


 1025              		.fnstart
 1026              	.LFB399:
  64:../Libraries/ROSSerial/rosserial_msgs/RequestParam.h ****     {
 1027              		.loc 4 64 0
 1028              		.cfi_startproc
 1029              		@ args = 0, pretend = 0, frame = 0
 1030              		@ frame_needed = 0, uses_anonymous_args = 0
 1031              	.LVL113:
 1032 0000 2DE9F041 		push	{r4, r5, r6, r7, r8, lr}
 1033              	.LCFI7:
 1034              		.cfi_def_cfa_offset 24
 1035              		.cfi_offset 4, -24
 1036              		.cfi_offset 5, -20
 1037              		.cfi_offset 6, -16
 1038              		.cfi_offset 7, -12
 1039              		.cfi_offset 8, -8
 1040              		.cfi_offset 14, -4
 1041 0004 0546     		mov	r5, r0
 1042 0006 0C46     		mov	r4, r1
 1043              	.LVL114:
  67:../Libraries/ROSSerial/rosserial_msgs/RequestParam.h ****       *(outbuffer + offset++) = 0;
 1044              		.loc 4 67 0
 1045 0008 0379     		ldrb	r3, [r0, #4]	@ zero_extendqisi2
 1046 000a 0B70     		strb	r3, [r1]
 1047              	.LVL115:
  68:../Libraries/ROSSerial/rosserial_msgs/RequestParam.h ****       *(outbuffer + offset++) = 0;
 1048              		.loc 4 68 0
 1049 000c 0022     		movs	r2, #0
 1050 000e 4A70     		strb	r2, [r1, #1]
 1051              	.LVL116:
  69:../Libraries/ROSSerial/rosserial_msgs/RequestParam.h ****       *(outbuffer + offset++) = 0;
 1052              		.loc 4 69 0
 1053 0010 8A70     		strb	r2, [r1, #2]
 1054              	.LVL117:
  70:../Libraries/ROSSerial/rosserial_msgs/RequestParam.h ****       for( uint8_t i = 0; i < ints_length; i++){
 1055              		.loc 4 70 0
 1056 0012 CA70     		strb	r2, [r1, #3]
 1057              	.LVL118:
 1058 0014 0423     		movs	r3, #4
 1059              	.LVL119:
 1060              	.L64:
 1061              	.LBB125:
  71:../Libraries/ROSSerial/rosserial_msgs/RequestParam.h ****       union {
 1062              		.loc 4 71 0 discriminator 3
 1063 0016 2979     		ldrb	r1, [r5, #4]	@ zero_extendqisi2
 1064 0018 9142     		cmp	r1, r2
 1065 001a 10D9     		bls	.L63
 1066              	.LBB126:
  76:../Libraries/ROSSerial/rosserial_msgs/RequestParam.h ****       *(outbuffer + offset + 0) = (u_intsi.base >> (8 * 0)) & 0xFF;
 1067              		.loc 4 76 0 discriminator 2
 1068 001c E968     		ldr	r1, [r5, #12]
 1069 001e 51F82210 		ldr	r1, [r1, r2, lsl #2]
  77:../Libraries/ROSSerial/rosserial_msgs/RequestParam.h ****       *(outbuffer + offset + 1) = (u_intsi.base >> (8 * 1)) & 0xFF;
 1070              		.loc 4 77 0 discriminator 2
 1071 0022 E154     		strb	r1, [r4, r3]
  78:../Libraries/ROSSerial/rosserial_msgs/RequestParam.h ****       *(outbuffer + offset + 2) = (u_intsi.base >> (8 * 2)) & 0xFF;
 1072              		.loc 4 78 0 discriminator 2
ARM GAS  /var/folders/l3/4y5292px21b4835bsnjwqc7w009kq1/T//ccsIHHIW.s 			page 40


 1073 0024 0E0A     		lsrs	r6, r1, #8
 1074 0026 581C     		adds	r0, r3, #1
 1075 0028 2654     		strb	r6, [r4, r0]
  79:../Libraries/ROSSerial/rosserial_msgs/RequestParam.h ****       *(outbuffer + offset + 3) = (u_intsi.base >> (8 * 3)) & 0xFF;
 1076              		.loc 4 79 0 discriminator 2
 1077 002a 0E0C     		lsrs	r6, r1, #16
 1078 002c 981C     		adds	r0, r3, #2
 1079 002e 2654     		strb	r6, [r4, r0]
  80:../Libraries/ROSSerial/rosserial_msgs/RequestParam.h ****       offset += sizeof(this->ints[i]);
 1080              		.loc 4 80 0 discriminator 2
 1081 0030 090E     		lsrs	r1, r1, #24
 1082 0032 D81C     		adds	r0, r3, #3
 1083 0034 2154     		strb	r1, [r4, r0]
  81:../Libraries/ROSSerial/rosserial_msgs/RequestParam.h ****       }
 1084              		.loc 4 81 0 discriminator 2
 1085 0036 0433     		adds	r3, r3, #4
 1086              	.LVL120:
 1087              	.LBE126:
  71:../Libraries/ROSSerial/rosserial_msgs/RequestParam.h ****       union {
 1088              		.loc 4 71 0 discriminator 2
 1089 0038 0132     		adds	r2, r2, #1
 1090              	.LVL121:
 1091 003a D2B2     		uxtb	r2, r2
 1092              	.LVL122:
 1093 003c EBE7     		b	.L64
 1094              	.L63:
 1095              	.LBE125:
  83:../Libraries/ROSSerial/rosserial_msgs/RequestParam.h ****       *(outbuffer + offset++) = 0;
 1096              		.loc 4 83 0
 1097 003e 591C     		adds	r1, r3, #1
 1098              	.LVL123:
 1099 0040 2A7C     		ldrb	r2, [r5, #16]	@ zero_extendqisi2
 1100              	.LVL124:
 1101 0042 E254     		strb	r2, [r4, r3]
  84:../Libraries/ROSSerial/rosserial_msgs/RequestParam.h ****       *(outbuffer + offset++) = 0;
 1102              		.loc 4 84 0
 1103 0044 981C     		adds	r0, r3, #2
 1104              	.LVL125:
 1105 0046 0022     		movs	r2, #0
 1106 0048 6254     		strb	r2, [r4, r1]
  85:../Libraries/ROSSerial/rosserial_msgs/RequestParam.h ****       *(outbuffer + offset++) = 0;
 1107              		.loc 4 85 0
 1108 004a D91C     		adds	r1, r3, #3
 1109              	.LVL126:
 1110 004c 2254     		strb	r2, [r4, r0]
  86:../Libraries/ROSSerial/rosserial_msgs/RequestParam.h ****       for( uint8_t i = 0; i < floats_length; i++){
 1111              		.loc 4 86 0
 1112 004e 0433     		adds	r3, r3, #4
 1113              	.LVL127:
 1114 0050 6254     		strb	r2, [r4, r1]
 1115              	.LVL128:
 1116              	.L66:
 1117              	.LBB127:
  87:../Libraries/ROSSerial/rosserial_msgs/RequestParam.h ****       union {
 1118              		.loc 4 87 0 discriminator 3
 1119 0052 297C     		ldrb	r1, [r5, #16]	@ zero_extendqisi2
 1120 0054 9142     		cmp	r1, r2
ARM GAS  /var/folders/l3/4y5292px21b4835bsnjwqc7w009kq1/T//ccsIHHIW.s 			page 41


 1121 0056 10D9     		bls	.L65
 1122              	.LBB128:
  92:../Libraries/ROSSerial/rosserial_msgs/RequestParam.h ****       *(outbuffer + offset + 0) = (u_floatsi.base >> (8 * 0)) & 0xFF;
 1123              		.loc 4 92 0 discriminator 2
 1124 0058 A969     		ldr	r1, [r5, #24]
 1125 005a 51F82210 		ldr	r1, [r1, r2, lsl #2]
  93:../Libraries/ROSSerial/rosserial_msgs/RequestParam.h ****       *(outbuffer + offset + 1) = (u_floatsi.base >> (8 * 1)) & 0xFF;
 1126              		.loc 4 93 0 discriminator 2
 1127 005e E154     		strb	r1, [r4, r3]
  94:../Libraries/ROSSerial/rosserial_msgs/RequestParam.h ****       *(outbuffer + offset + 2) = (u_floatsi.base >> (8 * 2)) & 0xFF;
 1128              		.loc 4 94 0 discriminator 2
 1129 0060 0E0A     		lsrs	r6, r1, #8
 1130 0062 581C     		adds	r0, r3, #1
 1131 0064 2654     		strb	r6, [r4, r0]
  95:../Libraries/ROSSerial/rosserial_msgs/RequestParam.h ****       *(outbuffer + offset + 3) = (u_floatsi.base >> (8 * 3)) & 0xFF;
 1132              		.loc 4 95 0 discriminator 2
 1133 0066 0E0C     		lsrs	r6, r1, #16
 1134 0068 981C     		adds	r0, r3, #2
 1135 006a 2654     		strb	r6, [r4, r0]
  96:../Libraries/ROSSerial/rosserial_msgs/RequestParam.h ****       offset += sizeof(this->floats[i]);
 1136              		.loc 4 96 0 discriminator 2
 1137 006c 090E     		lsrs	r1, r1, #24
 1138 006e D81C     		adds	r0, r3, #3
 1139 0070 2154     		strb	r1, [r4, r0]
  97:../Libraries/ROSSerial/rosserial_msgs/RequestParam.h ****       }
 1140              		.loc 4 97 0 discriminator 2
 1141 0072 0433     		adds	r3, r3, #4
 1142              	.LVL129:
 1143              	.LBE128:
  87:../Libraries/ROSSerial/rosserial_msgs/RequestParam.h ****       union {
 1144              		.loc 4 87 0 discriminator 2
 1145 0074 0132     		adds	r2, r2, #1
 1146              	.LVL130:
 1147 0076 D2B2     		uxtb	r2, r2
 1148              	.LVL131:
 1149 0078 EBE7     		b	.L66
 1150              	.L65:
 1151              	.LBE127:
  99:../Libraries/ROSSerial/rosserial_msgs/RequestParam.h ****       *(outbuffer + offset++) = 0;
 1152              		.loc 4 99 0
 1153 007a 5A1C     		adds	r2, r3, #1
 1154              	.LVL132:
 1155 007c 297F     		ldrb	r1, [r5, #28]	@ zero_extendqisi2
 1156 007e E154     		strb	r1, [r4, r3]
 100:../Libraries/ROSSerial/rosserial_msgs/RequestParam.h ****       *(outbuffer + offset++) = 0;
 1157              		.loc 4 100 0
 1158 0080 991C     		adds	r1, r3, #2
 1159              	.LVL133:
 1160 0082 4FF00008 		mov	r8, #0
 1161 0086 04F80280 		strb	r8, [r4, r2]
 101:../Libraries/ROSSerial/rosserial_msgs/RequestParam.h ****       *(outbuffer + offset++) = 0;
 1162              		.loc 4 101 0
 1163 008a DA1C     		adds	r2, r3, #3
 1164              	.LVL134:
 1165 008c 04F80180 		strb	r8, [r4, r1]
 102:../Libraries/ROSSerial/rosserial_msgs/RequestParam.h ****       for( uint8_t i = 0; i < strings_length; i++){
 1166              		.loc 4 102 0
ARM GAS  /var/folders/l3/4y5292px21b4835bsnjwqc7w009kq1/T//ccsIHHIW.s 			page 42


 1167 0090 1E1D     		adds	r6, r3, #4
 1168              	.LVL135:
 1169 0092 04F80280 		strb	r8, [r4, r2]
 1170              	.LVL136:
 1171              	.L68:
 1172              	.LBB129:
 103:../Libraries/ROSSerial/rosserial_msgs/RequestParam.h ****       uint32_t length_stringsi = strlen(this->strings[i]);
 1173              		.loc 4 103 0 discriminator 3
 1174 0096 2B7F     		ldrb	r3, [r5, #28]	@ zero_extendqisi2
 1175 0098 4345     		cmp	r3, r8
 1176 009a 14D9     		bls	.L62
 1177              	.LBB130:
 104:../Libraries/ROSSerial/rosserial_msgs/RequestParam.h ****       memcpy(outbuffer + offset, &length_stringsi, sizeof(uint32_t));
 1178              		.loc 4 104 0 discriminator 2
 1179 009c 6B6A     		ldr	r3, [r5, #36]
 1180 009e 53F82800 		ldr	r0, [r3, r8, lsl #2]
 1181 00a2 FFF7FEFF 		bl	strlen
 1182              	.LVL137:
 1183 00a6 0746     		mov	r7, r0
 1184              	.LVL138:
 105:../Libraries/ROSSerial/rosserial_msgs/RequestParam.h ****       offset += 4;
 1185              		.loc 4 105 0 discriminator 2
 1186 00a8 A051     		str	r0, [r4, r6]	@ unaligned
 106:../Libraries/ROSSerial/rosserial_msgs/RequestParam.h ****       memcpy(outbuffer + offset, this->strings[i], length_stringsi);
 1187              		.loc 4 106 0 discriminator 2
 1188 00aa 0436     		adds	r6, r6, #4
 1189              	.LVL139:
 107:../Libraries/ROSSerial/rosserial_msgs/RequestParam.h ****       offset += length_stringsi;
 1190              		.loc 4 107 0 discriminator 2
 1191 00ac 6B6A     		ldr	r3, [r5, #36]
 1192 00ae 0246     		mov	r2, r0
 1193 00b0 53F82810 		ldr	r1, [r3, r8, lsl #2]
 1194 00b4 A019     		adds	r0, r4, r6
 1195              	.LVL140:
 1196 00b6 FFF7FEFF 		bl	memcpy
 1197              	.LVL141:
 108:../Libraries/ROSSerial/rosserial_msgs/RequestParam.h ****       }
 1198              		.loc 4 108 0 discriminator 2
 1199 00ba 3E44     		add	r6, r6, r7
 1200              	.LVL142:
 1201              	.LBE130:
 103:../Libraries/ROSSerial/rosserial_msgs/RequestParam.h ****       uint32_t length_stringsi = strlen(this->strings[i]);
 1202              		.loc 4 103 0 discriminator 2
 1203 00bc 08F10108 		add	r8, r8, #1
 1204              	.LVL143:
 1205 00c0 5FFA88F8 		uxtb	r8, r8
 1206              	.LVL144:
 1207 00c4 E7E7     		b	.L68
 1208              	.L62:
 1209              	.LBE129:
 111:../Libraries/ROSSerial/rosserial_msgs/RequestParam.h **** 
 1210              		.loc 4 111 0
 1211 00c6 3046     		mov	r0, r6
 1212 00c8 BDE8F081 		pop	{r4, r5, r6, r7, r8, pc}
 1213              		.cfi_endproc
 1214              	.LFE399:
 1215              		.cantunwind
ARM GAS  /var/folders/l3/4y5292px21b4835bsnjwqc7w009kq1/T//ccsIHHIW.s 			page 43


 1216              		.fnend
 1218              		.section	.text._ZN14rosserial_msgs20RequestParamResponse11deserializeEPh,"axG",%progbits,_ZN14ross
 1219              		.align	1
 1220              		.weak	_ZN14rosserial_msgs20RequestParamResponse11deserializeEPh
 1221              		.syntax unified
 1222              		.thumb
 1223              		.thumb_func
 1224              		.fpu fpv4-sp-d16
 1226              	_ZN14rosserial_msgs20RequestParamResponse11deserializeEPh:
 1227              		.fnstart
 1228              	.LFB400:
 113:../Libraries/ROSSerial/rosserial_msgs/RequestParam.h ****     {
 1229              		.loc 4 113 0
 1230              		.cfi_startproc
 1231              		@ args = 0, pretend = 0, frame = 0
 1232              		@ frame_needed = 0, uses_anonymous_args = 0
 1233              	.LVL145:
 1234 0000 F8B5     		push	{r3, r4, r5, r6, r7, lr}
 1235              	.LCFI8:
 1236              		.cfi_def_cfa_offset 24
 1237              		.cfi_offset 3, -24
 1238              		.cfi_offset 4, -20
 1239              		.cfi_offset 5, -16
 1240              		.cfi_offset 6, -12
 1241              		.cfi_offset 7, -8
 1242              		.cfi_offset 14, -4
 1243 0002 0646     		mov	r6, r0
 1244 0004 0D46     		mov	r5, r1
 1245              	.LVL146:
 116:../Libraries/ROSSerial/rosserial_msgs/RequestParam.h ****       if(ints_lengthT > ints_length)
 1246              		.loc 4 116 0
 1247 0006 0C78     		ldrb	r4, [r1]	@ zero_extendqisi2
 1248              	.LVL147:
 117:../Libraries/ROSSerial/rosserial_msgs/RequestParam.h ****         this->ints = (int32_t*)realloc(this->ints, ints_lengthT * sizeof(int32_t));
 1249              		.loc 4 117 0
 1250 0008 0379     		ldrb	r3, [r0, #4]	@ zero_extendqisi2
 1251 000a A342     		cmp	r3, r4
 1252 000c 1AD3     		bcc	.L83
 1253              	.LVL148:
 1254              	.L71:
 120:../Libraries/ROSSerial/rosserial_msgs/RequestParam.h ****       for( uint8_t i = 0; i < ints_length; i++){
 1255              		.loc 4 120 0
 1256 000e 3471     		strb	r4, [r6, #4]
 1257              	.LVL149:
 1258              	.LBB138:
 121:../Libraries/ROSSerial/rosserial_msgs/RequestParam.h ****       union {
 1259              		.loc 4 121 0
 1260 0010 0022     		movs	r2, #0
 1261              	.LBE138:
 119:../Libraries/ROSSerial/rosserial_msgs/RequestParam.h ****       ints_length = ints_lengthT;
 1262              		.loc 4 119 0
 1263 0012 0424     		movs	r4, #4
 1264              	.LVL150:
 1265              	.L73:
 1266              	.LBB140:
 121:../Libraries/ROSSerial/rosserial_msgs/RequestParam.h ****       union {
 1267              		.loc 4 121 0 discriminator 3
ARM GAS  /var/folders/l3/4y5292px21b4835bsnjwqc7w009kq1/T//ccsIHHIW.s 			page 44


 1268 0014 3379     		ldrb	r3, [r6, #4]	@ zero_extendqisi2
 1269 0016 9342     		cmp	r3, r2
 1270 0018 1AD9     		bls	.L72
 1271              	.LBB139:
 127:../Libraries/ROSSerial/rosserial_msgs/RequestParam.h ****       u_st_ints.base |= ((uint32_t) (*(inbuffer + offset + 1))) << (8 * 1);
 1272              		.loc 4 127 0 discriminator 2
 1273 001a 2B5D     		ldrb	r3, [r5, r4]	@ zero_extendqisi2
 128:../Libraries/ROSSerial/rosserial_msgs/RequestParam.h ****       u_st_ints.base |= ((uint32_t) (*(inbuffer + offset + 2))) << (8 * 2);
 1274              		.loc 4 128 0 discriminator 2
 1275 001c 611C     		adds	r1, r4, #1
 1276 001e 695C     		ldrb	r1, [r5, r1]	@ zero_extendqisi2
 1277 0020 43EA0123 		orr	r3, r3, r1, lsl #8
 129:../Libraries/ROSSerial/rosserial_msgs/RequestParam.h ****       u_st_ints.base |= ((uint32_t) (*(inbuffer + offset + 3))) << (8 * 3);
 1278              		.loc 4 129 0 discriminator 2
 1279 0024 A11C     		adds	r1, r4, #2
 1280 0026 695C     		ldrb	r1, [r5, r1]	@ zero_extendqisi2
 1281 0028 43EA0143 		orr	r3, r3, r1, lsl #16
 130:../Libraries/ROSSerial/rosserial_msgs/RequestParam.h ****       this->st_ints = u_st_ints.real;
 1282              		.loc 4 130 0 discriminator 2
 1283 002c E11C     		adds	r1, r4, #3
 1284 002e 695C     		ldrb	r1, [r5, r1]	@ zero_extendqisi2
 1285 0030 43EA0163 		orr	r3, r3, r1, lsl #24
 131:../Libraries/ROSSerial/rosserial_msgs/RequestParam.h ****       offset += sizeof(this->st_ints);
 1286              		.loc 4 131 0 discriminator 2
 1287 0034 B360     		str	r3, [r6, #8]
 132:../Libraries/ROSSerial/rosserial_msgs/RequestParam.h ****         memcpy( &(this->ints[i]), &(this->st_ints), sizeof(int32_t));
 1288              		.loc 4 132 0 discriminator 2
 1289 0036 0434     		adds	r4, r4, #4
 1290              	.LVL151:
 133:../Libraries/ROSSerial/rosserial_msgs/RequestParam.h ****       }
 1291              		.loc 4 133 0 discriminator 2
 1292 0038 F168     		ldr	r1, [r6, #12]
 1293 003a 41F82230 		str	r3, [r1, r2, lsl #2]	@ unaligned
 1294              	.LBE139:
 121:../Libraries/ROSSerial/rosserial_msgs/RequestParam.h ****       union {
 1295              		.loc 4 121 0 discriminator 2
 1296 003e 0132     		adds	r2, r2, #1
 1297              	.LVL152:
 1298 0040 D2B2     		uxtb	r2, r2
 1299              	.LVL153:
 1300 0042 E7E7     		b	.L73
 1301              	.LVL154:
 1302              	.L83:
 1303              	.LBE140:
 118:../Libraries/ROSSerial/rosserial_msgs/RequestParam.h ****       offset += 3;
 1304              		.loc 4 118 0
 1305 0044 A100     		lsls	r1, r4, #2
 1306              	.LVL155:
 1307 0046 C068     		ldr	r0, [r0, #12]
 1308              	.LVL156:
 1309 0048 FFF7FEFF 		bl	realloc
 1310              	.LVL157:
 1311 004c F060     		str	r0, [r6, #12]
 1312 004e DEE7     		b	.L71
 1313              	.LVL158:
 1314              	.L72:
 135:../Libraries/ROSSerial/rosserial_msgs/RequestParam.h ****       if(floats_lengthT > floats_length)
ARM GAS  /var/folders/l3/4y5292px21b4835bsnjwqc7w009kq1/T//ccsIHHIW.s 			page 45


 1315              		.loc 4 135 0
 1316 0050 2F5D     		ldrb	r7, [r5, r4]	@ zero_extendqisi2
 1317              	.LVL159:
 136:../Libraries/ROSSerial/rosserial_msgs/RequestParam.h ****         this->floats = (float*)realloc(this->floats, floats_lengthT * sizeof(float));
 1318              		.loc 4 136 0
 1319 0052 337C     		ldrb	r3, [r6, #16]	@ zero_extendqisi2
 1320 0054 BB42     		cmp	r3, r7
 1321 0056 1AD3     		bcc	.L84
 1322              	.LVL160:
 1323              	.L74:
 138:../Libraries/ROSSerial/rosserial_msgs/RequestParam.h ****       floats_length = floats_lengthT;
 1324              		.loc 4 138 0
 1325 0058 0434     		adds	r4, r4, #4
 1326              	.LVL161:
 139:../Libraries/ROSSerial/rosserial_msgs/RequestParam.h ****       for( uint8_t i = 0; i < floats_length; i++){
 1327              		.loc 4 139 0
 1328 005a 3774     		strb	r7, [r6, #16]
 1329              	.LVL162:
 1330              	.LBB141:
 140:../Libraries/ROSSerial/rosserial_msgs/RequestParam.h ****       union {
 1331              		.loc 4 140 0
 1332 005c 0022     		movs	r2, #0
 1333              	.LVL163:
 1334              	.L76:
 140:../Libraries/ROSSerial/rosserial_msgs/RequestParam.h ****       union {
 1335              		.loc 4 140 0 is_stmt 0 discriminator 3
 1336 005e 337C     		ldrb	r3, [r6, #16]	@ zero_extendqisi2
 1337 0060 9342     		cmp	r3, r2
 1338 0062 1AD9     		bls	.L75
 1339              	.LBB142:
 146:../Libraries/ROSSerial/rosserial_msgs/RequestParam.h ****       u_st_floats.base |= ((uint32_t) (*(inbuffer + offset + 1))) << (8 * 1);
 1340              		.loc 4 146 0 is_stmt 1 discriminator 2
 1341 0064 2B5D     		ldrb	r3, [r5, r4]	@ zero_extendqisi2
 147:../Libraries/ROSSerial/rosserial_msgs/RequestParam.h ****       u_st_floats.base |= ((uint32_t) (*(inbuffer + offset + 2))) << (8 * 2);
 1342              		.loc 4 147 0 discriminator 2
 1343 0066 611C     		adds	r1, r4, #1
 1344 0068 695C     		ldrb	r1, [r5, r1]	@ zero_extendqisi2
 1345 006a 43EA0123 		orr	r3, r3, r1, lsl #8
 148:../Libraries/ROSSerial/rosserial_msgs/RequestParam.h ****       u_st_floats.base |= ((uint32_t) (*(inbuffer + offset + 3))) << (8 * 3);
 1346              		.loc 4 148 0 discriminator 2
 1347 006e A11C     		adds	r1, r4, #2
 1348 0070 695C     		ldrb	r1, [r5, r1]	@ zero_extendqisi2
 1349 0072 43EA0143 		orr	r3, r3, r1, lsl #16
 149:../Libraries/ROSSerial/rosserial_msgs/RequestParam.h ****       this->st_floats = u_st_floats.real;
 1350              		.loc 4 149 0 discriminator 2
 1351 0076 E11C     		adds	r1, r4, #3
 1352 0078 695C     		ldrb	r1, [r5, r1]	@ zero_extendqisi2
 1353 007a 43EA0163 		orr	r3, r3, r1, lsl #24
 150:../Libraries/ROSSerial/rosserial_msgs/RequestParam.h ****       offset += sizeof(this->st_floats);
 1354              		.loc 4 150 0 discriminator 2
 1355 007e 7361     		str	r3, [r6, #20]	@ float
 151:../Libraries/ROSSerial/rosserial_msgs/RequestParam.h ****         memcpy( &(this->floats[i]), &(this->st_floats), sizeof(float));
 1356              		.loc 4 151 0 discriminator 2
 1357 0080 0434     		adds	r4, r4, #4
 1358              	.LVL164:
 152:../Libraries/ROSSerial/rosserial_msgs/RequestParam.h ****       }
 1359              		.loc 4 152 0 discriminator 2
ARM GAS  /var/folders/l3/4y5292px21b4835bsnjwqc7w009kq1/T//ccsIHHIW.s 			page 46


 1360 0082 B169     		ldr	r1, [r6, #24]
 1361 0084 41F82230 		str	r3, [r1, r2, lsl #2]	@ unaligned
 1362              	.LBE142:
 140:../Libraries/ROSSerial/rosserial_msgs/RequestParam.h ****       union {
 1363              		.loc 4 140 0 discriminator 2
 1364 0088 0132     		adds	r2, r2, #1
 1365              	.LVL165:
 1366 008a D2B2     		uxtb	r2, r2
 1367              	.LVL166:
 1368 008c E7E7     		b	.L76
 1369              	.LVL167:
 1370              	.L84:
 1371              	.LBE141:
 137:../Libraries/ROSSerial/rosserial_msgs/RequestParam.h ****       offset += 3;
 1372              		.loc 4 137 0
 1373 008e B900     		lsls	r1, r7, #2
 1374 0090 B069     		ldr	r0, [r6, #24]
 1375 0092 FFF7FEFF 		bl	realloc
 1376              	.LVL168:
 1377 0096 B061     		str	r0, [r6, #24]
 1378 0098 DEE7     		b	.L74
 1379              	.LVL169:
 1380              	.L75:
 154:../Libraries/ROSSerial/rosserial_msgs/RequestParam.h ****       if(strings_lengthT > strings_length)
 1381              		.loc 4 154 0
 1382 009a 2F5D     		ldrb	r7, [r5, r4]	@ zero_extendqisi2
 1383              	.LVL170:
 155:../Libraries/ROSSerial/rosserial_msgs/RequestParam.h ****         this->strings = (char**)realloc(this->strings, strings_lengthT * sizeof(char*));
 1384              		.loc 4 155 0
 1385 009c 337F     		ldrb	r3, [r6, #28]	@ zero_extendqisi2
 1386 009e BB42     		cmp	r3, r7
 1387 00a0 04D3     		bcc	.L85
 1388              	.LVL171:
 1389              	.L77:
 157:../Libraries/ROSSerial/rosserial_msgs/RequestParam.h ****       strings_length = strings_lengthT;
 1390              		.loc 4 157 0
 1391 00a2 201D     		adds	r0, r4, #4
 1392              	.LVL172:
 158:../Libraries/ROSSerial/rosserial_msgs/RequestParam.h ****       for( uint8_t i = 0; i < strings_length; i++){
 1393              		.loc 4 158 0
 1394 00a4 3777     		strb	r7, [r6, #28]
 1395              	.LVL173:
 1396              	.LBB143:
 159:../Libraries/ROSSerial/rosserial_msgs/RequestParam.h ****       uint32_t length_st_strings;
 1397              		.loc 4 159 0
 1398 00a6 4FF0000C 		mov	ip, #0
 1399 00aa 12E0     		b	.L81
 1400              	.LVL174:
 1401              	.L85:
 1402              	.LBE143:
 156:../Libraries/ROSSerial/rosserial_msgs/RequestParam.h ****       offset += 3;
 1403              		.loc 4 156 0
 1404 00ac B900     		lsls	r1, r7, #2
 1405 00ae 706A     		ldr	r0, [r6, #36]
 1406 00b0 FFF7FEFF 		bl	realloc
 1407              	.LVL175:
 1408 00b4 7062     		str	r0, [r6, #36]
ARM GAS  /var/folders/l3/4y5292px21b4835bsnjwqc7w009kq1/T//ccsIHHIW.s 			page 47


 1409 00b6 F4E7     		b	.L77
 1410              	.LVL176:
 1411              	.L79:
 1412              	.LBB147:
 1413              	.LBB144:
 166:../Libraries/ROSSerial/rosserial_msgs/RequestParam.h ****       this->st_strings = (char *)(inbuffer + offset-1);
 1414              		.loc 4 166 0 discriminator 2
 1415 00b8 431E     		subs	r3, r0, #1
 1416              	.LVL177:
 1417 00ba 0022     		movs	r2, #0
 1418 00bc EA54     		strb	r2, [r5, r3]
 167:../Libraries/ROSSerial/rosserial_msgs/RequestParam.h ****       offset += length_st_strings;
 1419              		.loc 4 167 0 discriminator 2
 1420 00be 013C     		subs	r4, r4, #1
 1421 00c0 2C44     		add	r4, r4, r5
 1422 00c2 3462     		str	r4, [r6, #32]
 1423              	.LVL178:
 169:../Libraries/ROSSerial/rosserial_msgs/RequestParam.h ****       }
 1424              		.loc 4 169 0 discriminator 2
 1425 00c4 736A     		ldr	r3, [r6, #36]
 1426 00c6 43F82C40 		str	r4, [r3, ip, lsl #2]	@ unaligned
 1427              	.LVL179:
 1428              	.LBE144:
 159:../Libraries/ROSSerial/rosserial_msgs/RequestParam.h ****       uint32_t length_st_strings;
 1429              		.loc 4 159 0 discriminator 2
 1430 00ca 0CF1010C 		add	ip, ip, #1
 1431              	.LVL180:
 1432 00ce 5FFA8CFC 		uxtb	ip, ip
 1433              	.LVL181:
 1434              	.L81:
 159:../Libraries/ROSSerial/rosserial_msgs/RequestParam.h ****       uint32_t length_st_strings;
 1435              		.loc 4 159 0 is_stmt 0 discriminator 1
 1436 00d2 337F     		ldrb	r3, [r6, #28]	@ zero_extendqisi2
 1437 00d4 6345     		cmp	r3, ip
 1438 00d6 0AD9     		bls	.L70
 1439              	.LBB146:
 161:../Libraries/ROSSerial/rosserial_msgs/RequestParam.h ****       offset += 4;
 1440              		.loc 4 161 0 is_stmt 1
 1441 00d8 2F58     		ldr	r7, [r5, r0]	@ unaligned
 1442              	.LVL182:
 162:../Libraries/ROSSerial/rosserial_msgs/RequestParam.h ****       for(unsigned int k= offset; k< offset+length_st_strings; ++k){
 1443              		.loc 4 162 0
 1444 00da 041D     		adds	r4, r0, #4
 1445              	.LVL183:
 1446              	.LBB145:
 163:../Libraries/ROSSerial/rosserial_msgs/RequestParam.h ****           inbuffer[k-1]=inbuffer[k];
 1447              		.loc 4 163 0
 1448 00dc 2346     		mov	r3, r4
 1449              	.LVL184:
 1450              	.L80:
 163:../Libraries/ROSSerial/rosserial_msgs/RequestParam.h ****           inbuffer[k-1]=inbuffer[k];
 1451              		.loc 4 163 0 is_stmt 0 discriminator 3
 1452 00de 3819     		adds	r0, r7, r4
 1453 00e0 9842     		cmp	r0, r3
 1454 00e2 E9D9     		bls	.L79
 164:../Libraries/ROSSerial/rosserial_msgs/RequestParam.h ****       }
 1455              		.loc 4 164 0 is_stmt 1 discriminator 2
ARM GAS  /var/folders/l3/4y5292px21b4835bsnjwqc7w009kq1/T//ccsIHHIW.s 			page 48


 1456 00e4 5A1E     		subs	r2, r3, #1
 1457 00e6 E95C     		ldrb	r1, [r5, r3]	@ zero_extendqisi2
 1458 00e8 A954     		strb	r1, [r5, r2]
 163:../Libraries/ROSSerial/rosserial_msgs/RequestParam.h ****           inbuffer[k-1]=inbuffer[k];
 1459              		.loc 4 163 0 discriminator 2
 1460 00ea 0133     		adds	r3, r3, #1
 1461              	.LVL185:
 1462 00ec F7E7     		b	.L80
 1463              	.LVL186:
 1464              	.L70:
 1465              	.LBE145:
 1466              	.LBE146:
 1467              	.LBE147:
 172:../Libraries/ROSSerial/rosserial_msgs/RequestParam.h **** 
 1468              		.loc 4 172 0
 1469 00ee F8BD     		pop	{r3, r4, r5, r6, r7, pc}
 1470              		.cfi_endproc
 1471              	.LFE400:
 1472              		.cantunwind
 1473              		.fnend
 1475              		.section	.text._ZN3ros11NodeHandle_I13STM32HardwareLi5ELi5ELi512ELi512EE7publishEiPKNS_3MsgE,"axG"
 1476              		.align	1
 1477              		.weak	_ZN3ros11NodeHandle_I13STM32HardwareLi5ELi5ELi512ELi512EE7publishEiPKNS_3MsgE
 1478              		.syntax unified
 1479              		.thumb
 1480              		.thumb_func
 1481              		.fpu fpv4-sp-d16
 1483              	_ZN3ros11NodeHandle_I13STM32HardwareLi5ELi5ELi512ELi512EE7publishEiPKNS_3MsgE:
 1484              		.fnstart
 1485              	.LFB492:
 374:../Libraries/ROSSerial/ros/node_handle.h **** 
 375:../Libraries/ROSSerial/ros/node_handle.h ****   /********************************************************************
 376:../Libraries/ROSSerial/ros/node_handle.h ****    * Time functions
 377:../Libraries/ROSSerial/ros/node_handle.h ****    */
 378:../Libraries/ROSSerial/ros/node_handle.h **** 
 379:../Libraries/ROSSerial/ros/node_handle.h ****   void requestSyncTime()
 380:../Libraries/ROSSerial/ros/node_handle.h ****   {
 381:../Libraries/ROSSerial/ros/node_handle.h ****     std_msgs::Time t;
 382:../Libraries/ROSSerial/ros/node_handle.h ****     publish(TopicInfo::ID_TIME, &t);
 383:../Libraries/ROSSerial/ros/node_handle.h ****     rt_time = hardware_.time();
 384:../Libraries/ROSSerial/ros/node_handle.h ****   }
 385:../Libraries/ROSSerial/ros/node_handle.h **** 
 386:../Libraries/ROSSerial/ros/node_handle.h ****   void syncTime(uint8_t * data)
 387:../Libraries/ROSSerial/ros/node_handle.h ****   {
 388:../Libraries/ROSSerial/ros/node_handle.h ****     std_msgs::Time t;
 389:../Libraries/ROSSerial/ros/node_handle.h ****     uint32_t offset = hardware_.time() - rt_time;
 390:../Libraries/ROSSerial/ros/node_handle.h **** 
 391:../Libraries/ROSSerial/ros/node_handle.h ****     t.deserialize(data);
 392:../Libraries/ROSSerial/ros/node_handle.h ****     t.data.sec += offset / 1000;
 393:../Libraries/ROSSerial/ros/node_handle.h ****     t.data.nsec += (offset % 1000) * 1000000UL;
 394:../Libraries/ROSSerial/ros/node_handle.h **** 
 395:../Libraries/ROSSerial/ros/node_handle.h ****     this->setNow(t.data);
 396:../Libraries/ROSSerial/ros/node_handle.h ****     last_sync_receive_time = hardware_.time();
 397:../Libraries/ROSSerial/ros/node_handle.h ****   }
 398:../Libraries/ROSSerial/ros/node_handle.h **** 
 399:../Libraries/ROSSerial/ros/node_handle.h ****   Time now()
 400:../Libraries/ROSSerial/ros/node_handle.h ****   {
ARM GAS  /var/folders/l3/4y5292px21b4835bsnjwqc7w009kq1/T//ccsIHHIW.s 			page 49


 401:../Libraries/ROSSerial/ros/node_handle.h ****     uint32_t ms = hardware_.time();
 402:../Libraries/ROSSerial/ros/node_handle.h ****     Time current_time;
 403:../Libraries/ROSSerial/ros/node_handle.h ****     current_time.sec = ms / 1000 + sec_offset;
 404:../Libraries/ROSSerial/ros/node_handle.h ****     current_time.nsec = (ms % 1000) * 1000000UL + nsec_offset;
 405:../Libraries/ROSSerial/ros/node_handle.h ****     normalizeSecNSec(current_time.sec, current_time.nsec);
 406:../Libraries/ROSSerial/ros/node_handle.h ****     return current_time;
 407:../Libraries/ROSSerial/ros/node_handle.h ****   }
 408:../Libraries/ROSSerial/ros/node_handle.h **** 
 409:../Libraries/ROSSerial/ros/node_handle.h ****   void setNow(Time & new_now)
 410:../Libraries/ROSSerial/ros/node_handle.h ****   {
 411:../Libraries/ROSSerial/ros/node_handle.h ****     uint32_t ms = hardware_.time();
 412:../Libraries/ROSSerial/ros/node_handle.h ****     sec_offset = new_now.sec - ms / 1000 - 1;
 413:../Libraries/ROSSerial/ros/node_handle.h ****     nsec_offset = new_now.nsec - (ms % 1000) * 1000000UL + 1000000000UL;
 414:../Libraries/ROSSerial/ros/node_handle.h ****     normalizeSecNSec(sec_offset, nsec_offset);
 415:../Libraries/ROSSerial/ros/node_handle.h ****   }
 416:../Libraries/ROSSerial/ros/node_handle.h **** 
 417:../Libraries/ROSSerial/ros/node_handle.h ****   /********************************************************************
 418:../Libraries/ROSSerial/ros/node_handle.h ****    * Topic Management
 419:../Libraries/ROSSerial/ros/node_handle.h ****    */
 420:../Libraries/ROSSerial/ros/node_handle.h **** 
 421:../Libraries/ROSSerial/ros/node_handle.h ****   /* Register a new publisher */
 422:../Libraries/ROSSerial/ros/node_handle.h ****   bool advertise(Publisher & p)
 423:../Libraries/ROSSerial/ros/node_handle.h ****   {
 424:../Libraries/ROSSerial/ros/node_handle.h ****     for (int i = 0; i < MAX_PUBLISHERS; i++)
 425:../Libraries/ROSSerial/ros/node_handle.h ****     {
 426:../Libraries/ROSSerial/ros/node_handle.h ****       if (publishers[i] == 0) // empty slot
 427:../Libraries/ROSSerial/ros/node_handle.h ****       {
 428:../Libraries/ROSSerial/ros/node_handle.h ****         publishers[i] = &p;
 429:../Libraries/ROSSerial/ros/node_handle.h ****         p.id_ = i + 100 + MAX_SUBSCRIBERS;
 430:../Libraries/ROSSerial/ros/node_handle.h ****         p.nh_ = this;
 431:../Libraries/ROSSerial/ros/node_handle.h ****         return true;
 432:../Libraries/ROSSerial/ros/node_handle.h ****       }
 433:../Libraries/ROSSerial/ros/node_handle.h ****     }
 434:../Libraries/ROSSerial/ros/node_handle.h ****     return false;
 435:../Libraries/ROSSerial/ros/node_handle.h ****   }
 436:../Libraries/ROSSerial/ros/node_handle.h **** 
 437:../Libraries/ROSSerial/ros/node_handle.h ****   /* Register a new subscriber */
 438:../Libraries/ROSSerial/ros/node_handle.h ****   template<typename SubscriberT>
 439:../Libraries/ROSSerial/ros/node_handle.h ****   bool subscribe(SubscriberT& s)
 440:../Libraries/ROSSerial/ros/node_handle.h ****   {
 441:../Libraries/ROSSerial/ros/node_handle.h ****     for (int i = 0; i < MAX_SUBSCRIBERS; i++)
 442:../Libraries/ROSSerial/ros/node_handle.h ****     {
 443:../Libraries/ROSSerial/ros/node_handle.h ****       if (subscribers[i] == 0) // empty slot
 444:../Libraries/ROSSerial/ros/node_handle.h ****       {
 445:../Libraries/ROSSerial/ros/node_handle.h ****         subscribers[i] = static_cast<Subscriber_*>(&s);
 446:../Libraries/ROSSerial/ros/node_handle.h ****         s.id_ = i + 100;
 447:../Libraries/ROSSerial/ros/node_handle.h ****         return true;
 448:../Libraries/ROSSerial/ros/node_handle.h ****       }
 449:../Libraries/ROSSerial/ros/node_handle.h ****     }
 450:../Libraries/ROSSerial/ros/node_handle.h ****     return false;
 451:../Libraries/ROSSerial/ros/node_handle.h ****   }
 452:../Libraries/ROSSerial/ros/node_handle.h **** 
 453:../Libraries/ROSSerial/ros/node_handle.h ****   /* Register a new Service Server */
 454:../Libraries/ROSSerial/ros/node_handle.h ****   template<typename MReq, typename MRes, typename ObjT>
 455:../Libraries/ROSSerial/ros/node_handle.h ****   bool advertiseService(ServiceServer<MReq, MRes, ObjT>& srv)
 456:../Libraries/ROSSerial/ros/node_handle.h ****   {
 457:../Libraries/ROSSerial/ros/node_handle.h ****     bool v = advertise(srv.pub);
ARM GAS  /var/folders/l3/4y5292px21b4835bsnjwqc7w009kq1/T//ccsIHHIW.s 			page 50


 458:../Libraries/ROSSerial/ros/node_handle.h ****     for (int i = 0; i < MAX_SUBSCRIBERS; i++)
 459:../Libraries/ROSSerial/ros/node_handle.h ****     {
 460:../Libraries/ROSSerial/ros/node_handle.h ****       if (subscribers[i] == 0) // empty slot
 461:../Libraries/ROSSerial/ros/node_handle.h ****       {
 462:../Libraries/ROSSerial/ros/node_handle.h ****         subscribers[i] = static_cast<Subscriber_*>(&srv);
 463:../Libraries/ROSSerial/ros/node_handle.h ****         srv.id_ = i + 100;
 464:../Libraries/ROSSerial/ros/node_handle.h ****         return v;
 465:../Libraries/ROSSerial/ros/node_handle.h ****       }
 466:../Libraries/ROSSerial/ros/node_handle.h ****     }
 467:../Libraries/ROSSerial/ros/node_handle.h ****     return false;
 468:../Libraries/ROSSerial/ros/node_handle.h ****   }
 469:../Libraries/ROSSerial/ros/node_handle.h **** 
 470:../Libraries/ROSSerial/ros/node_handle.h ****   /* Register a new Service Client */
 471:../Libraries/ROSSerial/ros/node_handle.h ****   template<typename MReq, typename MRes>
 472:../Libraries/ROSSerial/ros/node_handle.h ****   bool serviceClient(ServiceClient<MReq, MRes>& srv)
 473:../Libraries/ROSSerial/ros/node_handle.h ****   {
 474:../Libraries/ROSSerial/ros/node_handle.h ****     bool v = advertise(srv.pub);
 475:../Libraries/ROSSerial/ros/node_handle.h ****     for (int i = 0; i < MAX_SUBSCRIBERS; i++)
 476:../Libraries/ROSSerial/ros/node_handle.h ****     {
 477:../Libraries/ROSSerial/ros/node_handle.h ****       if (subscribers[i] == 0) // empty slot
 478:../Libraries/ROSSerial/ros/node_handle.h ****       {
 479:../Libraries/ROSSerial/ros/node_handle.h ****         subscribers[i] = static_cast<Subscriber_*>(&srv);
 480:../Libraries/ROSSerial/ros/node_handle.h ****         srv.id_ = i + 100;
 481:../Libraries/ROSSerial/ros/node_handle.h ****         return v;
 482:../Libraries/ROSSerial/ros/node_handle.h ****       }
 483:../Libraries/ROSSerial/ros/node_handle.h ****     }
 484:../Libraries/ROSSerial/ros/node_handle.h ****     return false;
 485:../Libraries/ROSSerial/ros/node_handle.h ****   }
 486:../Libraries/ROSSerial/ros/node_handle.h **** 
 487:../Libraries/ROSSerial/ros/node_handle.h ****   void negotiateTopics()
 488:../Libraries/ROSSerial/ros/node_handle.h ****   {
 489:../Libraries/ROSSerial/ros/node_handle.h ****     rosserial_msgs::TopicInfo ti;
 490:../Libraries/ROSSerial/ros/node_handle.h ****     int i;
 491:../Libraries/ROSSerial/ros/node_handle.h ****     for (i = 0; i < MAX_PUBLISHERS; i++)
 492:../Libraries/ROSSerial/ros/node_handle.h ****     {
 493:../Libraries/ROSSerial/ros/node_handle.h ****       if (publishers[i] != 0) // non-empty slot
 494:../Libraries/ROSSerial/ros/node_handle.h ****       {
 495:../Libraries/ROSSerial/ros/node_handle.h ****         ti.topic_id = publishers[i]->id_;
 496:../Libraries/ROSSerial/ros/node_handle.h ****         ti.topic_name = (char *) publishers[i]->topic_;
 497:../Libraries/ROSSerial/ros/node_handle.h ****         ti.message_type = (char *) publishers[i]->msg_->getType();
 498:../Libraries/ROSSerial/ros/node_handle.h ****         ti.md5sum = (char *) publishers[i]->msg_->getMD5();
 499:../Libraries/ROSSerial/ros/node_handle.h ****         ti.buffer_size = OUTPUT_SIZE;
 500:../Libraries/ROSSerial/ros/node_handle.h ****         publish(publishers[i]->getEndpointType(), &ti);
 501:../Libraries/ROSSerial/ros/node_handle.h ****       }
 502:../Libraries/ROSSerial/ros/node_handle.h ****     }
 503:../Libraries/ROSSerial/ros/node_handle.h ****     for (i = 0; i < MAX_SUBSCRIBERS; i++)
 504:../Libraries/ROSSerial/ros/node_handle.h ****     {
 505:../Libraries/ROSSerial/ros/node_handle.h ****       if (subscribers[i] != 0) // non-empty slot
 506:../Libraries/ROSSerial/ros/node_handle.h ****       {
 507:../Libraries/ROSSerial/ros/node_handle.h ****         ti.topic_id = subscribers[i]->id_;
 508:../Libraries/ROSSerial/ros/node_handle.h ****         ti.topic_name = (char *) subscribers[i]->topic_;
 509:../Libraries/ROSSerial/ros/node_handle.h ****         ti.message_type = (char *) subscribers[i]->getMsgType();
 510:../Libraries/ROSSerial/ros/node_handle.h ****         ti.md5sum = (char *) subscribers[i]->getMsgMD5();
 511:../Libraries/ROSSerial/ros/node_handle.h ****         ti.buffer_size = INPUT_SIZE;
 512:../Libraries/ROSSerial/ros/node_handle.h ****         publish(subscribers[i]->getEndpointType(), &ti);
 513:../Libraries/ROSSerial/ros/node_handle.h ****       }
 514:../Libraries/ROSSerial/ros/node_handle.h ****     }
ARM GAS  /var/folders/l3/4y5292px21b4835bsnjwqc7w009kq1/T//ccsIHHIW.s 			page 51


 515:../Libraries/ROSSerial/ros/node_handle.h ****     configured_ = true;
 516:../Libraries/ROSSerial/ros/node_handle.h ****   }
 517:../Libraries/ROSSerial/ros/node_handle.h **** 
 518:../Libraries/ROSSerial/ros/node_handle.h ****   virtual int publish(int id, const Msg * msg)
 1486              		.loc 6 518 0
 1487              		.cfi_startproc
 1488              		@ args = 0, pretend = 0, frame = 16
 1489              		@ frame_needed = 0, uses_anonymous_args = 0
 1490              	.LVL187:
 1491 0000 30B5     		push	{r4, r5, lr}
 1492              		.save {r4, r5, lr}
 1493              	.LCFI9:
 1494              		.cfi_def_cfa_offset 12
 1495              		.cfi_offset 4, -12
 1496              		.cfi_offset 5, -8
 1497              		.cfi_offset 14, -4
 1498              		.pad #20
 1499 0002 85B0     		sub	sp, sp, #20
 1500              	.LCFI10:
 1501              		.cfi_def_cfa_offset 32
 519:../Libraries/ROSSerial/ros/node_handle.h ****   {
 520:../Libraries/ROSSerial/ros/node_handle.h ****     if (id >= 100 && !configured_)
 1502              		.loc 6 520 0
 1503 0004 6329     		cmp	r1, #99
 1504 0006 03DD     		ble	.L87
 1505              		.loc 6 520 0 is_stmt 0 discriminator 1
 1506 0008 90F85434 		ldrb	r3, [r0, #1108]	@ zero_extendqisi2
 1507 000c 002B     		cmp	r3, #0
 1508 000e 51D0     		beq	.L92
 1509              	.L87:
 1510 0010 0D46     		mov	r5, r1
 1511 0012 0446     		mov	r4, r0
 521:../Libraries/ROSSerial/ros/node_handle.h ****       return 0;
 522:../Libraries/ROSSerial/ros/node_handle.h **** 
 523:../Libraries/ROSSerial/ros/node_handle.h ****     /* serialize message */
 524:../Libraries/ROSSerial/ros/node_handle.h ****     int l = msg->serialize(message_out + 7);
 1512              		.loc 6 524 0 is_stmt 1
 1513 0014 1368     		ldr	r3, [r2]
 1514 0016 1B68     		ldr	r3, [r3]
 1515 0018 00F21F21 		addw	r1, r0, #543
 1516              	.LVL188:
 1517 001c 1046     		mov	r0, r2
 1518              	.LVL189:
 1519 001e 9847     		blx	r3
 1520              	.LVL190:
 525:../Libraries/ROSSerial/ros/node_handle.h **** 
 526:../Libraries/ROSSerial/ros/node_handle.h ****     /* setup the header */
 527:../Libraries/ROSSerial/ros/node_handle.h ****     message_out[0] = 0xff;
 1521              		.loc 6 527 0
 1522 0020 FF23     		movs	r3, #255
 1523 0022 84F81832 		strb	r3, [r4, #536]
 528:../Libraries/ROSSerial/ros/node_handle.h ****     message_out[1] = PROTOCOL_VER;
 1524              		.loc 6 528 0
 1525 0026 FE23     		movs	r3, #254
 1526 0028 84F81932 		strb	r3, [r4, #537]
 529:../Libraries/ROSSerial/ros/node_handle.h ****     message_out[2] = (uint8_t)((uint16_t)l & 255);
 1527              		.loc 6 529 0
ARM GAS  /var/folders/l3/4y5292px21b4835bsnjwqc7w009kq1/T//ccsIHHIW.s 			page 52


 1528 002c C3B2     		uxtb	r3, r0
 1529 002e 84F81A32 		strb	r3, [r4, #538]
 530:../Libraries/ROSSerial/ros/node_handle.h ****     message_out[3] = (uint8_t)((uint16_t)l >> 8);
 1530              		.loc 6 530 0
 1531 0032 C0F30722 		ubfx	r2, r0, #8, #8
 1532 0036 84F81B22 		strb	r2, [r4, #539]
 531:../Libraries/ROSSerial/ros/node_handle.h ****     message_out[4] = 255 - ((message_out[2] + message_out[3]) % 256);
 1533              		.loc 6 531 0
 1534 003a 1344     		add	r3, r3, r2
 1535 003c DBB2     		uxtb	r3, r3
 1536 003e DB43     		mvns	r3, r3
 1537 0040 84F81C32 		strb	r3, [r4, #540]
 532:../Libraries/ROSSerial/ros/node_handle.h ****     message_out[5] = (uint8_t)((int16_t)id & 255);
 1538              		.loc 6 532 0
 1539 0044 84F81D52 		strb	r5, [r4, #541]
 533:../Libraries/ROSSerial/ros/node_handle.h ****     message_out[6] = (uint8_t)((int16_t)id >> 8);
 1540              		.loc 6 533 0
 1541 0048 45F30721 		sbfx	r1, r5, #8, #8
 1542 004c 84F81E12 		strb	r1, [r4, #542]
 1543              	.LVL191:
 1544              	.LBB148:
 534:../Libraries/ROSSerial/ros/node_handle.h **** 
 535:../Libraries/ROSSerial/ros/node_handle.h ****     /* calculate checksum */
 536:../Libraries/ROSSerial/ros/node_handle.h ****     int chk = 0;
 537:../Libraries/ROSSerial/ros/node_handle.h ****     for (int i = 5; i < l + 7; i++)
 1545              		.loc 6 537 0
 1546 0050 0523     		movs	r3, #5
 1547              	.LBE148:
 536:../Libraries/ROSSerial/ros/node_handle.h ****     for (int i = 5; i < l + 7; i++)
 1548              		.loc 6 536 0
 1549 0052 0022     		movs	r2, #0
 1550              	.LVL192:
 1551              	.L90:
 1552              	.LBB149:
 1553              		.loc 6 537 0 discriminator 3
 1554 0054 C11D     		adds	r1, r0, #7
 1555 0056 9942     		cmp	r1, r3
 1556 0058 05DD     		ble	.L89
 538:../Libraries/ROSSerial/ros/node_handle.h ****       chk += message_out[i];
 1557              		.loc 6 538 0 discriminator 2
 1558 005a E118     		adds	r1, r4, r3
 1559 005c 91F81812 		ldrb	r1, [r1, #536]	@ zero_extendqisi2
 1560 0060 0A44     		add	r2, r2, r1
 1561              	.LVL193:
 537:../Libraries/ROSSerial/ros/node_handle.h ****       chk += message_out[i];
 1562              		.loc 6 537 0 discriminator 2
 1563 0062 0133     		adds	r3, r3, #1
 1564              	.LVL194:
 1565 0064 F6E7     		b	.L90
 1566              	.L89:
 1567              	.LVL195:
 1568              	.LBE149:
 539:../Libraries/ROSSerial/ros/node_handle.h ****     l += 7;
 540:../Libraries/ROSSerial/ros/node_handle.h ****     message_out[l++] = 255 - (chk % 256);
 1569              		.loc 6 540 0
 1570 0066 5342     		rsbs	r3, r2, #0
 1571              	.LVL196:
ARM GAS  /var/folders/l3/4y5292px21b4835bsnjwqc7w009kq1/T//ccsIHHIW.s 			page 53


 1572 0068 D2B2     		uxtb	r2, r2
 1573              	.LVL197:
 1574 006a DBB2     		uxtb	r3, r3
 1575 006c 58BF     		it	pl
 1576 006e 5A42     		rsbpl	r2, r3, #0
 1577 0070 00F10805 		add	r5, r0, #8
 1578              	.LVL198:
 1579 0074 D243     		mvns	r2, r2
 1580 0076 2144     		add	r1, r1, r4
 1581 0078 81F81822 		strb	r2, [r1, #536]
 541:../Libraries/ROSSerial/ros/node_handle.h **** 
 542:../Libraries/ROSSerial/ros/node_handle.h ****     if (l <= OUTPUT_SIZE)
 1582              		.loc 6 542 0
 1583 007c B5F5007F 		cmp	r5, #512
 1584 0080 08DC     		bgt	.L91
 1585              	.LVL199:
 1586              	.LBB150:
 1587              	.LBB151:
 1588              		.file 7 "../Libraries/ROSSerial/stm32hardware.h"
   1:../Libraries/ROSSerial/stm32hardware.h **** /*
   2:../Libraries/ROSSerial/stm32hardware.h ****  * Software License Agreement (BSD License)
   3:../Libraries/ROSSerial/stm32hardware.h ****  *
   4:../Libraries/ROSSerial/stm32hardware.h ****  * Copyright (c) 2011, Willow Garage, Inc.
   5:../Libraries/ROSSerial/stm32hardware.h ****  * All rights reserved.
   6:../Libraries/ROSSerial/stm32hardware.h ****  *
   7:../Libraries/ROSSerial/stm32hardware.h ****  * Redistribution and use in source and binary forms, with or without
   8:../Libraries/ROSSerial/stm32hardware.h ****  * modification, are permitted provided that the following conditions
   9:../Libraries/ROSSerial/stm32hardware.h ****  * are met:
  10:../Libraries/ROSSerial/stm32hardware.h ****  *
  11:../Libraries/ROSSerial/stm32hardware.h ****  *  * Redistributions of source code must retain the above copyright
  12:../Libraries/ROSSerial/stm32hardware.h ****  *    notice, this list of conditions and the following disclaimer.
  13:../Libraries/ROSSerial/stm32hardware.h ****  *  * Redistributions in binary form must reproduce the above
  14:../Libraries/ROSSerial/stm32hardware.h ****  *    copyright notice, this list of conditions and the following
  15:../Libraries/ROSSerial/stm32hardware.h ****  *    disclaimer in the documentation and/or other materials provided
  16:../Libraries/ROSSerial/stm32hardware.h ****  *    with the distribution.
  17:../Libraries/ROSSerial/stm32hardware.h ****  *  * Neither the name of Willow Garage, Inc. nor the names of its
  18:../Libraries/ROSSerial/stm32hardware.h ****  *    contributors may be used to endorse or promote prducts derived
  19:../Libraries/ROSSerial/stm32hardware.h ****  *    from this software without specific prior written permission.
  20:../Libraries/ROSSerial/stm32hardware.h ****  *
  21:../Libraries/ROSSerial/stm32hardware.h ****  * THIS SOFTWARE IS PROVIDED BY THE COPYRIGHT HOLDERS AND CONTRIBUTORS
  22:../Libraries/ROSSerial/stm32hardware.h ****  * "AS IS" AND ANY EXPRESS OR IMPLIED WARRANTIES, INCLUDING, BUT NOT
  23:../Libraries/ROSSerial/stm32hardware.h ****  * LIMITED TO, THE IMPLIED WARRANTIES OF MERCHANTABILITY AND FITNESS
  24:../Libraries/ROSSerial/stm32hardware.h ****  * FOR A PARTICULAR PURPOSE ARE DISCLAIMED. IN NO EVENT SHALL THE
  25:../Libraries/ROSSerial/stm32hardware.h ****  * COPYRIGHT OWNER OR CONTRIBUTORS BE LIABLE FOR ANY DIRECT, INDIRECT,
  26:../Libraries/ROSSerial/stm32hardware.h ****  * INCIDENTAL, SPECIAL, EXEMPLARY, OR CONSEQUENTIAL DAMAGES (INCLUDING,
  27:../Libraries/ROSSerial/stm32hardware.h ****  * BUT NOT LIMITED TO, PROCUREMENT OF SUBSTITUTE GOODS OR SERVICES;
  28:../Libraries/ROSSerial/stm32hardware.h ****  * LOSS OF USE, DATA, OR PROFITS; OR BUSINESS INTERRUPTION) HOWEVER
  29:../Libraries/ROSSerial/stm32hardware.h ****  * CAUSED AND ON ANY THEORY OF LIABILITY, WHETHER IN CONTRACT, STRICT
  30:../Libraries/ROSSerial/stm32hardware.h ****  * LIABILITY, OR TORT (INCLUDING NEGLIGENCE OR OTHERWISE) ARISING IN
  31:../Libraries/ROSSerial/stm32hardware.h ****  * ANY WAY OUT OF THE USE OF THIS SOFTWARE, EVEN IF ADVISED OF THE
  32:../Libraries/ROSSerial/stm32hardware.h ****  * POSSIBILITY OF SUCH DAMAGE.
  33:../Libraries/ROSSerial/stm32hardware.h ****  */
  34:../Libraries/ROSSerial/stm32hardware.h **** 
  35:../Libraries/ROSSerial/stm32hardware.h **** #ifndef STM32HARDWARE_H_
  36:../Libraries/ROSSerial/stm32hardware.h **** #define STM32HARDWARE_H_
  37:../Libraries/ROSSerial/stm32hardware.h **** 
  38:../Libraries/ROSSerial/stm32hardware.h **** #include "FreeRTOS.h"
ARM GAS  /var/folders/l3/4y5292px21b4835bsnjwqc7w009kq1/T//ccsIHHIW.s 			page 54


  39:../Libraries/ROSSerial/stm32hardware.h **** #include "bsp_uart_fifo.h"
  40:../Libraries/ROSSerial/stm32hardware.h **** #include <stdio.h>
  41:../Libraries/ROSSerial/stm32hardware.h **** 
  42:../Libraries/ROSSerial/stm32hardware.h **** class STM32Hardware
  43:../Libraries/ROSSerial/stm32hardware.h **** {
  44:../Libraries/ROSSerial/stm32hardware.h **** public:
  45:../Libraries/ROSSerial/stm32hardware.h **** 	STM32Hardware()
  46:../Libraries/ROSSerial/stm32hardware.h **** 	{
  47:../Libraries/ROSSerial/stm32hardware.h **** 	}
  48:../Libraries/ROSSerial/stm32hardware.h **** 
  49:../Libraries/ROSSerial/stm32hardware.h **** 	/*
  50:../Libraries/ROSSerial/stm32hardware.h **** 	 * Method: init
  51:../Libraries/ROSSerial/stm32hardware.h **** 	 * ----------------------------
  52:../Libraries/ROSSerial/stm32hardware.h **** 	 *   Initialize the STM32 hardware specific to ROS like UART
  53:../Libraries/ROSSerial/stm32hardware.h **** 	 *   parameters: none
  54:../Libraries/ROSSerial/stm32hardware.h **** 	 *   returns: none
  55:../Libraries/ROSSerial/stm32hardware.h **** 	 */
  56:../Libraries/ROSSerial/stm32hardware.h **** 	void init(void)
  57:../Libraries/ROSSerial/stm32hardware.h **** 	{
  58:../Libraries/ROSSerial/stm32hardware.h **** 
  59:../Libraries/ROSSerial/stm32hardware.h **** 	}
  60:../Libraries/ROSSerial/stm32hardware.h **** 
  61:../Libraries/ROSSerial/stm32hardware.h **** 	/*
  62:../Libraries/ROSSerial/stm32hardware.h ****      * Method: read
  63:../Libraries/ROSSerial/stm32hardware.h **** 	 * ----------------------------
  64:../Libraries/ROSSerial/stm32hardware.h **** 	 *   Read a byte of data from ROS connection
  65:../Libraries/ROSSerial/stm32hardware.h **** 	 *   parameters: none
  66:../Libraries/ROSSerial/stm32hardware.h **** 	 *   returns: data, or -1 if there are no data
  67:../Libraries/ROSSerial/stm32hardware.h **** 	 */
  68:../Libraries/ROSSerial/stm32hardware.h **** 	int read(void)
  69:../Libraries/ROSSerial/stm32hardware.h **** 	{
  70:../Libraries/ROSSerial/stm32hardware.h **** 		uint8_t ucData = -1;
  71:../Libraries/ROSSerial/stm32hardware.h **** 		if(comGetChar(COM1,&ucData) == 0) {
  72:../Libraries/ROSSerial/stm32hardware.h **** 			return -1;
  73:../Libraries/ROSSerial/stm32hardware.h **** 		}
  74:../Libraries/ROSSerial/stm32hardware.h **** 		printf("Got %c\n",ucData);
  75:../Libraries/ROSSerial/stm32hardware.h **** 		return ucData;
  76:../Libraries/ROSSerial/stm32hardware.h **** 	}
  77:../Libraries/ROSSerial/stm32hardware.h **** 
  78:../Libraries/ROSSerial/stm32hardware.h **** 	/*
  79:../Libraries/ROSSerial/stm32hardware.h **** 	 * Method: write
  80:../Libraries/ROSSerial/stm32hardware.h ****      * ----------------------------
  81:../Libraries/ROSSerial/stm32hardware.h **** 	 *   Send data to ROS connection
  82:../Libraries/ROSSerial/stm32hardware.h **** 	 *   parameters: pointer to data array, length of data
  83:../Libraries/ROSSerial/stm32hardware.h **** 	 *   returns: none
  84:../Libraries/ROSSerial/stm32hardware.h **** 	 */
  85:../Libraries/ROSSerial/stm32hardware.h **** 	void write(uint8_t* data, uint32_t length)
  86:../Libraries/ROSSerial/stm32hardware.h **** 	{
  87:../Libraries/ROSSerial/stm32hardware.h **** 		comSendBuf(COM1,data,length);
 1589              		.loc 7 87 0
 1590 0082 AAB2     		uxth	r2, r5
 1591 0084 04F50671 		add	r1, r4, #536
 1592              	.LVL200:
 1593 0088 0020     		movs	r0, #0
 1594 008a FFF7FEFF 		bl	comSendBuf
 1595              	.LVL201:
 1596              	.L86:
ARM GAS  /var/folders/l3/4y5292px21b4835bsnjwqc7w009kq1/T//ccsIHHIW.s 			page 55


 1597              	.LBE151:
 1598              	.LBE150:
 543:../Libraries/ROSSerial/ros/node_handle.h ****     {
 544:../Libraries/ROSSerial/ros/node_handle.h ****       hardware_.write(message_out, l);
 545:../Libraries/ROSSerial/ros/node_handle.h ****       return l;
 546:../Libraries/ROSSerial/ros/node_handle.h ****     }
 547:../Libraries/ROSSerial/ros/node_handle.h ****     else
 548:../Libraries/ROSSerial/ros/node_handle.h ****     {
 549:../Libraries/ROSSerial/ros/node_handle.h ****       logerror("Message from device dropped: message larger than buffer.");
 550:../Libraries/ROSSerial/ros/node_handle.h ****       return -1;
 551:../Libraries/ROSSerial/ros/node_handle.h ****     }
 552:../Libraries/ROSSerial/ros/node_handle.h ****   }
 1599              		.loc 6 552 0
 1600 008e 2846     		mov	r0, r5
 1601 0090 05B0     		add	sp, sp, #20
 1602              	.LCFI11:
 1603              		.cfi_remember_state
 1604              		.cfi_def_cfa_offset 12
 1605              		@ sp needed
 1606 0092 30BD     		pop	{r4, r5, pc}
 1607              	.LVL202:
 1608              	.L91:
 1609              	.LCFI12:
 1610              		.cfi_restore_state
 1611              	.LBB152:
 1612              	.LBB153:
 1613              	.LBB154:
 1614              	.LBB155:
 1615              	.LBB156:
  13:../Libraries/ROSSerial/rosserial_msgs/Log.h ****   {
 1616              		.loc 3 13 0
 1617 0094 084B     		ldr	r3, .L94
 1618 0096 0193     		str	r3, [sp, #4]
 1619              	.LVL203:
 1620              	.LBE156:
 1621              	.LBE155:
 553:../Libraries/ROSSerial/ros/node_handle.h **** 
 554:../Libraries/ROSSerial/ros/node_handle.h ****   /********************************************************************
 555:../Libraries/ROSSerial/ros/node_handle.h ****    * Logging
 556:../Libraries/ROSSerial/ros/node_handle.h ****    */
 557:../Libraries/ROSSerial/ros/node_handle.h **** 
 558:../Libraries/ROSSerial/ros/node_handle.h **** private:
 559:../Libraries/ROSSerial/ros/node_handle.h ****   void log(char byte, const char * msg)
 560:../Libraries/ROSSerial/ros/node_handle.h ****   {
 561:../Libraries/ROSSerial/ros/node_handle.h ****     rosserial_msgs::Log l;
 562:../Libraries/ROSSerial/ros/node_handle.h ****     l.level = byte;
 1622              		.loc 6 562 0
 1623 0098 0323     		movs	r3, #3
 1624 009a 8DF80830 		strb	r3, [sp, #8]
 563:../Libraries/ROSSerial/ros/node_handle.h ****     l.msg = (char*)msg;
 1625              		.loc 6 563 0
 1626 009e 074B     		ldr	r3, .L94+4
 1627 00a0 0393     		str	r3, [sp, #12]
 564:../Libraries/ROSSerial/ros/node_handle.h ****     publish(rosserial_msgs::TopicInfo::ID_LOG, &l);
 1628              		.loc 6 564 0
 1629 00a2 2368     		ldr	r3, [r4]
 1630 00a4 1B68     		ldr	r3, [r3]
ARM GAS  /var/folders/l3/4y5292px21b4835bsnjwqc7w009kq1/T//ccsIHHIW.s 			page 56


 1631 00a6 01AA     		add	r2, sp, #4
 1632 00a8 0721     		movs	r1, #7
 1633 00aa 2046     		mov	r0, r4
 1634 00ac 9847     		blx	r3
 1635              	.LVL204:
 1636              	.LBE154:
 1637              	.LBE153:
 1638              	.LBE152:
 550:../Libraries/ROSSerial/ros/node_handle.h ****     }
 1639              		.loc 6 550 0
 1640 00ae 4FF0FF35 		mov	r5, #-1
 1641              	.LVL205:
 1642 00b2 ECE7     		b	.L86
 1643              	.LVL206:
 1644              	.L92:
 521:../Libraries/ROSSerial/ros/node_handle.h **** 
 1645              		.loc 6 521 0
 1646 00b4 0025     		movs	r5, #0
 1647 00b6 EAE7     		b	.L86
 1648              	.L95:
 1649              		.align	2
 1650              	.L94:
 1651 00b8 08000000 		.word	_ZTVN14rosserial_msgs3LogE+8
 1652 00bc 00000000 		.word	.LC8
 1653              		.cfi_endproc
 1654              	.LFE492:
 1655              		.fnend
 1657              		.section	.text.main,"ax",%progbits
 1658              		.align	1
 1659              		.global	main
 1660              		.syntax unified
 1661              		.thumb
 1662              		.thumb_func
 1663              		.fpu fpv4-sp-d16
 1665              	main:
 1666              		.fnstart
 1667              	.LFB467:
  78:Src/main.cpp  **** 	__set_PRIMASK(1); //disable global interrupts 
 1668              		.loc 5 78 0
 1669              		.cfi_startproc
 1670              		@ args = 0, pretend = 0, frame = 0
 1671              		@ frame_needed = 0, uses_anonymous_args = 0
 1672 0000 10B5     		push	{r4, lr}
 1673              		.save {r4, lr}
 1674              	.LCFI13:
 1675              		.cfi_def_cfa_offset 8
 1676              		.cfi_offset 4, -8
 1677              		.cfi_offset 14, -4
 1678              	.LVL207:
 1679              	.LBB157:
 1680              	.LBB158:
 1681              		.file 8 "../Libraries/CMSIS/CM4/CoreSupport/cmsis_gcc.h"
   1:../Libraries/CMSIS/CM4/CoreSupport/cmsis_gcc.h **** /**************************************************************************//**
   2:../Libraries/CMSIS/CM4/CoreSupport/cmsis_gcc.h ****  * @file     cmsis_gcc.h
   3:../Libraries/CMSIS/CM4/CoreSupport/cmsis_gcc.h ****  * @brief    CMSIS Cortex-M Core Function/Instruction Header File
   4:../Libraries/CMSIS/CM4/CoreSupport/cmsis_gcc.h ****  * @version  V4.30
   5:../Libraries/CMSIS/CM4/CoreSupport/cmsis_gcc.h ****  * @date     20. October 2015
ARM GAS  /var/folders/l3/4y5292px21b4835bsnjwqc7w009kq1/T//ccsIHHIW.s 			page 57


   6:../Libraries/CMSIS/CM4/CoreSupport/cmsis_gcc.h ****  ******************************************************************************/
   7:../Libraries/CMSIS/CM4/CoreSupport/cmsis_gcc.h **** /* Copyright (c) 2009 - 2015 ARM LIMITED
   8:../Libraries/CMSIS/CM4/CoreSupport/cmsis_gcc.h **** 
   9:../Libraries/CMSIS/CM4/CoreSupport/cmsis_gcc.h ****    All rights reserved.
  10:../Libraries/CMSIS/CM4/CoreSupport/cmsis_gcc.h ****    Redistribution and use in source and binary forms, with or without
  11:../Libraries/CMSIS/CM4/CoreSupport/cmsis_gcc.h ****    modification, are permitted provided that the following conditions are met:
  12:../Libraries/CMSIS/CM4/CoreSupport/cmsis_gcc.h ****    - Redistributions of source code must retain the above copyright
  13:../Libraries/CMSIS/CM4/CoreSupport/cmsis_gcc.h ****      notice, this list of conditions and the following disclaimer.
  14:../Libraries/CMSIS/CM4/CoreSupport/cmsis_gcc.h ****    - Redistributions in binary form must reproduce the above copyright
  15:../Libraries/CMSIS/CM4/CoreSupport/cmsis_gcc.h ****      notice, this list of conditions and the following disclaimer in the
  16:../Libraries/CMSIS/CM4/CoreSupport/cmsis_gcc.h ****      documentation and/or other materials provided with the distribution.
  17:../Libraries/CMSIS/CM4/CoreSupport/cmsis_gcc.h ****    - Neither the name of ARM nor the names of its contributors may be used
  18:../Libraries/CMSIS/CM4/CoreSupport/cmsis_gcc.h ****      to endorse or promote products derived from this software without
  19:../Libraries/CMSIS/CM4/CoreSupport/cmsis_gcc.h ****      specific prior written permission.
  20:../Libraries/CMSIS/CM4/CoreSupport/cmsis_gcc.h ****    *
  21:../Libraries/CMSIS/CM4/CoreSupport/cmsis_gcc.h ****    THIS SOFTWARE IS PROVIDED BY THE COPYRIGHT HOLDERS AND CONTRIBUTORS "AS IS"
  22:../Libraries/CMSIS/CM4/CoreSupport/cmsis_gcc.h ****    AND ANY EXPRESS OR IMPLIED WARRANTIES, INCLUDING, BUT NOT LIMITED TO, THE
  23:../Libraries/CMSIS/CM4/CoreSupport/cmsis_gcc.h ****    IMPLIED WARRANTIES OF MERCHANTABILITY AND FITNESS FOR A PARTICULAR PURPOSE
  24:../Libraries/CMSIS/CM4/CoreSupport/cmsis_gcc.h ****    ARE DISCLAIMED. IN NO EVENT SHALL COPYRIGHT HOLDERS AND CONTRIBUTORS BE
  25:../Libraries/CMSIS/CM4/CoreSupport/cmsis_gcc.h ****    LIABLE FOR ANY DIRECT, INDIRECT, INCIDENTAL, SPECIAL, EXEMPLARY, OR
  26:../Libraries/CMSIS/CM4/CoreSupport/cmsis_gcc.h ****    CONSEQUENTIAL DAMAGES (INCLUDING, BUT NOT LIMITED TO, PROCUREMENT OF
  27:../Libraries/CMSIS/CM4/CoreSupport/cmsis_gcc.h ****    SUBSTITUTE GOODS OR SERVICES; LOSS OF USE, DATA, OR PROFITS; OR BUSINESS
  28:../Libraries/CMSIS/CM4/CoreSupport/cmsis_gcc.h ****    INTERRUPTION) HOWEVER CAUSED AND ON ANY THEORY OF LIABILITY, WHETHER IN
  29:../Libraries/CMSIS/CM4/CoreSupport/cmsis_gcc.h ****    CONTRACT, STRICT LIABILITY, OR TORT (INCLUDING NEGLIGENCE OR OTHERWISE)
  30:../Libraries/CMSIS/CM4/CoreSupport/cmsis_gcc.h ****    ARISING IN ANY WAY OUT OF THE USE OF THIS SOFTWARE, EVEN IF ADVISED OF THE
  31:../Libraries/CMSIS/CM4/CoreSupport/cmsis_gcc.h ****    POSSIBILITY OF SUCH DAMAGE.
  32:../Libraries/CMSIS/CM4/CoreSupport/cmsis_gcc.h ****    ---------------------------------------------------------------------------*/
  33:../Libraries/CMSIS/CM4/CoreSupport/cmsis_gcc.h **** 
  34:../Libraries/CMSIS/CM4/CoreSupport/cmsis_gcc.h **** 
  35:../Libraries/CMSIS/CM4/CoreSupport/cmsis_gcc.h **** #ifndef __CMSIS_GCC_H
  36:../Libraries/CMSIS/CM4/CoreSupport/cmsis_gcc.h **** #define __CMSIS_GCC_H
  37:../Libraries/CMSIS/CM4/CoreSupport/cmsis_gcc.h **** 
  38:../Libraries/CMSIS/CM4/CoreSupport/cmsis_gcc.h **** /* ignore some GCC warnings */
  39:../Libraries/CMSIS/CM4/CoreSupport/cmsis_gcc.h **** #if defined ( __GNUC__ )
  40:../Libraries/CMSIS/CM4/CoreSupport/cmsis_gcc.h **** #pragma GCC diagnostic push
  41:../Libraries/CMSIS/CM4/CoreSupport/cmsis_gcc.h **** #pragma GCC diagnostic ignored "-Wsign-conversion"
  42:../Libraries/CMSIS/CM4/CoreSupport/cmsis_gcc.h **** #pragma GCC diagnostic ignored "-Wconversion"
  43:../Libraries/CMSIS/CM4/CoreSupport/cmsis_gcc.h **** #pragma GCC diagnostic ignored "-Wunused-parameter"
  44:../Libraries/CMSIS/CM4/CoreSupport/cmsis_gcc.h **** #endif
  45:../Libraries/CMSIS/CM4/CoreSupport/cmsis_gcc.h **** 
  46:../Libraries/CMSIS/CM4/CoreSupport/cmsis_gcc.h **** 
  47:../Libraries/CMSIS/CM4/CoreSupport/cmsis_gcc.h **** /* ###########################  Core Function Access  ########################### */
  48:../Libraries/CMSIS/CM4/CoreSupport/cmsis_gcc.h **** /** \ingroup  CMSIS_Core_FunctionInterface
  49:../Libraries/CMSIS/CM4/CoreSupport/cmsis_gcc.h ****     \defgroup CMSIS_Core_RegAccFunctions CMSIS Core Register Access Functions
  50:../Libraries/CMSIS/CM4/CoreSupport/cmsis_gcc.h ****   @{
  51:../Libraries/CMSIS/CM4/CoreSupport/cmsis_gcc.h ****  */
  52:../Libraries/CMSIS/CM4/CoreSupport/cmsis_gcc.h **** 
  53:../Libraries/CMSIS/CM4/CoreSupport/cmsis_gcc.h **** /**
  54:../Libraries/CMSIS/CM4/CoreSupport/cmsis_gcc.h ****   \brief   Enable IRQ Interrupts
  55:../Libraries/CMSIS/CM4/CoreSupport/cmsis_gcc.h ****   \details Enables IRQ interrupts by clearing the I-bit in the CPSR.
  56:../Libraries/CMSIS/CM4/CoreSupport/cmsis_gcc.h ****            Can only be executed in Privileged modes.
  57:../Libraries/CMSIS/CM4/CoreSupport/cmsis_gcc.h ****  */
  58:../Libraries/CMSIS/CM4/CoreSupport/cmsis_gcc.h **** __attribute__( ( always_inline ) ) __STATIC_INLINE void __enable_irq(void)
  59:../Libraries/CMSIS/CM4/CoreSupport/cmsis_gcc.h **** {
  60:../Libraries/CMSIS/CM4/CoreSupport/cmsis_gcc.h ****   __ASM volatile ("cpsie i" : : : "memory");
  61:../Libraries/CMSIS/CM4/CoreSupport/cmsis_gcc.h **** }
  62:../Libraries/CMSIS/CM4/CoreSupport/cmsis_gcc.h **** 
ARM GAS  /var/folders/l3/4y5292px21b4835bsnjwqc7w009kq1/T//ccsIHHIW.s 			page 58


  63:../Libraries/CMSIS/CM4/CoreSupport/cmsis_gcc.h **** 
  64:../Libraries/CMSIS/CM4/CoreSupport/cmsis_gcc.h **** /**
  65:../Libraries/CMSIS/CM4/CoreSupport/cmsis_gcc.h ****   \brief   Disable IRQ Interrupts
  66:../Libraries/CMSIS/CM4/CoreSupport/cmsis_gcc.h ****   \details Disables IRQ interrupts by setting the I-bit in the CPSR.
  67:../Libraries/CMSIS/CM4/CoreSupport/cmsis_gcc.h ****   Can only be executed in Privileged modes.
  68:../Libraries/CMSIS/CM4/CoreSupport/cmsis_gcc.h ****  */
  69:../Libraries/CMSIS/CM4/CoreSupport/cmsis_gcc.h **** __attribute__( ( always_inline ) ) __STATIC_INLINE void __disable_irq(void)
  70:../Libraries/CMSIS/CM4/CoreSupport/cmsis_gcc.h **** {
  71:../Libraries/CMSIS/CM4/CoreSupport/cmsis_gcc.h ****   __ASM volatile ("cpsid i" : : : "memory");
  72:../Libraries/CMSIS/CM4/CoreSupport/cmsis_gcc.h **** }
  73:../Libraries/CMSIS/CM4/CoreSupport/cmsis_gcc.h **** 
  74:../Libraries/CMSIS/CM4/CoreSupport/cmsis_gcc.h **** 
  75:../Libraries/CMSIS/CM4/CoreSupport/cmsis_gcc.h **** /**
  76:../Libraries/CMSIS/CM4/CoreSupport/cmsis_gcc.h ****   \brief   Get Control Register
  77:../Libraries/CMSIS/CM4/CoreSupport/cmsis_gcc.h ****   \details Returns the content of the Control Register.
  78:../Libraries/CMSIS/CM4/CoreSupport/cmsis_gcc.h ****   \return               Control Register value
  79:../Libraries/CMSIS/CM4/CoreSupport/cmsis_gcc.h ****  */
  80:../Libraries/CMSIS/CM4/CoreSupport/cmsis_gcc.h **** __attribute__( ( always_inline ) ) __STATIC_INLINE uint32_t __get_CONTROL(void)
  81:../Libraries/CMSIS/CM4/CoreSupport/cmsis_gcc.h **** {
  82:../Libraries/CMSIS/CM4/CoreSupport/cmsis_gcc.h ****   uint32_t result;
  83:../Libraries/CMSIS/CM4/CoreSupport/cmsis_gcc.h **** 
  84:../Libraries/CMSIS/CM4/CoreSupport/cmsis_gcc.h ****   __ASM volatile ("MRS %0, control" : "=r" (result) );
  85:../Libraries/CMSIS/CM4/CoreSupport/cmsis_gcc.h ****   return(result);
  86:../Libraries/CMSIS/CM4/CoreSupport/cmsis_gcc.h **** }
  87:../Libraries/CMSIS/CM4/CoreSupport/cmsis_gcc.h **** 
  88:../Libraries/CMSIS/CM4/CoreSupport/cmsis_gcc.h **** 
  89:../Libraries/CMSIS/CM4/CoreSupport/cmsis_gcc.h **** /**
  90:../Libraries/CMSIS/CM4/CoreSupport/cmsis_gcc.h ****   \brief   Set Control Register
  91:../Libraries/CMSIS/CM4/CoreSupport/cmsis_gcc.h ****   \details Writes the given value to the Control Register.
  92:../Libraries/CMSIS/CM4/CoreSupport/cmsis_gcc.h ****   \param [in]    control  Control Register value to set
  93:../Libraries/CMSIS/CM4/CoreSupport/cmsis_gcc.h ****  */
  94:../Libraries/CMSIS/CM4/CoreSupport/cmsis_gcc.h **** __attribute__( ( always_inline ) ) __STATIC_INLINE void __set_CONTROL(uint32_t control)
  95:../Libraries/CMSIS/CM4/CoreSupport/cmsis_gcc.h **** {
  96:../Libraries/CMSIS/CM4/CoreSupport/cmsis_gcc.h ****   __ASM volatile ("MSR control, %0" : : "r" (control) : "memory");
  97:../Libraries/CMSIS/CM4/CoreSupport/cmsis_gcc.h **** }
  98:../Libraries/CMSIS/CM4/CoreSupport/cmsis_gcc.h **** 
  99:../Libraries/CMSIS/CM4/CoreSupport/cmsis_gcc.h **** 
 100:../Libraries/CMSIS/CM4/CoreSupport/cmsis_gcc.h **** /**
 101:../Libraries/CMSIS/CM4/CoreSupport/cmsis_gcc.h ****   \brief   Get IPSR Register
 102:../Libraries/CMSIS/CM4/CoreSupport/cmsis_gcc.h ****   \details Returns the content of the IPSR Register.
 103:../Libraries/CMSIS/CM4/CoreSupport/cmsis_gcc.h ****   \return               IPSR Register value
 104:../Libraries/CMSIS/CM4/CoreSupport/cmsis_gcc.h ****  */
 105:../Libraries/CMSIS/CM4/CoreSupport/cmsis_gcc.h **** __attribute__( ( always_inline ) ) __STATIC_INLINE uint32_t __get_IPSR(void)
 106:../Libraries/CMSIS/CM4/CoreSupport/cmsis_gcc.h **** {
 107:../Libraries/CMSIS/CM4/CoreSupport/cmsis_gcc.h ****   uint32_t result;
 108:../Libraries/CMSIS/CM4/CoreSupport/cmsis_gcc.h **** 
 109:../Libraries/CMSIS/CM4/CoreSupport/cmsis_gcc.h ****   __ASM volatile ("MRS %0, ipsr" : "=r" (result) );
 110:../Libraries/CMSIS/CM4/CoreSupport/cmsis_gcc.h ****   return(result);
 111:../Libraries/CMSIS/CM4/CoreSupport/cmsis_gcc.h **** }
 112:../Libraries/CMSIS/CM4/CoreSupport/cmsis_gcc.h **** 
 113:../Libraries/CMSIS/CM4/CoreSupport/cmsis_gcc.h **** 
 114:../Libraries/CMSIS/CM4/CoreSupport/cmsis_gcc.h **** /**
 115:../Libraries/CMSIS/CM4/CoreSupport/cmsis_gcc.h ****   \brief   Get APSR Register
 116:../Libraries/CMSIS/CM4/CoreSupport/cmsis_gcc.h ****   \details Returns the content of the APSR Register.
 117:../Libraries/CMSIS/CM4/CoreSupport/cmsis_gcc.h ****   \return               APSR Register value
 118:../Libraries/CMSIS/CM4/CoreSupport/cmsis_gcc.h ****  */
 119:../Libraries/CMSIS/CM4/CoreSupport/cmsis_gcc.h **** __attribute__( ( always_inline ) ) __STATIC_INLINE uint32_t __get_APSR(void)
ARM GAS  /var/folders/l3/4y5292px21b4835bsnjwqc7w009kq1/T//ccsIHHIW.s 			page 59


 120:../Libraries/CMSIS/CM4/CoreSupport/cmsis_gcc.h **** {
 121:../Libraries/CMSIS/CM4/CoreSupport/cmsis_gcc.h ****   uint32_t result;
 122:../Libraries/CMSIS/CM4/CoreSupport/cmsis_gcc.h **** 
 123:../Libraries/CMSIS/CM4/CoreSupport/cmsis_gcc.h ****   __ASM volatile ("MRS %0, apsr" : "=r" (result) );
 124:../Libraries/CMSIS/CM4/CoreSupport/cmsis_gcc.h ****   return(result);
 125:../Libraries/CMSIS/CM4/CoreSupport/cmsis_gcc.h **** }
 126:../Libraries/CMSIS/CM4/CoreSupport/cmsis_gcc.h **** 
 127:../Libraries/CMSIS/CM4/CoreSupport/cmsis_gcc.h **** 
 128:../Libraries/CMSIS/CM4/CoreSupport/cmsis_gcc.h **** /**
 129:../Libraries/CMSIS/CM4/CoreSupport/cmsis_gcc.h ****   \brief   Get xPSR Register
 130:../Libraries/CMSIS/CM4/CoreSupport/cmsis_gcc.h ****   \details Returns the content of the xPSR Register.
 131:../Libraries/CMSIS/CM4/CoreSupport/cmsis_gcc.h **** 
 132:../Libraries/CMSIS/CM4/CoreSupport/cmsis_gcc.h ****     \return               xPSR Register value
 133:../Libraries/CMSIS/CM4/CoreSupport/cmsis_gcc.h ****  */
 134:../Libraries/CMSIS/CM4/CoreSupport/cmsis_gcc.h **** __attribute__( ( always_inline ) ) __STATIC_INLINE uint32_t __get_xPSR(void)
 135:../Libraries/CMSIS/CM4/CoreSupport/cmsis_gcc.h **** {
 136:../Libraries/CMSIS/CM4/CoreSupport/cmsis_gcc.h ****   uint32_t result;
 137:../Libraries/CMSIS/CM4/CoreSupport/cmsis_gcc.h **** 
 138:../Libraries/CMSIS/CM4/CoreSupport/cmsis_gcc.h ****   __ASM volatile ("MRS %0, xpsr" : "=r" (result) );
 139:../Libraries/CMSIS/CM4/CoreSupport/cmsis_gcc.h ****   return(result);
 140:../Libraries/CMSIS/CM4/CoreSupport/cmsis_gcc.h **** }
 141:../Libraries/CMSIS/CM4/CoreSupport/cmsis_gcc.h **** 
 142:../Libraries/CMSIS/CM4/CoreSupport/cmsis_gcc.h **** 
 143:../Libraries/CMSIS/CM4/CoreSupport/cmsis_gcc.h **** /**
 144:../Libraries/CMSIS/CM4/CoreSupport/cmsis_gcc.h ****   \brief   Get Process Stack Pointer
 145:../Libraries/CMSIS/CM4/CoreSupport/cmsis_gcc.h ****   \details Returns the current value of the Process Stack Pointer (PSP).
 146:../Libraries/CMSIS/CM4/CoreSupport/cmsis_gcc.h ****   \return               PSP Register value
 147:../Libraries/CMSIS/CM4/CoreSupport/cmsis_gcc.h ****  */
 148:../Libraries/CMSIS/CM4/CoreSupport/cmsis_gcc.h **** __attribute__( ( always_inline ) ) __STATIC_INLINE uint32_t __get_PSP(void)
 149:../Libraries/CMSIS/CM4/CoreSupport/cmsis_gcc.h **** {
 150:../Libraries/CMSIS/CM4/CoreSupport/cmsis_gcc.h ****   register uint32_t result;
 151:../Libraries/CMSIS/CM4/CoreSupport/cmsis_gcc.h **** 
 152:../Libraries/CMSIS/CM4/CoreSupport/cmsis_gcc.h ****   __ASM volatile ("MRS %0, psp\n"  : "=r" (result) );
 153:../Libraries/CMSIS/CM4/CoreSupport/cmsis_gcc.h ****   return(result);
 154:../Libraries/CMSIS/CM4/CoreSupport/cmsis_gcc.h **** }
 155:../Libraries/CMSIS/CM4/CoreSupport/cmsis_gcc.h **** 
 156:../Libraries/CMSIS/CM4/CoreSupport/cmsis_gcc.h **** 
 157:../Libraries/CMSIS/CM4/CoreSupport/cmsis_gcc.h **** /**
 158:../Libraries/CMSIS/CM4/CoreSupport/cmsis_gcc.h ****   \brief   Set Process Stack Pointer
 159:../Libraries/CMSIS/CM4/CoreSupport/cmsis_gcc.h ****   \details Assigns the given value to the Process Stack Pointer (PSP).
 160:../Libraries/CMSIS/CM4/CoreSupport/cmsis_gcc.h ****   \param [in]    topOfProcStack  Process Stack Pointer value to set
 161:../Libraries/CMSIS/CM4/CoreSupport/cmsis_gcc.h ****  */
 162:../Libraries/CMSIS/CM4/CoreSupport/cmsis_gcc.h **** __attribute__( ( always_inline ) ) __STATIC_INLINE void __set_PSP(uint32_t topOfProcStack)
 163:../Libraries/CMSIS/CM4/CoreSupport/cmsis_gcc.h **** {
 164:../Libraries/CMSIS/CM4/CoreSupport/cmsis_gcc.h ****   __ASM volatile ("MSR psp, %0\n" : : "r" (topOfProcStack) : "sp");
 165:../Libraries/CMSIS/CM4/CoreSupport/cmsis_gcc.h **** }
 166:../Libraries/CMSIS/CM4/CoreSupport/cmsis_gcc.h **** 
 167:../Libraries/CMSIS/CM4/CoreSupport/cmsis_gcc.h **** 
 168:../Libraries/CMSIS/CM4/CoreSupport/cmsis_gcc.h **** /**
 169:../Libraries/CMSIS/CM4/CoreSupport/cmsis_gcc.h ****   \brief   Get Main Stack Pointer
 170:../Libraries/CMSIS/CM4/CoreSupport/cmsis_gcc.h ****   \details Returns the current value of the Main Stack Pointer (MSP).
 171:../Libraries/CMSIS/CM4/CoreSupport/cmsis_gcc.h ****   \return               MSP Register value
 172:../Libraries/CMSIS/CM4/CoreSupport/cmsis_gcc.h ****  */
 173:../Libraries/CMSIS/CM4/CoreSupport/cmsis_gcc.h **** __attribute__( ( always_inline ) ) __STATIC_INLINE uint32_t __get_MSP(void)
 174:../Libraries/CMSIS/CM4/CoreSupport/cmsis_gcc.h **** {
 175:../Libraries/CMSIS/CM4/CoreSupport/cmsis_gcc.h ****   register uint32_t result;
 176:../Libraries/CMSIS/CM4/CoreSupport/cmsis_gcc.h **** 
ARM GAS  /var/folders/l3/4y5292px21b4835bsnjwqc7w009kq1/T//ccsIHHIW.s 			page 60


 177:../Libraries/CMSIS/CM4/CoreSupport/cmsis_gcc.h ****   __ASM volatile ("MRS %0, msp\n" : "=r" (result) );
 178:../Libraries/CMSIS/CM4/CoreSupport/cmsis_gcc.h ****   return(result);
 179:../Libraries/CMSIS/CM4/CoreSupport/cmsis_gcc.h **** }
 180:../Libraries/CMSIS/CM4/CoreSupport/cmsis_gcc.h **** 
 181:../Libraries/CMSIS/CM4/CoreSupport/cmsis_gcc.h **** 
 182:../Libraries/CMSIS/CM4/CoreSupport/cmsis_gcc.h **** /**
 183:../Libraries/CMSIS/CM4/CoreSupport/cmsis_gcc.h ****   \brief   Set Main Stack Pointer
 184:../Libraries/CMSIS/CM4/CoreSupport/cmsis_gcc.h ****   \details Assigns the given value to the Main Stack Pointer (MSP).
 185:../Libraries/CMSIS/CM4/CoreSupport/cmsis_gcc.h **** 
 186:../Libraries/CMSIS/CM4/CoreSupport/cmsis_gcc.h ****     \param [in]    topOfMainStack  Main Stack Pointer value to set
 187:../Libraries/CMSIS/CM4/CoreSupport/cmsis_gcc.h ****  */
 188:../Libraries/CMSIS/CM4/CoreSupport/cmsis_gcc.h **** __attribute__( ( always_inline ) ) __STATIC_INLINE void __set_MSP(uint32_t topOfMainStack)
 189:../Libraries/CMSIS/CM4/CoreSupport/cmsis_gcc.h **** {
 190:../Libraries/CMSIS/CM4/CoreSupport/cmsis_gcc.h ****   __ASM volatile ("MSR msp, %0\n" : : "r" (topOfMainStack) : "sp");
 191:../Libraries/CMSIS/CM4/CoreSupport/cmsis_gcc.h **** }
 192:../Libraries/CMSIS/CM4/CoreSupport/cmsis_gcc.h **** 
 193:../Libraries/CMSIS/CM4/CoreSupport/cmsis_gcc.h **** 
 194:../Libraries/CMSIS/CM4/CoreSupport/cmsis_gcc.h **** /**
 195:../Libraries/CMSIS/CM4/CoreSupport/cmsis_gcc.h ****   \brief   Get Priority Mask
 196:../Libraries/CMSIS/CM4/CoreSupport/cmsis_gcc.h ****   \details Returns the current state of the priority mask bit from the Priority Mask Register.
 197:../Libraries/CMSIS/CM4/CoreSupport/cmsis_gcc.h ****   \return               Priority Mask value
 198:../Libraries/CMSIS/CM4/CoreSupport/cmsis_gcc.h ****  */
 199:../Libraries/CMSIS/CM4/CoreSupport/cmsis_gcc.h **** __attribute__( ( always_inline ) ) __STATIC_INLINE uint32_t __get_PRIMASK(void)
 200:../Libraries/CMSIS/CM4/CoreSupport/cmsis_gcc.h **** {
 201:../Libraries/CMSIS/CM4/CoreSupport/cmsis_gcc.h ****   uint32_t result;
 202:../Libraries/CMSIS/CM4/CoreSupport/cmsis_gcc.h **** 
 203:../Libraries/CMSIS/CM4/CoreSupport/cmsis_gcc.h ****   __ASM volatile ("MRS %0, primask" : "=r" (result) );
 204:../Libraries/CMSIS/CM4/CoreSupport/cmsis_gcc.h ****   return(result);
 205:../Libraries/CMSIS/CM4/CoreSupport/cmsis_gcc.h **** }
 206:../Libraries/CMSIS/CM4/CoreSupport/cmsis_gcc.h **** 
 207:../Libraries/CMSIS/CM4/CoreSupport/cmsis_gcc.h **** 
 208:../Libraries/CMSIS/CM4/CoreSupport/cmsis_gcc.h **** /**
 209:../Libraries/CMSIS/CM4/CoreSupport/cmsis_gcc.h ****   \brief   Set Priority Mask
 210:../Libraries/CMSIS/CM4/CoreSupport/cmsis_gcc.h ****   \details Assigns the given value to the Priority Mask Register.
 211:../Libraries/CMSIS/CM4/CoreSupport/cmsis_gcc.h ****   \param [in]    priMask  Priority Mask
 212:../Libraries/CMSIS/CM4/CoreSupport/cmsis_gcc.h ****  */
 213:../Libraries/CMSIS/CM4/CoreSupport/cmsis_gcc.h **** __attribute__( ( always_inline ) ) __STATIC_INLINE void __set_PRIMASK(uint32_t priMask)
 214:../Libraries/CMSIS/CM4/CoreSupport/cmsis_gcc.h **** {
 215:../Libraries/CMSIS/CM4/CoreSupport/cmsis_gcc.h ****   __ASM volatile ("MSR primask, %0" : : "r" (priMask) : "memory");
 1682              		.loc 8 215 0
 1683 0002 0123     		movs	r3, #1
 1684              		.syntax unified
 1685              	@ 215 "../Libraries/CMSIS/CM4/CoreSupport/cmsis_gcc.h" 1
 1686 0004 83F31088 		MSR primask, r3
 1687              	@ 0 "" 2
 1688              	.LVL208:
 1689              		.thumb
 1690              		.syntax unified
 1691              	.LBE158:
 1692              	.LBE157:
  82:Src/main.cpp  **** 
 1693              		.loc 5 82 0
 1694 0008 FFF7FEFF 		bl	bsp_Init
 1695              	.LVL209:
 1696              	.LBB159:
 1697              	.LBB160:
 162:../Libraries/ROSSerial/ros/node_handle.h ****     bytes_ = 0;
ARM GAS  /var/folders/l3/4y5292px21b4835bsnjwqc7w009kq1/T//ccsIHHIW.s 			page 61


 1698              		.loc 6 162 0
 1699 000c 0B4C     		ldr	r4, .L101
 1700 000e 0023     		movs	r3, #0
 1701 0010 C4F84034 		str	r3, [r4, #1088]
 163:../Libraries/ROSSerial/ros/node_handle.h ****     index_ = 0;
 1702              		.loc 6 163 0
 1703 0014 C4F84434 		str	r3, [r4, #1092]
 164:../Libraries/ROSSerial/ros/node_handle.h ****     topic_ = 0;
 1704              		.loc 6 164 0
 1705 0018 C4F84C34 		str	r3, [r4, #1100]
 165:../Libraries/ROSSerial/ros/node_handle.h ****     printf("Node init\n");
 1706              		.loc 6 165 0
 1707 001c C4F84834 		str	r3, [r4, #1096]
 166:../Libraries/ROSSerial/ros/node_handle.h ****   };
 1708              		.loc 6 166 0
 1709 0020 0748     		ldr	r0, .L101+4
 1710 0022 FFF7FEFF 		bl	puts
 1711              	.LVL210:
 1712              	.LBE160:
 1713              	.LBE159:
  88:Src/main.cpp  ****     {
 1714              		.loc 5 88 0
 1715 0026 2046     		mov	r0, r4
 1716 0028 FFF7FEFF 		bl	_Z15rosSpinTaskInitPN3ros11NodeHandle_I13STM32HardwareLi5ELi5ELi512ELi512EEE
 1717              	.LVL211:
 1718 002c 00B1     		cbz	r0, .L97
 1719              	.L98:
 1720 002e FEE7     		b	.L98
 1721              	.L97:
 118:Src/main.cpp  **** 	
 1722              		.loc 5 118 0
 1723 0030 FFF7FEFF 		bl	_ZL12AppObjCreatev
 1724              	.LVL212:
 121:Src/main.cpp  **** 
 1725              		.loc 5 121 0
 1726 0034 FFF7FEFF 		bl	vTaskStartScheduler
 1727              	.LVL213:
 1728              	.L99:
 1729 0038 FEE7     		b	.L99
 1730              	.L102:
 1731 003a 00BF     		.align	2
 1732              	.L101:
 1733 003c 00000000 		.word	.LANCHOR1
 1734 0040 00000000 		.word	.LC9
 1735              		.cfi_endproc
 1736              	.LFE467:
 1737              		.fnend
 1739              		.section	.text._Z10App_PrintfPKcz,"ax",%progbits
 1740              		.align	1
 1741              		.global	_Z10App_PrintfPKcz
 1742              		.syntax unified
 1743              		.thumb
 1744              		.thumb_func
 1745              		.fpu fpv4-sp-d16
 1747              	_Z10App_PrintfPKcz:
 1748              		.fnstart
 1749              	.LFB473:
ARM GAS  /var/folders/l3/4y5292px21b4835bsnjwqc7w009kq1/T//ccsIHHIW.s 			page 62


 279:Src/main.cpp  ****     char buf_str[200+1];//max number contain character is 200
 1750              		.loc 5 279 0
 1751              		.cfi_startproc
 1752              		@ args = 4, pretend = 16, frame = 208
 1753              		@ frame_needed = 0, uses_anonymous_args = 1
 1754              	.LVL214:
 1755 0000 0FB4     		push	{r0, r1, r2, r3}
 1756              		.save {r0, r1, r2, r3}
 1757              	.LCFI14:
 1758              		.cfi_def_cfa_offset 16
 1759              		.cfi_offset 0, -16
 1760              		.cfi_offset 1, -12
 1761              		.cfi_offset 2, -8
 1762              		.cfi_offset 3, -4
 1763 0002 10B5     		push	{r4, lr}
 1764              		.save {r4, lr}
 1765              	.LCFI15:
 1766              		.cfi_def_cfa_offset 24
 1767              		.cfi_offset 4, -24
 1768              		.cfi_offset 14, -20
 1769              		.pad #208
 1770 0004 B4B0     		sub	sp, sp, #208
 1771              	.LCFI16:
 1772              		.cfi_def_cfa_offset 232
 1773 0006 36AB     		add	r3, sp, #216
 1774 0008 53F8042B 		ldr	r2, [r3], #4
 283:Src/main.cpp  ****     
 1775              		.loc 5 283 0
 1776 000c 0093     		str	r3, [sp]
 285:Src/main.cpp  ****                     (size_t)sizeof(buf_str),
 1777              		.loc 5 285 0
 1778 000e C921     		movs	r1, #201
 1779 0010 01A8     		add	r0, sp, #4
 1780 0012 FFF7FEFF 		bl	vsnprintf
 1781              	.LVL215:
 291:Src/main.cpp  ****     printf("%s", buf_str);
 1782              		.loc 5 291 0
 1783 0016 0B4C     		ldr	r4, .L105
 1784 0018 0023     		movs	r3, #0
 1785 001a 4FF0FF32 		mov	r2, #-1
 1786 001e 1946     		mov	r1, r3
 1787 0020 2068     		ldr	r0, [r4]
 1788 0022 FFF7FEFF 		bl	xQueueGenericReceive
 1789              	.LVL216:
 292:Src/main.cpp  ****     xSemaphoreGive(xHandleMutexPrint);//the mutex must be given back
 1790              		.loc 5 292 0
 1791 0026 01A9     		add	r1, sp, #4
 1792 0028 0748     		ldr	r0, .L105+4
 1793 002a FFF7FEFF 		bl	printf
 1794              	.LVL217:
 293:Src/main.cpp  **** }
 1795              		.loc 5 293 0
 1796 002e 0023     		movs	r3, #0
 1797 0030 1A46     		mov	r2, r3
 1798 0032 1946     		mov	r1, r3
 1799 0034 2068     		ldr	r0, [r4]
 1800 0036 FFF7FEFF 		bl	xQueueGenericSend
ARM GAS  /var/folders/l3/4y5292px21b4835bsnjwqc7w009kq1/T//ccsIHHIW.s 			page 63


 1801              	.LVL218:
 294:Src/main.cpp  **** 
 1802              		.loc 5 294 0
 1803 003a 34B0     		add	sp, sp, #208
 1804              	.LCFI17:
 1805              		.cfi_def_cfa_offset 24
 1806              		@ sp needed
 1807 003c BDE81040 		pop	{r4, lr}
 1808              	.LCFI18:
 1809              		.cfi_restore 14
 1810              		.cfi_restore 4
 1811              		.cfi_def_cfa_offset 16
 1812 0040 04B0     		add	sp, sp, #16
 1813              	.LCFI19:
 1814              		.cfi_restore 3
 1815              		.cfi_restore 2
 1816              		.cfi_restore 1
 1817              		.cfi_restore 0
 1818              		.cfi_def_cfa_offset 0
 1819 0042 7047     		bx	lr
 1820              	.L106:
 1821              		.align	2
 1822              	.L105:
 1823 0044 00000000 		.word	.LANCHOR2
 1824 0048 00000000 		.word	.LC10
 1825              		.cfi_endproc
 1826              	.LFE473:
 1827              		.fnend
 1829              		.section	.text.vApplicationMallocFailedHook,"ax",%progbits
 1830              		.align	1
 1831              		.global	vApplicationMallocFailedHook
 1832              		.syntax unified
 1833              		.thumb
 1834              		.thumb_func
 1835              		.fpu fpv4-sp-d16
 1837              	vApplicationMallocFailedHook:
 1838              		.fnstart
 1839              	.LFB476:
 349:Src/main.cpp  ****     while(1);
 1840              		.loc 5 349 0
 1841              		.cfi_startproc
 1842              		@ Volatile: function does not return.
 1843              		@ args = 0, pretend = 0, frame = 0
 1844              		@ frame_needed = 0, uses_anonymous_args = 0
 1845              		@ link register save eliminated.
 1846              	.L108:
 1847 0000 FEE7     		b	.L108
 1848              		.cfi_endproc
 1849              	.LFE476:
 1850              		.cantunwind
 1851              		.fnend
 1853              		.section	.text.vApplicationStackOverflowHook,"ax",%progbits
 1854              		.align	1
 1855              		.global	vApplicationStackOverflowHook
 1856              		.syntax unified
 1857              		.thumb
 1858              		.thumb_func
ARM GAS  /var/folders/l3/4y5292px21b4835bsnjwqc7w009kq1/T//ccsIHHIW.s 			page 64


 1859              		.fpu fpv4-sp-d16
 1861              	vApplicationStackOverflowHook:
 1862              		.fnstart
 1863              	.LFB477:
 365:Src/main.cpp  ****     //App_Printf("task: %s stack is overFlow\r\n",pcTaskName);
 1864              		.loc 5 365 0
 1865              		.cfi_startproc
 1866              		@ args = 0, pretend = 0, frame = 0
 1867              		@ frame_needed = 0, uses_anonymous_args = 0
 1868              	.LVL219:
 365:Src/main.cpp  ****     //App_Printf("task: %s stack is overFlow\r\n",pcTaskName);
 1869              		.loc 5 365 0
 1870 0000 08B5     		push	{r3, lr}
 1871              		.save {r3, lr}
 1872              	.LCFI20:
 1873              		.cfi_def_cfa_offset 8
 1874              		.cfi_offset 3, -8
 1875              		.cfi_offset 14, -4
 367:Src/main.cpp  **** }
 1876              		.loc 5 367 0
 1877 0002 0248     		ldr	r0, .L111
 1878              	.LVL220:
 1879 0004 FFF7FEFF 		bl	printf
 1880              	.LVL221:
 1881              		.loc 5 368 0
 1882 0008 08BD     		pop	{r3, pc}
 1883              	.L112:
 1884 000a 00BF     		.align	2
 1885              	.L111:
 1886 000c 00000000 		.word	.LC11
 1887              		.cfi_endproc
 1888              	.LFE477:
 1889              		.fnend
 1891              		.section	.text._ZN3ros11NodeHandle_I13STM32HardwareLi5ELi5ELi512ELi512EE15negotiateTopicsEv,"axG",
 1892              		.align	1
 1893              		.weak	_ZN3ros11NodeHandle_I13STM32HardwareLi5ELi5ELi512ELi512EE15negotiateTopicsEv
 1894              		.syntax unified
 1895              		.thumb
 1896              		.thumb_func
 1897              		.fpu fpv4-sp-d16
 1899              	_ZN3ros11NodeHandle_I13STM32HardwareLi5ELi5ELi512ELi512EE15negotiateTopicsEv:
 1900              		.fnstart
 1901              	.LFB505:
 487:../Libraries/ROSSerial/ros/node_handle.h ****   {
 1902              		.loc 6 487 0
 1903              		.cfi_startproc
 1904              		@ args = 0, pretend = 0, frame = 24
 1905              		@ frame_needed = 0, uses_anonymous_args = 0
 1906              	.LVL222:
 1907 0000 F0B5     		push	{r4, r5, r6, r7, lr}
 1908              		.save {r4, r5, r6, r7, lr}
 1909              	.LCFI21:
 1910              		.cfi_def_cfa_offset 20
 1911              		.cfi_offset 4, -20
 1912              		.cfi_offset 5, -16
 1913              		.cfi_offset 6, -12
 1914              		.cfi_offset 7, -8
ARM GAS  /var/folders/l3/4y5292px21b4835bsnjwqc7w009kq1/T//ccsIHHIW.s 			page 65


 1915              		.cfi_offset 14, -4
 1916              		.pad #28
 1917 0002 87B0     		sub	sp, sp, #28
 1918              	.LCFI22:
 1919              		.cfi_def_cfa_offset 48
 1920 0004 0446     		mov	r4, r0
 1921              	.LVL223:
 1922              	.LBB161:
 1923              	.LBB162:
  12:../Libraries/ROSSerial/rosserial_msgs/TopicInfo.h ****   {
 1924              		.loc 2 12 0
 1925 0006 2E4B     		ldr	r3, .L121
 1926 0008 0093     		str	r3, [sp]
 1927              	.LVL224:
 1928              	.LBE162:
 1929              	.LBE161:
 491:../Libraries/ROSSerial/ros/node_handle.h ****     {
 1930              		.loc 6 491 0
 1931 000a 0025     		movs	r5, #0
 1932 000c 00E0     		b	.L116
 1933              	.LVL225:
 1934              	.L115:
 491:../Libraries/ROSSerial/ros/node_handle.h ****     {
 1935              		.loc 6 491 0 is_stmt 0 discriminator 2
 1936 000e 0135     		adds	r5, r5, #1
 1937              	.LVL226:
 1938              	.L116:
 491:../Libraries/ROSSerial/ros/node_handle.h ****     {
 1939              		.loc 6 491 0 discriminator 1
 1940 0010 042D     		cmp	r5, #4
 1941 0012 24DC     		bgt	.L119
 493:../Libraries/ROSSerial/ros/node_handle.h ****       {
 1942              		.loc 6 493 0 is_stmt 1
 1943 0014 05F58373 		add	r3, r5, #262
 1944 0018 54F82330 		ldr	r3, [r4, r3, lsl #2]
 1945 001c 002B     		cmp	r3, #0
 1946 001e F6D0     		beq	.L115
 495:../Libraries/ROSSerial/ros/node_handle.h ****         ti.topic_name = (char *) publishers[i]->topic_;
 1947              		.loc 6 495 0
 1948 0020 9A68     		ldr	r2, [r3, #8]
 1949 0022 ADF80420 		strh	r2, [sp, #4]	@ movhi
 496:../Libraries/ROSSerial/ros/node_handle.h ****         ti.message_type = (char *) publishers[i]->msg_->getType();
 1950              		.loc 6 496 0
 1951 0026 1A68     		ldr	r2, [r3]
 1952 0028 0292     		str	r2, [sp, #8]
 497:../Libraries/ROSSerial/ros/node_handle.h ****         ti.md5sum = (char *) publishers[i]->msg_->getMD5();
 1953              		.loc 6 497 0
 1954 002a 5868     		ldr	r0, [r3, #4]
 1955 002c 0368     		ldr	r3, [r0]
 1956 002e 9B68     		ldr	r3, [r3, #8]
 1957 0030 9847     		blx	r3
 1958              	.LVL227:
 1959 0032 0390     		str	r0, [sp, #12]
 498:../Libraries/ROSSerial/ros/node_handle.h ****         ti.buffer_size = OUTPUT_SIZE;
 1960              		.loc 6 498 0
 1961 0034 05F58376 		add	r6, r5, #262
 1962 0038 54F82630 		ldr	r3, [r4, r6, lsl #2]
ARM GAS  /var/folders/l3/4y5292px21b4835bsnjwqc7w009kq1/T//ccsIHHIW.s 			page 66


 1963 003c 5868     		ldr	r0, [r3, #4]
 1964 003e 0368     		ldr	r3, [r0]
 1965 0040 DB68     		ldr	r3, [r3, #12]
 1966 0042 9847     		blx	r3
 1967              	.LVL228:
 1968 0044 0490     		str	r0, [sp, #16]
 499:../Libraries/ROSSerial/ros/node_handle.h ****         publish(publishers[i]->getEndpointType(), &ti);
 1969              		.loc 6 499 0
 1970 0046 4FF40073 		mov	r3, #512
 1971 004a 0593     		str	r3, [sp, #20]
 500:../Libraries/ROSSerial/ros/node_handle.h ****       }
 1972              		.loc 6 500 0
 1973 004c 54F82610 		ldr	r1, [r4, r6, lsl #2]
 1974 0050 2368     		ldr	r3, [r4]
 1975 0052 1B68     		ldr	r3, [r3]
 1976 0054 6A46     		mov	r2, sp
 1977 0056 0969     		ldr	r1, [r1, #16]
 1978 0058 2046     		mov	r0, r4
 1979 005a 9847     		blx	r3
 1980              	.LVL229:
 1981 005c D7E7     		b	.L115
 1982              	.L119:
 503:../Libraries/ROSSerial/ros/node_handle.h ****     {
 1983              		.loc 6 503 0
 1984 005e 0025     		movs	r5, #0
 1985              	.LVL230:
 1986 0060 00E0     		b	.L114
 1987              	.LVL231:
 1988              	.L118:
 503:../Libraries/ROSSerial/ros/node_handle.h ****     {
 1989              		.loc 6 503 0 is_stmt 0 discriminator 2
 1990 0062 0135     		adds	r5, r5, #1
 1991              	.LVL232:
 1992              	.L114:
 503:../Libraries/ROSSerial/ros/node_handle.h ****     {
 1993              		.loc 6 503 0 discriminator 1
 1994 0064 042D     		cmp	r5, #4
 1995 0066 26DC     		bgt	.L117
 505:../Libraries/ROSSerial/ros/node_handle.h ****       {
 1996              		.loc 6 505 0 is_stmt 1
 1997 0068 05F58573 		add	r3, r5, #266
 1998 006c 04EB8303 		add	r3, r4, r3, lsl #2
 1999 0070 5868     		ldr	r0, [r3, #4]
 2000 0072 0028     		cmp	r0, #0
 2001 0074 F5D0     		beq	.L118
 507:../Libraries/ROSSerial/ros/node_handle.h ****         ti.topic_name = (char *) subscribers[i]->topic_;
 2002              		.loc 6 507 0
 2003 0076 4368     		ldr	r3, [r0, #4]
 2004 0078 ADF80430 		strh	r3, [sp, #4]	@ movhi
 508:../Libraries/ROSSerial/ros/node_handle.h ****         ti.message_type = (char *) subscribers[i]->getMsgType();
 2005              		.loc 6 508 0
 2006 007c 8368     		ldr	r3, [r0, #8]
 2007 007e 0293     		str	r3, [sp, #8]
 509:../Libraries/ROSSerial/ros/node_handle.h ****         ti.md5sum = (char *) subscribers[i]->getMsgMD5();
 2008              		.loc 6 509 0
 2009 0080 0368     		ldr	r3, [r0]
 2010 0082 9B68     		ldr	r3, [r3, #8]
ARM GAS  /var/folders/l3/4y5292px21b4835bsnjwqc7w009kq1/T//ccsIHHIW.s 			page 67


 2011 0084 9847     		blx	r3
 2012              	.LVL233:
 2013 0086 0390     		str	r0, [sp, #12]
 510:../Libraries/ROSSerial/ros/node_handle.h ****         ti.buffer_size = INPUT_SIZE;
 2014              		.loc 6 510 0
 2015 0088 05F58576 		add	r6, r5, #266
 2016 008c 04EB8606 		add	r6, r4, r6, lsl #2
 2017 0090 7068     		ldr	r0, [r6, #4]
 2018 0092 0368     		ldr	r3, [r0]
 2019 0094 DB68     		ldr	r3, [r3, #12]
 2020 0096 9847     		blx	r3
 2021              	.LVL234:
 2022 0098 0490     		str	r0, [sp, #16]
 511:../Libraries/ROSSerial/ros/node_handle.h ****         publish(subscribers[i]->getEndpointType(), &ti);
 2023              		.loc 6 511 0
 2024 009a 4FF40073 		mov	r3, #512
 2025 009e 0593     		str	r3, [sp, #20]
 512:../Libraries/ROSSerial/ros/node_handle.h ****       }
 2026              		.loc 6 512 0
 2027 00a0 2368     		ldr	r3, [r4]
 2028 00a2 1F68     		ldr	r7, [r3]
 2029 00a4 7068     		ldr	r0, [r6, #4]
 2030 00a6 0368     		ldr	r3, [r0]
 2031 00a8 5B68     		ldr	r3, [r3, #4]
 2032 00aa 9847     		blx	r3
 2033              	.LVL235:
 2034 00ac 6A46     		mov	r2, sp
 2035 00ae 0146     		mov	r1, r0
 2036 00b0 2046     		mov	r0, r4
 2037 00b2 B847     		blx	r7
 2038              	.LVL236:
 2039 00b4 D5E7     		b	.L118
 2040              	.L117:
 515:../Libraries/ROSSerial/ros/node_handle.h ****   }
 2041              		.loc 6 515 0
 2042 00b6 0123     		movs	r3, #1
 2043 00b8 84F85434 		strb	r3, [r4, #1108]
 516:../Libraries/ROSSerial/ros/node_handle.h **** 
 2044              		.loc 6 516 0
 2045 00bc 07B0     		add	sp, sp, #28
 2046              	.LCFI23:
 2047              		.cfi_def_cfa_offset 20
 2048              		@ sp needed
 2049 00be F0BD     		pop	{r4, r5, r6, r7, pc}
 2050              	.LVL237:
 2051              	.L122:
 2052              		.align	2
 2053              	.L121:
 2054 00c0 08000000 		.word	_ZTVN14rosserial_msgs9TopicInfoE+8
 2055              		.cfi_endproc
 2056              	.LFE505:
 2057              		.fnend
 2059              		.section	.text._ZN3ros11NodeHandle_I13STM32HardwareLi5ELi5ELi512ELi512EE8spinOnceEv,"axG",%progbit
 2060              		.align	1
 2061              		.weak	_ZN3ros11NodeHandle_I13STM32HardwareLi5ELi5ELi512ELi512EE8spinOnceEv
 2062              		.syntax unified
 2063              		.thumb
ARM GAS  /var/folders/l3/4y5292px21b4835bsnjwqc7w009kq1/T//ccsIHHIW.s 			page 68


 2064              		.thumb_func
 2065              		.fpu fpv4-sp-d16
 2067              	_ZN3ros11NodeHandle_I13STM32HardwareLi5ELi5ELi512ELi512EE8spinOnceEv:
 2068              		.fnstart
 2069              	.LFB493:
 212:../Libraries/ROSSerial/ros/node_handle.h ****     return spinOnce1();
 2070              		.loc 6 212 0
 2071              		.cfi_startproc
 2072              		@ args = 0, pretend = 0, frame = 16
 2073              		@ frame_needed = 0, uses_anonymous_args = 0
 2074              	.LVL238:
 2075 0000 2DE9F043 		push	{r4, r5, r6, r7, r8, r9, lr}
 2076              		.save {r4, r5, r6, r7, r8, r9, lr}
 2077              	.LCFI24:
 2078              		.cfi_def_cfa_offset 28
 2079              		.cfi_offset 4, -28
 2080              		.cfi_offset 5, -24
 2081              		.cfi_offset 6, -20
 2082              		.cfi_offset 7, -16
 2083              		.cfi_offset 8, -12
 2084              		.cfi_offset 9, -8
 2085              		.cfi_offset 14, -4
 2086              		.pad #20
 2087 0004 85B0     		sub	sp, sp, #20
 2088              	.LCFI25:
 2089              		.cfi_def_cfa_offset 48
 2090 0006 0446     		mov	r4, r0
 2091              	.LVL239:
 2092              	.LBB231:
 2093              	.LBB232:
 218:../Libraries/ROSSerial/ros/node_handle.h ****     /* restart if timed out */
 2094              		.loc 6 218 0
 2095 0008 C248     		ldr	r0, .L180
 2096              	.LVL240:
 2097 000a FFF7FEFF 		bl	puts
 2098              	.LVL241:
 2099              	.LBB233:
 2100              	.LBB234:
  88:../Libraries/ROSSerial/stm32hardware.h **** 	}
  89:../Libraries/ROSSerial/stm32hardware.h **** 
  90:../Libraries/ROSSerial/stm32hardware.h **** 	/*
  91:../Libraries/ROSSerial/stm32hardware.h **** 	 * Method: time
  92:../Libraries/ROSSerial/stm32hardware.h **** 	 * ----------------------------
  93:../Libraries/ROSSerial/stm32hardware.h ****      *   Returns milliseconds since start of program
  94:../Libraries/ROSSerial/stm32hardware.h **** 	 *   parameters: none
  95:../Libraries/ROSSerial/stm32hardware.h **** 	 *   returns: time in milliseconds
  96:../Libraries/ROSSerial/stm32hardware.h **** 	 */
  97:../Libraries/ROSSerial/stm32hardware.h **** 	uint32_t time(void)
  98:../Libraries/ROSSerial/stm32hardware.h **** 	{
  99:../Libraries/ROSSerial/stm32hardware.h **** 		return (uint32_t) xTaskGetTickCount();
 2101              		.loc 7 99 0
 2102 000e FFF7FEFF 		bl	xTaskGetTickCount
 2103              	.LVL242:
 2104 0012 0546     		mov	r5, r0
 2105              	.LVL243:
 2106              	.LBE234:
 2107              	.LBE233:
ARM GAS  /var/folders/l3/4y5292px21b4835bsnjwqc7w009kq1/T//ccsIHHIW.s 			page 69


 221:../Libraries/ROSSerial/ros/node_handle.h **** 
 2108              		.loc 6 221 0
 2109 0014 0146     		mov	r1, r0
 2110 0016 C048     		ldr	r0, .L180+4
 2111              	.LVL244:
 2112 0018 FFF7FEFF 		bl	printf
 2113              	.LVL245:
 223:../Libraries/ROSSerial/ros/node_handle.h ****     {
 2114              		.loc 6 223 0
 2115 001c D4F85C34 		ldr	r3, [r4, #1116]
 2116 0020 EB1A     		subs	r3, r5, r3
 2117 0022 42F6F822 		movw	r2, #11000
 2118 0026 9342     		cmp	r3, r2
 2119 0028 02D9     		bls	.L124
 225:../Libraries/ROSSerial/ros/node_handle.h ****     }
 2120              		.loc 6 225 0
 2121 002a 0023     		movs	r3, #0
 2122 002c 84F85434 		strb	r3, [r4, #1108]
 2123              	.L124:
 229:../Libraries/ROSSerial/ros/node_handle.h ****     {
 2124              		.loc 6 229 0
 2125 0030 D4F84034 		ldr	r3, [r4, #1088]
 2126 0034 D3B1     		cbz	r3, .L126
 231:../Libraries/ROSSerial/ros/node_handle.h ****       {
 2127              		.loc 6 231 0
 2128 0036 D4F86034 		ldr	r3, [r4, #1120]
 2129 003a 9D42     		cmp	r5, r3
 2130 003c 16D9     		bls	.L126
 233:../Libraries/ROSSerial/ros/node_handle.h ****       }
 2131              		.loc 6 233 0
 2132 003e 0023     		movs	r3, #0
 2133 0040 C4F84034 		str	r3, [r4, #1088]
 2134 0044 12E0     		b	.L126
 2135              	.LVL246:
 2136              	.L159:
 2137              	.LBB235:
 2138              	.LBB236:
 2139              	.LBB237:
  72:../Libraries/ROSSerial/stm32hardware.h **** 		}
 2140              		.loc 7 72 0
 2141 0046 4FF0FF31 		mov	r1, #-1
 2142 004a 28E0     		b	.L129
 2143              	.LVL247:
 2144              	.L163:
 2145              	.LBE237:
 2146              	.LBE236:
 259:../Libraries/ROSSerial/ros/node_handle.h ****         bytes_--;
 2147              		.loc 6 259 0
 2148 004c D4F84C34 		ldr	r3, [r4, #1100]
 2149 0050 5A1C     		adds	r2, r3, #1
 2150 0052 C4F84C24 		str	r2, [r4, #1100]
 2151 0056 2344     		add	r3, r3, r4
 2152 0058 1976     		strb	r1, [r3, #24]
 260:../Libraries/ROSSerial/ros/node_handle.h ****         if (bytes_ == 0)                 /* is message complete? if so, checksum */
 2153              		.loc 6 260 0
 2154 005a D4F84434 		ldr	r3, [r4, #1092]
 2155 005e 013B     		subs	r3, r3, #1
ARM GAS  /var/folders/l3/4y5292px21b4835bsnjwqc7w009kq1/T//ccsIHHIW.s 			page 70


 2156 0060 C4F84434 		str	r3, [r4, #1092]
 261:../Libraries/ROSSerial/ros/node_handle.h ****           mode_ = MODE_MSG_CHECKSUM;
 2157              		.loc 6 261 0
 2158 0064 13B9     		cbnz	r3, .L126
 262:../Libraries/ROSSerial/ros/node_handle.h ****       }
 2159              		.loc 6 262 0
 2160 0066 0823     		movs	r3, #8
 2161 0068 C4F84034 		str	r3, [r4, #1088]
 2162              	.L126:
 241:../Libraries/ROSSerial/ros/node_handle.h ****       {
 2163              		.loc 6 241 0
 2164 006c 6369     		ldr	r3, [r4, #20]
 2165 006e 33B1     		cbz	r3, .L127
 2166              	.LVL248:
 2167              	.LBB239:
 2168              	.LBB240:
 2169              		.loc 7 99 0
 2170 0070 FFF7FEFF 		bl	xTaskGetTickCount
 2171              	.LVL249:
 2172              	.LBE240:
 2173              	.LBE239:
 247:../Libraries/ROSSerial/ros/node_handle.h ****         {
 2174              		.loc 6 247 0
 2175 0074 401B     		subs	r0, r0, r5
 2176 0076 6369     		ldr	r3, [r4, #20]
 2177 0078 9842     		cmp	r0, r3
 2178 007a 00F2E881 		bhi	.L158
 2179              	.L127:
 2180              	.LVL250:
 2181              	.LBB241:
 2182              	.LBB238:
  70:../Libraries/ROSSerial/stm32hardware.h **** 		if(comGetChar(COM1,&ucData) == 0) {
 2183              		.loc 7 70 0
 2184 007e 04A9     		add	r1, sp, #16
 2185 0080 FF23     		movs	r3, #255
 2186 0082 01F80C3D 		strb	r3, [r1, #-12]!
  71:../Libraries/ROSSerial/stm32hardware.h **** 			return -1;
 2187              		.loc 7 71 0
 2188 0086 0020     		movs	r0, #0
 2189 0088 FFF7FEFF 		bl	comGetChar
 2190              	.LVL251:
 2191 008c 0028     		cmp	r0, #0
 2192 008e DAD0     		beq	.L159
  74:../Libraries/ROSSerial/stm32hardware.h **** 		return ucData;
 2193              		.loc 7 74 0
 2194 0090 9DF80410 		ldrb	r1, [sp, #4]	@ zero_extendqisi2
 2195 0094 A148     		ldr	r0, .L180+8
 2196 0096 FFF7FEFF 		bl	printf
 2197              	.LVL252:
  75:../Libraries/ROSSerial/stm32hardware.h **** 	}
 2198              		.loc 7 75 0
 2199 009a 9DF80410 		ldrb	r1, [sp, #4]	@ zero_extendqisi2
 2200              	.L129:
 2201              	.LVL253:
 2202              	.LBE238:
 2203              	.LBE241:
 254:../Libraries/ROSSerial/ros/node_handle.h ****         break;
ARM GAS  /var/folders/l3/4y5292px21b4835bsnjwqc7w009kq1/T//ccsIHHIW.s 			page 71


 2204              		.loc 6 254 0
 2205 009e 0029     		cmp	r1, #0
 2206 00a0 C0F2B781 		blt	.L130
 256:../Libraries/ROSSerial/ros/node_handle.h ****       if (mode_ == MODE_MESSAGE)          /* message data being recieved */
 2207              		.loc 6 256 0
 2208 00a4 D4F85024 		ldr	r2, [r4, #1104]
 2209 00a8 0A44     		add	r2, r2, r1
 2210 00aa C4F85024 		str	r2, [r4, #1104]
 257:../Libraries/ROSSerial/ros/node_handle.h ****       {
 2211              		.loc 6 257 0
 2212 00ae D4F84034 		ldr	r3, [r4, #1088]
 2213 00b2 072B     		cmp	r3, #7
 2214 00b4 CAD0     		beq	.L163
 264:../Libraries/ROSSerial/ros/node_handle.h ****       {
 2215              		.loc 6 264 0
 2216 00b6 B3B9     		cbnz	r3, .L133
 266:../Libraries/ROSSerial/ros/node_handle.h ****         {
 2217              		.loc 6 266 0
 2218 00b8 FF29     		cmp	r1, #255
 2219 00ba 07D1     		bne	.L134
 268:../Libraries/ROSSerial/ros/node_handle.h ****           last_msg_timeout_time = c_time + SERIAL_MSG_TIMEOUT;
 2220              		.loc 6 268 0
 2221 00bc 0133     		adds	r3, r3, #1
 2222 00be C4F84034 		str	r3, [r4, #1088]
 269:../Libraries/ROSSerial/ros/node_handle.h ****         }
 2223              		.loc 6 269 0
 2224 00c2 05F11403 		add	r3, r5, #20
 2225 00c6 C4F86034 		str	r3, [r4, #1120]
 2226 00ca CFE7     		b	.L126
 2227              	.L134:
 2228              	.LVL254:
 2229              	.LBB242:
 2230              	.LBB243:
 2231              		.loc 7 99 0
 2232 00cc FFF7FEFF 		bl	xTaskGetTickCount
 2233              	.LVL255:
 2234              	.LBE243:
 2235              	.LBE242:
 271:../Libraries/ROSSerial/ros/node_handle.h ****         {
 2236              		.loc 6 271 0
 2237 00d0 401B     		subs	r0, r0, r5
 2238 00d2 41F28833 		movw	r3, #5000
 2239 00d6 9842     		cmp	r0, r3
 2240 00d8 C8D9     		bls	.L126
 274:../Libraries/ROSSerial/ros/node_handle.h ****           return SPIN_TIMEOUT;
 2241              		.loc 6 274 0
 2242 00da 0023     		movs	r3, #0
 2243 00dc 84F85434 		strb	r3, [r4, #1108]
 275:../Libraries/ROSSerial/ros/node_handle.h ****         }
 2244              		.loc 6 275 0
 2245 00e0 6FF00100 		mvn	r0, #1
 2246 00e4 B5E1     		b	.L123
 2247              	.L133:
 278:../Libraries/ROSSerial/ros/node_handle.h ****       {
 2248              		.loc 6 278 0
 2249 00e6 012B     		cmp	r3, #1
 2250 00e8 35D0     		beq	.L164
ARM GAS  /var/folders/l3/4y5292px21b4835bsnjwqc7w009kq1/T//ccsIHHIW.s 			page 72


 291:../Libraries/ROSSerial/ros/node_handle.h ****       {
 2251              		.loc 6 291 0
 2252 00ea 022B     		cmp	r3, #2
 2253 00ec 4FD0     		beq	.L165
 298:../Libraries/ROSSerial/ros/node_handle.h ****       {
 2254              		.loc 6 298 0
 2255 00ee 032B     		cmp	r3, #3
 2256 00f0 58D0     		beq	.L166
 303:../Libraries/ROSSerial/ros/node_handle.h ****       {
 2257              		.loc 6 303 0
 2258 00f2 042B     		cmp	r3, #4
 2259 00f4 60D0     		beq	.L167
 310:../Libraries/ROSSerial/ros/node_handle.h ****       {
 2260              		.loc 6 310 0
 2261 00f6 052B     		cmp	r3, #5
 2262 00f8 6DD0     		beq	.L168
 316:../Libraries/ROSSerial/ros/node_handle.h ****       {
 2263              		.loc 6 316 0
 2264 00fa 062B     		cmp	r3, #6
 2265 00fc 73D0     		beq	.L169
 323:../Libraries/ROSSerial/ros/node_handle.h ****       {
 2266              		.loc 6 323 0
 2267 00fe 082B     		cmp	r3, #8
 2268 0100 B4D1     		bne	.L126
 325:../Libraries/ROSSerial/ros/node_handle.h ****         if ((checksum_ % 256) == 255)
 2269              		.loc 6 325 0
 2270 0102 0023     		movs	r3, #0
 2271 0104 C4F84034 		str	r3, [r4, #1088]
 326:../Libraries/ROSSerial/ros/node_handle.h ****         {
 2272              		.loc 6 326 0
 2273 0108 9B1A     		subs	r3, r3, r2
 2274 010a D2B2     		uxtb	r2, r2
 2275 010c DBB2     		uxtb	r3, r3
 2276 010e 58BF     		it	pl
 2277 0110 5A42     		rsbpl	r2, r3, #0
 2278 0112 FF2A     		cmp	r2, #255
 2279 0114 AAD1     		bne	.L126
 328:../Libraries/ROSSerial/ros/node_handle.h ****           {
 2280              		.loc 6 328 0
 2281 0116 D4F84834 		ldr	r3, [r4, #1096]
 2282 011a 002B     		cmp	r3, #0
 2283 011c 75D0     		beq	.L170
 336:../Libraries/ROSSerial/ros/node_handle.h ****           {
 2284              		.loc 6 336 0
 2285 011e 0A2B     		cmp	r3, #10
 2286 0120 00F08B80 		beq	.L171
 340:../Libraries/ROSSerial/ros/node_handle.h ****           {
 2287              		.loc 6 340 0
 2288 0124 062B     		cmp	r3, #6
 2289 0126 00F0CD80 		beq	.L172
 345:../Libraries/ROSSerial/ros/node_handle.h ****           {
 2290              		.loc 6 345 0
 2291 012a 0B2B     		cmp	r3, #11
 2292 012c 00F06D81 		beq	.L173
 351:../Libraries/ROSSerial/ros/node_handle.h ****               subscribers[topic_ - 100]->callback(message_in);
 2293              		.loc 6 351 0
 2294 0130 A3F16402 		sub	r2, r3, #100
ARM GAS  /var/folders/l3/4y5292px21b4835bsnjwqc7w009kq1/T//ccsIHHIW.s 			page 73


 2295 0134 A633     		adds	r3, r3, #166
 2296 0136 04EB8303 		add	r3, r4, r3, lsl #2
 2297 013a 5968     		ldr	r1, [r3, #4]
 2298 013c 0029     		cmp	r1, #0
 2299 013e 95D0     		beq	.L126
 352:../Libraries/ROSSerial/ros/node_handle.h ****           }
 2300              		.loc 6 352 0
 2301 0140 02F58573 		add	r3, r2, #266
 2302 0144 04EB8303 		add	r3, r4, r3, lsl #2
 2303 0148 0A68     		ldr	r2, [r1]
 2304 014a 1268     		ldr	r2, [r2]
 2305 014c 04F11801 		add	r1, r4, #24
 2306 0150 5868     		ldr	r0, [r3, #4]
 2307 0152 9047     		blx	r2
 2308              	.LVL256:
 2309 0154 8AE7     		b	.L126
 2310              	.L164:
 280:../Libraries/ROSSerial/ros/node_handle.h ****         {
 2311              		.loc 6 280 0
 2312 0156 FE29     		cmp	r1, #254
 2313 0158 15D0     		beq	.L174
 286:../Libraries/ROSSerial/ros/node_handle.h ****           if (configured_ == false)
 2314              		.loc 6 286 0
 2315 015a 0023     		movs	r3, #0
 2316 015c C4F84034 		str	r3, [r4, #1088]
 287:../Libraries/ROSSerial/ros/node_handle.h ****             requestSyncTime();  /* send a msg back showing our protocol version */
 2317              		.loc 6 287 0
 2318 0160 94F85434 		ldrb	r3, [r4, #1108]	@ zero_extendqisi2
 2319 0164 002B     		cmp	r3, #0
 2320 0166 81D1     		bne	.L126
 2321              	.LVL257:
 2322              	.LBB244:
 2323              	.LBB245:
 2324              	.LBB246:
 2325              	.LBB247:
  14:../Libraries/ROSSerial/std_msgs/Time.h ****   {
 2326              		.loc 1 14 0
 2327 0168 6D4B     		ldr	r3, .L180+12
 2328 016a 0193     		str	r3, [sp, #4]
 2329              	.LVL258:
 2330              	.LBB248:
 2331              	.LBB249:
 2332              	.LBB250:
 2333              		.file 9 "../Libraries/ROSSerial/ros/time.h"
   1:../Libraries/ROSSerial/ros/time.h **** /*
   2:../Libraries/ROSSerial/ros/time.h ****  * Software License Agreement (BSD License)
   3:../Libraries/ROSSerial/ros/time.h ****  *
   4:../Libraries/ROSSerial/ros/time.h ****  * Copyright (c) 2011, Willow Garage, Inc.
   5:../Libraries/ROSSerial/ros/time.h ****  * All rights reserved.
   6:../Libraries/ROSSerial/ros/time.h ****  *
   7:../Libraries/ROSSerial/ros/time.h ****  * Redistribution and use in source and binary forms, with or without
   8:../Libraries/ROSSerial/ros/time.h ****  * modification, are permitted provided that the following conditions
   9:../Libraries/ROSSerial/ros/time.h ****  * are met:
  10:../Libraries/ROSSerial/ros/time.h ****  *
  11:../Libraries/ROSSerial/ros/time.h ****  *  * Redistributions of source code must retain the above copyright
  12:../Libraries/ROSSerial/ros/time.h ****  *    notice, this list of conditions and the following disclaimer.
  13:../Libraries/ROSSerial/ros/time.h ****  *  * Redistributions in binary form must reproduce the above
ARM GAS  /var/folders/l3/4y5292px21b4835bsnjwqc7w009kq1/T//ccsIHHIW.s 			page 74


  14:../Libraries/ROSSerial/ros/time.h ****  *    copyright notice, this list of conditions and the following
  15:../Libraries/ROSSerial/ros/time.h ****  *    disclaimer in the documentation and/or other materials provided
  16:../Libraries/ROSSerial/ros/time.h ****  *    with the distribution.
  17:../Libraries/ROSSerial/ros/time.h ****  *  * Neither the name of Willow Garage, Inc. nor the names of its
  18:../Libraries/ROSSerial/ros/time.h ****  *    contributors may be used to endorse or promote prducts derived
  19:../Libraries/ROSSerial/ros/time.h ****  *    from this software without specific prior written permission.
  20:../Libraries/ROSSerial/ros/time.h ****  *
  21:../Libraries/ROSSerial/ros/time.h ****  * THIS SOFTWARE IS PROVIDED BY THE COPYRIGHT HOLDERS AND CONTRIBUTORS
  22:../Libraries/ROSSerial/ros/time.h ****  * "AS IS" AND ANY EXPRESS OR IMPLIED WARRANTIES, INCLUDING, BUT NOT
  23:../Libraries/ROSSerial/ros/time.h ****  * LIMITED TO, THE IMPLIED WARRANTIES OF MERCHANTABILITY AND FITNESS
  24:../Libraries/ROSSerial/ros/time.h ****  * FOR A PARTICULAR PURPOSE ARE DISCLAIMED. IN NO EVENT SHALL THE
  25:../Libraries/ROSSerial/ros/time.h ****  * COPYRIGHT OWNER OR CONTRIBUTORS BE LIABLE FOR ANY DIRECT, INDIRECT,
  26:../Libraries/ROSSerial/ros/time.h ****  * INCIDENTAL, SPECIAL, EXEMPLARY, OR CONSEQUENTIAL DAMAGES (INCLUDING,
  27:../Libraries/ROSSerial/ros/time.h ****  * BUT NOT LIMITED TO, PROCUREMENT OF SUBSTITUTE GOODS OR SERVICES;
  28:../Libraries/ROSSerial/ros/time.h ****  * LOSS OF USE, DATA, OR PROFITS; OR BUSINESS INTERRUPTION) HOWEVER
  29:../Libraries/ROSSerial/ros/time.h ****  * CAUSED AND ON ANY THEORY OF LIABILITY, WHETHER IN CONTRACT, STRICT
  30:../Libraries/ROSSerial/ros/time.h ****  * LIABILITY, OR TORT (INCLUDING NEGLIGENCE OR OTHERWISE) ARISING IN
  31:../Libraries/ROSSerial/ros/time.h ****  * ANY WAY OUT OF THE USE OF THIS SOFTWARE, EVEN IF ADVISED OF THE
  32:../Libraries/ROSSerial/ros/time.h ****  * POSSIBILITY OF SUCH DAMAGE.
  33:../Libraries/ROSSerial/ros/time.h ****  */
  34:../Libraries/ROSSerial/ros/time.h **** 
  35:../Libraries/ROSSerial/ros/time.h **** #ifndef ROS_TIME_H_
  36:../Libraries/ROSSerial/ros/time.h **** #define ROS_TIME_H_
  37:../Libraries/ROSSerial/ros/time.h **** 
  38:../Libraries/ROSSerial/ros/time.h **** #include "ros/duration.h"
  39:../Libraries/ROSSerial/ros/time.h **** #include <math.h>
  40:../Libraries/ROSSerial/ros/time.h **** #include <stdint.h>
  41:../Libraries/ROSSerial/ros/time.h **** 
  42:../Libraries/ROSSerial/ros/time.h **** namespace ros
  43:../Libraries/ROSSerial/ros/time.h **** {
  44:../Libraries/ROSSerial/ros/time.h **** void normalizeSecNSec(uint32_t &sec, uint32_t &nsec);
  45:../Libraries/ROSSerial/ros/time.h **** 
  46:../Libraries/ROSSerial/ros/time.h **** class Time
  47:../Libraries/ROSSerial/ros/time.h **** {
  48:../Libraries/ROSSerial/ros/time.h **** public:
  49:../Libraries/ROSSerial/ros/time.h ****   uint32_t sec, nsec;
  50:../Libraries/ROSSerial/ros/time.h **** 
  51:../Libraries/ROSSerial/ros/time.h ****   Time() : sec(0), nsec(0) {}
 2334              		.loc 9 51 0
 2335 016c 0023     		movs	r3, #0
 2336 016e 0293     		str	r3, [sp, #8]
 2337 0170 0393     		str	r3, [sp, #12]
 2338              	.LVL259:
 2339              	.LBE250:
 2340              	.LBE249:
 2341              	.LBE248:
 2342              	.LBE247:
 2343              	.LBE246:
 382:../Libraries/ROSSerial/ros/node_handle.h ****     rt_time = hardware_.time();
 2344              		.loc 6 382 0
 2345 0172 2368     		ldr	r3, [r4]
 2346 0174 1B68     		ldr	r3, [r3]
 2347 0176 01AA     		add	r2, sp, #4
 2348 0178 0A21     		movs	r1, #10
 2349 017a 2046     		mov	r0, r4
 2350 017c 9847     		blx	r3
 2351              	.LVL260:
ARM GAS  /var/folders/l3/4y5292px21b4835bsnjwqc7w009kq1/T//ccsIHHIW.s 			page 75


 2352              	.LBB251:
 2353              	.LBB252:
 2354              		.loc 7 99 0
 2355 017e FFF7FEFF 		bl	xTaskGetTickCount
 2356              	.LVL261:
 2357              	.LBE252:
 2358              	.LBE251:
 383:../Libraries/ROSSerial/ros/node_handle.h ****   }
 2359              		.loc 6 383 0
 2360 0182 A060     		str	r0, [r4, #8]
 2361 0184 72E7     		b	.L126
 2362              	.LVL262:
 2363              	.L174:
 2364              	.LBE245:
 2365              	.LBE244:
 282:../Libraries/ROSSerial/ros/node_handle.h ****         }
 2366              		.loc 6 282 0
 2367 0186 0133     		adds	r3, r3, #1
 2368 0188 C4F84034 		str	r3, [r4, #1088]
 2369 018c 6EE7     		b	.L126
 2370              	.L165:
 293:../Libraries/ROSSerial/ros/node_handle.h ****         index_ = 0;
 2371              		.loc 6 293 0
 2372 018e C4F84414 		str	r1, [r4, #1092]
 294:../Libraries/ROSSerial/ros/node_handle.h ****         mode_++;
 2373              		.loc 6 294 0
 2374 0192 0022     		movs	r2, #0
 2375 0194 C4F84C24 		str	r2, [r4, #1100]
 295:../Libraries/ROSSerial/ros/node_handle.h ****         checksum_ = data;               /* first byte for calculating size checksum */
 2376              		.loc 6 295 0
 2377 0198 0133     		adds	r3, r3, #1
 2378 019a C4F84034 		str	r3, [r4, #1088]
 296:../Libraries/ROSSerial/ros/node_handle.h ****       }
 2379              		.loc 6 296 0
 2380 019e C4F85014 		str	r1, [r4, #1104]
 2381 01a2 63E7     		b	.L126
 2382              	.L166:
 300:../Libraries/ROSSerial/ros/node_handle.h ****         mode_++;
 2383              		.loc 6 300 0
 2384 01a4 D4F84424 		ldr	r2, [r4, #1092]
 2385 01a8 02EB0121 		add	r1, r2, r1, lsl #8
 2386 01ac C4F84414 		str	r1, [r4, #1092]
 301:../Libraries/ROSSerial/ros/node_handle.h ****       }
 2387              		.loc 6 301 0
 2388 01b0 0133     		adds	r3, r3, #1
 2389 01b2 C4F84034 		str	r3, [r4, #1088]
 2390 01b6 59E7     		b	.L126
 2391              	.L167:
 305:../Libraries/ROSSerial/ros/node_handle.h ****           mode_++;
 2392              		.loc 6 305 0
 2393 01b8 5142     		rsbs	r1, r2, #0
 2394 01ba D2B2     		uxtb	r2, r2
 2395 01bc C9B2     		uxtb	r1, r1
 2396 01be 58BF     		it	pl
 2397 01c0 4A42     		rsbpl	r2, r1, #0
 2398 01c2 FF2A     		cmp	r2, #255
 2399 01c4 03D0     		beq	.L175
ARM GAS  /var/folders/l3/4y5292px21b4835bsnjwqc7w009kq1/T//ccsIHHIW.s 			page 76


 308:../Libraries/ROSSerial/ros/node_handle.h ****       }
 2400              		.loc 6 308 0
 2401 01c6 0023     		movs	r3, #0
 2402 01c8 C4F84034 		str	r3, [r4, #1088]
 2403 01cc 4EE7     		b	.L126
 2404              	.L175:
 306:../Libraries/ROSSerial/ros/node_handle.h ****         else
 2405              		.loc 6 306 0
 2406 01ce 0133     		adds	r3, r3, #1
 2407 01d0 C4F84034 		str	r3, [r4, #1088]
 2408 01d4 4AE7     		b	.L126
 2409              	.L168:
 312:../Libraries/ROSSerial/ros/node_handle.h ****         mode_++;
 2410              		.loc 6 312 0
 2411 01d6 C4F84814 		str	r1, [r4, #1096]
 313:../Libraries/ROSSerial/ros/node_handle.h ****         checksum_ = data;               /* first byte included in checksum */
 2412              		.loc 6 313 0
 2413 01da 0133     		adds	r3, r3, #1
 2414 01dc C4F84034 		str	r3, [r4, #1088]
 314:../Libraries/ROSSerial/ros/node_handle.h ****       }
 2415              		.loc 6 314 0
 2416 01e0 C4F85014 		str	r1, [r4, #1104]
 2417 01e4 42E7     		b	.L126
 2418              	.L169:
 318:../Libraries/ROSSerial/ros/node_handle.h ****         mode_ = MODE_MESSAGE;
 2419              		.loc 6 318 0
 2420 01e6 D4F84834 		ldr	r3, [r4, #1096]
 2421 01ea 03EB0123 		add	r3, r3, r1, lsl #8
 2422 01ee C4F84834 		str	r3, [r4, #1096]
 319:../Libraries/ROSSerial/ros/node_handle.h ****         if (bytes_ == 0)
 2423              		.loc 6 319 0
 2424 01f2 0723     		movs	r3, #7
 2425 01f4 C4F84034 		str	r3, [r4, #1088]
 320:../Libraries/ROSSerial/ros/node_handle.h ****           mode_ = MODE_MSG_CHECKSUM;
 2426              		.loc 6 320 0
 2427 01f8 D4F84434 		ldr	r3, [r4, #1092]
 2428 01fc 002B     		cmp	r3, #0
 2429 01fe 7FF435AF 		bne	.L126
 321:../Libraries/ROSSerial/ros/node_handle.h ****       }
 2430              		.loc 6 321 0
 2431 0202 0823     		movs	r3, #8
 2432 0204 C4F84034 		str	r3, [r4, #1088]
 2433 0208 30E7     		b	.L126
 2434              	.L170:
 2435              	.LVL263:
 2436              	.LBB253:
 2437              	.LBB254:
 2438              	.LBB255:
 2439              	.LBB256:
  14:../Libraries/ROSSerial/std_msgs/Time.h ****   {
 2440              		.loc 1 14 0
 2441 020a 454B     		ldr	r3, .L180+12
 2442 020c 0193     		str	r3, [sp, #4]
 2443              	.LVL264:
 2444              	.LBB257:
 2445              	.LBB258:
 2446              	.LBB259:
ARM GAS  /var/folders/l3/4y5292px21b4835bsnjwqc7w009kq1/T//ccsIHHIW.s 			page 77


 2447              		.loc 9 51 0
 2448 020e 0023     		movs	r3, #0
 2449 0210 0293     		str	r3, [sp, #8]
 2450 0212 0393     		str	r3, [sp, #12]
 2451              	.LVL265:
 2452              	.LBE259:
 2453              	.LBE258:
 2454              	.LBE257:
 2455              	.LBE256:
 2456              	.LBE255:
 382:../Libraries/ROSSerial/ros/node_handle.h ****     rt_time = hardware_.time();
 2457              		.loc 6 382 0
 2458 0214 2368     		ldr	r3, [r4]
 2459 0216 1B68     		ldr	r3, [r3]
 2460 0218 01AA     		add	r2, sp, #4
 2461 021a 0A21     		movs	r1, #10
 2462 021c 2046     		mov	r0, r4
 2463 021e 9847     		blx	r3
 2464              	.LVL266:
 2465              	.LBB260:
 2466              	.LBB261:
 2467              		.loc 7 99 0
 2468 0220 FFF7FEFF 		bl	xTaskGetTickCount
 2469              	.LVL267:
 2470              	.LBE261:
 2471              	.LBE260:
 383:../Libraries/ROSSerial/ros/node_handle.h ****   }
 2472              		.loc 6 383 0
 2473 0224 A060     		str	r0, [r4, #8]
 2474              	.LVL268:
 2475              	.LBE254:
 2476              	.LBE253:
 331:../Libraries/ROSSerial/ros/node_handle.h ****             last_sync_time = c_time;
 2477              		.loc 6 331 0
 2478 0226 2046     		mov	r0, r4
 2479 0228 FFF7FEFF 		bl	_ZN3ros11NodeHandle_I13STM32HardwareLi5ELi5ELi512ELi512EE15negotiateTopicsEv
 2480              	.LVL269:
 332:../Libraries/ROSSerial/ros/node_handle.h ****             last_sync_receive_time = c_time;
 2481              		.loc 6 332 0
 2482 022c C4F85854 		str	r5, [r4, #1112]
 333:../Libraries/ROSSerial/ros/node_handle.h ****             return SPIN_ERR;
 2483              		.loc 6 333 0
 2484 0230 C4F85C54 		str	r5, [r4, #1116]
 334:../Libraries/ROSSerial/ros/node_handle.h ****           }
 2485              		.loc 6 334 0
 2486 0234 4FF0FF30 		mov	r0, #-1
 2487 0238 0BE1     		b	.L123
 2488              	.L171:
 338:../Libraries/ROSSerial/ros/node_handle.h ****           }
 2489              		.loc 6 338 0
 2490 023a 04F11806 		add	r6, r4, #24
 2491              	.LVL270:
 2492              	.LBB262:
 2493              	.LBB263:
 2494              	.LBB264:
 2495              	.LBB265:
 2496              		.loc 7 99 0
ARM GAS  /var/folders/l3/4y5292px21b4835bsnjwqc7w009kq1/T//ccsIHHIW.s 			page 78


 2497 023e FFF7FEFF 		bl	xTaskGetTickCount
 2498              	.LVL271:
 2499              	.LBE265:
 2500              	.LBE264:
 389:../Libraries/ROSSerial/ros/node_handle.h **** 
 2501              		.loc 6 389 0
 2502 0242 A368     		ldr	r3, [r4, #8]
 2503 0244 C01A     		subs	r0, r0, r3
 2504              	.LVL272:
 2505              	.LBB266:
 2506              	.LBB267:
  38:../Libraries/ROSSerial/std_msgs/Time.h ****       this->data.sec |= ((uint32_t) (*(inbuffer + offset + 1))) << (8 * 1);
 2507              		.loc 1 38 0
 2508 0246 227E     		ldrb	r2, [r4, #24]	@ zero_extendqisi2
  39:../Libraries/ROSSerial/std_msgs/Time.h ****       this->data.sec |= ((uint32_t) (*(inbuffer + offset + 2))) << (8 * 2);
 2509              		.loc 1 39 0
