ARM GAS  /var/folders/l3/4y5292px21b4835bsnjwqc7w009kq1/T//ccNqrcnV.s 			page 1


   1              		.cpu cortex-m4
   2              		.eabi_attribute 27, 1
   3              		.eabi_attribute 20, 1
   4              		.eabi_attribute 21, 1
   5              		.eabi_attribute 23, 3
   6              		.eabi_attribute 24, 1
   7              		.eabi_attribute 25, 1
   8              		.eabi_attribute 26, 1
   9              		.eabi_attribute 30, 1
  10              		.eabi_attribute 34, 1
  11              		.eabi_attribute 18, 4
  12              		.file	"main.cpp"
  13              		.text
  14              	.Ltext0:
  15              		.cfi_sections	.debug_frame
  16              		.section	.text._ZNK8std_msgs4Time9serializeEPh,"axG",%progbits,_ZNK8std_msgs4Time9serializeEPh,com
  17              		.align	1
  18              		.weak	_ZNK8std_msgs4Time9serializeEPh
  19              		.syntax unified
  20              		.thumb
  21              		.thumb_func
  22              		.fpu fpv4-sp-d16
  24              	_ZNK8std_msgs4Time9serializeEPh:
  25              		.fnstart
  26              	.LFB383:
  27              		.file 1 "../Libraries/ROSSerial/std_msgs/Time.h"
   1:../Libraries/ROSSerial/std_msgs/Time.h **** #ifndef _ROS_std_msgs_Time_h
   2:../Libraries/ROSSerial/std_msgs/Time.h **** #define _ROS_std_msgs_Time_h
   3:../Libraries/ROSSerial/std_msgs/Time.h **** 
   4:../Libraries/ROSSerial/std_msgs/Time.h **** #include <stdint.h>
   5:../Libraries/ROSSerial/std_msgs/Time.h **** #include <string.h>
   6:../Libraries/ROSSerial/std_msgs/Time.h **** #include <stdlib.h>
   7:../Libraries/ROSSerial/std_msgs/Time.h **** #include "ros/msg.h"
   8:../Libraries/ROSSerial/std_msgs/Time.h **** #include "ros/time.h"
   9:../Libraries/ROSSerial/std_msgs/Time.h **** 
  10:../Libraries/ROSSerial/std_msgs/Time.h **** 
  11:../Libraries/ROSSerial/std_msgs/Time.h **** namespace std_msgs
  12:../Libraries/ROSSerial/std_msgs/Time.h **** {
  13:../Libraries/ROSSerial/std_msgs/Time.h **** 
  14:../Libraries/ROSSerial/std_msgs/Time.h ****   class Time : public ros::Msg
  15:../Libraries/ROSSerial/std_msgs/Time.h ****   {
  16:../Libraries/ROSSerial/std_msgs/Time.h ****     public:
  17:../Libraries/ROSSerial/std_msgs/Time.h ****       ros::Time data;
  18:../Libraries/ROSSerial/std_msgs/Time.h **** 
  19:../Libraries/ROSSerial/std_msgs/Time.h ****     virtual int serialize(unsigned char *outbuffer) const
  28              		.loc 1 19 0
  29              		.cfi_startproc
  30              		@ args = 0, pretend = 0, frame = 0
  31              		@ frame_needed = 0, uses_anonymous_args = 0
  32              		@ link register save eliminated.
  33              	.LVL0:
  20:../Libraries/ROSSerial/std_msgs/Time.h ****     {
  21:../Libraries/ROSSerial/std_msgs/Time.h ****       int offset = 0;
  22:../Libraries/ROSSerial/std_msgs/Time.h ****       *(outbuffer + offset + 0) = (this->data.sec >> (8 * 0)) & 0xFF;
  34              		.loc 1 22 0
  35 0000 4368     		ldr	r3, [r0, #4]
  36 0002 0B70     		strb	r3, [r1]
ARM GAS  /var/folders/l3/4y5292px21b4835bsnjwqc7w009kq1/T//ccNqrcnV.s 			page 2


  23:../Libraries/ROSSerial/std_msgs/Time.h ****       *(outbuffer + offset + 1) = (this->data.sec >> (8 * 1)) & 0xFF;
  37              		.loc 1 23 0
  38 0004 4368     		ldr	r3, [r0, #4]
  39 0006 1B0A     		lsrs	r3, r3, #8
  40 0008 4B70     		strb	r3, [r1, #1]
  24:../Libraries/ROSSerial/std_msgs/Time.h ****       *(outbuffer + offset + 2) = (this->data.sec >> (8 * 2)) & 0xFF;
  41              		.loc 1 24 0
  42 000a C388     		ldrh	r3, [r0, #6]
  43 000c 8B70     		strb	r3, [r1, #2]
  25:../Libraries/ROSSerial/std_msgs/Time.h ****       *(outbuffer + offset + 3) = (this->data.sec >> (8 * 3)) & 0xFF;
  44              		.loc 1 25 0
  45 000e C379     		ldrb	r3, [r0, #7]	@ zero_extendqisi2
  46 0010 CB70     		strb	r3, [r1, #3]
  47              	.LVL1:
  26:../Libraries/ROSSerial/std_msgs/Time.h ****       offset += sizeof(this->data.sec);
  27:../Libraries/ROSSerial/std_msgs/Time.h ****       *(outbuffer + offset + 0) = (this->data.nsec >> (8 * 0)) & 0xFF;
  48              		.loc 1 27 0
  49 0012 8368     		ldr	r3, [r0, #8]
  50 0014 0B71     		strb	r3, [r1, #4]
  28:../Libraries/ROSSerial/std_msgs/Time.h ****       *(outbuffer + offset + 1) = (this->data.nsec >> (8 * 1)) & 0xFF;
  51              		.loc 1 28 0
  52 0016 8368     		ldr	r3, [r0, #8]
  53 0018 1B0A     		lsrs	r3, r3, #8
  54 001a 4B71     		strb	r3, [r1, #5]
  29:../Libraries/ROSSerial/std_msgs/Time.h ****       *(outbuffer + offset + 2) = (this->data.nsec >> (8 * 2)) & 0xFF;
  55              		.loc 1 29 0
  56 001c 4389     		ldrh	r3, [r0, #10]
  57 001e 8B71     		strb	r3, [r1, #6]
  30:../Libraries/ROSSerial/std_msgs/Time.h ****       *(outbuffer + offset + 3) = (this->data.nsec >> (8 * 3)) & 0xFF;
  58              		.loc 1 30 0
  59 0020 C37A     		ldrb	r3, [r0, #11]	@ zero_extendqisi2
  60 0022 CB71     		strb	r3, [r1, #7]
  61              	.LVL2:
  31:../Libraries/ROSSerial/std_msgs/Time.h ****       offset += sizeof(this->data.nsec);
  32:../Libraries/ROSSerial/std_msgs/Time.h ****       return offset;
  33:../Libraries/ROSSerial/std_msgs/Time.h ****     }
  62              		.loc 1 33 0
  63 0024 0820     		movs	r0, #8
  64              	.LVL3:
  65 0026 7047     		bx	lr
  66              		.cfi_endproc
  67              	.LFE383:
  68              		.cantunwind
  69              		.fnend
  71              		.section	.text._ZN8std_msgs4Time11deserializeEPh,"axG",%progbits,_ZN8std_msgs4Time11deserializeEPh
  72              		.align	1
  73              		.weak	_ZN8std_msgs4Time11deserializeEPh
  74              		.syntax unified
  75              		.thumb
  76              		.thumb_func
  77              		.fpu fpv4-sp-d16
  79              	_ZN8std_msgs4Time11deserializeEPh:
  80              		.fnstart
  81              	.LFB384:
  34:../Libraries/ROSSerial/std_msgs/Time.h **** 
  35:../Libraries/ROSSerial/std_msgs/Time.h ****     virtual int deserialize(unsigned char *inbuffer)
  82              		.loc 1 35 0
ARM GAS  /var/folders/l3/4y5292px21b4835bsnjwqc7w009kq1/T//ccNqrcnV.s 			page 3


  83              		.cfi_startproc
  84              		@ args = 0, pretend = 0, frame = 0
  85              		@ frame_needed = 0, uses_anonymous_args = 0
  86              		@ link register save eliminated.
  87              	.LVL4:
  36:../Libraries/ROSSerial/std_msgs/Time.h ****     {
  37:../Libraries/ROSSerial/std_msgs/Time.h ****       int offset = 0;
  38:../Libraries/ROSSerial/std_msgs/Time.h ****       this->data.sec =  ((uint32_t) (*(inbuffer + offset)));
  88              		.loc 1 38 0
  89 0000 0B78     		ldrb	r3, [r1]	@ zero_extendqisi2
  90 0002 4360     		str	r3, [r0, #4]
  39:../Libraries/ROSSerial/std_msgs/Time.h ****       this->data.sec |= ((uint32_t) (*(inbuffer + offset + 1))) << (8 * 1);
  91              		.loc 1 39 0
  92 0004 4A78     		ldrb	r2, [r1, #1]	@ zero_extendqisi2
  93 0006 43EA0223 		orr	r3, r3, r2, lsl #8
  94 000a 4360     		str	r3, [r0, #4]
  40:../Libraries/ROSSerial/std_msgs/Time.h ****       this->data.sec |= ((uint32_t) (*(inbuffer + offset + 2))) << (8 * 2);
  95              		.loc 1 40 0
  96 000c 8A78     		ldrb	r2, [r1, #2]	@ zero_extendqisi2
  97 000e 43EA0243 		orr	r3, r3, r2, lsl #16
  98 0012 4360     		str	r3, [r0, #4]
  41:../Libraries/ROSSerial/std_msgs/Time.h ****       this->data.sec |= ((uint32_t) (*(inbuffer + offset + 3))) << (8 * 3);
  99              		.loc 1 41 0
 100 0014 CA78     		ldrb	r2, [r1, #3]	@ zero_extendqisi2
 101 0016 43EA0263 		orr	r3, r3, r2, lsl #24
 102 001a 4360     		str	r3, [r0, #4]
 103              	.LVL5:
  42:../Libraries/ROSSerial/std_msgs/Time.h ****       offset += sizeof(this->data.sec);
  43:../Libraries/ROSSerial/std_msgs/Time.h ****       this->data.nsec =  ((uint32_t) (*(inbuffer + offset)));
 104              		.loc 1 43 0
 105 001c 0B79     		ldrb	r3, [r1, #4]	@ zero_extendqisi2
 106 001e 8360     		str	r3, [r0, #8]
  44:../Libraries/ROSSerial/std_msgs/Time.h ****       this->data.nsec |= ((uint32_t) (*(inbuffer + offset + 1))) << (8 * 1);
 107              		.loc 1 44 0
 108 0020 4A79     		ldrb	r2, [r1, #5]	@ zero_extendqisi2
 109 0022 43EA0223 		orr	r3, r3, r2, lsl #8
 110 0026 8360     		str	r3, [r0, #8]
  45:../Libraries/ROSSerial/std_msgs/Time.h ****       this->data.nsec |= ((uint32_t) (*(inbuffer + offset + 2))) << (8 * 2);
 111              		.loc 1 45 0
 112 0028 8A79     		ldrb	r2, [r1, #6]	@ zero_extendqisi2
 113 002a 43EA0243 		orr	r3, r3, r2, lsl #16
 114 002e 8360     		str	r3, [r0, #8]
  46:../Libraries/ROSSerial/std_msgs/Time.h ****       this->data.nsec |= ((uint32_t) (*(inbuffer + offset + 3))) << (8 * 3);
 115              		.loc 1 46 0
 116 0030 CA79     		ldrb	r2, [r1, #7]	@ zero_extendqisi2
 117 0032 43EA0263 		orr	r3, r3, r2, lsl #24
 118 0036 8360     		str	r3, [r0, #8]
 119              	.LVL6:
  47:../Libraries/ROSSerial/std_msgs/Time.h ****       offset += sizeof(this->data.nsec);
  48:../Libraries/ROSSerial/std_msgs/Time.h ****      return offset;
  49:../Libraries/ROSSerial/std_msgs/Time.h ****     }
 120              		.loc 1 49 0
 121 0038 0820     		movs	r0, #8
 122              	.LVL7:
 123 003a 7047     		bx	lr
 124              		.cfi_endproc
 125              	.LFE384:
ARM GAS  /var/folders/l3/4y5292px21b4835bsnjwqc7w009kq1/T//ccNqrcnV.s 			page 4


 126              		.cantunwind
 127              		.fnend
 129              		.section	.text._ZN8std_msgs4Time7getTypeEv,"axG",%progbits,_ZN8std_msgs4Time7getTypeEv,comdat
 130              		.align	1
 131              		.weak	_ZN8std_msgs4Time7getTypeEv
 132              		.syntax unified
 133              		.thumb
 134              		.thumb_func
 135              		.fpu fpv4-sp-d16
 137              	_ZN8std_msgs4Time7getTypeEv:
 138              		.fnstart
 139              	.LFB385:
  50:../Libraries/ROSSerial/std_msgs/Time.h **** 
  51:../Libraries/ROSSerial/std_msgs/Time.h ****     const char * getType(){ return "std_msgs/Time"; };
 140              		.loc 1 51 0
 141              		.cfi_startproc
 142              		@ args = 0, pretend = 0, frame = 0
 143              		@ frame_needed = 0, uses_anonymous_args = 0
 144              		@ link register save eliminated.
 145              	.LVL8:
 146              		.loc 1 51 0
 147 0000 0048     		ldr	r0, .L4
 148              	.LVL9:
 149 0002 7047     		bx	lr
 150              	.L5:
 151              		.align	2
 152              	.L4:
 153 0004 00000000 		.word	.LC0
 154              		.cfi_endproc
 155              	.LFE385:
 156              		.cantunwind
 157              		.fnend
 159              		.section	.text._ZN8std_msgs4Time6getMD5Ev,"axG",%progbits,_ZN8std_msgs4Time6getMD5Ev,comdat
 160              		.align	1
 161              		.weak	_ZN8std_msgs4Time6getMD5Ev
 162              		.syntax unified
 163              		.thumb
 164              		.thumb_func
 165              		.fpu fpv4-sp-d16
 167              	_ZN8std_msgs4Time6getMD5Ev:
 168              		.fnstart
 169              	.LFB386:
  52:../Libraries/ROSSerial/std_msgs/Time.h ****     const char * getMD5(){ return "cd7166c74c552c311fbcc2fe5a7bc289"; };
 170              		.loc 1 52 0
 171              		.cfi_startproc
 172              		@ args = 0, pretend = 0, frame = 0
 173              		@ frame_needed = 0, uses_anonymous_args = 0
 174              		@ link register save eliminated.
 175              	.LVL10:
 176              		.loc 1 52 0
 177 0000 0048     		ldr	r0, .L7
 178              	.LVL11:
 179 0002 7047     		bx	lr
 180              	.L8:
 181              		.align	2
 182              	.L7:
 183 0004 00000000 		.word	.LC1
ARM GAS  /var/folders/l3/4y5292px21b4835bsnjwqc7w009kq1/T//ccNqrcnV.s 			page 5


 184              		.cfi_endproc
 185              	.LFE386:
 186              		.cantunwind
 187              		.fnend
 189              		.section	.text._ZN14rosserial_msgs9TopicInfo11deserializeEPh,"axG",%progbits,_ZN14rosserial_msgs9T
 190              		.align	1
 191              		.weak	_ZN14rosserial_msgs9TopicInfo11deserializeEPh
 192              		.syntax unified
 193              		.thumb
 194              		.thumb_func
 195              		.fpu fpv4-sp-d16
 197              	_ZN14rosserial_msgs9TopicInfo11deserializeEPh:
 198              		.fnstart
 199              	.LFB388:
 200              		.file 2 "../Libraries/ROSSerial/rosserial_msgs/TopicInfo.h"
   1:../Libraries/ROSSerial/rosserial_msgs/TopicInfo.h **** #ifndef _ROS_rosserial_msgs_TopicInfo_h
   2:../Libraries/ROSSerial/rosserial_msgs/TopicInfo.h **** #define _ROS_rosserial_msgs_TopicInfo_h
   3:../Libraries/ROSSerial/rosserial_msgs/TopicInfo.h **** 
   4:../Libraries/ROSSerial/rosserial_msgs/TopicInfo.h **** #include <stdint.h>
   5:../Libraries/ROSSerial/rosserial_msgs/TopicInfo.h **** #include <string.h>
   6:../Libraries/ROSSerial/rosserial_msgs/TopicInfo.h **** #include <stdlib.h>
   7:../Libraries/ROSSerial/rosserial_msgs/TopicInfo.h **** #include "ros/msg.h"
   8:../Libraries/ROSSerial/rosserial_msgs/TopicInfo.h **** 
   9:../Libraries/ROSSerial/rosserial_msgs/TopicInfo.h **** namespace rosserial_msgs
  10:../Libraries/ROSSerial/rosserial_msgs/TopicInfo.h **** {
  11:../Libraries/ROSSerial/rosserial_msgs/TopicInfo.h **** 
  12:../Libraries/ROSSerial/rosserial_msgs/TopicInfo.h ****   class TopicInfo : public ros::Msg
  13:../Libraries/ROSSerial/rosserial_msgs/TopicInfo.h ****   {
  14:../Libraries/ROSSerial/rosserial_msgs/TopicInfo.h ****     public:
  15:../Libraries/ROSSerial/rosserial_msgs/TopicInfo.h ****       uint16_t topic_id;
  16:../Libraries/ROSSerial/rosserial_msgs/TopicInfo.h ****       const char* topic_name;
  17:../Libraries/ROSSerial/rosserial_msgs/TopicInfo.h ****       const char* message_type;
  18:../Libraries/ROSSerial/rosserial_msgs/TopicInfo.h ****       const char* md5sum;
  19:../Libraries/ROSSerial/rosserial_msgs/TopicInfo.h ****       int32_t buffer_size;
  20:../Libraries/ROSSerial/rosserial_msgs/TopicInfo.h ****       enum { ID_PUBLISHER = 0 };
  21:../Libraries/ROSSerial/rosserial_msgs/TopicInfo.h ****       enum { ID_SUBSCRIBER = 1 };
  22:../Libraries/ROSSerial/rosserial_msgs/TopicInfo.h ****       enum { ID_SERVICE_SERVER = 2 };
  23:../Libraries/ROSSerial/rosserial_msgs/TopicInfo.h ****       enum { ID_SERVICE_CLIENT = 4 };
  24:../Libraries/ROSSerial/rosserial_msgs/TopicInfo.h ****       enum { ID_PARAMETER_REQUEST = 6 };
  25:../Libraries/ROSSerial/rosserial_msgs/TopicInfo.h ****       enum { ID_LOG = 7 };
  26:../Libraries/ROSSerial/rosserial_msgs/TopicInfo.h ****       enum { ID_TIME = 10 };
  27:../Libraries/ROSSerial/rosserial_msgs/TopicInfo.h ****       enum { ID_TX_STOP = 11 };
  28:../Libraries/ROSSerial/rosserial_msgs/TopicInfo.h **** 
  29:../Libraries/ROSSerial/rosserial_msgs/TopicInfo.h ****     virtual int serialize(unsigned char *outbuffer) const
  30:../Libraries/ROSSerial/rosserial_msgs/TopicInfo.h ****     {
  31:../Libraries/ROSSerial/rosserial_msgs/TopicInfo.h ****       int offset = 0;
  32:../Libraries/ROSSerial/rosserial_msgs/TopicInfo.h ****       *(outbuffer + offset + 0) = (this->topic_id >> (8 * 0)) & 0xFF;
  33:../Libraries/ROSSerial/rosserial_msgs/TopicInfo.h ****       *(outbuffer + offset + 1) = (this->topic_id >> (8 * 1)) & 0xFF;
  34:../Libraries/ROSSerial/rosserial_msgs/TopicInfo.h ****       offset += sizeof(this->topic_id);
  35:../Libraries/ROSSerial/rosserial_msgs/TopicInfo.h ****       uint32_t length_topic_name = strlen(this->topic_name);
  36:../Libraries/ROSSerial/rosserial_msgs/TopicInfo.h ****       memcpy(outbuffer + offset, &length_topic_name, sizeof(uint32_t));
  37:../Libraries/ROSSerial/rosserial_msgs/TopicInfo.h ****       offset += 4;
  38:../Libraries/ROSSerial/rosserial_msgs/TopicInfo.h ****       memcpy(outbuffer + offset, this->topic_name, length_topic_name);
  39:../Libraries/ROSSerial/rosserial_msgs/TopicInfo.h ****       offset += length_topic_name;
  40:../Libraries/ROSSerial/rosserial_msgs/TopicInfo.h ****       uint32_t length_message_type = strlen(this->message_type);
  41:../Libraries/ROSSerial/rosserial_msgs/TopicInfo.h ****       memcpy(outbuffer + offset, &length_message_type, sizeof(uint32_t));
  42:../Libraries/ROSSerial/rosserial_msgs/TopicInfo.h ****       offset += 4;
ARM GAS  /var/folders/l3/4y5292px21b4835bsnjwqc7w009kq1/T//ccNqrcnV.s 			page 6


  43:../Libraries/ROSSerial/rosserial_msgs/TopicInfo.h ****       memcpy(outbuffer + offset, this->message_type, length_message_type);
  44:../Libraries/ROSSerial/rosserial_msgs/TopicInfo.h ****       offset += length_message_type;
  45:../Libraries/ROSSerial/rosserial_msgs/TopicInfo.h ****       uint32_t length_md5sum = strlen(this->md5sum);
  46:../Libraries/ROSSerial/rosserial_msgs/TopicInfo.h ****       memcpy(outbuffer + offset, &length_md5sum, sizeof(uint32_t));
  47:../Libraries/ROSSerial/rosserial_msgs/TopicInfo.h ****       offset += 4;
  48:../Libraries/ROSSerial/rosserial_msgs/TopicInfo.h ****       memcpy(outbuffer + offset, this->md5sum, length_md5sum);
  49:../Libraries/ROSSerial/rosserial_msgs/TopicInfo.h ****       offset += length_md5sum;
  50:../Libraries/ROSSerial/rosserial_msgs/TopicInfo.h ****       union {
  51:../Libraries/ROSSerial/rosserial_msgs/TopicInfo.h ****         int32_t real;
  52:../Libraries/ROSSerial/rosserial_msgs/TopicInfo.h ****         uint32_t base;
  53:../Libraries/ROSSerial/rosserial_msgs/TopicInfo.h ****       } u_buffer_size;
  54:../Libraries/ROSSerial/rosserial_msgs/TopicInfo.h ****       u_buffer_size.real = this->buffer_size;
  55:../Libraries/ROSSerial/rosserial_msgs/TopicInfo.h ****       *(outbuffer + offset + 0) = (u_buffer_size.base >> (8 * 0)) & 0xFF;
  56:../Libraries/ROSSerial/rosserial_msgs/TopicInfo.h ****       *(outbuffer + offset + 1) = (u_buffer_size.base >> (8 * 1)) & 0xFF;
  57:../Libraries/ROSSerial/rosserial_msgs/TopicInfo.h ****       *(outbuffer + offset + 2) = (u_buffer_size.base >> (8 * 2)) & 0xFF;
  58:../Libraries/ROSSerial/rosserial_msgs/TopicInfo.h ****       *(outbuffer + offset + 3) = (u_buffer_size.base >> (8 * 3)) & 0xFF;
  59:../Libraries/ROSSerial/rosserial_msgs/TopicInfo.h ****       offset += sizeof(this->buffer_size);
  60:../Libraries/ROSSerial/rosserial_msgs/TopicInfo.h ****       return offset;
  61:../Libraries/ROSSerial/rosserial_msgs/TopicInfo.h ****     }
  62:../Libraries/ROSSerial/rosserial_msgs/TopicInfo.h **** 
  63:../Libraries/ROSSerial/rosserial_msgs/TopicInfo.h ****     virtual int deserialize(unsigned char *inbuffer)
 201              		.loc 2 63 0
 202              		.cfi_startproc
 203              		@ args = 0, pretend = 0, frame = 0
 204              		@ frame_needed = 0, uses_anonymous_args = 0
 205              		@ link register save eliminated.
 206              	.LVL12:
 207 0000 70B4     		push	{r4, r5, r6}
 208              	.LCFI0:
 209              		.cfi_def_cfa_offset 12
 210              		.cfi_offset 4, -12
 211              		.cfi_offset 5, -8
 212              		.cfi_offset 6, -4
 213              	.LVL13:
  64:../Libraries/ROSSerial/rosserial_msgs/TopicInfo.h ****     {
  65:../Libraries/ROSSerial/rosserial_msgs/TopicInfo.h ****       int offset = 0;
  66:../Libraries/ROSSerial/rosserial_msgs/TopicInfo.h ****       this->topic_id =  ((uint16_t) (*(inbuffer + offset)));
 214              		.loc 2 66 0
 215 0002 0B78     		ldrb	r3, [r1]	@ zero_extendqisi2
 216 0004 8380     		strh	r3, [r0, #4]	@ movhi
  67:../Libraries/ROSSerial/rosserial_msgs/TopicInfo.h ****       this->topic_id |= ((uint16_t) (*(inbuffer + offset + 1))) << (8 * 1);
 217              		.loc 2 67 0
 218 0006 4A78     		ldrb	r2, [r1, #1]	@ zero_extendqisi2
 219 0008 43EA0223 		orr	r3, r3, r2, lsl #8
 220 000c 8380     		strh	r3, [r0, #4]	@ movhi
 221              	.LVL14:
  68:../Libraries/ROSSerial/rosserial_msgs/TopicInfo.h ****       offset += sizeof(this->topic_id);
  69:../Libraries/ROSSerial/rosserial_msgs/TopicInfo.h ****       uint32_t length_topic_name;
  70:../Libraries/ROSSerial/rosserial_msgs/TopicInfo.h ****       memcpy(&length_topic_name, (inbuffer + offset), sizeof(uint32_t));
 222              		.loc 2 70 0
 223 000e D1F80250 		ldr	r5, [r1, #2]	@ unaligned
 224              	.LVL15:
 225              	.LBB100:
  71:../Libraries/ROSSerial/rosserial_msgs/TopicInfo.h ****       offset += 4;
  72:../Libraries/ROSSerial/rosserial_msgs/TopicInfo.h ****       for(unsigned int k= offset; k< offset+length_topic_name; ++k){
 226              		.loc 2 72 0
 227 0012 0623     		movs	r3, #6
ARM GAS  /var/folders/l3/4y5292px21b4835bsnjwqc7w009kq1/T//ccNqrcnV.s 			page 7


 228              	.LVL16:
 229              	.L11:
 230              		.loc 2 72 0 is_stmt 0 discriminator 3
 231 0014 AA1D     		adds	r2, r5, #6
 232 0016 9A42     		cmp	r2, r3
 233 0018 04D9     		bls	.L10
  73:../Libraries/ROSSerial/rosserial_msgs/TopicInfo.h ****           inbuffer[k-1]=inbuffer[k];
 234              		.loc 2 73 0 is_stmt 1 discriminator 2
 235 001a 5A1E     		subs	r2, r3, #1
 236 001c CC5C     		ldrb	r4, [r1, r3]	@ zero_extendqisi2
 237 001e 8C54     		strb	r4, [r1, r2]
  72:../Libraries/ROSSerial/rosserial_msgs/TopicInfo.h ****           inbuffer[k-1]=inbuffer[k];
 238              		.loc 2 72 0 discriminator 2
 239 0020 0133     		adds	r3, r3, #1
 240              	.LVL17:
 241 0022 F7E7     		b	.L11
 242              	.L10:
 243              	.LBE100:
  74:../Libraries/ROSSerial/rosserial_msgs/TopicInfo.h ****       }
  75:../Libraries/ROSSerial/rosserial_msgs/TopicInfo.h ****       inbuffer[offset+length_topic_name-1]=0;
 244              		.loc 2 75 0
 245 0024 0535     		adds	r5, r5, #5
 246              	.LVL18:
 247 0026 0023     		movs	r3, #0
 248              	.LVL19:
 249 0028 4B55     		strb	r3, [r1, r5]
  76:../Libraries/ROSSerial/rosserial_msgs/TopicInfo.h ****       this->topic_name = (char *)(inbuffer + offset-1);
 250              		.loc 2 76 0
 251 002a 4B1D     		adds	r3, r1, #5
 252 002c 8360     		str	r3, [r0, #8]
 253              	.LVL20:
  77:../Libraries/ROSSerial/rosserial_msgs/TopicInfo.h ****       offset += length_topic_name;
  78:../Libraries/ROSSerial/rosserial_msgs/TopicInfo.h ****       uint32_t length_message_type;
  79:../Libraries/ROSSerial/rosserial_msgs/TopicInfo.h ****       memcpy(&length_message_type, (inbuffer + offset), sizeof(uint32_t));
 254              		.loc 2 79 0
 255 002e 8E58     		ldr	r6, [r1, r2]	@ unaligned
 256              	.LVL21:
  80:../Libraries/ROSSerial/rosserial_msgs/TopicInfo.h ****       offset += 4;
 257              		.loc 2 80 0
 258 0030 141D     		adds	r4, r2, #4
 259              	.LVL22:
 260              	.LBB101:
  81:../Libraries/ROSSerial/rosserial_msgs/TopicInfo.h ****       for(unsigned int k= offset; k< offset+length_message_type; ++k){
 261              		.loc 2 81 0
 262 0032 2346     		mov	r3, r4
 263              	.LVL23:
 264              	.L13:
 265              		.loc 2 81 0 is_stmt 0 discriminator 3
 266 0034 3219     		adds	r2, r6, r4
 267 0036 9A42     		cmp	r2, r3
 268 0038 04D9     		bls	.L12
  82:../Libraries/ROSSerial/rosserial_msgs/TopicInfo.h ****           inbuffer[k-1]=inbuffer[k];
 269              		.loc 2 82 0 is_stmt 1 discriminator 2
 270 003a 5A1E     		subs	r2, r3, #1
 271 003c CD5C     		ldrb	r5, [r1, r3]	@ zero_extendqisi2
 272 003e 8D54     		strb	r5, [r1, r2]
  81:../Libraries/ROSSerial/rosserial_msgs/TopicInfo.h ****       for(unsigned int k= offset; k< offset+length_message_type; ++k){
ARM GAS  /var/folders/l3/4y5292px21b4835bsnjwqc7w009kq1/T//ccNqrcnV.s 			page 8


 273              		.loc 2 81 0 discriminator 2
 274 0040 0133     		adds	r3, r3, #1
 275              	.LVL24:
 276 0042 F7E7     		b	.L13
 277              	.L12:
 278              	.LBE101:
  83:../Libraries/ROSSerial/rosserial_msgs/TopicInfo.h ****       }
  84:../Libraries/ROSSerial/rosserial_msgs/TopicInfo.h ****       inbuffer[offset+length_message_type-1]=0;
 279              		.loc 2 84 0
 280 0044 531E     		subs	r3, r2, #1
 281              	.LVL25:
 282 0046 0025     		movs	r5, #0
 283 0048 CD54     		strb	r5, [r1, r3]
  85:../Libraries/ROSSerial/rosserial_msgs/TopicInfo.h ****       this->message_type = (char *)(inbuffer + offset-1);
 284              		.loc 2 85 0
 285 004a 013C     		subs	r4, r4, #1
 286              	.LVL26:
 287 004c 0C44     		add	r4, r4, r1
 288              	.LVL27:
 289 004e C460     		str	r4, [r0, #12]
 290              	.LVL28:
  86:../Libraries/ROSSerial/rosserial_msgs/TopicInfo.h ****       offset += length_message_type;
  87:../Libraries/ROSSerial/rosserial_msgs/TopicInfo.h ****       uint32_t length_md5sum;
  88:../Libraries/ROSSerial/rosserial_msgs/TopicInfo.h ****       memcpy(&length_md5sum, (inbuffer + offset), sizeof(uint32_t));
 291              		.loc 2 88 0
 292 0050 8E58     		ldr	r6, [r1, r2]	@ unaligned
 293              	.LVL29:
  89:../Libraries/ROSSerial/rosserial_msgs/TopicInfo.h ****       offset += 4;
 294              		.loc 2 89 0
 295 0052 0432     		adds	r2, r2, #4
 296              	.LVL30:
 297              	.LBB102:
  90:../Libraries/ROSSerial/rosserial_msgs/TopicInfo.h ****       for(unsigned int k= offset; k< offset+length_md5sum; ++k){
 298              		.loc 2 90 0
 299 0054 1346     		mov	r3, r2
 300              	.LVL31:
 301              	.L15:
 302              		.loc 2 90 0 is_stmt 0 discriminator 3
 303 0056 B418     		adds	r4, r6, r2
 304 0058 9C42     		cmp	r4, r3
 305 005a 04D9     		bls	.L14
  91:../Libraries/ROSSerial/rosserial_msgs/TopicInfo.h ****           inbuffer[k-1]=inbuffer[k];
 306              		.loc 2 91 0 is_stmt 1 discriminator 2
 307 005c 5C1E     		subs	r4, r3, #1
 308 005e CD5C     		ldrb	r5, [r1, r3]	@ zero_extendqisi2
 309 0060 0D55     		strb	r5, [r1, r4]
  90:../Libraries/ROSSerial/rosserial_msgs/TopicInfo.h ****       for(unsigned int k= offset; k< offset+length_md5sum; ++k){
 310              		.loc 2 90 0 discriminator 2
 311 0062 0133     		adds	r3, r3, #1
 312              	.LVL32:
 313 0064 F7E7     		b	.L15
 314              	.L14:
 315              	.LBE102:
  92:../Libraries/ROSSerial/rosserial_msgs/TopicInfo.h ****       }
  93:../Libraries/ROSSerial/rosserial_msgs/TopicInfo.h ****       inbuffer[offset+length_md5sum-1]=0;
 316              		.loc 2 93 0
 317 0066 631E     		subs	r3, r4, #1
ARM GAS  /var/folders/l3/4y5292px21b4835bsnjwqc7w009kq1/T//ccNqrcnV.s 			page 9


 318              	.LVL33:
 319 0068 0025     		movs	r5, #0
 320 006a CD54     		strb	r5, [r1, r3]
  94:../Libraries/ROSSerial/rosserial_msgs/TopicInfo.h ****       this->md5sum = (char *)(inbuffer + offset-1);
 321              		.loc 2 94 0
 322 006c 013A     		subs	r2, r2, #1
 323 006e 0A44     		add	r2, r2, r1
 324 0070 0261     		str	r2, [r0, #16]
 325              	.LVL34:
  95:../Libraries/ROSSerial/rosserial_msgs/TopicInfo.h ****       offset += length_md5sum;
  96:../Libraries/ROSSerial/rosserial_msgs/TopicInfo.h ****       union {
  97:../Libraries/ROSSerial/rosserial_msgs/TopicInfo.h ****         int32_t real;
  98:../Libraries/ROSSerial/rosserial_msgs/TopicInfo.h ****         uint32_t base;
  99:../Libraries/ROSSerial/rosserial_msgs/TopicInfo.h ****       } u_buffer_size;
 100:../Libraries/ROSSerial/rosserial_msgs/TopicInfo.h ****       u_buffer_size.base = 0;
 101:../Libraries/ROSSerial/rosserial_msgs/TopicInfo.h ****       u_buffer_size.base |= ((uint32_t) (*(inbuffer + offset + 0))) << (8 * 0);
 326              		.loc 2 101 0
 327 0072 0B5D     		ldrb	r3, [r1, r4]	@ zero_extendqisi2
 102:../Libraries/ROSSerial/rosserial_msgs/TopicInfo.h ****       u_buffer_size.base |= ((uint32_t) (*(inbuffer + offset + 1))) << (8 * 1);
 328              		.loc 2 102 0
 329 0074 621C     		adds	r2, r4, #1
 330 0076 8A5C     		ldrb	r2, [r1, r2]	@ zero_extendqisi2
 331 0078 43EA0223 		orr	r3, r3, r2, lsl #8
 103:../Libraries/ROSSerial/rosserial_msgs/TopicInfo.h ****       u_buffer_size.base |= ((uint32_t) (*(inbuffer + offset + 2))) << (8 * 2);
 332              		.loc 2 103 0
 333 007c A21C     		adds	r2, r4, #2
 334 007e 8A5C     		ldrb	r2, [r1, r2]	@ zero_extendqisi2
 335 0080 43EA0243 		orr	r3, r3, r2, lsl #16
 104:../Libraries/ROSSerial/rosserial_msgs/TopicInfo.h ****       u_buffer_size.base |= ((uint32_t) (*(inbuffer + offset + 3))) << (8 * 3);
 336              		.loc 2 104 0
 337 0084 E21C     		adds	r2, r4, #3
 338 0086 8A5C     		ldrb	r2, [r1, r2]	@ zero_extendqisi2
 339 0088 43EA0263 		orr	r3, r3, r2, lsl #24
 105:../Libraries/ROSSerial/rosserial_msgs/TopicInfo.h ****       this->buffer_size = u_buffer_size.real;
 340              		.loc 2 105 0
 341 008c 4361     		str	r3, [r0, #20]
 342              	.LVL35:
 106:../Libraries/ROSSerial/rosserial_msgs/TopicInfo.h ****       offset += sizeof(this->buffer_size);
 107:../Libraries/ROSSerial/rosserial_msgs/TopicInfo.h ****      return offset;
 108:../Libraries/ROSSerial/rosserial_msgs/TopicInfo.h ****     }
 343              		.loc 2 108 0
 344 008e 201D     		adds	r0, r4, #4
 345              	.LVL36:
 346 0090 70BC     		pop	{r4, r5, r6}
 347              	.LCFI1:
 348              		.cfi_restore 6
 349              		.cfi_restore 5
 350              		.cfi_restore 4
 351              		.cfi_def_cfa_offset 0
 352 0092 7047     		bx	lr
 353              		.cfi_endproc
 354              	.LFE388:
 355              		.cantunwind
 356              		.fnend
 358              		.section	.text._ZN14rosserial_msgs9TopicInfo7getTypeEv,"axG",%progbits,_ZN14rosserial_msgs9TopicIn
 359              		.align	1
 360              		.weak	_ZN14rosserial_msgs9TopicInfo7getTypeEv
ARM GAS  /var/folders/l3/4y5292px21b4835bsnjwqc7w009kq1/T//ccNqrcnV.s 			page 10


 361              		.syntax unified
 362              		.thumb
 363              		.thumb_func
 364              		.fpu fpv4-sp-d16
 366              	_ZN14rosserial_msgs9TopicInfo7getTypeEv:
 367              		.fnstart
 368              	.LFB389:
 109:../Libraries/ROSSerial/rosserial_msgs/TopicInfo.h **** 
 110:../Libraries/ROSSerial/rosserial_msgs/TopicInfo.h ****     const char * getType(){ return "rosserial_msgs/TopicInfo"; };
 369              		.loc 2 110 0
 370              		.cfi_startproc
 371              		@ args = 0, pretend = 0, frame = 0
 372              		@ frame_needed = 0, uses_anonymous_args = 0
 373              		@ link register save eliminated.
 374              	.LVL37:
 375              		.loc 2 110 0
 376 0000 0048     		ldr	r0, .L18
 377              	.LVL38:
 378 0002 7047     		bx	lr
 379              	.L19:
 380              		.align	2
 381              	.L18:
 382 0004 00000000 		.word	.LC2
 383              		.cfi_endproc
 384              	.LFE389:
 385              		.cantunwind
 386              		.fnend
 388              		.section	.text._ZN14rosserial_msgs9TopicInfo6getMD5Ev,"axG",%progbits,_ZN14rosserial_msgs9TopicInf
 389              		.align	1
 390              		.weak	_ZN14rosserial_msgs9TopicInfo6getMD5Ev
 391              		.syntax unified
 392              		.thumb
 393              		.thumb_func
 394              		.fpu fpv4-sp-d16
 396              	_ZN14rosserial_msgs9TopicInfo6getMD5Ev:
 397              		.fnstart
 398              	.LFB390:
 111:../Libraries/ROSSerial/rosserial_msgs/TopicInfo.h ****     const char * getMD5(){ return "0ad51f88fc44892f8c10684077646005"; };
 399              		.loc 2 111 0
 400              		.cfi_startproc
 401              		@ args = 0, pretend = 0, frame = 0
 402              		@ frame_needed = 0, uses_anonymous_args = 0
 403              		@ link register save eliminated.
 404              	.LVL39:
 405              		.loc 2 111 0
 406 0000 0048     		ldr	r0, .L21
 407              	.LVL40:
 408 0002 7047     		bx	lr
 409              	.L22:
 410              		.align	2
 411              	.L21:
 412 0004 00000000 		.word	.LC3
 413              		.cfi_endproc
 414              	.LFE390:
 415              		.cantunwind
 416              		.fnend
 418              		.section	.text._ZN14rosserial_msgs3Log11deserializeEPh,"axG",%progbits,_ZN14rosserial_msgs3Log11de
ARM GAS  /var/folders/l3/4y5292px21b4835bsnjwqc7w009kq1/T//ccNqrcnV.s 			page 11


 419              		.align	1
 420              		.weak	_ZN14rosserial_msgs3Log11deserializeEPh
 421              		.syntax unified
 422              		.thumb
 423              		.thumb_func
 424              		.fpu fpv4-sp-d16
 426              	_ZN14rosserial_msgs3Log11deserializeEPh:
 427              		.fnstart
 428              	.LFB392:
 429              		.file 3 "../Libraries/ROSSerial/rosserial_msgs/Log.h"
   1:../Libraries/ROSSerial/rosserial_msgs/Log.h **** #ifndef _ROS_rosserial_msgs_Log_h
   2:../Libraries/ROSSerial/rosserial_msgs/Log.h **** #define _ROS_rosserial_msgs_Log_h
   3:../Libraries/ROSSerial/rosserial_msgs/Log.h **** 
   4:../Libraries/ROSSerial/rosserial_msgs/Log.h **** #include <stdint.h>
   5:../Libraries/ROSSerial/rosserial_msgs/Log.h **** #include <string.h>
   6:../Libraries/ROSSerial/rosserial_msgs/Log.h **** #include <stdlib.h>
   7:../Libraries/ROSSerial/rosserial_msgs/Log.h **** #include "ros/msg.h"
   8:../Libraries/ROSSerial/rosserial_msgs/Log.h **** 
   9:../Libraries/ROSSerial/rosserial_msgs/Log.h **** 
  10:../Libraries/ROSSerial/rosserial_msgs/Log.h **** namespace rosserial_msgs
  11:../Libraries/ROSSerial/rosserial_msgs/Log.h **** {
  12:../Libraries/ROSSerial/rosserial_msgs/Log.h **** 
  13:../Libraries/ROSSerial/rosserial_msgs/Log.h ****   class Log : public ros::Msg
  14:../Libraries/ROSSerial/rosserial_msgs/Log.h ****   {
  15:../Libraries/ROSSerial/rosserial_msgs/Log.h ****     public:
  16:../Libraries/ROSSerial/rosserial_msgs/Log.h ****       uint8_t level;
  17:../Libraries/ROSSerial/rosserial_msgs/Log.h ****       const char* msg;
  18:../Libraries/ROSSerial/rosserial_msgs/Log.h ****       enum { ROSDEBUG = 0 };
  19:../Libraries/ROSSerial/rosserial_msgs/Log.h ****       enum { INFO = 1 };
  20:../Libraries/ROSSerial/rosserial_msgs/Log.h ****       enum { WARN = 2 };
  21:../Libraries/ROSSerial/rosserial_msgs/Log.h ****       enum { ERROR = 3 };
  22:../Libraries/ROSSerial/rosserial_msgs/Log.h ****       enum { FATAL = 4 };
  23:../Libraries/ROSSerial/rosserial_msgs/Log.h **** 
  24:../Libraries/ROSSerial/rosserial_msgs/Log.h ****     virtual int serialize(unsigned char *outbuffer) const
  25:../Libraries/ROSSerial/rosserial_msgs/Log.h ****     {
  26:../Libraries/ROSSerial/rosserial_msgs/Log.h ****       int offset = 0;
  27:../Libraries/ROSSerial/rosserial_msgs/Log.h ****       *(outbuffer + offset + 0) = (this->level >> (8 * 0)) & 0xFF;
  28:../Libraries/ROSSerial/rosserial_msgs/Log.h ****       offset += sizeof(this->level);
  29:../Libraries/ROSSerial/rosserial_msgs/Log.h ****       uint32_t length_msg = strlen(this->msg);
  30:../Libraries/ROSSerial/rosserial_msgs/Log.h ****       memcpy(outbuffer + offset, &length_msg, sizeof(uint32_t));
  31:../Libraries/ROSSerial/rosserial_msgs/Log.h ****       offset += 4;
  32:../Libraries/ROSSerial/rosserial_msgs/Log.h ****       memcpy(outbuffer + offset, this->msg, length_msg);
  33:../Libraries/ROSSerial/rosserial_msgs/Log.h ****       offset += length_msg;
  34:../Libraries/ROSSerial/rosserial_msgs/Log.h ****       return offset;
  35:../Libraries/ROSSerial/rosserial_msgs/Log.h ****     }
  36:../Libraries/ROSSerial/rosserial_msgs/Log.h **** 
  37:../Libraries/ROSSerial/rosserial_msgs/Log.h ****     virtual int deserialize(unsigned char *inbuffer)
 430              		.loc 3 37 0
 431              		.cfi_startproc
 432              		@ args = 0, pretend = 0, frame = 0
 433              		@ frame_needed = 0, uses_anonymous_args = 0
 434              		@ link register save eliminated.
 435              	.LVL41:
 436 0000 30B4     		push	{r4, r5}
 437              	.LCFI2:
 438              		.cfi_def_cfa_offset 8
 439              		.cfi_offset 4, -8
ARM GAS  /var/folders/l3/4y5292px21b4835bsnjwqc7w009kq1/T//ccNqrcnV.s 			page 12


 440              		.cfi_offset 5, -4
 441              	.LVL42:
  38:../Libraries/ROSSerial/rosserial_msgs/Log.h ****     {
  39:../Libraries/ROSSerial/rosserial_msgs/Log.h ****       int offset = 0;
  40:../Libraries/ROSSerial/rosserial_msgs/Log.h ****       this->level =  ((uint8_t) (*(inbuffer + offset)));
 442              		.loc 3 40 0
 443 0002 0B78     		ldrb	r3, [r1]	@ zero_extendqisi2
 444 0004 0371     		strb	r3, [r0, #4]
 445              	.LVL43:
  41:../Libraries/ROSSerial/rosserial_msgs/Log.h ****       offset += sizeof(this->level);
  42:../Libraries/ROSSerial/rosserial_msgs/Log.h ****       uint32_t length_msg;
  43:../Libraries/ROSSerial/rosserial_msgs/Log.h ****       memcpy(&length_msg, (inbuffer + offset), sizeof(uint32_t));
 446              		.loc 3 43 0
 447 0006 D1F80150 		ldr	r5, [r1, #1]	@ unaligned
 448              	.LVL44:
 449              	.LBB103:
  44:../Libraries/ROSSerial/rosserial_msgs/Log.h ****       offset += 4;
  45:../Libraries/ROSSerial/rosserial_msgs/Log.h ****       for(unsigned int k= offset; k< offset+length_msg; ++k){
 450              		.loc 3 45 0
 451 000a 0523     		movs	r3, #5
 452              	.LVL45:
 453              	.L25:
 454              		.loc 3 45 0 is_stmt 0 discriminator 3
 455 000c 6A1D     		adds	r2, r5, #5
 456 000e 9A42     		cmp	r2, r3
 457 0010 04D9     		bls	.L24
  46:../Libraries/ROSSerial/rosserial_msgs/Log.h ****           inbuffer[k-1]=inbuffer[k];
 458              		.loc 3 46 0 is_stmt 1 discriminator 2
 459 0012 5A1E     		subs	r2, r3, #1
 460 0014 CC5C     		ldrb	r4, [r1, r3]	@ zero_extendqisi2
 461 0016 8C54     		strb	r4, [r1, r2]
  45:../Libraries/ROSSerial/rosserial_msgs/Log.h ****           inbuffer[k-1]=inbuffer[k];
 462              		.loc 3 45 0 discriminator 2
 463 0018 0133     		adds	r3, r3, #1
 464              	.LVL46:
 465 001a F7E7     		b	.L25
 466              	.L24:
 467              	.LBE103:
  47:../Libraries/ROSSerial/rosserial_msgs/Log.h ****       }
  48:../Libraries/ROSSerial/rosserial_msgs/Log.h ****       inbuffer[offset+length_msg-1]=0;
 468              		.loc 3 48 0
 469 001c 0435     		adds	r5, r5, #4
 470              	.LVL47:
 471 001e 0023     		movs	r3, #0
 472              	.LVL48:
 473 0020 4B55     		strb	r3, [r1, r5]
  49:../Libraries/ROSSerial/rosserial_msgs/Log.h ****       this->msg = (char *)(inbuffer + offset-1);
 474              		.loc 3 49 0
 475 0022 0431     		adds	r1, r1, #4
 476              	.LVL49:
 477 0024 8160     		str	r1, [r0, #8]
 478              	.LVL50:
  50:../Libraries/ROSSerial/rosserial_msgs/Log.h ****       offset += length_msg;
  51:../Libraries/ROSSerial/rosserial_msgs/Log.h ****      return offset;
  52:../Libraries/ROSSerial/rosserial_msgs/Log.h ****     }
 479              		.loc 3 52 0
 480 0026 1046     		mov	r0, r2
ARM GAS  /var/folders/l3/4y5292px21b4835bsnjwqc7w009kq1/T//ccNqrcnV.s 			page 13


 481              	.LVL51:
 482 0028 30BC     		pop	{r4, r5}
 483              	.LCFI3:
 484              		.cfi_restore 5
 485              		.cfi_restore 4
 486              		.cfi_def_cfa_offset 0
 487 002a 7047     		bx	lr
 488              		.cfi_endproc
 489              	.LFE392:
 490              		.cantunwind
 491              		.fnend
 493              		.section	.text._ZN14rosserial_msgs3Log7getTypeEv,"axG",%progbits,_ZN14rosserial_msgs3Log7getTypeEv
 494              		.align	1
 495              		.weak	_ZN14rosserial_msgs3Log7getTypeEv
 496              		.syntax unified
 497              		.thumb
 498              		.thumb_func
 499              		.fpu fpv4-sp-d16
 501              	_ZN14rosserial_msgs3Log7getTypeEv:
 502              		.fnstart
 503              	.LFB393:
  53:../Libraries/ROSSerial/rosserial_msgs/Log.h **** 
  54:../Libraries/ROSSerial/rosserial_msgs/Log.h ****     const char * getType(){ return "rosserial_msgs/Log"; };
 504              		.loc 3 54 0
 505              		.cfi_startproc
 506              		@ args = 0, pretend = 0, frame = 0
 507              		@ frame_needed = 0, uses_anonymous_args = 0
 508              		@ link register save eliminated.
 509              	.LVL52:
 510              		.loc 3 54 0
 511 0000 0048     		ldr	r0, .L28
 512              	.LVL53:
 513 0002 7047     		bx	lr
 514              	.L29:
 515              		.align	2
 516              	.L28:
 517 0004 00000000 		.word	.LC4
 518              		.cfi_endproc
 519              	.LFE393:
 520              		.cantunwind
 521              		.fnend
 523              		.section	.text._ZN14rosserial_msgs3Log6getMD5Ev,"axG",%progbits,_ZN14rosserial_msgs3Log6getMD5Ev,c
 524              		.align	1
 525              		.weak	_ZN14rosserial_msgs3Log6getMD5Ev
 526              		.syntax unified
 527              		.thumb
 528              		.thumb_func
 529              		.fpu fpv4-sp-d16
 531              	_ZN14rosserial_msgs3Log6getMD5Ev:
 532              		.fnstart
 533              	.LFB394:
  55:../Libraries/ROSSerial/rosserial_msgs/Log.h ****     const char * getMD5(){ return "11abd731c25933261cd6183bd12d6295"; };
 534              		.loc 3 55 0
 535              		.cfi_startproc
 536              		@ args = 0, pretend = 0, frame = 0
 537              		@ frame_needed = 0, uses_anonymous_args = 0
 538              		@ link register save eliminated.
ARM GAS  /var/folders/l3/4y5292px21b4835bsnjwqc7w009kq1/T//ccNqrcnV.s 			page 14


 539              	.LVL54:
 540              		.loc 3 55 0
 541 0000 0048     		ldr	r0, .L31
 542              	.LVL55:
 543 0002 7047     		bx	lr
 544              	.L32:
 545              		.align	2
 546              	.L31:
 547 0004 00000000 		.word	.LC5
 548              		.cfi_endproc
 549              	.LFE394:
 550              		.cantunwind
 551              		.fnend
 553              		.section	.text._ZN14rosserial_msgs20RequestParamResponse7getTypeEv,"axG",%progbits,_ZN14rosserial_
 554              		.align	1
 555              		.weak	_ZN14rosserial_msgs20RequestParamResponse7getTypeEv
 556              		.syntax unified
 557              		.thumb
 558              		.thumb_func
 559              		.fpu fpv4-sp-d16
 561              	_ZN14rosserial_msgs20RequestParamResponse7getTypeEv:
 562              		.fnstart
 563              	.LFB401:
 564              		.file 4 "../Libraries/ROSSerial/rosserial_msgs/RequestParam.h"
   1:../Libraries/ROSSerial/rosserial_msgs/RequestParam.h **** #ifndef _ROS_SERVICE_RequestParam_h
   2:../Libraries/ROSSerial/rosserial_msgs/RequestParam.h **** #define _ROS_SERVICE_RequestParam_h
   3:../Libraries/ROSSerial/rosserial_msgs/RequestParam.h **** 
   4:../Libraries/ROSSerial/rosserial_msgs/RequestParam.h **** #include <stdint.h>
   5:../Libraries/ROSSerial/rosserial_msgs/RequestParam.h **** #include <string.h>
   6:../Libraries/ROSSerial/rosserial_msgs/RequestParam.h **** #include <stdlib.h>
   7:../Libraries/ROSSerial/rosserial_msgs/RequestParam.h **** #include "ros/msg.h"
   8:../Libraries/ROSSerial/rosserial_msgs/RequestParam.h **** 
   9:../Libraries/ROSSerial/rosserial_msgs/RequestParam.h **** 
  10:../Libraries/ROSSerial/rosserial_msgs/RequestParam.h **** namespace rosserial_msgs
  11:../Libraries/ROSSerial/rosserial_msgs/RequestParam.h **** {
  12:../Libraries/ROSSerial/rosserial_msgs/RequestParam.h **** 
  13:../Libraries/ROSSerial/rosserial_msgs/RequestParam.h **** static const char REQUESTPARAM[] = "rosserial_msgs/RequestParam";
  14:../Libraries/ROSSerial/rosserial_msgs/RequestParam.h **** 
  15:../Libraries/ROSSerial/rosserial_msgs/RequestParam.h ****   class RequestParamRequest : public ros::Msg
  16:../Libraries/ROSSerial/rosserial_msgs/RequestParam.h ****   {
  17:../Libraries/ROSSerial/rosserial_msgs/RequestParam.h ****     public:
  18:../Libraries/ROSSerial/rosserial_msgs/RequestParam.h ****       const char* name;
  19:../Libraries/ROSSerial/rosserial_msgs/RequestParam.h **** 
  20:../Libraries/ROSSerial/rosserial_msgs/RequestParam.h ****     virtual int serialize(unsigned char *outbuffer) const
  21:../Libraries/ROSSerial/rosserial_msgs/RequestParam.h ****     {
  22:../Libraries/ROSSerial/rosserial_msgs/RequestParam.h ****       int offset = 0;
  23:../Libraries/ROSSerial/rosserial_msgs/RequestParam.h ****       uint32_t length_name = strlen(this->name);
  24:../Libraries/ROSSerial/rosserial_msgs/RequestParam.h ****       memcpy(outbuffer + offset, &length_name, sizeof(uint32_t));
  25:../Libraries/ROSSerial/rosserial_msgs/RequestParam.h ****       offset += 4;
  26:../Libraries/ROSSerial/rosserial_msgs/RequestParam.h ****       memcpy(outbuffer + offset, this->name, length_name);
  27:../Libraries/ROSSerial/rosserial_msgs/RequestParam.h ****       offset += length_name;
  28:../Libraries/ROSSerial/rosserial_msgs/RequestParam.h ****       return offset;
  29:../Libraries/ROSSerial/rosserial_msgs/RequestParam.h ****     }
  30:../Libraries/ROSSerial/rosserial_msgs/RequestParam.h **** 
  31:../Libraries/ROSSerial/rosserial_msgs/RequestParam.h ****     virtual int deserialize(unsigned char *inbuffer)
  32:../Libraries/ROSSerial/rosserial_msgs/RequestParam.h ****     {
  33:../Libraries/ROSSerial/rosserial_msgs/RequestParam.h ****       int offset = 0;
ARM GAS  /var/folders/l3/4y5292px21b4835bsnjwqc7w009kq1/T//ccNqrcnV.s 			page 15


  34:../Libraries/ROSSerial/rosserial_msgs/RequestParam.h ****       uint32_t length_name;
  35:../Libraries/ROSSerial/rosserial_msgs/RequestParam.h ****       memcpy(&length_name, (inbuffer + offset), sizeof(uint32_t));
  36:../Libraries/ROSSerial/rosserial_msgs/RequestParam.h ****       offset += 4;
  37:../Libraries/ROSSerial/rosserial_msgs/RequestParam.h ****       for(unsigned int k= offset; k< offset+length_name; ++k){
  38:../Libraries/ROSSerial/rosserial_msgs/RequestParam.h ****           inbuffer[k-1]=inbuffer[k];
  39:../Libraries/ROSSerial/rosserial_msgs/RequestParam.h ****       }
  40:../Libraries/ROSSerial/rosserial_msgs/RequestParam.h ****       inbuffer[offset+length_name-1]=0;
  41:../Libraries/ROSSerial/rosserial_msgs/RequestParam.h ****       this->name = (char *)(inbuffer + offset-1);
  42:../Libraries/ROSSerial/rosserial_msgs/RequestParam.h ****       offset += length_name;
  43:../Libraries/ROSSerial/rosserial_msgs/RequestParam.h ****      return offset;
  44:../Libraries/ROSSerial/rosserial_msgs/RequestParam.h ****     }
  45:../Libraries/ROSSerial/rosserial_msgs/RequestParam.h **** 
  46:../Libraries/ROSSerial/rosserial_msgs/RequestParam.h ****     const char * getType(){ return REQUESTPARAM; };
  47:../Libraries/ROSSerial/rosserial_msgs/RequestParam.h ****     const char * getMD5(){ return "c1f3d28f1b044c871e6eff2e9fc3c667"; };
  48:../Libraries/ROSSerial/rosserial_msgs/RequestParam.h **** 
  49:../Libraries/ROSSerial/rosserial_msgs/RequestParam.h ****   };
  50:../Libraries/ROSSerial/rosserial_msgs/RequestParam.h **** 
  51:../Libraries/ROSSerial/rosserial_msgs/RequestParam.h ****   class RequestParamResponse : public ros::Msg
  52:../Libraries/ROSSerial/rosserial_msgs/RequestParam.h ****   {
  53:../Libraries/ROSSerial/rosserial_msgs/RequestParam.h ****     public:
  54:../Libraries/ROSSerial/rosserial_msgs/RequestParam.h ****       uint8_t ints_length;
  55:../Libraries/ROSSerial/rosserial_msgs/RequestParam.h ****       int32_t st_ints;
  56:../Libraries/ROSSerial/rosserial_msgs/RequestParam.h ****       int32_t * ints;
  57:../Libraries/ROSSerial/rosserial_msgs/RequestParam.h ****       uint8_t floats_length;
  58:../Libraries/ROSSerial/rosserial_msgs/RequestParam.h ****       float st_floats;
  59:../Libraries/ROSSerial/rosserial_msgs/RequestParam.h ****       float * floats;
  60:../Libraries/ROSSerial/rosserial_msgs/RequestParam.h ****       uint8_t strings_length;
  61:../Libraries/ROSSerial/rosserial_msgs/RequestParam.h ****       char* st_strings;
  62:../Libraries/ROSSerial/rosserial_msgs/RequestParam.h ****       char* * strings;
  63:../Libraries/ROSSerial/rosserial_msgs/RequestParam.h **** 
  64:../Libraries/ROSSerial/rosserial_msgs/RequestParam.h ****     virtual int serialize(unsigned char *outbuffer) const
  65:../Libraries/ROSSerial/rosserial_msgs/RequestParam.h ****     {
  66:../Libraries/ROSSerial/rosserial_msgs/RequestParam.h ****       int offset = 0;
  67:../Libraries/ROSSerial/rosserial_msgs/RequestParam.h ****       *(outbuffer + offset++) = ints_length;
  68:../Libraries/ROSSerial/rosserial_msgs/RequestParam.h ****       *(outbuffer + offset++) = 0;
  69:../Libraries/ROSSerial/rosserial_msgs/RequestParam.h ****       *(outbuffer + offset++) = 0;
  70:../Libraries/ROSSerial/rosserial_msgs/RequestParam.h ****       *(outbuffer + offset++) = 0;
  71:../Libraries/ROSSerial/rosserial_msgs/RequestParam.h ****       for( uint8_t i = 0; i < ints_length; i++){
  72:../Libraries/ROSSerial/rosserial_msgs/RequestParam.h ****       union {
  73:../Libraries/ROSSerial/rosserial_msgs/RequestParam.h ****         int32_t real;
  74:../Libraries/ROSSerial/rosserial_msgs/RequestParam.h ****         uint32_t base;
  75:../Libraries/ROSSerial/rosserial_msgs/RequestParam.h ****       } u_intsi;
  76:../Libraries/ROSSerial/rosserial_msgs/RequestParam.h ****       u_intsi.real = this->ints[i];
  77:../Libraries/ROSSerial/rosserial_msgs/RequestParam.h ****       *(outbuffer + offset + 0) = (u_intsi.base >> (8 * 0)) & 0xFF;
  78:../Libraries/ROSSerial/rosserial_msgs/RequestParam.h ****       *(outbuffer + offset + 1) = (u_intsi.base >> (8 * 1)) & 0xFF;
  79:../Libraries/ROSSerial/rosserial_msgs/RequestParam.h ****       *(outbuffer + offset + 2) = (u_intsi.base >> (8 * 2)) & 0xFF;
  80:../Libraries/ROSSerial/rosserial_msgs/RequestParam.h ****       *(outbuffer + offset + 3) = (u_intsi.base >> (8 * 3)) & 0xFF;
  81:../Libraries/ROSSerial/rosserial_msgs/RequestParam.h ****       offset += sizeof(this->ints[i]);
  82:../Libraries/ROSSerial/rosserial_msgs/RequestParam.h ****       }
  83:../Libraries/ROSSerial/rosserial_msgs/RequestParam.h ****       *(outbuffer + offset++) = floats_length;
  84:../Libraries/ROSSerial/rosserial_msgs/RequestParam.h ****       *(outbuffer + offset++) = 0;
  85:../Libraries/ROSSerial/rosserial_msgs/RequestParam.h ****       *(outbuffer + offset++) = 0;
  86:../Libraries/ROSSerial/rosserial_msgs/RequestParam.h ****       *(outbuffer + offset++) = 0;
  87:../Libraries/ROSSerial/rosserial_msgs/RequestParam.h ****       for( uint8_t i = 0; i < floats_length; i++){
  88:../Libraries/ROSSerial/rosserial_msgs/RequestParam.h ****       union {
  89:../Libraries/ROSSerial/rosserial_msgs/RequestParam.h ****         float real;
  90:../Libraries/ROSSerial/rosserial_msgs/RequestParam.h ****         uint32_t base;
ARM GAS  /var/folders/l3/4y5292px21b4835bsnjwqc7w009kq1/T//ccNqrcnV.s 			page 16


  91:../Libraries/ROSSerial/rosserial_msgs/RequestParam.h ****       } u_floatsi;
  92:../Libraries/ROSSerial/rosserial_msgs/RequestParam.h ****       u_floatsi.real = this->floats[i];
  93:../Libraries/ROSSerial/rosserial_msgs/RequestParam.h ****       *(outbuffer + offset + 0) = (u_floatsi.base >> (8 * 0)) & 0xFF;
  94:../Libraries/ROSSerial/rosserial_msgs/RequestParam.h ****       *(outbuffer + offset + 1) = (u_floatsi.base >> (8 * 1)) & 0xFF;
  95:../Libraries/ROSSerial/rosserial_msgs/RequestParam.h ****       *(outbuffer + offset + 2) = (u_floatsi.base >> (8 * 2)) & 0xFF;
  96:../Libraries/ROSSerial/rosserial_msgs/RequestParam.h ****       *(outbuffer + offset + 3) = (u_floatsi.base >> (8 * 3)) & 0xFF;
  97:../Libraries/ROSSerial/rosserial_msgs/RequestParam.h ****       offset += sizeof(this->floats[i]);
  98:../Libraries/ROSSerial/rosserial_msgs/RequestParam.h ****       }
  99:../Libraries/ROSSerial/rosserial_msgs/RequestParam.h ****       *(outbuffer + offset++) = strings_length;
 100:../Libraries/ROSSerial/rosserial_msgs/RequestParam.h ****       *(outbuffer + offset++) = 0;
 101:../Libraries/ROSSerial/rosserial_msgs/RequestParam.h ****       *(outbuffer + offset++) = 0;
 102:../Libraries/ROSSerial/rosserial_msgs/RequestParam.h ****       *(outbuffer + offset++) = 0;
 103:../Libraries/ROSSerial/rosserial_msgs/RequestParam.h ****       for( uint8_t i = 0; i < strings_length; i++){
 104:../Libraries/ROSSerial/rosserial_msgs/RequestParam.h ****       uint32_t length_stringsi = strlen(this->strings[i]);
 105:../Libraries/ROSSerial/rosserial_msgs/RequestParam.h ****       memcpy(outbuffer + offset, &length_stringsi, sizeof(uint32_t));
 106:../Libraries/ROSSerial/rosserial_msgs/RequestParam.h ****       offset += 4;
 107:../Libraries/ROSSerial/rosserial_msgs/RequestParam.h ****       memcpy(outbuffer + offset, this->strings[i], length_stringsi);
 108:../Libraries/ROSSerial/rosserial_msgs/RequestParam.h ****       offset += length_stringsi;
 109:../Libraries/ROSSerial/rosserial_msgs/RequestParam.h ****       }
 110:../Libraries/ROSSerial/rosserial_msgs/RequestParam.h ****       return offset;
 111:../Libraries/ROSSerial/rosserial_msgs/RequestParam.h ****     }
 112:../Libraries/ROSSerial/rosserial_msgs/RequestParam.h **** 
 113:../Libraries/ROSSerial/rosserial_msgs/RequestParam.h ****     virtual int deserialize(unsigned char *inbuffer)
 114:../Libraries/ROSSerial/rosserial_msgs/RequestParam.h ****     {
 115:../Libraries/ROSSerial/rosserial_msgs/RequestParam.h ****       int offset = 0;
 116:../Libraries/ROSSerial/rosserial_msgs/RequestParam.h ****       uint8_t ints_lengthT = *(inbuffer + offset++);
 117:../Libraries/ROSSerial/rosserial_msgs/RequestParam.h ****       if(ints_lengthT > ints_length)
 118:../Libraries/ROSSerial/rosserial_msgs/RequestParam.h ****         this->ints = (int32_t*)realloc(this->ints, ints_lengthT * sizeof(int32_t));
 119:../Libraries/ROSSerial/rosserial_msgs/RequestParam.h ****       offset += 3;
 120:../Libraries/ROSSerial/rosserial_msgs/RequestParam.h ****       ints_length = ints_lengthT;
 121:../Libraries/ROSSerial/rosserial_msgs/RequestParam.h ****       for( uint8_t i = 0; i < ints_length; i++){
 122:../Libraries/ROSSerial/rosserial_msgs/RequestParam.h ****       union {
 123:../Libraries/ROSSerial/rosserial_msgs/RequestParam.h ****         int32_t real;
 124:../Libraries/ROSSerial/rosserial_msgs/RequestParam.h ****         uint32_t base;
 125:../Libraries/ROSSerial/rosserial_msgs/RequestParam.h ****       } u_st_ints;
 126:../Libraries/ROSSerial/rosserial_msgs/RequestParam.h ****       u_st_ints.base = 0;
 127:../Libraries/ROSSerial/rosserial_msgs/RequestParam.h ****       u_st_ints.base |= ((uint32_t) (*(inbuffer + offset + 0))) << (8 * 0);
 128:../Libraries/ROSSerial/rosserial_msgs/RequestParam.h ****       u_st_ints.base |= ((uint32_t) (*(inbuffer + offset + 1))) << (8 * 1);
 129:../Libraries/ROSSerial/rosserial_msgs/RequestParam.h ****       u_st_ints.base |= ((uint32_t) (*(inbuffer + offset + 2))) << (8 * 2);
 130:../Libraries/ROSSerial/rosserial_msgs/RequestParam.h ****       u_st_ints.base |= ((uint32_t) (*(inbuffer + offset + 3))) << (8 * 3);
 131:../Libraries/ROSSerial/rosserial_msgs/RequestParam.h ****       this->st_ints = u_st_ints.real;
 132:../Libraries/ROSSerial/rosserial_msgs/RequestParam.h ****       offset += sizeof(this->st_ints);
 133:../Libraries/ROSSerial/rosserial_msgs/RequestParam.h ****         memcpy( &(this->ints[i]), &(this->st_ints), sizeof(int32_t));
 134:../Libraries/ROSSerial/rosserial_msgs/RequestParam.h ****       }
 135:../Libraries/ROSSerial/rosserial_msgs/RequestParam.h ****       uint8_t floats_lengthT = *(inbuffer + offset++);
 136:../Libraries/ROSSerial/rosserial_msgs/RequestParam.h ****       if(floats_lengthT > floats_length)
 137:../Libraries/ROSSerial/rosserial_msgs/RequestParam.h ****         this->floats = (float*)realloc(this->floats, floats_lengthT * sizeof(float));
 138:../Libraries/ROSSerial/rosserial_msgs/RequestParam.h ****       offset += 3;
 139:../Libraries/ROSSerial/rosserial_msgs/RequestParam.h ****       floats_length = floats_lengthT;
 140:../Libraries/ROSSerial/rosserial_msgs/RequestParam.h ****       for( uint8_t i = 0; i < floats_length; i++){
 141:../Libraries/ROSSerial/rosserial_msgs/RequestParam.h ****       union {
 142:../Libraries/ROSSerial/rosserial_msgs/RequestParam.h ****         float real;
 143:../Libraries/ROSSerial/rosserial_msgs/RequestParam.h ****         uint32_t base;
 144:../Libraries/ROSSerial/rosserial_msgs/RequestParam.h ****       } u_st_floats;
 145:../Libraries/ROSSerial/rosserial_msgs/RequestParam.h ****       u_st_floats.base = 0;
 146:../Libraries/ROSSerial/rosserial_msgs/RequestParam.h ****       u_st_floats.base |= ((uint32_t) (*(inbuffer + offset + 0))) << (8 * 0);
 147:../Libraries/ROSSerial/rosserial_msgs/RequestParam.h ****       u_st_floats.base |= ((uint32_t) (*(inbuffer + offset + 1))) << (8 * 1);
ARM GAS  /var/folders/l3/4y5292px21b4835bsnjwqc7w009kq1/T//ccNqrcnV.s 			page 17


 148:../Libraries/ROSSerial/rosserial_msgs/RequestParam.h ****       u_st_floats.base |= ((uint32_t) (*(inbuffer + offset + 2))) << (8 * 2);
 149:../Libraries/ROSSerial/rosserial_msgs/RequestParam.h ****       u_st_floats.base |= ((uint32_t) (*(inbuffer + offset + 3))) << (8 * 3);
 150:../Libraries/ROSSerial/rosserial_msgs/RequestParam.h ****       this->st_floats = u_st_floats.real;
 151:../Libraries/ROSSerial/rosserial_msgs/RequestParam.h ****       offset += sizeof(this->st_floats);
 152:../Libraries/ROSSerial/rosserial_msgs/RequestParam.h ****         memcpy( &(this->floats[i]), &(this->st_floats), sizeof(float));
 153:../Libraries/ROSSerial/rosserial_msgs/RequestParam.h ****       }
 154:../Libraries/ROSSerial/rosserial_msgs/RequestParam.h ****       uint8_t strings_lengthT = *(inbuffer + offset++);
 155:../Libraries/ROSSerial/rosserial_msgs/RequestParam.h ****       if(strings_lengthT > strings_length)
 156:../Libraries/ROSSerial/rosserial_msgs/RequestParam.h ****         this->strings = (char**)realloc(this->strings, strings_lengthT * sizeof(char*));
 157:../Libraries/ROSSerial/rosserial_msgs/RequestParam.h ****       offset += 3;
 158:../Libraries/ROSSerial/rosserial_msgs/RequestParam.h ****       strings_length = strings_lengthT;
 159:../Libraries/ROSSerial/rosserial_msgs/RequestParam.h ****       for( uint8_t i = 0; i < strings_length; i++){
 160:../Libraries/ROSSerial/rosserial_msgs/RequestParam.h ****       uint32_t length_st_strings;
 161:../Libraries/ROSSerial/rosserial_msgs/RequestParam.h ****       memcpy(&length_st_strings, (inbuffer + offset), sizeof(uint32_t));
 162:../Libraries/ROSSerial/rosserial_msgs/RequestParam.h ****       offset += 4;
 163:../Libraries/ROSSerial/rosserial_msgs/RequestParam.h ****       for(unsigned int k= offset; k< offset+length_st_strings; ++k){
 164:../Libraries/ROSSerial/rosserial_msgs/RequestParam.h ****           inbuffer[k-1]=inbuffer[k];
 165:../Libraries/ROSSerial/rosserial_msgs/RequestParam.h ****       }
 166:../Libraries/ROSSerial/rosserial_msgs/RequestParam.h ****       inbuffer[offset+length_st_strings-1]=0;
 167:../Libraries/ROSSerial/rosserial_msgs/RequestParam.h ****       this->st_strings = (char *)(inbuffer + offset-1);
 168:../Libraries/ROSSerial/rosserial_msgs/RequestParam.h ****       offset += length_st_strings;
 169:../Libraries/ROSSerial/rosserial_msgs/RequestParam.h ****         memcpy( &(this->strings[i]), &(this->st_strings), sizeof(char*));
 170:../Libraries/ROSSerial/rosserial_msgs/RequestParam.h ****       }
 171:../Libraries/ROSSerial/rosserial_msgs/RequestParam.h ****      return offset;
 172:../Libraries/ROSSerial/rosserial_msgs/RequestParam.h ****     }
 173:../Libraries/ROSSerial/rosserial_msgs/RequestParam.h **** 
 174:../Libraries/ROSSerial/rosserial_msgs/RequestParam.h ****     const char * getType(){ return REQUESTPARAM; };
 565              		.loc 4 174 0
 566              		.cfi_startproc
 567              		@ args = 0, pretend = 0, frame = 0
 568              		@ frame_needed = 0, uses_anonymous_args = 0
 569              		@ link register save eliminated.
 570              	.LVL56:
 571              		.loc 4 174 0
 572 0000 0048     		ldr	r0, .L34
 573              	.LVL57:
 574 0002 7047     		bx	lr
 575              	.L35:
 576              		.align	2
 577              	.L34:
 578 0004 00000000 		.word	.LANCHOR0
 579              		.cfi_endproc
 580              	.LFE401:
 581              		.cantunwind
 582              		.fnend
 584              		.section	.text._ZN14rosserial_msgs20RequestParamResponse6getMD5Ev,"axG",%progbits,_ZN14rosserial_m
 585              		.align	1
 586              		.weak	_ZN14rosserial_msgs20RequestParamResponse6getMD5Ev
 587              		.syntax unified
 588              		.thumb
 589              		.thumb_func
 590              		.fpu fpv4-sp-d16
 592              	_ZN14rosserial_msgs20RequestParamResponse6getMD5Ev:
 593              		.fnstart
 594              	.LFB402:
 175:../Libraries/ROSSerial/rosserial_msgs/RequestParam.h ****     const char * getMD5(){ return "9f0e98bda65981986ddf53afa7a40e49"; };
 595              		.loc 4 175 0
ARM GAS  /var/folders/l3/4y5292px21b4835bsnjwqc7w009kq1/T//ccNqrcnV.s 			page 18


 596              		.cfi_startproc
 597              		@ args = 0, pretend = 0, frame = 0
 598              		@ frame_needed = 0, uses_anonymous_args = 0
 599              		@ link register save eliminated.
 600              	.LVL58:
 601              		.loc 4 175 0
 602 0000 0048     		ldr	r0, .L37
 603              	.LVL59:
 604 0002 7047     		bx	lr
 605              	.L38:
 606              		.align	2
 607              	.L37:
 608 0004 00000000 		.word	.LC6
 609              		.cfi_endproc
 610              	.LFE402:
 611              		.cantunwind
 612              		.fnend
 614              		.section	.text._Z41__static_initialization_and_destruction_0ii,"ax",%progbits
 615              		.align	1
 616              		.syntax unified
 617              		.thumb
 618              		.thumb_func
 619              		.fpu fpv4-sp-d16
 621              	_Z41__static_initialization_and_destruction_0ii:
 622              		.fnstart
 623              	.LFB502:
 624              		.file 5 "Src/main.cpp"
   1:Src/main.cpp  **** /**
   2:Src/main.cpp  ****   ******************************************************************************
   3:Src/main.cpp  ****   * @file    FreeRTOS/ResManagement_SafelyPrint/main.c 
   4:Src/main.cpp  ****   * @author  Artery Technology
   5:Src/main.cpp  ****   * @version V1.1.2
   6:Src/main.cpp  ****   * @date    2019-01-04
   7:Src/main.cpp  ****   * @brief   Main program body
   8:Src/main.cpp  ****   ******************************************************************************
   9:Src/main.cpp  ****   * @attention
  10:Src/main.cpp  ****   *
  11:Src/main.cpp  ****   * THE PRESENT FIRMWARE WHICH IS FOR GUIDANCE ONLY AIMS AT PROVIDING CUSTOMERS
  12:Src/main.cpp  ****   * WITH CODING INFORMATION REGARDING THEIR PRODUCTS IN ORDER FOR THEM TO SAVE
  13:Src/main.cpp  ****   * TIME. AS A RESULT, ARTERYTEK SHALL NOT BE HELD LIABLE FOR ANY
  14:Src/main.cpp  ****   * DIRECT, INDIRECT OR CONSEQUENTIAL DAMAGES WITH RESPECT TO ANY CLAIMS ARISING
  15:Src/main.cpp  ****   * FROM THE CONTENT OF SUCH FIRMWARE AND/OR THE USE MADE BY CUSTOMERS OF THE
  16:Src/main.cpp  ****   * CODING INFORMATION CONTAINED HEREIN IN CONNECTION WITH THEIR PRODUCTS.
  17:Src/main.cpp  ****   *
  18:Src/main.cpp  ****   * <h2><center>&copy; COPYRIGHT 2018 ArteryTek</center></h2>
  19:Src/main.cpp  ****   ******************************************************************************
  20:Src/main.cpp  ****   */ 
  21:Src/main.cpp  **** 
  22:Src/main.cpp  **** #include "includes.h"
  23:Src/main.cpp  **** #include "spin_task.h"
  24:Src/main.cpp  **** #include "publish_task.h"
  25:Src/main.cpp  **** #include "subscribe_task.h"
  26:Src/main.cpp  **** #include "heartbeat_task.h"
  27:Src/main.cpp  **** 
  28:Src/main.cpp  **** uint32_t rosListenerInitTask(ros::NodeHandle *nh);
  29:Src/main.cpp  **** 
  30:Src/main.cpp  **** #ifdef __cplusplus
ARM GAS  /var/folders/l3/4y5292px21b4835bsnjwqc7w009kq1/T//ccNqrcnV.s 			page 19


  31:Src/main.cpp  **** extern "C"
  32:Src/main.cpp  **** {
  33:Src/main.cpp  **** #endif
  34:Src/main.cpp  **** void vTimerInitForRunTimeState(void);
  35:Src/main.cpp  **** void vApplicationStackOverflowHook( TaskHandle_t xTask, char *pcTaskName );
  36:Src/main.cpp  **** void vApplicationMallocFailedHook(void);
  37:Src/main.cpp  **** void vApplicationDaemonTaskStartupHook( void );
  38:Src/main.cpp  **** void vApplicationTickHook( void );
  39:Src/main.cpp  **** void vApplicationIdleHook( void );
  40:Src/main.cpp  **** #ifdef __cplusplus
  41:Src/main.cpp  **** }
  42:Src/main.cpp  **** #endif
  43:Src/main.cpp  **** 
  44:Src/main.cpp  **** /** @addtogroup AT32F403_StdPeriph_Examples
  45:Src/main.cpp  ****   * @{
  46:Src/main.cpp  ****   */
  47:Src/main.cpp  **** 
  48:Src/main.cpp  **** /** @addtogroup FreeRTOS_ResManagement_SafelyPrint
  49:Src/main.cpp  ****   * @{
  50:Src/main.cpp  ****   */
  51:Src/main.cpp  **** 
  52:Src/main.cpp  **** 
  53:Src/main.cpp  **** /* Private macro -------------------------------------------------------------*/
  54:Src/main.cpp  **** /* Private variables ---------------------------------------------------------*/ 
  55:Src/main.cpp  **** static void AppTaskCreate (void);
  56:Src/main.cpp  **** static void AppObjCreate(void);
  57:Src/main.cpp  **** void App_Printf(const char *format, ...);
  58:Src/main.cpp  **** static void vTaskLED(void *pvParameters);
  59:Src/main.cpp  **** static void vTaskMsgProcess(void *pvParameters);
  60:Src/main.cpp  **** static void TMR_CallBack1(void);
  61:Src/main.cpp  **** static void TMR_CallBack2(void);
  62:Src/main.cpp  **** static void vTaskCtrolProcess(void *pvParameters);
  63:Src/main.cpp  **** 
  64:Src/main.cpp  **** 
  65:Src/main.cpp  **** /* Private typedef -----------------------------------------------------------*/
  66:Src/main.cpp  **** /* Private define ------------------------------------------------------------*/
  67:Src/main.cpp  **** /* Declare variables that are used to hold the handle of task */
  68:Src/main.cpp  **** static TaskHandle_t xHandleTaskLED          = NULL;
  69:Src/main.cpp  **** static TaskHandle_t xHandleTaskMsgProcess   = NULL;
  70:Src/main.cpp  **** static TaskHandle_t xHandleTaskCtrolProcess      = NULL;
  71:Src/main.cpp  **** static SemaphoreHandle_t xHandleMutexPrint = NULL;
  72:Src/main.cpp  **** ros::NodeHandle nh; /* ROS node handle */
  73:Src/main.cpp  **** 
  74:Src/main.cpp  **** /**
  75:Src/main.cpp  ****  * @brief   Main program
  76:Src/main.cpp  ****  * @param   None
  77:Src/main.cpp  ****  * @retval  None
  78:Src/main.cpp  ****  */
  79:Src/main.cpp  **** int main(void)
  80:Src/main.cpp  **** {
  81:Src/main.cpp  **** 	__set_PRIMASK(1); //disable global interrupts 
  82:Src/main.cpp  **** 	
  83:Src/main.cpp  **** 	/* Perform any hardware setup necessary */
  84:Src/main.cpp  **** 	bsp_Init(); 
  85:Src/main.cpp  ****     //printf ("after bspinit \n");
  86:Src/main.cpp  **** 
  87:Src/main.cpp  ****     /* ROS init, we can start UART hear in not in bsp */ 
ARM GAS  /var/folders/l3/4y5292px21b4835bsnjwqc7w009kq1/T//ccNqrcnV.s 			page 20


  88:Src/main.cpp  ****      nh.initNode();
  89:Src/main.cpp  **** 
  90:Src/main.cpp  ****     /* USER CODE BEGIN 2 */
  91:Src/main.cpp  ****     if(rosSpinTaskInit(&nh))
  92:Src/main.cpp  ****     {
  93:Src/main.cpp  ****         /* task is not created */
  94:Src/main.cpp  ****         while(1);
  95:Src/main.cpp  ****     }
  96:Src/main.cpp  **** 
  97:Src/main.cpp  ****     if(publishInitTask(&nh))
  98:Src/main.cpp  ****     {
  99:Src/main.cpp  ****         /* task is not created */
 100:Src/main.cpp  ****         while(1);
 101:Src/main.cpp  ****     }
 102:Src/main.cpp  ****     
 103:Src/main.cpp  ****     if(rosSubscribeInitTask(&nh))
 104:Src/main.cpp  ****     {
 105:Src/main.cpp  ****         /* task is not created */
 106:Src/main.cpp  ****         while(1);
 107:Src/main.cpp  ****     }
 108:Src/main.cpp  **** 
 109:Src/main.cpp  ****     // if (heartbeatInitTask())
 110:Src/main.cpp  ****     // {
 111:Src/main.cpp  ****     //     /* task is not created */
 112:Src/main.cpp  ****     //     while(1);
 113:Src/main.cpp  ****     // }
 114:Src/main.cpp  ****     /* setup a timer for gather task statistics */
 115:Src/main.cpp  **** 	//vTimerInitForRunTimeState();
 116:Src/main.cpp  **** 	
 117:Src/main.cpp  **** 	/* Application tasks created */
 118:Src/main.cpp  **** 	//AppTaskCreate();
 119:Src/main.cpp  **** 
 120:Src/main.cpp  ****     /* Application communication mechanism created */
 121:Src/main.cpp  **** 	//AppObjCreate();
 122:Src/main.cpp  **** 	
 123:Src/main.cpp  ****     /* Start the created tasks running */
 124:Src/main.cpp  ****     vTaskStartScheduler();
 125:Src/main.cpp  **** 
 126:Src/main.cpp  ****     /* If all is well then main() will never reach here as the scheduler will
 127:Src/main.cpp  ****      * now be running the tasks. If main() does reach here then it is likely
 128:Src/main.cpp  ****      * that there was insufficient heap memory available for the idle task to be 
 129:Src/main.cpp  ****      * created
 130:Src/main.cpp  ****      */
 131:Src/main.cpp  **** 	while(1);
 132:Src/main.cpp  ****     //return 0;
 133:Src/main.cpp  **** }
 134:Src/main.cpp  **** 
 135:Src/main.cpp  **** /**
 136:Src/main.cpp  ****  * @brief   LED task
 137:Src/main.cpp  ****  * @param   pvParameters: passed to the task
 138:Src/main.cpp  ****  * @retval  None
 139:Src/main.cpp  ****  */
 140:Src/main.cpp  **** 
 141:Src/main.cpp  **** static void vTaskLED(void *pvParameters)
 142:Src/main.cpp  **** {
 143:Src/main.cpp  ****     while(1)
 144:Src/main.cpp  ****     {
ARM GAS  /var/folders/l3/4y5292px21b4835bsnjwqc7w009kq1/T//ccNqrcnV.s 			page 21


 145:Src/main.cpp  **** 		bsp_LedToggle(2);//LED2
 146:Src/main.cpp  **** 		vTaskDelay(pdMS_TO_TICKS(1000));//delay in ms
 147:Src/main.cpp  **** 		App_Printf("This is LED Task, lower priority than Ctrol task and longer information needed to pri
 148:Src/main.cpp  **** 	}
 149:Src/main.cpp  **** }
 150:Src/main.cpp  **** 
 151:Src/main.cpp  **** /**
 152:Src/main.cpp  ****  * @brief   obtain task run-time statistics 
 153:Src/main.cpp  ****  * @param   pvParameters: passed to the task
 154:Src/main.cpp  ****  * @retval  None
 155:Src/main.cpp  ****  */
 156:Src/main.cpp  **** static void vTaskMsgProcess(void *pvParameters)
 157:Src/main.cpp  **** {
 158:Src/main.cpp  ****     uint8_t ucCommandValue=0xFF;
 159:Src/main.cpp  ****     uint8_t pcWriteBuffer[500];
 160:Src/main.cpp  ****     
 161:Src/main.cpp  ****     App_Printf("\r\n1. Print task run-time statistics\r\n");    
 162:Src/main.cpp  ****     App_Printf("2. Enable Timer CC1 interrupt\r\n");  
 163:Src/main.cpp  ****     App_Printf("3. Enable Timer CC2 interrupt\r\n");  
 164:Src/main.cpp  ****     while(1)
 165:Src/main.cpp  ****     {
 166:Src/main.cpp  ****         comGetChar(COM1,&ucCommandValue);
 167:Src/main.cpp  ****         switch(ucCommandValue)
 168:Src/main.cpp  ****         {
 169:Src/main.cpp  ****             case '1':
 170:Src/main.cpp  ****                 App_Printf("==================================================\r\n");
 171:Src/main.cpp  ****                 App_Printf("Name                  State  Priority  Stack   Num\r\n");
 172:Src/main.cpp  ****                 vTaskList((char*)pcWriteBuffer);
 173:Src/main.cpp  ****                 App_Printf("%s\r\n", pcWriteBuffer);
 174:Src/main.cpp  **** 
 175:Src/main.cpp  ****                 App_Printf("\r\n");
 176:Src/main.cpp  ****                 App_Printf("Task                  Abs Time         %%Time      \r\n");
 177:Src/main.cpp  ****                 App_Printf("***************************************************\r\n");
 178:Src/main.cpp  ****                 vTaskGetRunTimeStats((char*)pcWriteBuffer);
 179:Src/main.cpp  ****                 App_Printf("%s\r\n", pcWriteBuffer);
 180:Src/main.cpp  ****                 break;
 181:Src/main.cpp  ****             case '2':
 182:Src/main.cpp  ****                 bsp_StartHardTimer(1, 50000, (void*)TMR_CallBack1);//after 50ms to execute ISR, and
 183:Src/main.cpp  ****                 break;
 184:Src/main.cpp  ****             case '3':
 185:Src/main.cpp  ****                 bsp_StartHardTimer(2, 50000, (void*)TMR_CallBack2);//after 50ms to execute ISR, and
 186:Src/main.cpp  ****                 break;
 187:Src/main.cpp  ****             default:
 188:Src/main.cpp  ****                 break;
 189:Src/main.cpp  ****         }
 190:Src/main.cpp  **** 
 191:Src/main.cpp  ****         if(ucCommandValue =='1' || ucCommandValue =='2' || ucCommandValue =='3')
 192:Src/main.cpp  ****         {
 193:Src/main.cpp  ****             App_Printf("1. Print task run-time statistics\r\n");
 194:Src/main.cpp  ****             App_Printf("2. Enable Timer CC1 interrupt\r\n");  
 195:Src/main.cpp  ****             App_Printf("3. Enable Timer CC2 interrupt\r\n"); 
 196:Src/main.cpp  ****             comClearRxFifo(COM1);
 197:Src/main.cpp  ****             ucCommandValue = 0xFF;
 198:Src/main.cpp  ****         }
 199:Src/main.cpp  ****            
 200:Src/main.cpp  ****         vTaskDelay(pdMS_TO_TICKS(100));
 201:Src/main.cpp  ****     }
ARM GAS  /var/folders/l3/4y5292px21b4835bsnjwqc7w009kq1/T//ccNqrcnV.s 			page 22


 202:Src/main.cpp  **** }
 203:Src/main.cpp  **** 
 204:Src/main.cpp  **** /**
 205:Src/main.cpp  ****  * @brief   Empty task
 206:Src/main.cpp  ****  * @param   pvParameters: passed to the task
 207:Src/main.cpp  ****  * @retval  None
 208:Src/main.cpp  ****  */
 209:Src/main.cpp  **** static void vTaskCtrolProcess(void *pvParameters)
 210:Src/main.cpp  **** {
 211:Src/main.cpp  ****     while(1)
 212:Src/main.cpp  ****     {
 213:Src/main.cpp  ****         vTaskDelay(pdMS_TO_TICKS(1000));
 214:Src/main.cpp  **** 		App_Printf("This is Ctrol Task\r\n");
 215:Src/main.cpp  ****     }
 216:Src/main.cpp  **** }
 217:Src/main.cpp  **** 
 218:Src/main.cpp  **** /**
 219:Src/main.cpp  ****  * @brief   Create tasks
 220:Src/main.cpp  ****  * @param   None
 221:Src/main.cpp  ****  * @retval  None
 222:Src/main.cpp  ****  */
 223:Src/main.cpp  **** static void AppTaskCreate (void)
 224:Src/main.cpp  **** {
 225:Src/main.cpp  ****     BaseType_t xReturn;
 226:Src/main.cpp  ****     
 227:Src/main.cpp  ****     xReturn = xTaskCreate(  vTaskLED,   	    // function of task
 228:Src/main.cpp  ****                             "vTaskLED",         // task name. used for debugging aid only*/
 229:Src/main.cpp  ****                             512,               	// stack size. specify the number of words(32bits) 
 230:Src/main.cpp  ****                             NULL,              	// task parameter*/
 231:Src/main.cpp  ****                             2,                 	// task priority. Note: the smaller number, the low
 232:Src/main.cpp  ****                             &xHandleTaskLED );  // task handle. used to reference the task in API c
 233:Src/main.cpp  **** 	if(xReturn != pdPASS)
 234:Src/main.cpp  **** 	{
 235:Src/main.cpp  **** 	    while(1);//There is insufficient heap memory
 236:Src/main.cpp  **** 	}
 237:Src/main.cpp  **** 	xReturn = xTaskCreate(  vTaskMsgProcess,     		
 238:Src/main.cpp  ****                             "vTaskMsgProcess",   		
 239:Src/main.cpp  ****                             512,             		
 240:Src/main.cpp  ****                             NULL,           		
 241:Src/main.cpp  ****                             3,               		
 242:Src/main.cpp  ****                             &xHandleTaskMsgProcess );  
 243:Src/main.cpp  ****     if(xReturn != pdPASS)
 244:Src/main.cpp  **** 	{
 245:Src/main.cpp  **** 	    while(1);//There is insufficient heap memory
 246:Src/main.cpp  **** 	}
 247:Src/main.cpp  **** 	
 248:Src/main.cpp  **** 	xReturn = xTaskCreate(  vTaskCtrolProcess,     		
 249:Src/main.cpp  ****                             "vTaskCtrolProcess",   		
 250:Src/main.cpp  ****                             512,            		
 251:Src/main.cpp  ****                             NULL,           		
 252:Src/main.cpp  ****                             4,              		
 253:Src/main.cpp  ****                             &xHandleTaskCtrolProcess ); 
 254:Src/main.cpp  ****     if(xReturn != pdPASS)
 255:Src/main.cpp  **** 	{
 256:Src/main.cpp  **** 	    while(1);//There is insufficient heap memory
 257:Src/main.cpp  **** 	}
 258:Src/main.cpp  **** 	
ARM GAS  /var/folders/l3/4y5292px21b4835bsnjwqc7w009kq1/T//ccNqrcnV.s 			page 23


 259:Src/main.cpp  **** }
 260:Src/main.cpp  **** 
 261:Src/main.cpp  **** /**
 262:Src/main.cpp  ****  * @brief   Create semaphore
 263:Src/main.cpp  ****  * @param   None
 264:Src/main.cpp  ****  * @retval  None
 265:Src/main.cpp  ****  */
 266:Src/main.cpp  **** static void AppObjCreate(void)
 267:Src/main.cpp  **** {
 268:Src/main.cpp  ****     xHandleMutexPrint = xSemaphoreCreateMutex();
 269:Src/main.cpp  **** 
 270:Src/main.cpp  ****     if(xHandleMutexPrint == NULL)
 271:Src/main.cpp  ****     {
 272:Src/main.cpp  ****         printf("There is insufficient heap memory\r\n");
 273:Src/main.cpp  ****     }
 274:Src/main.cpp  **** }
 275:Src/main.cpp  **** 
 276:Src/main.cpp  **** /**
 277:Src/main.cpp  ****  * @brief   Print function
 278:Src/main.cpp  ****  * @param   format: things to print
 279:Src/main.cpp  ****  * @retval  None
 280:Src/main.cpp  ****  */
 281:Src/main.cpp  **** void App_Printf(const char *format, ...)
 282:Src/main.cpp  **** {
 283:Src/main.cpp  ****     char buf_str[200+1];//max number contain character is 200
 284:Src/main.cpp  ****     va_list v_args;
 285:Src/main.cpp  **** 
 286:Src/main.cpp  ****     va_start(v_args, format);
 287:Src/main.cpp  ****     
 288:Src/main.cpp  ****     (void)vsnprintf((char*)&buf_str[0],
 289:Src/main.cpp  ****                     (size_t)sizeof(buf_str),
 290:Src/main.cpp  ****                     (char const*)format,
 291:Src/main.cpp  ****                                 v_args);
 292:Src/main.cpp  ****     va_end(v_args);
 293:Src/main.cpp  **** 
 294:Src/main.cpp  ****     xSemaphoreTake(xHandleMutexPrint, portMAX_DELAY);//block indefinitely until mutex be obtained
 295:Src/main.cpp  ****     printf("%s", buf_str);
 296:Src/main.cpp  ****     xSemaphoreGive(xHandleMutexPrint);//the mutex must be given back
 297:Src/main.cpp  **** }
 298:Src/main.cpp  **** 
 299:Src/main.cpp  **** /**
 300:Src/main.cpp  ****  * @brief   Toggle led3
 301:Src/main.cpp  ****  * @param   None
 302:Src/main.cpp  ****  * @retval  None
 303:Src/main.cpp  ****  */
 304:Src/main.cpp  **** static void TMR_CallBack1(void)
 305:Src/main.cpp  **** {
 306:Src/main.cpp  ****     bsp_LedToggle(3);
 307:Src/main.cpp  ****     printf("In callback 1\n");
 308:Src/main.cpp  **** }
 309:Src/main.cpp  **** 
 310:Src/main.cpp  **** /**
 311:Src/main.cpp  ****  * @brief   Toggle led4
 312:Src/main.cpp  ****  * @param   None
 313:Src/main.cpp  ****  * @retval  None
 314:Src/main.cpp  ****  */
 315:Src/main.cpp  **** static void TMR_CallBack2(void)
ARM GAS  /var/folders/l3/4y5292px21b4835bsnjwqc7w009kq1/T//ccNqrcnV.s 			page 24


 316:Src/main.cpp  **** {
 317:Src/main.cpp  ****     bsp_LedToggle(4);
 318:Src/main.cpp  ****     printf("In callback 2\n"); //CANNOT USE App_Printf in interrupt callback as we deadlock on mute
 319:Src/main.cpp  **** }
 320:Src/main.cpp  **** 
 321:Src/main.cpp  **** #if ( configUSE_IDLE_HOOK == 1 )
 322:Src/main.cpp  **** /* Call the user defined function from within the idle task.  This
 323:Src/main.cpp  ****  * allows the application designer to add background functionality
 324:Src/main.cpp  ****  * without the overhead of a separate task.
 325:Src/main.cpp  ****  *  
 326:Src/main.cpp  ****  * NOTE: vApplicationIdleHook() MUST NOT, UNDER ANY CIRCUMSTANCES,
 327:Src/main.cpp  ****  * CALL A FUNCTION THAT MIGHT BLOCK. THE FUNCTION NAME IS FIXED*/
 328:Src/main.cpp  **** 
 329:Src/main.cpp  **** void vApplicationIdleHook( void )
 330:Src/main.cpp  **** {
 331:Src/main.cpp  ****     while(1);
 332:Src/main.cpp  **** }
 333:Src/main.cpp  **** 
 334:Src/main.cpp  **** #endif /* configUSE_IDLE_HOOK */
 335:Src/main.cpp  **** 
 336:Src/main.cpp  **** #if ( configUSE_TICK_HOOK == 1 )
 337:Src/main.cpp  **** /* The tick hook gets called at regular intervals, even if the
 338:Src/main.cpp  ****  * scheduler is locked. 
 339:Src/main.cpp  ****  * NOTE: THE FUNCTION NAME IS FIXED */
 340:Src/main.cpp  **** 
 341:Src/main.cpp  **** void vApplicationTickHook( void )
 342:Src/main.cpp  **** {
 343:Src/main.cpp  ****     while(1);
 344:Src/main.cpp  **** }
 345:Src/main.cpp  **** 
 346:Src/main.cpp  **** #endif /* configUSE_TICK_HOOK */
 347:Src/main.cpp  **** 
 348:Src/main.cpp  **** #if ( configUSE_MALLOC_FAILED_HOOK == 1 )
 349:Src/main.cpp  **** /* NOTE: THE FUNCTION NAME IS FIXED */
 350:Src/main.cpp  **** 
 351:Src/main.cpp  **** void vApplicationMallocFailedHook(void)
 352:Src/main.cpp  **** {
 353:Src/main.cpp  ****     printf("mallock failed hook\n");
 354:Src/main.cpp  ****     while(1);
 355:Src/main.cpp  **** }
 356:Src/main.cpp  **** 
 357:Src/main.cpp  **** #endif /* configUSE_MALLOC_FAILED_HOOK */
 358:Src/main.cpp  **** 
 359:Src/main.cpp  **** #if (  configCHECK_FOR_STACK_OVERFLOW > 0 )
 360:Src/main.cpp  **** /* The stack overflow hook function.
 361:Src/main.cpp  ****  * xTask: handle of the task that has exceeded its stack space
 362:Src/main.cpp  ****  * pcTaskName: name of the task that has exceeded its stack sapce
 363:Src/main.cpp  ****  * NOTE: stack overflow checking can only be used on architectures
 364:Src/main.cpp  ****  *       that have a linear memory map
 365:Src/main.cpp  ****  */
 366:Src/main.cpp  **** //extern "C" void __cxa_pure_virtual() { while (1); }
 367:Src/main.cpp  **** 
 368:Src/main.cpp  **** void vApplicationStackOverflowHook( TaskHandle_t xTask, char *pcTaskName )
 369:Src/main.cpp  **** {
 370:Src/main.cpp  ****     //App_Printf("task: %s stack is overFlow\r\n",pcTaskName);
 371:Src/main.cpp  ****     printf("task: %s stack is overFlow\r\n",pcTaskName);
 372:Src/main.cpp  **** }
ARM GAS  /var/folders/l3/4y5292px21b4835bsnjwqc7w009kq1/T//ccNqrcnV.s 			page 25


 625              		.loc 5 372 0
 626              		.cfi_startproc
 627              		@ args = 0, pretend = 0, frame = 0
 628              		@ frame_needed = 0, uses_anonymous_args = 0
 629              		@ link register save eliminated.
 630              	.LVL60:
 631 0000 0128     		cmp	r0, #1
 632 0002 00D0     		beq	.L53
 633              	.L50:
 634 0004 7047     		bx	lr
 635              	.L53:
 636              		.loc 5 372 0 is_stmt 0 discriminator 1
 637 0006 4FF6FF73 		movw	r3, #65535
 638 000a 9942     		cmp	r1, r3
 639 000c FAD1     		bne	.L50
 640              		.loc 5 372 0
 641 000e 10B4     		push	{r4}
 642              	.LCFI4:
 643              		.cfi_def_cfa_offset 4
 644              		.cfi_offset 4, -4
 645              	.LVL61:
 646              	.LBB117:
 647              	.LBB118:
 648              	.LBB119:
 649              		.file 6 "../Libraries/ROSSerial/ros/node_handle.h"
   1:../Libraries/ROSSerial/ros/node_handle.h **** /*
   2:../Libraries/ROSSerial/ros/node_handle.h ****  * Software License Agreement (BSD License)
   3:../Libraries/ROSSerial/ros/node_handle.h ****  *
   4:../Libraries/ROSSerial/ros/node_handle.h ****  * Copyright (c) 2011, Willow Garage, Inc.
   5:../Libraries/ROSSerial/ros/node_handle.h ****  * All rights reserved.
   6:../Libraries/ROSSerial/ros/node_handle.h ****  *
   7:../Libraries/ROSSerial/ros/node_handle.h ****  * Redistribution and use in source and binary forms, with or without
   8:../Libraries/ROSSerial/ros/node_handle.h ****  * modification, are permitted provided that the following conditions
   9:../Libraries/ROSSerial/ros/node_handle.h ****  * are met:
  10:../Libraries/ROSSerial/ros/node_handle.h ****  *
  11:../Libraries/ROSSerial/ros/node_handle.h ****  *  * Redistributions of source code must retain the above copyright
  12:../Libraries/ROSSerial/ros/node_handle.h ****  *    notice, this list of conditions and the following disclaimer.
  13:../Libraries/ROSSerial/ros/node_handle.h ****  *  * Redistributions in binary form must reproduce the above
  14:../Libraries/ROSSerial/ros/node_handle.h ****  *    copyright notice, this list of conditions and the following
  15:../Libraries/ROSSerial/ros/node_handle.h ****  *    disclaimer in the documentation and/or other materials provided
  16:../Libraries/ROSSerial/ros/node_handle.h ****  *    with the distribution.
  17:../Libraries/ROSSerial/ros/node_handle.h ****  *  * Neither the name of Willow Garage, Inc. nor the names of its
  18:../Libraries/ROSSerial/ros/node_handle.h ****  *    contributors may be used to endorse or promote prducts derived
  19:../Libraries/ROSSerial/ros/node_handle.h ****  *    from this software without specific prior written permission.
  20:../Libraries/ROSSerial/ros/node_handle.h ****  *
  21:../Libraries/ROSSerial/ros/node_handle.h ****  * THIS SOFTWARE IS PROVIDED BY THE COPYRIGHT HOLDERS AND CONTRIBUTORS
  22:../Libraries/ROSSerial/ros/node_handle.h ****  * "AS IS" AND ANY EXPRESS OR IMPLIED WARRANTIES, INCLUDING, BUT NOT
  23:../Libraries/ROSSerial/ros/node_handle.h ****  * LIMITED TO, THE IMPLIED WARRANTIES OF MERCHANTABILITY AND FITNESS
  24:../Libraries/ROSSerial/ros/node_handle.h ****  * FOR A PARTICULAR PURPOSE ARE DISCLAIMED. IN NO EVENT SHALL THE
  25:../Libraries/ROSSerial/ros/node_handle.h ****  * COPYRIGHT OWNER OR CONTRIBUTORS BE LIABLE FOR ANY DIRECT, INDIRECT,
  26:../Libraries/ROSSerial/ros/node_handle.h ****  * INCIDENTAL, SPECIAL, EXEMPLARY, OR CONSEQUENTIAL DAMAGES (INCLUDING,
  27:../Libraries/ROSSerial/ros/node_handle.h ****  * BUT NOT LIMITED TO, PROCUREMENT OF SUBSTITUTE GOODS OR SERVICES;
  28:../Libraries/ROSSerial/ros/node_handle.h ****  * LOSS OF USE, DATA, OR PROFITS; OR BUSINESS INTERRUPTION) HOWEVER
  29:../Libraries/ROSSerial/ros/node_handle.h ****  * CAUSED AND ON ANY THEORY OF LIABILITY, WHETHER IN CONTRACT, STRICT
  30:../Libraries/ROSSerial/ros/node_handle.h ****  * LIABILITY, OR TORT (INCLUDING NEGLIGENCE OR OTHERWISE) ARISING IN
  31:../Libraries/ROSSerial/ros/node_handle.h ****  * ANY WAY OUT OF THE USE OF THIS SOFTWARE, EVEN IF ADVISED OF THE
  32:../Libraries/ROSSerial/ros/node_handle.h ****  * POSSIBILITY OF SUCH DAMAGE.
ARM GAS  /var/folders/l3/4y5292px21b4835bsnjwqc7w009kq1/T//ccNqrcnV.s 			page 26


  33:../Libraries/ROSSerial/ros/node_handle.h ****  */
  34:../Libraries/ROSSerial/ros/node_handle.h **** 
  35:../Libraries/ROSSerial/ros/node_handle.h **** #ifndef ROS_NODE_HANDLE_H_
  36:../Libraries/ROSSerial/ros/node_handle.h **** #define ROS_NODE_HANDLE_H_
  37:../Libraries/ROSSerial/ros/node_handle.h **** 
  38:../Libraries/ROSSerial/ros/node_handle.h **** #include <stdint.h>
  39:../Libraries/ROSSerial/ros/node_handle.h **** 
  40:../Libraries/ROSSerial/ros/node_handle.h **** #include "std_msgs/Time.h"
  41:../Libraries/ROSSerial/ros/node_handle.h **** #include "rosserial_msgs/TopicInfo.h"
  42:../Libraries/ROSSerial/ros/node_handle.h **** #include "rosserial_msgs/Log.h"
  43:../Libraries/ROSSerial/ros/node_handle.h **** #include "rosserial_msgs/RequestParam.h"
  44:../Libraries/ROSSerial/ros/node_handle.h **** 
  45:../Libraries/ROSSerial/ros/node_handle.h **** #include "ros/msg.h"
  46:../Libraries/ROSSerial/ros/node_handle.h **** 
  47:../Libraries/ROSSerial/ros/node_handle.h **** namespace ros
  48:../Libraries/ROSSerial/ros/node_handle.h **** {
  49:../Libraries/ROSSerial/ros/node_handle.h **** 
  50:../Libraries/ROSSerial/ros/node_handle.h **** class NodeHandleBase_
  51:../Libraries/ROSSerial/ros/node_handle.h **** {
  52:../Libraries/ROSSerial/ros/node_handle.h **** public:
  53:../Libraries/ROSSerial/ros/node_handle.h ****   virtual int publish(int id, const Msg* msg) = 0;
  54:../Libraries/ROSSerial/ros/node_handle.h ****   virtual int spinOnce() = 0;
  55:../Libraries/ROSSerial/ros/node_handle.h ****   virtual bool connected() = 0;
  56:../Libraries/ROSSerial/ros/node_handle.h **** };
  57:../Libraries/ROSSerial/ros/node_handle.h **** }
  58:../Libraries/ROSSerial/ros/node_handle.h **** 
  59:../Libraries/ROSSerial/ros/node_handle.h **** #include "ros/publisher.h"
  60:../Libraries/ROSSerial/ros/node_handle.h **** #include "ros/subscriber.h"
  61:../Libraries/ROSSerial/ros/node_handle.h **** #include "ros/service_server.h"
  62:../Libraries/ROSSerial/ros/node_handle.h **** #include "ros/service_client.h"
  63:../Libraries/ROSSerial/ros/node_handle.h **** #include "std_msgs/UInt16.h"
  64:../Libraries/ROSSerial/ros/node_handle.h **** 
  65:../Libraries/ROSSerial/ros/node_handle.h **** 
  66:../Libraries/ROSSerial/ros/node_handle.h **** extern void led_cb(unsigned char*);
  67:../Libraries/ROSSerial/ros/node_handle.h **** 
  68:../Libraries/ROSSerial/ros/node_handle.h **** namespace ros
  69:../Libraries/ROSSerial/ros/node_handle.h **** {
  70:../Libraries/ROSSerial/ros/node_handle.h **** 
  71:../Libraries/ROSSerial/ros/node_handle.h **** const int SPIN_OK = 0;
  72:../Libraries/ROSSerial/ros/node_handle.h **** const int SPIN_ERR = -1;
  73:../Libraries/ROSSerial/ros/node_handle.h **** const int SPIN_TIMEOUT = -2;
  74:../Libraries/ROSSerial/ros/node_handle.h **** 
  75:../Libraries/ROSSerial/ros/node_handle.h **** const uint8_t SYNC_SECONDS  = 5;
  76:../Libraries/ROSSerial/ros/node_handle.h **** const uint8_t MODE_FIRST_FF = 0;
  77:../Libraries/ROSSerial/ros/node_handle.h **** 
  78:../Libraries/ROSSerial/ros/node_handle.h **** /*
  79:../Libraries/ROSSerial/ros/node_handle.h ****  * The second sync byte is a protocol version. It's value is 0xff for the first
  80:../Libraries/ROSSerial/ros/node_handle.h ****  * version of the rosserial protocol (used up to hydro), 0xfe for the second version
  81:../Libraries/ROSSerial/ros/node_handle.h ****  * (introduced in hydro), 0xfd for the next, and so on. Its purpose is to enable
  82:../Libraries/ROSSerial/ros/node_handle.h ****  * detection of mismatched protocol versions (e.g. hydro rosserial_python with groovy
  83:../Libraries/ROSSerial/ros/node_handle.h ****  * rosserial_arduino. It must be changed in both this file and in
  84:../Libraries/ROSSerial/ros/node_handle.h ****  * rosserial_python/src/rosserial_python/SerialClient.py
  85:../Libraries/ROSSerial/ros/node_handle.h ****  */
  86:../Libraries/ROSSerial/ros/node_handle.h **** const uint8_t MODE_PROTOCOL_VER   = 1;
  87:../Libraries/ROSSerial/ros/node_handle.h **** const uint8_t PROTOCOL_VER1       = 0xff; // through groovy
  88:../Libraries/ROSSerial/ros/node_handle.h **** const uint8_t PROTOCOL_VER2       = 0xfe; // in hydro
  89:../Libraries/ROSSerial/ros/node_handle.h **** const uint8_t PROTOCOL_VER        = PROTOCOL_VER2;
ARM GAS  /var/folders/l3/4y5292px21b4835bsnjwqc7w009kq1/T//ccNqrcnV.s 			page 27


  90:../Libraries/ROSSerial/ros/node_handle.h **** const uint8_t MODE_SIZE_L         = 2;
  91:../Libraries/ROSSerial/ros/node_handle.h **** const uint8_t MODE_SIZE_H         = 3;
  92:../Libraries/ROSSerial/ros/node_handle.h **** const uint8_t MODE_SIZE_CHECKSUM  = 4;    // checksum for msg size received from size L and H
  93:../Libraries/ROSSerial/ros/node_handle.h **** const uint8_t MODE_TOPIC_L        = 5;    // waiting for topic id
  94:../Libraries/ROSSerial/ros/node_handle.h **** const uint8_t MODE_TOPIC_H        = 6;
  95:../Libraries/ROSSerial/ros/node_handle.h **** const uint8_t MODE_MESSAGE        = 7;
  96:../Libraries/ROSSerial/ros/node_handle.h **** const uint8_t MODE_MSG_CHECKSUM   = 8;    // checksum for msg and topic id
  97:../Libraries/ROSSerial/ros/node_handle.h **** 
  98:../Libraries/ROSSerial/ros/node_handle.h **** 
  99:../Libraries/ROSSerial/ros/node_handle.h **** const uint8_t SERIAL_MSG_TIMEOUT  = 20;   // 20 milliseconds to recieve all of message data
 100:../Libraries/ROSSerial/ros/node_handle.h **** 
 101:../Libraries/ROSSerial/ros/node_handle.h **** using rosserial_msgs::TopicInfo;
 102:../Libraries/ROSSerial/ros/node_handle.h **** 
 103:../Libraries/ROSSerial/ros/node_handle.h **** typedef struct
 104:../Libraries/ROSSerial/ros/node_handle.h **** {
 105:../Libraries/ROSSerial/ros/node_handle.h ****     uint16_t topic_id;
 106:../Libraries/ROSSerial/ros/node_handle.h ****     const char* topic_name;
 107:../Libraries/ROSSerial/ros/node_handle.h ****     const char* message_type;
 108:../Libraries/ROSSerial/ros/node_handle.h ****     const char* md5sum;
 109:../Libraries/ROSSerial/ros/node_handle.h ****     void (*callback)(const Msg& );
 110:../Libraries/ROSSerial/ros/node_handle.h ****     //void * callback;
 111:../Libraries/ROSSerial/ros/node_handle.h **** } SubscriberType;
 112:../Libraries/ROSSerial/ros/node_handle.h **** 
 113:../Libraries/ROSSerial/ros/node_handle.h **** 
 114:../Libraries/ROSSerial/ros/node_handle.h **** /* Node Handle */
 115:../Libraries/ROSSerial/ros/node_handle.h **** template<class Hardware,
 116:../Libraries/ROSSerial/ros/node_handle.h ****          int MAX_SUBSCRIBERS = 25,
 117:../Libraries/ROSSerial/ros/node_handle.h ****          int MAX_PUBLISHERS = 25,
 118:../Libraries/ROSSerial/ros/node_handle.h ****          int INPUT_SIZE = 512,
 119:../Libraries/ROSSerial/ros/node_handle.h ****          int OUTPUT_SIZE = 512>
 120:../Libraries/ROSSerial/ros/node_handle.h **** class NodeHandle_ : public NodeHandleBase_
 121:../Libraries/ROSSerial/ros/node_handle.h **** {
 122:../Libraries/ROSSerial/ros/node_handle.h **** protected:
 123:../Libraries/ROSSerial/ros/node_handle.h ****   Hardware hardware_;
 124:../Libraries/ROSSerial/ros/node_handle.h **** 
 125:../Libraries/ROSSerial/ros/node_handle.h ****   /* time used for syncing */
 126:../Libraries/ROSSerial/ros/node_handle.h ****   uint32_t rt_time;
 127:../Libraries/ROSSerial/ros/node_handle.h **** 
 128:../Libraries/ROSSerial/ros/node_handle.h ****   /* used for computing current time */
 129:../Libraries/ROSSerial/ros/node_handle.h ****   uint32_t sec_offset, nsec_offset;
 130:../Libraries/ROSSerial/ros/node_handle.h **** 
 131:../Libraries/ROSSerial/ros/node_handle.h ****   /* Spinonce maximum work timeout */
 132:../Libraries/ROSSerial/ros/node_handle.h ****   uint32_t spin_timeout_;
 133:../Libraries/ROSSerial/ros/node_handle.h **** 
 134:../Libraries/ROSSerial/ros/node_handle.h ****   uint8_t message_in[INPUT_SIZE];
 135:../Libraries/ROSSerial/ros/node_handle.h ****   uint8_t message_out[OUTPUT_SIZE];
 136:../Libraries/ROSSerial/ros/node_handle.h **** 
 137:../Libraries/ROSSerial/ros/node_handle.h ****   Publisher * publishers[MAX_PUBLISHERS];
 138:../Libraries/ROSSerial/ros/node_handle.h ****   Subscriber_ * subscribers[MAX_SUBSCRIBERS];
 139:../Libraries/ROSSerial/ros/node_handle.h ****   SubscriberType subscribers2[MAX_SUBSCRIBERS];
 140:../Libraries/ROSSerial/ros/node_handle.h **** 
 141:../Libraries/ROSSerial/ros/node_handle.h ****   /*
 142:../Libraries/ROSSerial/ros/node_handle.h ****    * Setup Functions
 143:../Libraries/ROSSerial/ros/node_handle.h ****    */
 144:../Libraries/ROSSerial/ros/node_handle.h **** public:
 145:../Libraries/ROSSerial/ros/node_handle.h ****   NodeHandle_() : configured_(false)
 650              		.loc 6 145 0 is_stmt 1
ARM GAS  /var/folders/l3/4y5292px21b4835bsnjwqc7w009kq1/T//ccNqrcnV.s 			page 28


 651 0010 234A     		ldr	r2, .L54
 652 0012 244B     		ldr	r3, .L54+4
 653 0014 1360     		str	r3, [r2]
 654 0016 0023     		movs	r3, #0
 655 0018 82F8B834 		strb	r3, [r2, #1208]
 656              	.LVL62:
 657              	.LBB120:
 658              	.LBB121:
  51:../Libraries/ROSSerial/rosserial_msgs/RequestParam.h ****   {
 659              		.loc 4 51 0
 660 001c 2249     		ldr	r1, .L54+8
 661              	.LVL63:
 662 001e C2F8CC14 		str	r1, [r2, #1228]
 663              	.LVL64:
 664              	.L42:
 665              	.LBE121:
 666              	.LBE120:
 667              	.LBB122:
 668              	.LBB123:
 146:../Libraries/ROSSerial/ros/node_handle.h ****   {
 147:../Libraries/ROSSerial/ros/node_handle.h **** 
 148:../Libraries/ROSSerial/ros/node_handle.h ****     for (unsigned int i = 0; i < MAX_PUBLISHERS; i++)
 669              		.loc 6 148 0
 670 0022 042B     		cmp	r3, #4
 671 0024 07D8     		bhi	.L46
 149:../Libraries/ROSSerial/ros/node_handle.h ****       publishers[i] = 0;
 672              		.loc 6 149 0
 673 0026 03F58371 		add	r1, r3, #262
 674 002a 1D4A     		ldr	r2, .L54
 675 002c 0020     		movs	r0, #0
 676 002e 42F82100 		str	r0, [r2, r1, lsl #2]
 148:../Libraries/ROSSerial/ros/node_handle.h ****       publishers[i] = 0;
 677              		.loc 6 148 0
 678 0032 0133     		adds	r3, r3, #1
 679              	.LVL65:
 680 0034 F5E7     		b	.L42
 681              	.L46:
 682              	.LBE123:
 683              	.LBB124:
 150:../Libraries/ROSSerial/ros/node_handle.h **** 
 151:../Libraries/ROSSerial/ros/node_handle.h ****     for (unsigned int i = 0; i < MAX_SUBSCRIBERS; i++) {
 684              		.loc 6 151 0
 685 0036 0023     		movs	r3, #0
 686              	.LVL66:
 687              	.L41:
 688 0038 042B     		cmp	r3, #4
 689 003a 0DD8     		bhi	.L47
 152:../Libraries/ROSSerial/ros/node_handle.h ****       subscribers[i] = 0;
 690              		.loc 6 152 0
 691 003c 184C     		ldr	r4, .L54
 692 003e 03F58571 		add	r1, r3, #266
 693 0042 04EB8101 		add	r1, r4, r1, lsl #2
 694 0046 0020     		movs	r0, #0
 695 0048 4860     		str	r0, [r1, #4]
 153:../Libraries/ROSSerial/ros/node_handle.h ****       subscribers2[i].topic_id = 0;
 696              		.loc 6 153 0
 697 004a 1422     		movs	r2, #20
ARM GAS  /var/folders/l3/4y5292px21b4835bsnjwqc7w009kq1/T//ccNqrcnV.s 			page 29


 698 004c 02FB0342 		mla	r2, r2, r3, r4
 699 0050 A2F84004 		strh	r0, [r2, #1088]	@ movhi
 151:../Libraries/ROSSerial/ros/node_handle.h ****       subscribers[i] = 0;
 700              		.loc 6 151 0
 701 0054 0133     		adds	r3, r3, #1
 702              	.LVL67:
 703 0056 EFE7     		b	.L41
 704              	.L47:
 705              	.LBE124:
 706              	.LBB125:
 154:../Libraries/ROSSerial/ros/node_handle.h ****     }
 155:../Libraries/ROSSerial/ros/node_handle.h **** 
 156:../Libraries/ROSSerial/ros/node_handle.h ****     for (unsigned int i = 0; i < INPUT_SIZE; i++)
 707              		.loc 6 156 0
 708 0058 0023     		movs	r3, #0
 709              	.LVL68:
 710              	.L43:
 711 005a B3F5007F 		cmp	r3, #512
 712 005e 05D2     		bcs	.L48
 157:../Libraries/ROSSerial/ros/node_handle.h ****       message_in[i] = 0;
 713              		.loc 6 157 0
 714 0060 0F4A     		ldr	r2, .L54
 715 0062 1A44     		add	r2, r2, r3
 716 0064 0021     		movs	r1, #0
 717 0066 1176     		strb	r1, [r2, #24]
 156:../Libraries/ROSSerial/ros/node_handle.h ****       message_in[i] = 0;
 718              		.loc 6 156 0
 719 0068 0133     		adds	r3, r3, #1
 720              	.LVL69:
 721 006a F6E7     		b	.L43
 722              	.L48:
 723              	.LBE125:
 724              	.LBB126:
 158:../Libraries/ROSSerial/ros/node_handle.h **** 
 159:../Libraries/ROSSerial/ros/node_handle.h ****     for (unsigned int i = 0; i < OUTPUT_SIZE; i++)
 725              		.loc 6 159 0
 726 006c 0023     		movs	r3, #0
 727              	.LVL70:
 728              	.L44:
 729 006e B3F5007F 		cmp	r3, #512
 730 0072 06D2     		bcs	.L45
 160:../Libraries/ROSSerial/ros/node_handle.h ****       message_out[i] = 0;
 731              		.loc 6 160 0
 732 0074 0A4A     		ldr	r2, .L54
 733 0076 1A44     		add	r2, r2, r3
 734 0078 0021     		movs	r1, #0
 735 007a 82F81812 		strb	r1, [r2, #536]
 159:../Libraries/ROSSerial/ros/node_handle.h ****       message_out[i] = 0;
 736              		.loc 6 159 0
 737 007e 0133     		adds	r3, r3, #1
 738              	.LVL71:
 739 0080 F5E7     		b	.L44
 740              	.L45:
 741              	.LBE126:
 161:../Libraries/ROSSerial/ros/node_handle.h **** 
 162:../Libraries/ROSSerial/ros/node_handle.h ****     req_param_resp.ints_length = 0;
 742              		.loc 6 162 0
ARM GAS  /var/folders/l3/4y5292px21b4835bsnjwqc7w009kq1/T//ccNqrcnV.s 			page 30


 743 0082 074B     		ldr	r3, .L54
 744              	.LVL72:
 745 0084 0022     		movs	r2, #0
 746 0086 83F8D024 		strb	r2, [r3, #1232]
 163:../Libraries/ROSSerial/ros/node_handle.h ****     req_param_resp.ints = NULL;
 747              		.loc 6 163 0
 748 008a C3F8D824 		str	r2, [r3, #1240]
 164:../Libraries/ROSSerial/ros/node_handle.h ****     req_param_resp.floats_length = 0;
 749              		.loc 6 164 0
 750 008e 83F8DC24 		strb	r2, [r3, #1244]
 165:../Libraries/ROSSerial/ros/node_handle.h ****     req_param_resp.floats = NULL;
 751              		.loc 6 165 0
 752 0092 C3F8E424 		str	r2, [r3, #1252]
 166:../Libraries/ROSSerial/ros/node_handle.h ****     req_param_resp.ints_length = 0;
 167:../Libraries/ROSSerial/ros/node_handle.h ****     req_param_resp.ints = NULL;
 168:../Libraries/ROSSerial/ros/node_handle.h **** 
 169:../Libraries/ROSSerial/ros/node_handle.h ****     spin_timeout_ = 0;
 753              		.loc 6 169 0
 754 0096 5A61     		str	r2, [r3, #20]
 755              	.LBE122:
 756              	.LBE119:
 757              	.LBE118:
 758              	.LBE117:
 759              		.loc 5 372 0
 760 0098 5DF8044B 		ldr	r4, [sp], #4
 761              	.LCFI5:
 762              		.cfi_restore 4
 763              		.cfi_def_cfa_offset 0
 764 009c 7047     		bx	lr
 765              	.L55:
 766 009e 00BF     		.align	2
 767              	.L54:
 768 00a0 00000000 		.word	.LANCHOR1
 769 00a4 08000000 		.word	_ZTVN3ros11NodeHandle_I13STM32HardwareLi5ELi5ELi512ELi512EEE+8
 770 00a8 08000000 		.word	_ZTVN14rosserial_msgs20RequestParamResponseE+8
 771              		.cfi_endproc
 772              	.LFE502:
 773              		.cantunwind
 774              		.fnend
 776              		.section	.text._ZN3ros11NodeHandle_I13STM32HardwareLi5ELi5ELi512ELi512EE9connectedEv,"axG",%progbi
 777              		.align	1
 778              		.weak	_ZN3ros11NodeHandle_I13STM32HardwareLi5ELi5ELi512ELi512EE9connectedEv
 779              		.syntax unified
 780              		.thumb
 781              		.thumb_func
 782              		.fpu fpv4-sp-d16
 784              	_ZN3ros11NodeHandle_I13STM32HardwareLi5ELi5ELi512ELi512EE9connectedEv:
 785              		.fnstart
 786              	.LFB505:
 170:../Libraries/ROSSerial/ros/node_handle.h ****   }
 171:../Libraries/ROSSerial/ros/node_handle.h **** 
 172:../Libraries/ROSSerial/ros/node_handle.h ****   Hardware* getHardware()
 173:../Libraries/ROSSerial/ros/node_handle.h ****   {
 174:../Libraries/ROSSerial/ros/node_handle.h ****     return &hardware_;
 175:../Libraries/ROSSerial/ros/node_handle.h ****   }
 176:../Libraries/ROSSerial/ros/node_handle.h **** 
 177:../Libraries/ROSSerial/ros/node_handle.h ****   /* Start serial, initialize buffers */
ARM GAS  /var/folders/l3/4y5292px21b4835bsnjwqc7w009kq1/T//ccNqrcnV.s 			page 31


 178:../Libraries/ROSSerial/ros/node_handle.h ****   void initNode()
 179:../Libraries/ROSSerial/ros/node_handle.h ****   {
 180:../Libraries/ROSSerial/ros/node_handle.h ****     hardware_.init();
 181:../Libraries/ROSSerial/ros/node_handle.h ****     mode_ = 0;
 182:../Libraries/ROSSerial/ros/node_handle.h ****     bytes_ = 0;
 183:../Libraries/ROSSerial/ros/node_handle.h ****     index_ = 0;
 184:../Libraries/ROSSerial/ros/node_handle.h ****     topic_ = 0;
 185:../Libraries/ROSSerial/ros/node_handle.h ****     //printf("Node init\n");
 186:../Libraries/ROSSerial/ros/node_handle.h ****   };
 187:../Libraries/ROSSerial/ros/node_handle.h **** 
 188:../Libraries/ROSSerial/ros/node_handle.h ****   /* Start a named port, which may be network server IP, initialize buffers */
 189:../Libraries/ROSSerial/ros/node_handle.h ****   void initNode(char *portName)
 190:../Libraries/ROSSerial/ros/node_handle.h ****   {
 191:../Libraries/ROSSerial/ros/node_handle.h ****     hardware_.init(portName);
 192:../Libraries/ROSSerial/ros/node_handle.h ****     mode_ = 0;
 193:../Libraries/ROSSerial/ros/node_handle.h ****     bytes_ = 0;
 194:../Libraries/ROSSerial/ros/node_handle.h ****     index_ = 0;
 195:../Libraries/ROSSerial/ros/node_handle.h ****     topic_ = 0;
 196:../Libraries/ROSSerial/ros/node_handle.h ****   };
 197:../Libraries/ROSSerial/ros/node_handle.h **** 
 198:../Libraries/ROSSerial/ros/node_handle.h ****   /**
 199:../Libraries/ROSSerial/ros/node_handle.h ****    * @brief Sets the maximum time in millisconds that spinOnce() can work.
 200:../Libraries/ROSSerial/ros/node_handle.h ****    * This will not effect the processing of the buffer, as spinOnce processes
 201:../Libraries/ROSSerial/ros/node_handle.h ****    * one byte at a time. It simply sets the maximum time that one call can
 202:../Libraries/ROSSerial/ros/node_handle.h ****    * process for. You can choose to clear the buffer if that is beneficial if
 203:../Libraries/ROSSerial/ros/node_handle.h ****    * SPIN_TIMEOUT is returned from spinOnce().
 204:../Libraries/ROSSerial/ros/node_handle.h ****    * @param timeout The timeout in milliseconds that spinOnce will function.
 205:../Libraries/ROSSerial/ros/node_handle.h ****    */
 206:../Libraries/ROSSerial/ros/node_handle.h ****   void setSpinTimeout(const uint32_t& timeout)
 207:../Libraries/ROSSerial/ros/node_handle.h ****   {
 208:../Libraries/ROSSerial/ros/node_handle.h ****      spin_timeout_ = timeout;
 209:../Libraries/ROSSerial/ros/node_handle.h ****   }
 210:../Libraries/ROSSerial/ros/node_handle.h **** 
 211:../Libraries/ROSSerial/ros/node_handle.h **** protected:
 212:../Libraries/ROSSerial/ros/node_handle.h ****   //State machine variables for spinOnce
 213:../Libraries/ROSSerial/ros/node_handle.h ****   int mode_;
 214:../Libraries/ROSSerial/ros/node_handle.h ****   int bytes_;
 215:../Libraries/ROSSerial/ros/node_handle.h ****   int topic_;
 216:../Libraries/ROSSerial/ros/node_handle.h ****   int index_;
 217:../Libraries/ROSSerial/ros/node_handle.h ****   int checksum_;
 218:../Libraries/ROSSerial/ros/node_handle.h **** 
 219:../Libraries/ROSSerial/ros/node_handle.h ****   bool configured_;
 220:../Libraries/ROSSerial/ros/node_handle.h **** 
 221:../Libraries/ROSSerial/ros/node_handle.h ****   /* used for syncing the time */
 222:../Libraries/ROSSerial/ros/node_handle.h ****   uint32_t last_sync_time;
 223:../Libraries/ROSSerial/ros/node_handle.h ****   uint32_t last_sync_receive_time;
 224:../Libraries/ROSSerial/ros/node_handle.h ****   uint32_t last_msg_timeout_time;
 225:../Libraries/ROSSerial/ros/node_handle.h **** 
 226:../Libraries/ROSSerial/ros/node_handle.h **** public:
 227:../Libraries/ROSSerial/ros/node_handle.h ****   /* This function goes in your loop() function, it handles
 228:../Libraries/ROSSerial/ros/node_handle.h ****    *  serial input and callbacks for subscribers.
 229:../Libraries/ROSSerial/ros/node_handle.h ****    */
 230:../Libraries/ROSSerial/ros/node_handle.h **** 
 231:../Libraries/ROSSerial/ros/node_handle.h ****   virtual int spinOnce() {
 232:../Libraries/ROSSerial/ros/node_handle.h ****     return spinOnce1();
 233:../Libraries/ROSSerial/ros/node_handle.h ****   }
 234:../Libraries/ROSSerial/ros/node_handle.h **** 
ARM GAS  /var/folders/l3/4y5292px21b4835bsnjwqc7w009kq1/T//ccNqrcnV.s 			page 32


 235:../Libraries/ROSSerial/ros/node_handle.h **** //calling spinOnce() directly from spin_task gives stackoverflow
 236:../Libraries/ROSSerial/ros/node_handle.h ****   int spinOnce1()
 237:../Libraries/ROSSerial/ros/node_handle.h ****   {
 238:../Libraries/ROSSerial/ros/node_handle.h ****     static void (*s_CallBack)(char *);
 239:../Libraries/ROSSerial/ros/node_handle.h ****     
 240:../Libraries/ROSSerial/ros/node_handle.h ****     //printf("spinOnce\n");
 241:../Libraries/ROSSerial/ros/node_handle.h ****     /* restart if timed out */
 242:../Libraries/ROSSerial/ros/node_handle.h ****     uint32_t c_time = hardware_.time();
 243:../Libraries/ROSSerial/ros/node_handle.h ****     //printf("spinOnce %ld\n",c_time);
 244:../Libraries/ROSSerial/ros/node_handle.h **** 
 245:../Libraries/ROSSerial/ros/node_handle.h ****     if ((c_time - last_sync_receive_time) > (SYNC_SECONDS * 2200))
 246:../Libraries/ROSSerial/ros/node_handle.h ****     {
 247:../Libraries/ROSSerial/ros/node_handle.h ****       configured_ = false;
 248:../Libraries/ROSSerial/ros/node_handle.h ****     }
 249:../Libraries/ROSSerial/ros/node_handle.h **** 
 250:../Libraries/ROSSerial/ros/node_handle.h ****     /* reset if message has timed out */
 251:../Libraries/ROSSerial/ros/node_handle.h ****     if (mode_ != MODE_FIRST_FF)
 252:../Libraries/ROSSerial/ros/node_handle.h ****     {
 253:../Libraries/ROSSerial/ros/node_handle.h ****       if (c_time > last_msg_timeout_time)
 254:../Libraries/ROSSerial/ros/node_handle.h ****       {
 255:../Libraries/ROSSerial/ros/node_handle.h ****         mode_ = MODE_FIRST_FF;
 256:../Libraries/ROSSerial/ros/node_handle.h ****       }
 257:../Libraries/ROSSerial/ros/node_handle.h ****     }
 258:../Libraries/ROSSerial/ros/node_handle.h **** 
 259:../Libraries/ROSSerial/ros/node_handle.h ****     /* while available buffer, read data */
 260:../Libraries/ROSSerial/ros/node_handle.h ****     while (true)
 261:../Libraries/ROSSerial/ros/node_handle.h ****     {
 262:../Libraries/ROSSerial/ros/node_handle.h ****       // If a timeout has been specified, check how long spinOnce has been running.
 263:../Libraries/ROSSerial/ros/node_handle.h ****       if (spin_timeout_ > 0)
 264:../Libraries/ROSSerial/ros/node_handle.h ****       {
 265:../Libraries/ROSSerial/ros/node_handle.h ****         // If the maximum processing timeout has been exceeded, exit with error.
 266:../Libraries/ROSSerial/ros/node_handle.h ****         // The next spinOnce can continue where it left off, or optionally
 267:../Libraries/ROSSerial/ros/node_handle.h ****         // based on the application in use, the hardware buffer could be flushed
 268:../Libraries/ROSSerial/ros/node_handle.h ****         // and start fresh.
 269:../Libraries/ROSSerial/ros/node_handle.h ****         if ((hardware_.time() - c_time) > spin_timeout_)
 270:../Libraries/ROSSerial/ros/node_handle.h ****         {
 271:../Libraries/ROSSerial/ros/node_handle.h ****           // Exit the spin, processing timeout exceeded.
 272:../Libraries/ROSSerial/ros/node_handle.h ****           return SPIN_TIMEOUT;
 273:../Libraries/ROSSerial/ros/node_handle.h ****         }
 274:../Libraries/ROSSerial/ros/node_handle.h ****       }
 275:../Libraries/ROSSerial/ros/node_handle.h ****       int data = hardware_.read();
 276:../Libraries/ROSSerial/ros/node_handle.h ****       if (data < 0)
 277:../Libraries/ROSSerial/ros/node_handle.h ****         break;
 278:../Libraries/ROSSerial/ros/node_handle.h ****       checksum_ += data;
 279:../Libraries/ROSSerial/ros/node_handle.h ****       if (mode_ == MODE_MESSAGE)          /* message data being recieved */
 280:../Libraries/ROSSerial/ros/node_handle.h ****       {
 281:../Libraries/ROSSerial/ros/node_handle.h ****         message_in[index_++] = data;
 282:../Libraries/ROSSerial/ros/node_handle.h ****         bytes_--;
 283:../Libraries/ROSSerial/ros/node_handle.h ****         if (bytes_ == 0)                 /* is message complete? if so, checksum */
 284:../Libraries/ROSSerial/ros/node_handle.h ****           mode_ = MODE_MSG_CHECKSUM;
 285:../Libraries/ROSSerial/ros/node_handle.h ****       }
 286:../Libraries/ROSSerial/ros/node_handle.h ****       else if (mode_ == MODE_FIRST_FF)
 287:../Libraries/ROSSerial/ros/node_handle.h ****       {
 288:../Libraries/ROSSerial/ros/node_handle.h ****         if (data == 0xff)
 289:../Libraries/ROSSerial/ros/node_handle.h ****         {
 290:../Libraries/ROSSerial/ros/node_handle.h ****           mode_++;
 291:../Libraries/ROSSerial/ros/node_handle.h ****           last_msg_timeout_time = c_time + SERIAL_MSG_TIMEOUT;
ARM GAS  /var/folders/l3/4y5292px21b4835bsnjwqc7w009kq1/T//ccNqrcnV.s 			page 33


 292:../Libraries/ROSSerial/ros/node_handle.h ****         }
 293:../Libraries/ROSSerial/ros/node_handle.h ****         else if (hardware_.time() - c_time > (SYNC_SECONDS * 1000))
 294:../Libraries/ROSSerial/ros/node_handle.h ****         {
 295:../Libraries/ROSSerial/ros/node_handle.h ****           /* We have been stuck in spinOnce too long, return error */
 296:../Libraries/ROSSerial/ros/node_handle.h ****           configured_ = false;
 297:../Libraries/ROSSerial/ros/node_handle.h ****           return SPIN_TIMEOUT;
 298:../Libraries/ROSSerial/ros/node_handle.h ****         }
 299:../Libraries/ROSSerial/ros/node_handle.h ****       }
 300:../Libraries/ROSSerial/ros/node_handle.h ****       else if (mode_ == MODE_PROTOCOL_VER)
 301:../Libraries/ROSSerial/ros/node_handle.h ****       {
 302:../Libraries/ROSSerial/ros/node_handle.h ****         if (data == PROTOCOL_VER)
 303:../Libraries/ROSSerial/ros/node_handle.h ****         {
 304:../Libraries/ROSSerial/ros/node_handle.h ****           mode_++;
 305:../Libraries/ROSSerial/ros/node_handle.h ****         }
 306:../Libraries/ROSSerial/ros/node_handle.h ****         else
 307:../Libraries/ROSSerial/ros/node_handle.h ****         {
 308:../Libraries/ROSSerial/ros/node_handle.h ****           mode_ = MODE_FIRST_FF;
 309:../Libraries/ROSSerial/ros/node_handle.h ****           if (configured_ == false)
 310:../Libraries/ROSSerial/ros/node_handle.h ****             requestSyncTime();  /* send a msg back showing our protocol version */
 311:../Libraries/ROSSerial/ros/node_handle.h ****         }
 312:../Libraries/ROSSerial/ros/node_handle.h ****       }
 313:../Libraries/ROSSerial/ros/node_handle.h ****       else if (mode_ == MODE_SIZE_L)      /* bottom half of message size */
 314:../Libraries/ROSSerial/ros/node_handle.h ****       {
 315:../Libraries/ROSSerial/ros/node_handle.h ****         bytes_ = data;
 316:../Libraries/ROSSerial/ros/node_handle.h ****         index_ = 0;
 317:../Libraries/ROSSerial/ros/node_handle.h ****         mode_++;
 318:../Libraries/ROSSerial/ros/node_handle.h ****         checksum_ = data;               /* first byte for calculating size checksum */
 319:../Libraries/ROSSerial/ros/node_handle.h ****       }
 320:../Libraries/ROSSerial/ros/node_handle.h ****       else if (mode_ == MODE_SIZE_H)      /* top half of message size */
 321:../Libraries/ROSSerial/ros/node_handle.h ****       {
 322:../Libraries/ROSSerial/ros/node_handle.h ****         bytes_ += data << 8;
 323:../Libraries/ROSSerial/ros/node_handle.h ****         mode_++;
 324:../Libraries/ROSSerial/ros/node_handle.h ****       }
 325:../Libraries/ROSSerial/ros/node_handle.h ****       else if (mode_ == MODE_SIZE_CHECKSUM)
 326:../Libraries/ROSSerial/ros/node_handle.h ****       {
 327:../Libraries/ROSSerial/ros/node_handle.h ****         if ((checksum_ % 256) == 255)
 328:../Libraries/ROSSerial/ros/node_handle.h ****           mode_++;
 329:../Libraries/ROSSerial/ros/node_handle.h ****         else
 330:../Libraries/ROSSerial/ros/node_handle.h ****           mode_ = MODE_FIRST_FF;          /* Abandon the frame if the msg len is wrong */
 331:../Libraries/ROSSerial/ros/node_handle.h ****       }
 332:../Libraries/ROSSerial/ros/node_handle.h ****       else if (mode_ == MODE_TOPIC_L)     /* bottom half of topic id */
 333:../Libraries/ROSSerial/ros/node_handle.h ****       {
 334:../Libraries/ROSSerial/ros/node_handle.h ****         topic_ = data;
 335:../Libraries/ROSSerial/ros/node_handle.h ****         mode_++;
 336:../Libraries/ROSSerial/ros/node_handle.h ****         checksum_ = data;               /* first byte included in checksum */
 337:../Libraries/ROSSerial/ros/node_handle.h ****       }
 338:../Libraries/ROSSerial/ros/node_handle.h ****       else if (mode_ == MODE_TOPIC_H)     /* top half of topic id */
 339:../Libraries/ROSSerial/ros/node_handle.h ****       {
 340:../Libraries/ROSSerial/ros/node_handle.h ****         topic_ += data << 8;
 341:../Libraries/ROSSerial/ros/node_handle.h ****         mode_ = MODE_MESSAGE;
 342:../Libraries/ROSSerial/ros/node_handle.h ****         if (bytes_ == 0)
 343:../Libraries/ROSSerial/ros/node_handle.h ****           mode_ = MODE_MSG_CHECKSUM;
 344:../Libraries/ROSSerial/ros/node_handle.h ****       }
 345:../Libraries/ROSSerial/ros/node_handle.h ****       else if (mode_ == MODE_MSG_CHECKSUM)    /* do checksum */
 346:../Libraries/ROSSerial/ros/node_handle.h ****       {
 347:../Libraries/ROSSerial/ros/node_handle.h ****         mode_ = MODE_FIRST_FF;
 348:../Libraries/ROSSerial/ros/node_handle.h ****         if ((checksum_ % 256) == 255)
ARM GAS  /var/folders/l3/4y5292px21b4835bsnjwqc7w009kq1/T//ccNqrcnV.s 			page 34


 349:../Libraries/ROSSerial/ros/node_handle.h ****         {
 350:../Libraries/ROSSerial/ros/node_handle.h ****           if (topic_ == TopicInfo::ID_PUBLISHER)
 351:../Libraries/ROSSerial/ros/node_handle.h ****           {
 352:../Libraries/ROSSerial/ros/node_handle.h ****             requestSyncTime();
 353:../Libraries/ROSSerial/ros/node_handle.h ****             negotiateTopics();
 354:../Libraries/ROSSerial/ros/node_handle.h ****             last_sync_time = c_time;
 355:../Libraries/ROSSerial/ros/node_handle.h ****             last_sync_receive_time = c_time;
 356:../Libraries/ROSSerial/ros/node_handle.h ****             return SPIN_ERR;
 357:../Libraries/ROSSerial/ros/node_handle.h ****           }
 358:../Libraries/ROSSerial/ros/node_handle.h ****           else if (topic_ == TopicInfo::ID_TIME)
 359:../Libraries/ROSSerial/ros/node_handle.h ****           {
 360:../Libraries/ROSSerial/ros/node_handle.h ****             syncTime(message_in);
 361:../Libraries/ROSSerial/ros/node_handle.h ****           }
 362:../Libraries/ROSSerial/ros/node_handle.h ****           else if (topic_ == TopicInfo::ID_PARAMETER_REQUEST)
 363:../Libraries/ROSSerial/ros/node_handle.h ****           {
 364:../Libraries/ROSSerial/ros/node_handle.h ****             req_param_resp.deserialize(message_in);
 365:../Libraries/ROSSerial/ros/node_handle.h ****             param_recieved = true;
 366:../Libraries/ROSSerial/ros/node_handle.h ****           }
 367:../Libraries/ROSSerial/ros/node_handle.h ****           else if (topic_ == TopicInfo::ID_TX_STOP)
 368:../Libraries/ROSSerial/ros/node_handle.h ****           {
 369:../Libraries/ROSSerial/ros/node_handle.h ****             configured_ = false;
 370:../Libraries/ROSSerial/ros/node_handle.h ****           }
 371:../Libraries/ROSSerial/ros/node_handle.h ****           else
 372:../Libraries/ROSSerial/ros/node_handle.h ****           {
 373:../Libraries/ROSSerial/ros/node_handle.h ****             if (subscribers2[topic_ - 100].topic_id != 0) {
 374:../Libraries/ROSSerial/ros/node_handle.h ****               //subscribers[topic_ - 100]->callback(message_in);
 375:../Libraries/ROSSerial/ros/node_handle.h ****               s_CallBack = (void (*)(void))subscribers2[topic_ - 100].callback;
 376:../Libraries/ROSSerial/ros/node_handle.h ****               s_CallBack(message_in);
 377:../Libraries/ROSSerial/ros/node_handle.h ****             }
 378:../Libraries/ROSSerial/ros/node_handle.h ****           }
 379:../Libraries/ROSSerial/ros/node_handle.h ****         }
 380:../Libraries/ROSSerial/ros/node_handle.h ****       }
 381:../Libraries/ROSSerial/ros/node_handle.h ****     }
 382:../Libraries/ROSSerial/ros/node_handle.h **** 
 383:../Libraries/ROSSerial/ros/node_handle.h ****     /* occasionally sync time */
 384:../Libraries/ROSSerial/ros/node_handle.h ****     if (configured_ && ((c_time - last_sync_time) > (SYNC_SECONDS * 500)))
 385:../Libraries/ROSSerial/ros/node_handle.h ****     {
 386:../Libraries/ROSSerial/ros/node_handle.h ****       requestSyncTime();
 387:../Libraries/ROSSerial/ros/node_handle.h ****       last_sync_time = c_time;
 388:../Libraries/ROSSerial/ros/node_handle.h ****     }
 389:../Libraries/ROSSerial/ros/node_handle.h **** 
 390:../Libraries/ROSSerial/ros/node_handle.h ****     return SPIN_OK;
 391:../Libraries/ROSSerial/ros/node_handle.h ****   }
 392:../Libraries/ROSSerial/ros/node_handle.h **** 
 393:../Libraries/ROSSerial/ros/node_handle.h **** 
 394:../Libraries/ROSSerial/ros/node_handle.h ****   /* Are we connected to the PC? */
 395:../Libraries/ROSSerial/ros/node_handle.h ****   virtual bool connected()
 787              		.loc 6 395 0
 788              		.cfi_startproc
 789              		@ args = 0, pretend = 0, frame = 0
 790              		@ frame_needed = 0, uses_anonymous_args = 0
 791              		@ link register save eliminated.
 792              	.LVL73:
 396:../Libraries/ROSSerial/ros/node_handle.h ****   {
 397:../Libraries/ROSSerial/ros/node_handle.h ****     return configured_;
 398:../Libraries/ROSSerial/ros/node_handle.h ****   };
 793              		.loc 6 398 0
ARM GAS  /var/folders/l3/4y5292px21b4835bsnjwqc7w009kq1/T//ccNqrcnV.s 			page 35


 794 0000 90F8B804 		ldrb	r0, [r0, #1208]	@ zero_extendqisi2
 795              	.LVL74:
 796 0004 7047     		bx	lr
 797              		.cfi_endproc
 798              	.LFE505:
 799              		.cantunwind
 800              		.fnend
 802              		.section	.text._ZNK14rosserial_msgs9TopicInfo9serializeEPh,"axG",%progbits,_ZNK14rosserial_msgs9To
 803              		.align	1
 804              		.weak	_ZNK14rosserial_msgs9TopicInfo9serializeEPh
 805              		.syntax unified
 806              		.thumb
 807              		.thumb_func
 808              		.fpu fpv4-sp-d16
 810              	_ZNK14rosserial_msgs9TopicInfo9serializeEPh:
 811              		.fnstart
 812              	.LFB387:
  29:../Libraries/ROSSerial/rosserial_msgs/TopicInfo.h ****     {
 813              		.loc 2 29 0
 814              		.cfi_startproc
 815              		@ args = 0, pretend = 0, frame = 0
 816              		@ frame_needed = 0, uses_anonymous_args = 0
 817              	.LVL75:
 818 0000 2DE9F041 		push	{r4, r5, r6, r7, r8, lr}
 819              	.LCFI6:
 820              		.cfi_def_cfa_offset 24
 821              		.cfi_offset 4, -24
 822              		.cfi_offset 5, -20
 823              		.cfi_offset 6, -16
 824              		.cfi_offset 7, -12
 825              		.cfi_offset 8, -8
 826              		.cfi_offset 14, -4
 827 0004 0646     		mov	r6, r0
 828 0006 0C46     		mov	r4, r1
 829              	.LVL76:
  32:../Libraries/ROSSerial/rosserial_msgs/TopicInfo.h ****       *(outbuffer + offset + 1) = (this->topic_id >> (8 * 1)) & 0xFF;
 830              		.loc 2 32 0
 831 0008 8388     		ldrh	r3, [r0, #4]
 832 000a 0B70     		strb	r3, [r1]
  33:../Libraries/ROSSerial/rosserial_msgs/TopicInfo.h ****       offset += sizeof(this->topic_id);
 833              		.loc 2 33 0
 834 000c 8388     		ldrh	r3, [r0, #4]
 835 000e 1B0A     		lsrs	r3, r3, #8
 836 0010 4B70     		strb	r3, [r1, #1]
 837              	.LVL77:
  35:../Libraries/ROSSerial/rosserial_msgs/TopicInfo.h ****       memcpy(outbuffer + offset, &length_topic_name, sizeof(uint32_t));
 838              		.loc 2 35 0
 839 0012 8068     		ldr	r0, [r0, #8]
 840              	.LVL78:
 841 0014 FFF7FEFF 		bl	strlen
 842              	.LVL79:
 843 0018 0746     		mov	r7, r0
 844              	.LVL80:
  36:../Libraries/ROSSerial/rosserial_msgs/TopicInfo.h ****       offset += 4;
 845              		.loc 2 36 0
 846 001a C4F80200 		str	r0, [r4, #2]	@ unaligned
 847              	.LVL81:
ARM GAS  /var/folders/l3/4y5292px21b4835bsnjwqc7w009kq1/T//ccNqrcnV.s 			page 36


  38:../Libraries/ROSSerial/rosserial_msgs/TopicInfo.h ****       offset += length_topic_name;
 848              		.loc 2 38 0
 849 001e 0246     		mov	r2, r0
 850 0020 B168     		ldr	r1, [r6, #8]
 851 0022 A01D     		adds	r0, r4, #6
 852              	.LVL82:
 853 0024 FFF7FEFF 		bl	memcpy
 854              	.LVL83:
  39:../Libraries/ROSSerial/rosserial_msgs/TopicInfo.h ****       uint32_t length_message_type = strlen(this->message_type);
 855              		.loc 2 39 0
 856 0028 07F10608 		add	r8, r7, #6
 857              	.LVL84:
  40:../Libraries/ROSSerial/rosserial_msgs/TopicInfo.h ****       memcpy(outbuffer + offset, &length_message_type, sizeof(uint32_t));
 858              		.loc 2 40 0
 859 002c F068     		ldr	r0, [r6, #12]
 860 002e FFF7FEFF 		bl	strlen
 861              	.LVL85:
 862 0032 0546     		mov	r5, r0
 863              	.LVL86:
  41:../Libraries/ROSSerial/rosserial_msgs/TopicInfo.h ****       offset += 4;
 864              		.loc 2 41 0
 865 0034 44F80800 		str	r0, [r4, r8]	@ unaligned
  42:../Libraries/ROSSerial/rosserial_msgs/TopicInfo.h ****       memcpy(outbuffer + offset, this->message_type, length_message_type);
 866              		.loc 2 42 0
 867 0038 0A37     		adds	r7, r7, #10
 868              	.LVL87:
  43:../Libraries/ROSSerial/rosserial_msgs/TopicInfo.h ****       offset += length_message_type;
 869              		.loc 2 43 0
 870 003a 0246     		mov	r2, r0
 871 003c F168     		ldr	r1, [r6, #12]
 872 003e E019     		adds	r0, r4, r7
 873              	.LVL88:
 874 0040 FFF7FEFF 		bl	memcpy
 875              	.LVL89:
  44:../Libraries/ROSSerial/rosserial_msgs/TopicInfo.h ****       uint32_t length_md5sum = strlen(this->md5sum);
 876              		.loc 2 44 0
 877 0044 2F44     		add	r7, r7, r5
 878              	.LVL90:
  45:../Libraries/ROSSerial/rosserial_msgs/TopicInfo.h ****       memcpy(outbuffer + offset, &length_md5sum, sizeof(uint32_t));
 879              		.loc 2 45 0
 880 0046 3069     		ldr	r0, [r6, #16]
 881 0048 FFF7FEFF 		bl	strlen
 882              	.LVL91:
 883 004c 0546     		mov	r5, r0
 884              	.LVL92:
  46:../Libraries/ROSSerial/rosserial_msgs/TopicInfo.h ****       offset += 4;
 885              		.loc 2 46 0
 886 004e E051     		str	r0, [r4, r7]	@ unaligned
  47:../Libraries/ROSSerial/rosserial_msgs/TopicInfo.h ****       memcpy(outbuffer + offset, this->md5sum, length_md5sum);
 887              		.loc 2 47 0
 888 0050 0437     		adds	r7, r7, #4
 889              	.LVL93:
  48:../Libraries/ROSSerial/rosserial_msgs/TopicInfo.h ****       offset += length_md5sum;
 890              		.loc 2 48 0
 891 0052 0246     		mov	r2, r0
 892 0054 3169     		ldr	r1, [r6, #16]
 893 0056 E019     		adds	r0, r4, r7
ARM GAS  /var/folders/l3/4y5292px21b4835bsnjwqc7w009kq1/T//ccNqrcnV.s 			page 37


 894              	.LVL94:
 895 0058 FFF7FEFF 		bl	memcpy
 896              	.LVL95:
  49:../Libraries/ROSSerial/rosserial_msgs/TopicInfo.h ****       union {
 897              		.loc 2 49 0
 898 005c E819     		adds	r0, r5, r7
 899              	.LVL96:
  54:../Libraries/ROSSerial/rosserial_msgs/TopicInfo.h ****       *(outbuffer + offset + 0) = (u_buffer_size.base >> (8 * 0)) & 0xFF;
 900              		.loc 2 54 0
 901 005e 7369     		ldr	r3, [r6, #20]
  55:../Libraries/ROSSerial/rosserial_msgs/TopicInfo.h ****       *(outbuffer + offset + 1) = (u_buffer_size.base >> (8 * 1)) & 0xFF;
 902              		.loc 2 55 0
 903 0060 2354     		strb	r3, [r4, r0]
  56:../Libraries/ROSSerial/rosserial_msgs/TopicInfo.h ****       *(outbuffer + offset + 2) = (u_buffer_size.base >> (8 * 2)) & 0xFF;
 904              		.loc 2 56 0
 905 0062 190A     		lsrs	r1, r3, #8
 906 0064 421C     		adds	r2, r0, #1
 907 0066 A154     		strb	r1, [r4, r2]
  57:../Libraries/ROSSerial/rosserial_msgs/TopicInfo.h ****       *(outbuffer + offset + 3) = (u_buffer_size.base >> (8 * 3)) & 0xFF;
 908              		.loc 2 57 0
 909 0068 190C     		lsrs	r1, r3, #16
 910 006a 821C     		adds	r2, r0, #2
 911 006c A154     		strb	r1, [r4, r2]
  58:../Libraries/ROSSerial/rosserial_msgs/TopicInfo.h ****       offset += sizeof(this->buffer_size);
 912              		.loc 2 58 0
 913 006e 1B0E     		lsrs	r3, r3, #24
 914 0070 C21C     		adds	r2, r0, #3
 915 0072 A354     		strb	r3, [r4, r2]
 916              	.LVL97:
  61:../Libraries/ROSSerial/rosserial_msgs/TopicInfo.h **** 
 917              		.loc 2 61 0
 918 0074 0430     		adds	r0, r0, #4
 919              	.LVL98:
 920 0076 BDE8F081 		pop	{r4, r5, r6, r7, r8, pc}
 921              		.cfi_endproc
 922              	.LFE387:
 923              		.cantunwind
 924              		.fnend
 926              		.section	.text._ZNK14rosserial_msgs3Log9serializeEPh,"axG",%progbits,_ZNK14rosserial_msgs3Log9seri
 927              		.align	1
 928              		.weak	_ZNK14rosserial_msgs3Log9serializeEPh
 929              		.syntax unified
 930              		.thumb
 931              		.thumb_func
 932              		.fpu fpv4-sp-d16
 934              	_ZNK14rosserial_msgs3Log9serializeEPh:
 935              		.fnstart
 936              	.LFB391:
  24:../Libraries/ROSSerial/rosserial_msgs/Log.h ****     {
 937              		.loc 3 24 0
 938              		.cfi_startproc
 939              		@ args = 0, pretend = 0, frame = 0
 940              		@ frame_needed = 0, uses_anonymous_args = 0
 941              	.LVL99:
 942 0000 70B5     		push	{r4, r5, r6, lr}
 943              	.LCFI7:
 944              		.cfi_def_cfa_offset 16
ARM GAS  /var/folders/l3/4y5292px21b4835bsnjwqc7w009kq1/T//ccNqrcnV.s 			page 38


 945              		.cfi_offset 4, -16
 946              		.cfi_offset 5, -12
 947              		.cfi_offset 6, -8
 948              		.cfi_offset 14, -4
 949 0002 0646     		mov	r6, r0
 950 0004 0D46     		mov	r5, r1
 951              	.LVL100:
  27:../Libraries/ROSSerial/rosserial_msgs/Log.h ****       offset += sizeof(this->level);
 952              		.loc 3 27 0
 953 0006 0379     		ldrb	r3, [r0, #4]	@ zero_extendqisi2
 954 0008 0B70     		strb	r3, [r1]
 955              	.LVL101:
  29:../Libraries/ROSSerial/rosserial_msgs/Log.h ****       memcpy(outbuffer + offset, &length_msg, sizeof(uint32_t));
 956              		.loc 3 29 0
 957 000a 8068     		ldr	r0, [r0, #8]
 958              	.LVL102:
 959 000c FFF7FEFF 		bl	strlen
 960              	.LVL103:
 961 0010 0446     		mov	r4, r0
 962              	.LVL104:
  30:../Libraries/ROSSerial/rosserial_msgs/Log.h ****       offset += 4;
 963              		.loc 3 30 0
 964 0012 C5F80100 		str	r0, [r5, #1]	@ unaligned
 965              	.LVL105:
  32:../Libraries/ROSSerial/rosserial_msgs/Log.h ****       offset += length_msg;
 966              		.loc 3 32 0
 967 0016 0246     		mov	r2, r0
 968 0018 B168     		ldr	r1, [r6, #8]
 969 001a 681D     		adds	r0, r5, #5
 970              	.LVL106:
 971 001c FFF7FEFF 		bl	memcpy
 972              	.LVL107:
  35:../Libraries/ROSSerial/rosserial_msgs/Log.h **** 
 973              		.loc 3 35 0
 974 0020 601D     		adds	r0, r4, #5
 975              	.LVL108:
 976 0022 70BD     		pop	{r4, r5, r6, pc}
 977              		.cfi_endproc
 978              	.LFE391:
 979              		.cantunwind
 980              		.fnend
 982              		.section	.text._ZNK14rosserial_msgs20RequestParamResponse9serializeEPh,"axG",%progbits,_ZNK14rosse
 983              		.align	1
 984              		.weak	_ZNK14rosserial_msgs20RequestParamResponse9serializeEPh
 985              		.syntax unified
 986              		.thumb
 987              		.thumb_func
 988              		.fpu fpv4-sp-d16
 990              	_ZNK14rosserial_msgs20RequestParamResponse9serializeEPh:
 991              		.fnstart
 992              	.LFB399:
  64:../Libraries/ROSSerial/rosserial_msgs/RequestParam.h ****     {
 993              		.loc 4 64 0
 994              		.cfi_startproc
 995              		@ args = 0, pretend = 0, frame = 0
 996              		@ frame_needed = 0, uses_anonymous_args = 0
 997              	.LVL109:
ARM GAS  /var/folders/l3/4y5292px21b4835bsnjwqc7w009kq1/T//ccNqrcnV.s 			page 39


 998 0000 2DE9F041 		push	{r4, r5, r6, r7, r8, lr}
 999              	.LCFI8:
 1000              		.cfi_def_cfa_offset 24
 1001              		.cfi_offset 4, -24
 1002              		.cfi_offset 5, -20
 1003              		.cfi_offset 6, -16
 1004              		.cfi_offset 7, -12
 1005              		.cfi_offset 8, -8
 1006              		.cfi_offset 14, -4
 1007 0004 0546     		mov	r5, r0
 1008 0006 0C46     		mov	r4, r1
 1009              	.LVL110:
  67:../Libraries/ROSSerial/rosserial_msgs/RequestParam.h ****       *(outbuffer + offset++) = 0;
 1010              		.loc 4 67 0
 1011 0008 0379     		ldrb	r3, [r0, #4]	@ zero_extendqisi2
 1012 000a 0B70     		strb	r3, [r1]
 1013              	.LVL111:
  68:../Libraries/ROSSerial/rosserial_msgs/RequestParam.h ****       *(outbuffer + offset++) = 0;
 1014              		.loc 4 68 0
 1015 000c 0022     		movs	r2, #0
 1016 000e 4A70     		strb	r2, [r1, #1]
 1017              	.LVL112:
  69:../Libraries/ROSSerial/rosserial_msgs/RequestParam.h ****       *(outbuffer + offset++) = 0;
 1018              		.loc 4 69 0
 1019 0010 8A70     		strb	r2, [r1, #2]
 1020              	.LVL113:
  70:../Libraries/ROSSerial/rosserial_msgs/RequestParam.h ****       for( uint8_t i = 0; i < ints_length; i++){
 1021              		.loc 4 70 0
 1022 0012 CA70     		strb	r2, [r1, #3]
 1023              	.LVL114:
 1024 0014 0423     		movs	r3, #4
 1025              	.LVL115:
 1026              	.L63:
 1027              	.LBB127:
  71:../Libraries/ROSSerial/rosserial_msgs/RequestParam.h ****       union {
 1028              		.loc 4 71 0 discriminator 3
 1029 0016 2979     		ldrb	r1, [r5, #4]	@ zero_extendqisi2
 1030 0018 9142     		cmp	r1, r2
 1031 001a 10D9     		bls	.L62
 1032              	.LBB128:
  76:../Libraries/ROSSerial/rosserial_msgs/RequestParam.h ****       *(outbuffer + offset + 0) = (u_intsi.base >> (8 * 0)) & 0xFF;
 1033              		.loc 4 76 0 discriminator 2
 1034 001c E968     		ldr	r1, [r5, #12]
 1035 001e 51F82210 		ldr	r1, [r1, r2, lsl #2]
  77:../Libraries/ROSSerial/rosserial_msgs/RequestParam.h ****       *(outbuffer + offset + 1) = (u_intsi.base >> (8 * 1)) & 0xFF;
 1036              		.loc 4 77 0 discriminator 2
 1037 0022 E154     		strb	r1, [r4, r3]
  78:../Libraries/ROSSerial/rosserial_msgs/RequestParam.h ****       *(outbuffer + offset + 2) = (u_intsi.base >> (8 * 2)) & 0xFF;
 1038              		.loc 4 78 0 discriminator 2
 1039 0024 0E0A     		lsrs	r6, r1, #8
 1040 0026 581C     		adds	r0, r3, #1
 1041 0028 2654     		strb	r6, [r4, r0]
  79:../Libraries/ROSSerial/rosserial_msgs/RequestParam.h ****       *(outbuffer + offset + 3) = (u_intsi.base >> (8 * 3)) & 0xFF;
 1042              		.loc 4 79 0 discriminator 2
 1043 002a 0E0C     		lsrs	r6, r1, #16
 1044 002c 981C     		adds	r0, r3, #2
 1045 002e 2654     		strb	r6, [r4, r0]
ARM GAS  /var/folders/l3/4y5292px21b4835bsnjwqc7w009kq1/T//ccNqrcnV.s 			page 40


  80:../Libraries/ROSSerial/rosserial_msgs/RequestParam.h ****       offset += sizeof(this->ints[i]);
 1046              		.loc 4 80 0 discriminator 2
 1047 0030 090E     		lsrs	r1, r1, #24
 1048 0032 D81C     		adds	r0, r3, #3
 1049 0034 2154     		strb	r1, [r4, r0]
  81:../Libraries/ROSSerial/rosserial_msgs/RequestParam.h ****       }
 1050              		.loc 4 81 0 discriminator 2
 1051 0036 0433     		adds	r3, r3, #4
 1052              	.LVL116:
 1053              	.LBE128:
  71:../Libraries/ROSSerial/rosserial_msgs/RequestParam.h ****       union {
 1054              		.loc 4 71 0 discriminator 2
 1055 0038 0132     		adds	r2, r2, #1
 1056              	.LVL117:
 1057 003a D2B2     		uxtb	r2, r2
 1058              	.LVL118:
 1059 003c EBE7     		b	.L63
 1060              	.L62:
 1061              	.LBE127:
  83:../Libraries/ROSSerial/rosserial_msgs/RequestParam.h ****       *(outbuffer + offset++) = 0;
 1062              		.loc 4 83 0
 1063 003e 591C     		adds	r1, r3, #1
 1064              	.LVL119:
 1065 0040 2A7C     		ldrb	r2, [r5, #16]	@ zero_extendqisi2
 1066              	.LVL120:
 1067 0042 E254     		strb	r2, [r4, r3]
  84:../Libraries/ROSSerial/rosserial_msgs/RequestParam.h ****       *(outbuffer + offset++) = 0;
 1068              		.loc 4 84 0
 1069 0044 981C     		adds	r0, r3, #2
 1070              	.LVL121:
 1071 0046 0022     		movs	r2, #0
 1072 0048 6254     		strb	r2, [r4, r1]
  85:../Libraries/ROSSerial/rosserial_msgs/RequestParam.h ****       *(outbuffer + offset++) = 0;
 1073              		.loc 4 85 0
 1074 004a D91C     		adds	r1, r3, #3
 1075              	.LVL122:
 1076 004c 2254     		strb	r2, [r4, r0]
  86:../Libraries/ROSSerial/rosserial_msgs/RequestParam.h ****       for( uint8_t i = 0; i < floats_length; i++){
 1077              		.loc 4 86 0
 1078 004e 0433     		adds	r3, r3, #4
 1079              	.LVL123:
 1080 0050 6254     		strb	r2, [r4, r1]
 1081              	.LVL124:
 1082              	.L65:
 1083              	.LBB129:
  87:../Libraries/ROSSerial/rosserial_msgs/RequestParam.h ****       union {
 1084              		.loc 4 87 0 discriminator 3
 1085 0052 297C     		ldrb	r1, [r5, #16]	@ zero_extendqisi2
 1086 0054 9142     		cmp	r1, r2
 1087 0056 10D9     		bls	.L64
 1088              	.LBB130:
  92:../Libraries/ROSSerial/rosserial_msgs/RequestParam.h ****       *(outbuffer + offset + 0) = (u_floatsi.base >> (8 * 0)) & 0xFF;
 1089              		.loc 4 92 0 discriminator 2
 1090 0058 A969     		ldr	r1, [r5, #24]
 1091 005a 51F82210 		ldr	r1, [r1, r2, lsl #2]
  93:../Libraries/ROSSerial/rosserial_msgs/RequestParam.h ****       *(outbuffer + offset + 1) = (u_floatsi.base >> (8 * 1)) & 0xFF;
 1092              		.loc 4 93 0 discriminator 2
ARM GAS  /var/folders/l3/4y5292px21b4835bsnjwqc7w009kq1/T//ccNqrcnV.s 			page 41


 1093 005e E154     		strb	r1, [r4, r3]
  94:../Libraries/ROSSerial/rosserial_msgs/RequestParam.h ****       *(outbuffer + offset + 2) = (u_floatsi.base >> (8 * 2)) & 0xFF;
 1094              		.loc 4 94 0 discriminator 2
 1095 0060 0E0A     		lsrs	r6, r1, #8
 1096 0062 581C     		adds	r0, r3, #1
 1097 0064 2654     		strb	r6, [r4, r0]
  95:../Libraries/ROSSerial/rosserial_msgs/RequestParam.h ****       *(outbuffer + offset + 3) = (u_floatsi.base >> (8 * 3)) & 0xFF;
 1098              		.loc 4 95 0 discriminator 2
 1099 0066 0E0C     		lsrs	r6, r1, #16
 1100 0068 981C     		adds	r0, r3, #2
 1101 006a 2654     		strb	r6, [r4, r0]
  96:../Libraries/ROSSerial/rosserial_msgs/RequestParam.h ****       offset += sizeof(this->floats[i]);
 1102              		.loc 4 96 0 discriminator 2
 1103 006c 090E     		lsrs	r1, r1, #24
 1104 006e D81C     		adds	r0, r3, #3
 1105 0070 2154     		strb	r1, [r4, r0]
  97:../Libraries/ROSSerial/rosserial_msgs/RequestParam.h ****       }
 1106              		.loc 4 97 0 discriminator 2
 1107 0072 0433     		adds	r3, r3, #4
 1108              	.LVL125:
 1109              	.LBE130:
  87:../Libraries/ROSSerial/rosserial_msgs/RequestParam.h ****       union {
 1110              		.loc 4 87 0 discriminator 2
 1111 0074 0132     		adds	r2, r2, #1
 1112              	.LVL126:
 1113 0076 D2B2     		uxtb	r2, r2
 1114              	.LVL127:
 1115 0078 EBE7     		b	.L65
 1116              	.L64:
 1117              	.LBE129:
  99:../Libraries/ROSSerial/rosserial_msgs/RequestParam.h ****       *(outbuffer + offset++) = 0;
 1118              		.loc 4 99 0
 1119 007a 5A1C     		adds	r2, r3, #1
 1120              	.LVL128:
 1121 007c 297F     		ldrb	r1, [r5, #28]	@ zero_extendqisi2
 1122 007e E154     		strb	r1, [r4, r3]
 100:../Libraries/ROSSerial/rosserial_msgs/RequestParam.h ****       *(outbuffer + offset++) = 0;
 1123              		.loc 4 100 0
 1124 0080 991C     		adds	r1, r3, #2
 1125              	.LVL129:
 1126 0082 4FF00008 		mov	r8, #0
 1127 0086 04F80280 		strb	r8, [r4, r2]
 101:../Libraries/ROSSerial/rosserial_msgs/RequestParam.h ****       *(outbuffer + offset++) = 0;
 1128              		.loc 4 101 0
 1129 008a DA1C     		adds	r2, r3, #3
 1130              	.LVL130:
 1131 008c 04F80180 		strb	r8, [r4, r1]
 102:../Libraries/ROSSerial/rosserial_msgs/RequestParam.h ****       for( uint8_t i = 0; i < strings_length; i++){
 1132              		.loc 4 102 0
 1133 0090 1E1D     		adds	r6, r3, #4
 1134              	.LVL131:
 1135 0092 04F80280 		strb	r8, [r4, r2]
 1136              	.LVL132:
 1137              	.L67:
 1138              	.LBB131:
 103:../Libraries/ROSSerial/rosserial_msgs/RequestParam.h ****       uint32_t length_stringsi = strlen(this->strings[i]);
 1139              		.loc 4 103 0 discriminator 3
ARM GAS  /var/folders/l3/4y5292px21b4835bsnjwqc7w009kq1/T//ccNqrcnV.s 			page 42


 1140 0096 2B7F     		ldrb	r3, [r5, #28]	@ zero_extendqisi2
 1141 0098 4345     		cmp	r3, r8
 1142 009a 14D9     		bls	.L61
 1143              	.LBB132:
 104:../Libraries/ROSSerial/rosserial_msgs/RequestParam.h ****       memcpy(outbuffer + offset, &length_stringsi, sizeof(uint32_t));
 1144              		.loc 4 104 0 discriminator 2
 1145 009c 6B6A     		ldr	r3, [r5, #36]
 1146 009e 53F82800 		ldr	r0, [r3, r8, lsl #2]
 1147 00a2 FFF7FEFF 		bl	strlen
 1148              	.LVL133:
 1149 00a6 0746     		mov	r7, r0
 1150              	.LVL134:
 105:../Libraries/ROSSerial/rosserial_msgs/RequestParam.h ****       offset += 4;
 1151              		.loc 4 105 0 discriminator 2
 1152 00a8 A051     		str	r0, [r4, r6]	@ unaligned
 106:../Libraries/ROSSerial/rosserial_msgs/RequestParam.h ****       memcpy(outbuffer + offset, this->strings[i], length_stringsi);
 1153              		.loc 4 106 0 discriminator 2
 1154 00aa 0436     		adds	r6, r6, #4
 1155              	.LVL135:
 107:../Libraries/ROSSerial/rosserial_msgs/RequestParam.h ****       offset += length_stringsi;
 1156              		.loc 4 107 0 discriminator 2
 1157 00ac 6B6A     		ldr	r3, [r5, #36]
 1158 00ae 0246     		mov	r2, r0
 1159 00b0 53F82810 		ldr	r1, [r3, r8, lsl #2]
 1160 00b4 A019     		adds	r0, r4, r6
 1161              	.LVL136:
 1162 00b6 FFF7FEFF 		bl	memcpy
 1163              	.LVL137:
 108:../Libraries/ROSSerial/rosserial_msgs/RequestParam.h ****       }
 1164              		.loc 4 108 0 discriminator 2
 1165 00ba 3E44     		add	r6, r6, r7
 1166              	.LVL138:
 1167              	.LBE132:
 103:../Libraries/ROSSerial/rosserial_msgs/RequestParam.h ****       uint32_t length_stringsi = strlen(this->strings[i]);
 1168              		.loc 4 103 0 discriminator 2
 1169 00bc 08F10108 		add	r8, r8, #1
 1170              	.LVL139:
 1171 00c0 5FFA88F8 		uxtb	r8, r8
 1172              	.LVL140:
 1173 00c4 E7E7     		b	.L67
 1174              	.L61:
 1175              	.LBE131:
 111:../Libraries/ROSSerial/rosserial_msgs/RequestParam.h **** 
 1176              		.loc 4 111 0
 1177 00c6 3046     		mov	r0, r6
 1178 00c8 BDE8F081 		pop	{r4, r5, r6, r7, r8, pc}
 1179              		.cfi_endproc
 1180              	.LFE399:
 1181              		.cantunwind
 1182              		.fnend
 1184              		.section	.text._ZN14rosserial_msgs20RequestParamResponse11deserializeEPh,"axG",%progbits,_ZN14ross
 1185              		.align	1
 1186              		.weak	_ZN14rosserial_msgs20RequestParamResponse11deserializeEPh
 1187              		.syntax unified
 1188              		.thumb
 1189              		.thumb_func
 1190              		.fpu fpv4-sp-d16
ARM GAS  /var/folders/l3/4y5292px21b4835bsnjwqc7w009kq1/T//ccNqrcnV.s 			page 43


 1192              	_ZN14rosserial_msgs20RequestParamResponse11deserializeEPh:
 1193              		.fnstart
 1194              	.LFB400:
 113:../Libraries/ROSSerial/rosserial_msgs/RequestParam.h ****     {
 1195              		.loc 4 113 0
 1196              		.cfi_startproc
 1197              		@ args = 0, pretend = 0, frame = 0
 1198              		@ frame_needed = 0, uses_anonymous_args = 0
 1199              	.LVL141:
 1200 0000 F8B5     		push	{r3, r4, r5, r6, r7, lr}
 1201              	.LCFI9:
 1202              		.cfi_def_cfa_offset 24
 1203              		.cfi_offset 3, -24
 1204              		.cfi_offset 4, -20
 1205              		.cfi_offset 5, -16
 1206              		.cfi_offset 6, -12
 1207              		.cfi_offset 7, -8
 1208              		.cfi_offset 14, -4
 1209 0002 0646     		mov	r6, r0
 1210 0004 0D46     		mov	r5, r1
 1211              	.LVL142:
 116:../Libraries/ROSSerial/rosserial_msgs/RequestParam.h ****       if(ints_lengthT > ints_length)
 1212              		.loc 4 116 0
 1213 0006 0C78     		ldrb	r4, [r1]	@ zero_extendqisi2
 1214              	.LVL143:
 117:../Libraries/ROSSerial/rosserial_msgs/RequestParam.h ****         this->ints = (int32_t*)realloc(this->ints, ints_lengthT * sizeof(int32_t));
 1215              		.loc 4 117 0
 1216 0008 0379     		ldrb	r3, [r0, #4]	@ zero_extendqisi2
 1217 000a A342     		cmp	r3, r4
 1218 000c 1AD3     		bcc	.L82
 1219              	.LVL144:
 1220              	.L70:
 120:../Libraries/ROSSerial/rosserial_msgs/RequestParam.h ****       for( uint8_t i = 0; i < ints_length; i++){
 1221              		.loc 4 120 0
 1222 000e 3471     		strb	r4, [r6, #4]
 1223              	.LVL145:
 1224              	.LBB140:
 121:../Libraries/ROSSerial/rosserial_msgs/RequestParam.h ****       union {
 1225              		.loc 4 121 0
 1226 0010 0022     		movs	r2, #0
 1227              	.LBE140:
 119:../Libraries/ROSSerial/rosserial_msgs/RequestParam.h ****       ints_length = ints_lengthT;
 1228              		.loc 4 119 0
 1229 0012 0424     		movs	r4, #4
 1230              	.LVL146:
 1231              	.L72:
 1232              	.LBB142:
 121:../Libraries/ROSSerial/rosserial_msgs/RequestParam.h ****       union {
 1233              		.loc 4 121 0 discriminator 3
 1234 0014 3379     		ldrb	r3, [r6, #4]	@ zero_extendqisi2
 1235 0016 9342     		cmp	r3, r2
 1236 0018 1AD9     		bls	.L71
 1237              	.LBB141:
 127:../Libraries/ROSSerial/rosserial_msgs/RequestParam.h ****       u_st_ints.base |= ((uint32_t) (*(inbuffer + offset + 1))) << (8 * 1);
 1238              		.loc 4 127 0 discriminator 2
 1239 001a 2B5D     		ldrb	r3, [r5, r4]	@ zero_extendqisi2
 128:../Libraries/ROSSerial/rosserial_msgs/RequestParam.h ****       u_st_ints.base |= ((uint32_t) (*(inbuffer + offset + 2))) << (8 * 2);
ARM GAS  /var/folders/l3/4y5292px21b4835bsnjwqc7w009kq1/T//ccNqrcnV.s 			page 44


 1240              		.loc 4 128 0 discriminator 2
 1241 001c 611C     		adds	r1, r4, #1
 1242 001e 695C     		ldrb	r1, [r5, r1]	@ zero_extendqisi2
 1243 0020 43EA0123 		orr	r3, r3, r1, lsl #8
 129:../Libraries/ROSSerial/rosserial_msgs/RequestParam.h ****       u_st_ints.base |= ((uint32_t) (*(inbuffer + offset + 3))) << (8 * 3);
 1244              		.loc 4 129 0 discriminator 2
 1245 0024 A11C     		adds	r1, r4, #2
 1246 0026 695C     		ldrb	r1, [r5, r1]	@ zero_extendqisi2
 1247 0028 43EA0143 		orr	r3, r3, r1, lsl #16
 130:../Libraries/ROSSerial/rosserial_msgs/RequestParam.h ****       this->st_ints = u_st_ints.real;
 1248              		.loc 4 130 0 discriminator 2
 1249 002c E11C     		adds	r1, r4, #3
 1250 002e 695C     		ldrb	r1, [r5, r1]	@ zero_extendqisi2
 1251 0030 43EA0163 		orr	r3, r3, r1, lsl #24
 131:../Libraries/ROSSerial/rosserial_msgs/RequestParam.h ****       offset += sizeof(this->st_ints);
 1252              		.loc 4 131 0 discriminator 2
 1253 0034 B360     		str	r3, [r6, #8]
 132:../Libraries/ROSSerial/rosserial_msgs/RequestParam.h ****         memcpy( &(this->ints[i]), &(this->st_ints), sizeof(int32_t));
 1254              		.loc 4 132 0 discriminator 2
 1255 0036 0434     		adds	r4, r4, #4
 1256              	.LVL147:
 133:../Libraries/ROSSerial/rosserial_msgs/RequestParam.h ****       }
 1257              		.loc 4 133 0 discriminator 2
 1258 0038 F168     		ldr	r1, [r6, #12]
 1259 003a 41F82230 		str	r3, [r1, r2, lsl #2]	@ unaligned
 1260              	.LBE141:
 121:../Libraries/ROSSerial/rosserial_msgs/RequestParam.h ****       union {
 1261              		.loc 4 121 0 discriminator 2
 1262 003e 0132     		adds	r2, r2, #1
 1263              	.LVL148:
 1264 0040 D2B2     		uxtb	r2, r2
 1265              	.LVL149:
 1266 0042 E7E7     		b	.L72
 1267              	.LVL150:
 1268              	.L82:
 1269              	.LBE142:
 118:../Libraries/ROSSerial/rosserial_msgs/RequestParam.h ****       offset += 3;
 1270              		.loc 4 118 0
 1271 0044 A100     		lsls	r1, r4, #2
 1272              	.LVL151:
 1273 0046 C068     		ldr	r0, [r0, #12]
 1274              	.LVL152:
 1275 0048 FFF7FEFF 		bl	realloc
 1276              	.LVL153:
 1277 004c F060     		str	r0, [r6, #12]
 1278 004e DEE7     		b	.L70
 1279              	.LVL154:
 1280              	.L71:
 135:../Libraries/ROSSerial/rosserial_msgs/RequestParam.h ****       if(floats_lengthT > floats_length)
 1281              		.loc 4 135 0
 1282 0050 2F5D     		ldrb	r7, [r5, r4]	@ zero_extendqisi2
 1283              	.LVL155:
 136:../Libraries/ROSSerial/rosserial_msgs/RequestParam.h ****         this->floats = (float*)realloc(this->floats, floats_lengthT * sizeof(float));
 1284              		.loc 4 136 0
 1285 0052 337C     		ldrb	r3, [r6, #16]	@ zero_extendqisi2
 1286 0054 BB42     		cmp	r3, r7
 1287 0056 1AD3     		bcc	.L83
ARM GAS  /var/folders/l3/4y5292px21b4835bsnjwqc7w009kq1/T//ccNqrcnV.s 			page 45


 1288              	.LVL156:
 1289              	.L73:
 138:../Libraries/ROSSerial/rosserial_msgs/RequestParam.h ****       floats_length = floats_lengthT;
 1290              		.loc 4 138 0
 1291 0058 0434     		adds	r4, r4, #4
 1292              	.LVL157:
 139:../Libraries/ROSSerial/rosserial_msgs/RequestParam.h ****       for( uint8_t i = 0; i < floats_length; i++){
 1293              		.loc 4 139 0
 1294 005a 3774     		strb	r7, [r6, #16]
 1295              	.LVL158:
 1296              	.LBB143:
 140:../Libraries/ROSSerial/rosserial_msgs/RequestParam.h ****       union {
 1297              		.loc 4 140 0
 1298 005c 0022     		movs	r2, #0
 1299              	.LVL159:
 1300              	.L75:
 140:../Libraries/ROSSerial/rosserial_msgs/RequestParam.h ****       union {
 1301              		.loc 4 140 0 is_stmt 0 discriminator 3
 1302 005e 337C     		ldrb	r3, [r6, #16]	@ zero_extendqisi2
 1303 0060 9342     		cmp	r3, r2
 1304 0062 1AD9     		bls	.L74
 1305              	.LBB144:
 146:../Libraries/ROSSerial/rosserial_msgs/RequestParam.h ****       u_st_floats.base |= ((uint32_t) (*(inbuffer + offset + 1))) << (8 * 1);
 1306              		.loc 4 146 0 is_stmt 1 discriminator 2
 1307 0064 2B5D     		ldrb	r3, [r5, r4]	@ zero_extendqisi2
 147:../Libraries/ROSSerial/rosserial_msgs/RequestParam.h ****       u_st_floats.base |= ((uint32_t) (*(inbuffer + offset + 2))) << (8 * 2);
 1308              		.loc 4 147 0 discriminator 2
 1309 0066 611C     		adds	r1, r4, #1
 1310 0068 695C     		ldrb	r1, [r5, r1]	@ zero_extendqisi2
 1311 006a 43EA0123 		orr	r3, r3, r1, lsl #8
 148:../Libraries/ROSSerial/rosserial_msgs/RequestParam.h ****       u_st_floats.base |= ((uint32_t) (*(inbuffer + offset + 3))) << (8 * 3);
 1312              		.loc 4 148 0 discriminator 2
 1313 006e A11C     		adds	r1, r4, #2
 1314 0070 695C     		ldrb	r1, [r5, r1]	@ zero_extendqisi2
 1315 0072 43EA0143 		orr	r3, r3, r1, lsl #16
 149:../Libraries/ROSSerial/rosserial_msgs/RequestParam.h ****       this->st_floats = u_st_floats.real;
 1316              		.loc 4 149 0 discriminator 2
 1317 0076 E11C     		adds	r1, r4, #3
 1318 0078 695C     		ldrb	r1, [r5, r1]	@ zero_extendqisi2
 1319 007a 43EA0163 		orr	r3, r3, r1, lsl #24
 150:../Libraries/ROSSerial/rosserial_msgs/RequestParam.h ****       offset += sizeof(this->st_floats);
 1320              		.loc 4 150 0 discriminator 2
 1321 007e 7361     		str	r3, [r6, #20]	@ float
 151:../Libraries/ROSSerial/rosserial_msgs/RequestParam.h ****         memcpy( &(this->floats[i]), &(this->st_floats), sizeof(float));
 1322              		.loc 4 151 0 discriminator 2
 1323 0080 0434     		adds	r4, r4, #4
 1324              	.LVL160:
 152:../Libraries/ROSSerial/rosserial_msgs/RequestParam.h ****       }
 1325              		.loc 4 152 0 discriminator 2
 1326 0082 B169     		ldr	r1, [r6, #24]
 1327 0084 41F82230 		str	r3, [r1, r2, lsl #2]	@ unaligned
 1328              	.LBE144:
 140:../Libraries/ROSSerial/rosserial_msgs/RequestParam.h ****       union {
 1329              		.loc 4 140 0 discriminator 2
 1330 0088 0132     		adds	r2, r2, #1
 1331              	.LVL161:
 1332 008a D2B2     		uxtb	r2, r2
ARM GAS  /var/folders/l3/4y5292px21b4835bsnjwqc7w009kq1/T//ccNqrcnV.s 			page 46


 1333              	.LVL162:
 1334 008c E7E7     		b	.L75
 1335              	.LVL163:
 1336              	.L83:
 1337              	.LBE143:
 137:../Libraries/ROSSerial/rosserial_msgs/RequestParam.h ****       offset += 3;
 1338              		.loc 4 137 0
 1339 008e B900     		lsls	r1, r7, #2
 1340 0090 B069     		ldr	r0, [r6, #24]
 1341 0092 FFF7FEFF 		bl	realloc
 1342              	.LVL164:
 1343 0096 B061     		str	r0, [r6, #24]
 1344 0098 DEE7     		b	.L73
 1345              	.LVL165:
 1346              	.L74:
 154:../Libraries/ROSSerial/rosserial_msgs/RequestParam.h ****       if(strings_lengthT > strings_length)
 1347              		.loc 4 154 0
 1348 009a 2F5D     		ldrb	r7, [r5, r4]	@ zero_extendqisi2
 1349              	.LVL166:
 155:../Libraries/ROSSerial/rosserial_msgs/RequestParam.h ****         this->strings = (char**)realloc(this->strings, strings_lengthT * sizeof(char*));
 1350              		.loc 4 155 0
 1351 009c 337F     		ldrb	r3, [r6, #28]	@ zero_extendqisi2
 1352 009e BB42     		cmp	r3, r7
 1353 00a0 04D3     		bcc	.L84
 1354              	.LVL167:
 1355              	.L76:
 157:../Libraries/ROSSerial/rosserial_msgs/RequestParam.h ****       strings_length = strings_lengthT;
 1356              		.loc 4 157 0
 1357 00a2 201D     		adds	r0, r4, #4
 1358              	.LVL168:
 158:../Libraries/ROSSerial/rosserial_msgs/RequestParam.h ****       for( uint8_t i = 0; i < strings_length; i++){
 1359              		.loc 4 158 0
 1360 00a4 3777     		strb	r7, [r6, #28]
 1361              	.LVL169:
 1362              	.LBB145:
 159:../Libraries/ROSSerial/rosserial_msgs/RequestParam.h ****       uint32_t length_st_strings;
 1363              		.loc 4 159 0
 1364 00a6 4FF0000C 		mov	ip, #0
 1365 00aa 12E0     		b	.L80
 1366              	.LVL170:
 1367              	.L84:
 1368              	.LBE145:
 156:../Libraries/ROSSerial/rosserial_msgs/RequestParam.h ****       offset += 3;
 1369              		.loc 4 156 0
 1370 00ac B900     		lsls	r1, r7, #2
 1371 00ae 706A     		ldr	r0, [r6, #36]
 1372 00b0 FFF7FEFF 		bl	realloc
 1373              	.LVL171:
 1374 00b4 7062     		str	r0, [r6, #36]
 1375 00b6 F4E7     		b	.L76
 1376              	.LVL172:
 1377              	.L78:
 1378              	.LBB149:
 1379              	.LBB146:
 166:../Libraries/ROSSerial/rosserial_msgs/RequestParam.h ****       this->st_strings = (char *)(inbuffer + offset-1);
 1380              		.loc 4 166 0 discriminator 2
 1381 00b8 431E     		subs	r3, r0, #1
ARM GAS  /var/folders/l3/4y5292px21b4835bsnjwqc7w009kq1/T//ccNqrcnV.s 			page 47


 1382              	.LVL173:
 1383 00ba 0022     		movs	r2, #0
 1384 00bc EA54     		strb	r2, [r5, r3]
 167:../Libraries/ROSSerial/rosserial_msgs/RequestParam.h ****       offset += length_st_strings;
 1385              		.loc 4 167 0 discriminator 2
 1386 00be 013C     		subs	r4, r4, #1
 1387 00c0 2C44     		add	r4, r4, r5
 1388 00c2 3462     		str	r4, [r6, #32]
 1389              	.LVL174:
 169:../Libraries/ROSSerial/rosserial_msgs/RequestParam.h ****       }
 1390              		.loc 4 169 0 discriminator 2
 1391 00c4 736A     		ldr	r3, [r6, #36]
 1392 00c6 43F82C40 		str	r4, [r3, ip, lsl #2]	@ unaligned
 1393              	.LVL175:
 1394              	.LBE146:
 159:../Libraries/ROSSerial/rosserial_msgs/RequestParam.h ****       uint32_t length_st_strings;
 1395              		.loc 4 159 0 discriminator 2
 1396 00ca 0CF1010C 		add	ip, ip, #1
 1397              	.LVL176:
 1398 00ce 5FFA8CFC 		uxtb	ip, ip
 1399              	.LVL177:
 1400              	.L80:
 159:../Libraries/ROSSerial/rosserial_msgs/RequestParam.h ****       uint32_t length_st_strings;
 1401              		.loc 4 159 0 is_stmt 0 discriminator 1
 1402 00d2 337F     		ldrb	r3, [r6, #28]	@ zero_extendqisi2
 1403 00d4 6345     		cmp	r3, ip
 1404 00d6 0AD9     		bls	.L69
 1405              	.LBB148:
 161:../Libraries/ROSSerial/rosserial_msgs/RequestParam.h ****       offset += 4;
 1406              		.loc 4 161 0 is_stmt 1
 1407 00d8 2F58     		ldr	r7, [r5, r0]	@ unaligned
 1408              	.LVL178:
 162:../Libraries/ROSSerial/rosserial_msgs/RequestParam.h ****       for(unsigned int k= offset; k< offset+length_st_strings; ++k){
 1409              		.loc 4 162 0
 1410 00da 041D     		adds	r4, r0, #4
 1411              	.LVL179:
 1412              	.LBB147:
 163:../Libraries/ROSSerial/rosserial_msgs/RequestParam.h ****           inbuffer[k-1]=inbuffer[k];
 1413              		.loc 4 163 0
 1414 00dc 2346     		mov	r3, r4
 1415              	.LVL180:
 1416              	.L79:
 163:../Libraries/ROSSerial/rosserial_msgs/RequestParam.h ****           inbuffer[k-1]=inbuffer[k];
 1417              		.loc 4 163 0 is_stmt 0 discriminator 3
 1418 00de 3819     		adds	r0, r7, r4
 1419 00e0 9842     		cmp	r0, r3
 1420 00e2 E9D9     		bls	.L78
 164:../Libraries/ROSSerial/rosserial_msgs/RequestParam.h ****       }
 1421              		.loc 4 164 0 is_stmt 1 discriminator 2
 1422 00e4 5A1E     		subs	r2, r3, #1
 1423 00e6 E95C     		ldrb	r1, [r5, r3]	@ zero_extendqisi2
 1424 00e8 A954     		strb	r1, [r5, r2]
 163:../Libraries/ROSSerial/rosserial_msgs/RequestParam.h ****           inbuffer[k-1]=inbuffer[k];
 1425              		.loc 4 163 0 discriminator 2
 1426 00ea 0133     		adds	r3, r3, #1
 1427              	.LVL181:
 1428 00ec F7E7     		b	.L79
ARM GAS  /var/folders/l3/4y5292px21b4835bsnjwqc7w009kq1/T//ccNqrcnV.s 			page 48


 1429              	.LVL182:
 1430              	.L69:
 1431              	.LBE147:
 1432              	.LBE148:
 1433              	.LBE149:
 172:../Libraries/ROSSerial/rosserial_msgs/RequestParam.h **** 
 1434              		.loc 4 172 0
 1435 00ee F8BD     		pop	{r3, r4, r5, r6, r7, pc}
 1436              		.cfi_endproc
 1437              	.LFE400:
 1438              		.cantunwind
 1439              		.fnend
 1441              		.section	.text.main,"ax",%progbits
 1442              		.align	1
 1443              		.global	main
 1444              		.syntax unified
 1445              		.thumb
 1446              		.thumb_func
 1447              		.fpu fpv4-sp-d16
 1449              	main:
 1450              		.fnstart
 1451              	.LFB478:
  80:Src/main.cpp  **** 	__set_PRIMASK(1); //disable global interrupts 
 1452              		.loc 5 80 0
 1453              		.cfi_startproc
 1454              		@ args = 0, pretend = 0, frame = 0
 1455              		@ frame_needed = 0, uses_anonymous_args = 0
 1456 0000 08B5     		push	{r3, lr}
 1457              		.save {r3, lr}
 1458              	.LCFI10:
 1459              		.cfi_def_cfa_offset 8
 1460              		.cfi_offset 3, -8
 1461              		.cfi_offset 14, -4
 1462              	.LVL183:
 1463              	.LBB150:
 1464              	.LBB151:
 1465              		.file 7 "../Libraries/CMSIS/CM4/CoreSupport/cmsis_gcc.h"
   1:../Libraries/CMSIS/CM4/CoreSupport/cmsis_gcc.h **** /**************************************************************************//**
   2:../Libraries/CMSIS/CM4/CoreSupport/cmsis_gcc.h ****  * @file     cmsis_gcc.h
   3:../Libraries/CMSIS/CM4/CoreSupport/cmsis_gcc.h ****  * @brief    CMSIS Cortex-M Core Function/Instruction Header File
   4:../Libraries/CMSIS/CM4/CoreSupport/cmsis_gcc.h ****  * @version  V4.30
   5:../Libraries/CMSIS/CM4/CoreSupport/cmsis_gcc.h ****  * @date     20. October 2015
   6:../Libraries/CMSIS/CM4/CoreSupport/cmsis_gcc.h ****  ******************************************************************************/
   7:../Libraries/CMSIS/CM4/CoreSupport/cmsis_gcc.h **** /* Copyright (c) 2009 - 2015 ARM LIMITED
   8:../Libraries/CMSIS/CM4/CoreSupport/cmsis_gcc.h **** 
   9:../Libraries/CMSIS/CM4/CoreSupport/cmsis_gcc.h ****    All rights reserved.
  10:../Libraries/CMSIS/CM4/CoreSupport/cmsis_gcc.h ****    Redistribution and use in source and binary forms, with or without
  11:../Libraries/CMSIS/CM4/CoreSupport/cmsis_gcc.h ****    modification, are permitted provided that the following conditions are met:
  12:../Libraries/CMSIS/CM4/CoreSupport/cmsis_gcc.h ****    - Redistributions of source code must retain the above copyright
  13:../Libraries/CMSIS/CM4/CoreSupport/cmsis_gcc.h ****      notice, this list of conditions and the following disclaimer.
  14:../Libraries/CMSIS/CM4/CoreSupport/cmsis_gcc.h ****    - Redistributions in binary form must reproduce the above copyright
  15:../Libraries/CMSIS/CM4/CoreSupport/cmsis_gcc.h ****      notice, this list of conditions and the following disclaimer in the
  16:../Libraries/CMSIS/CM4/CoreSupport/cmsis_gcc.h ****      documentation and/or other materials provided with the distribution.
  17:../Libraries/CMSIS/CM4/CoreSupport/cmsis_gcc.h ****    - Neither the name of ARM nor the names of its contributors may be used
  18:../Libraries/CMSIS/CM4/CoreSupport/cmsis_gcc.h ****      to endorse or promote products derived from this software without
  19:../Libraries/CMSIS/CM4/CoreSupport/cmsis_gcc.h ****      specific prior written permission.
  20:../Libraries/CMSIS/CM4/CoreSupport/cmsis_gcc.h ****    *
ARM GAS  /var/folders/l3/4y5292px21b4835bsnjwqc7w009kq1/T//ccNqrcnV.s 			page 49


  21:../Libraries/CMSIS/CM4/CoreSupport/cmsis_gcc.h ****    THIS SOFTWARE IS PROVIDED BY THE COPYRIGHT HOLDERS AND CONTRIBUTORS "AS IS"
  22:../Libraries/CMSIS/CM4/CoreSupport/cmsis_gcc.h ****    AND ANY EXPRESS OR IMPLIED WARRANTIES, INCLUDING, BUT NOT LIMITED TO, THE
  23:../Libraries/CMSIS/CM4/CoreSupport/cmsis_gcc.h ****    IMPLIED WARRANTIES OF MERCHANTABILITY AND FITNESS FOR A PARTICULAR PURPOSE
  24:../Libraries/CMSIS/CM4/CoreSupport/cmsis_gcc.h ****    ARE DISCLAIMED. IN NO EVENT SHALL COPYRIGHT HOLDERS AND CONTRIBUTORS BE
  25:../Libraries/CMSIS/CM4/CoreSupport/cmsis_gcc.h ****    LIABLE FOR ANY DIRECT, INDIRECT, INCIDENTAL, SPECIAL, EXEMPLARY, OR
  26:../Libraries/CMSIS/CM4/CoreSupport/cmsis_gcc.h ****    CONSEQUENTIAL DAMAGES (INCLUDING, BUT NOT LIMITED TO, PROCUREMENT OF
  27:../Libraries/CMSIS/CM4/CoreSupport/cmsis_gcc.h ****    SUBSTITUTE GOODS OR SERVICES; LOSS OF USE, DATA, OR PROFITS; OR BUSINESS
  28:../Libraries/CMSIS/CM4/CoreSupport/cmsis_gcc.h ****    INTERRUPTION) HOWEVER CAUSED AND ON ANY THEORY OF LIABILITY, WHETHER IN
  29:../Libraries/CMSIS/CM4/CoreSupport/cmsis_gcc.h ****    CONTRACT, STRICT LIABILITY, OR TORT (INCLUDING NEGLIGENCE OR OTHERWISE)
  30:../Libraries/CMSIS/CM4/CoreSupport/cmsis_gcc.h ****    ARISING IN ANY WAY OUT OF THE USE OF THIS SOFTWARE, EVEN IF ADVISED OF THE
  31:../Libraries/CMSIS/CM4/CoreSupport/cmsis_gcc.h ****    POSSIBILITY OF SUCH DAMAGE.
  32:../Libraries/CMSIS/CM4/CoreSupport/cmsis_gcc.h ****    ---------------------------------------------------------------------------*/
  33:../Libraries/CMSIS/CM4/CoreSupport/cmsis_gcc.h **** 
  34:../Libraries/CMSIS/CM4/CoreSupport/cmsis_gcc.h **** 
  35:../Libraries/CMSIS/CM4/CoreSupport/cmsis_gcc.h **** #ifndef __CMSIS_GCC_H
  36:../Libraries/CMSIS/CM4/CoreSupport/cmsis_gcc.h **** #define __CMSIS_GCC_H
  37:../Libraries/CMSIS/CM4/CoreSupport/cmsis_gcc.h **** 
  38:../Libraries/CMSIS/CM4/CoreSupport/cmsis_gcc.h **** /* ignore some GCC warnings */
  39:../Libraries/CMSIS/CM4/CoreSupport/cmsis_gcc.h **** #if defined ( __GNUC__ )
  40:../Libraries/CMSIS/CM4/CoreSupport/cmsis_gcc.h **** #pragma GCC diagnostic push
  41:../Libraries/CMSIS/CM4/CoreSupport/cmsis_gcc.h **** #pragma GCC diagnostic ignored "-Wsign-conversion"
  42:../Libraries/CMSIS/CM4/CoreSupport/cmsis_gcc.h **** #pragma GCC diagnostic ignored "-Wconversion"
  43:../Libraries/CMSIS/CM4/CoreSupport/cmsis_gcc.h **** #pragma GCC diagnostic ignored "-Wunused-parameter"
  44:../Libraries/CMSIS/CM4/CoreSupport/cmsis_gcc.h **** #endif
  45:../Libraries/CMSIS/CM4/CoreSupport/cmsis_gcc.h **** 
  46:../Libraries/CMSIS/CM4/CoreSupport/cmsis_gcc.h **** 
  47:../Libraries/CMSIS/CM4/CoreSupport/cmsis_gcc.h **** /* ###########################  Core Function Access  ########################### */
  48:../Libraries/CMSIS/CM4/CoreSupport/cmsis_gcc.h **** /** \ingroup  CMSIS_Core_FunctionInterface
  49:../Libraries/CMSIS/CM4/CoreSupport/cmsis_gcc.h ****     \defgroup CMSIS_Core_RegAccFunctions CMSIS Core Register Access Functions
  50:../Libraries/CMSIS/CM4/CoreSupport/cmsis_gcc.h ****   @{
  51:../Libraries/CMSIS/CM4/CoreSupport/cmsis_gcc.h ****  */
  52:../Libraries/CMSIS/CM4/CoreSupport/cmsis_gcc.h **** 
  53:../Libraries/CMSIS/CM4/CoreSupport/cmsis_gcc.h **** /**
  54:../Libraries/CMSIS/CM4/CoreSupport/cmsis_gcc.h ****   \brief   Enable IRQ Interrupts
  55:../Libraries/CMSIS/CM4/CoreSupport/cmsis_gcc.h ****   \details Enables IRQ interrupts by clearing the I-bit in the CPSR.
  56:../Libraries/CMSIS/CM4/CoreSupport/cmsis_gcc.h ****            Can only be executed in Privileged modes.
  57:../Libraries/CMSIS/CM4/CoreSupport/cmsis_gcc.h ****  */
  58:../Libraries/CMSIS/CM4/CoreSupport/cmsis_gcc.h **** __attribute__( ( always_inline ) ) __STATIC_INLINE void __enable_irq(void)
  59:../Libraries/CMSIS/CM4/CoreSupport/cmsis_gcc.h **** {
  60:../Libraries/CMSIS/CM4/CoreSupport/cmsis_gcc.h ****   __ASM volatile ("cpsie i" : : : "memory");
  61:../Libraries/CMSIS/CM4/CoreSupport/cmsis_gcc.h **** }
  62:../Libraries/CMSIS/CM4/CoreSupport/cmsis_gcc.h **** 
  63:../Libraries/CMSIS/CM4/CoreSupport/cmsis_gcc.h **** 
  64:../Libraries/CMSIS/CM4/CoreSupport/cmsis_gcc.h **** /**
  65:../Libraries/CMSIS/CM4/CoreSupport/cmsis_gcc.h ****   \brief   Disable IRQ Interrupts
  66:../Libraries/CMSIS/CM4/CoreSupport/cmsis_gcc.h ****   \details Disables IRQ interrupts by setting the I-bit in the CPSR.
  67:../Libraries/CMSIS/CM4/CoreSupport/cmsis_gcc.h ****   Can only be executed in Privileged modes.
  68:../Libraries/CMSIS/CM4/CoreSupport/cmsis_gcc.h ****  */
  69:../Libraries/CMSIS/CM4/CoreSupport/cmsis_gcc.h **** __attribute__( ( always_inline ) ) __STATIC_INLINE void __disable_irq(void)
  70:../Libraries/CMSIS/CM4/CoreSupport/cmsis_gcc.h **** {
  71:../Libraries/CMSIS/CM4/CoreSupport/cmsis_gcc.h ****   __ASM volatile ("cpsid i" : : : "memory");
  72:../Libraries/CMSIS/CM4/CoreSupport/cmsis_gcc.h **** }
  73:../Libraries/CMSIS/CM4/CoreSupport/cmsis_gcc.h **** 
  74:../Libraries/CMSIS/CM4/CoreSupport/cmsis_gcc.h **** 
  75:../Libraries/CMSIS/CM4/CoreSupport/cmsis_gcc.h **** /**
  76:../Libraries/CMSIS/CM4/CoreSupport/cmsis_gcc.h ****   \brief   Get Control Register
  77:../Libraries/CMSIS/CM4/CoreSupport/cmsis_gcc.h ****   \details Returns the content of the Control Register.
ARM GAS  /var/folders/l3/4y5292px21b4835bsnjwqc7w009kq1/T//ccNqrcnV.s 			page 50


  78:../Libraries/CMSIS/CM4/CoreSupport/cmsis_gcc.h ****   \return               Control Register value
  79:../Libraries/CMSIS/CM4/CoreSupport/cmsis_gcc.h ****  */
  80:../Libraries/CMSIS/CM4/CoreSupport/cmsis_gcc.h **** __attribute__( ( always_inline ) ) __STATIC_INLINE uint32_t __get_CONTROL(void)
  81:../Libraries/CMSIS/CM4/CoreSupport/cmsis_gcc.h **** {
  82:../Libraries/CMSIS/CM4/CoreSupport/cmsis_gcc.h ****   uint32_t result;
  83:../Libraries/CMSIS/CM4/CoreSupport/cmsis_gcc.h **** 
  84:../Libraries/CMSIS/CM4/CoreSupport/cmsis_gcc.h ****   __ASM volatile ("MRS %0, control" : "=r" (result) );
  85:../Libraries/CMSIS/CM4/CoreSupport/cmsis_gcc.h ****   return(result);
  86:../Libraries/CMSIS/CM4/CoreSupport/cmsis_gcc.h **** }
  87:../Libraries/CMSIS/CM4/CoreSupport/cmsis_gcc.h **** 
  88:../Libraries/CMSIS/CM4/CoreSupport/cmsis_gcc.h **** 
  89:../Libraries/CMSIS/CM4/CoreSupport/cmsis_gcc.h **** /**
  90:../Libraries/CMSIS/CM4/CoreSupport/cmsis_gcc.h ****   \brief   Set Control Register
  91:../Libraries/CMSIS/CM4/CoreSupport/cmsis_gcc.h ****   \details Writes the given value to the Control Register.
  92:../Libraries/CMSIS/CM4/CoreSupport/cmsis_gcc.h ****   \param [in]    control  Control Register value to set
  93:../Libraries/CMSIS/CM4/CoreSupport/cmsis_gcc.h ****  */
  94:../Libraries/CMSIS/CM4/CoreSupport/cmsis_gcc.h **** __attribute__( ( always_inline ) ) __STATIC_INLINE void __set_CONTROL(uint32_t control)
  95:../Libraries/CMSIS/CM4/CoreSupport/cmsis_gcc.h **** {
  96:../Libraries/CMSIS/CM4/CoreSupport/cmsis_gcc.h ****   __ASM volatile ("MSR control, %0" : : "r" (control) : "memory");
  97:../Libraries/CMSIS/CM4/CoreSupport/cmsis_gcc.h **** }
  98:../Libraries/CMSIS/CM4/CoreSupport/cmsis_gcc.h **** 
  99:../Libraries/CMSIS/CM4/CoreSupport/cmsis_gcc.h **** 
 100:../Libraries/CMSIS/CM4/CoreSupport/cmsis_gcc.h **** /**
 101:../Libraries/CMSIS/CM4/CoreSupport/cmsis_gcc.h ****   \brief   Get IPSR Register
 102:../Libraries/CMSIS/CM4/CoreSupport/cmsis_gcc.h ****   \details Returns the content of the IPSR Register.
 103:../Libraries/CMSIS/CM4/CoreSupport/cmsis_gcc.h ****   \return               IPSR Register value
 104:../Libraries/CMSIS/CM4/CoreSupport/cmsis_gcc.h ****  */
 105:../Libraries/CMSIS/CM4/CoreSupport/cmsis_gcc.h **** __attribute__( ( always_inline ) ) __STATIC_INLINE uint32_t __get_IPSR(void)
 106:../Libraries/CMSIS/CM4/CoreSupport/cmsis_gcc.h **** {
 107:../Libraries/CMSIS/CM4/CoreSupport/cmsis_gcc.h ****   uint32_t result;
 108:../Libraries/CMSIS/CM4/CoreSupport/cmsis_gcc.h **** 
 109:../Libraries/CMSIS/CM4/CoreSupport/cmsis_gcc.h ****   __ASM volatile ("MRS %0, ipsr" : "=r" (result) );
 110:../Libraries/CMSIS/CM4/CoreSupport/cmsis_gcc.h ****   return(result);
 111:../Libraries/CMSIS/CM4/CoreSupport/cmsis_gcc.h **** }
 112:../Libraries/CMSIS/CM4/CoreSupport/cmsis_gcc.h **** 
 113:../Libraries/CMSIS/CM4/CoreSupport/cmsis_gcc.h **** 
 114:../Libraries/CMSIS/CM4/CoreSupport/cmsis_gcc.h **** /**
 115:../Libraries/CMSIS/CM4/CoreSupport/cmsis_gcc.h ****   \brief   Get APSR Register
 116:../Libraries/CMSIS/CM4/CoreSupport/cmsis_gcc.h ****   \details Returns the content of the APSR Register.
 117:../Libraries/CMSIS/CM4/CoreSupport/cmsis_gcc.h ****   \return               APSR Register value
 118:../Libraries/CMSIS/CM4/CoreSupport/cmsis_gcc.h ****  */
 119:../Libraries/CMSIS/CM4/CoreSupport/cmsis_gcc.h **** __attribute__( ( always_inline ) ) __STATIC_INLINE uint32_t __get_APSR(void)
 120:../Libraries/CMSIS/CM4/CoreSupport/cmsis_gcc.h **** {
 121:../Libraries/CMSIS/CM4/CoreSupport/cmsis_gcc.h ****   uint32_t result;
 122:../Libraries/CMSIS/CM4/CoreSupport/cmsis_gcc.h **** 
 123:../Libraries/CMSIS/CM4/CoreSupport/cmsis_gcc.h ****   __ASM volatile ("MRS %0, apsr" : "=r" (result) );
 124:../Libraries/CMSIS/CM4/CoreSupport/cmsis_gcc.h ****   return(result);
 125:../Libraries/CMSIS/CM4/CoreSupport/cmsis_gcc.h **** }
 126:../Libraries/CMSIS/CM4/CoreSupport/cmsis_gcc.h **** 
 127:../Libraries/CMSIS/CM4/CoreSupport/cmsis_gcc.h **** 
 128:../Libraries/CMSIS/CM4/CoreSupport/cmsis_gcc.h **** /**
 129:../Libraries/CMSIS/CM4/CoreSupport/cmsis_gcc.h ****   \brief   Get xPSR Register
 130:../Libraries/CMSIS/CM4/CoreSupport/cmsis_gcc.h ****   \details Returns the content of the xPSR Register.
 131:../Libraries/CMSIS/CM4/CoreSupport/cmsis_gcc.h **** 
 132:../Libraries/CMSIS/CM4/CoreSupport/cmsis_gcc.h ****     \return               xPSR Register value
 133:../Libraries/CMSIS/CM4/CoreSupport/cmsis_gcc.h ****  */
 134:../Libraries/CMSIS/CM4/CoreSupport/cmsis_gcc.h **** __attribute__( ( always_inline ) ) __STATIC_INLINE uint32_t __get_xPSR(void)
ARM GAS  /var/folders/l3/4y5292px21b4835bsnjwqc7w009kq1/T//ccNqrcnV.s 			page 51


 135:../Libraries/CMSIS/CM4/CoreSupport/cmsis_gcc.h **** {
 136:../Libraries/CMSIS/CM4/CoreSupport/cmsis_gcc.h ****   uint32_t result;
 137:../Libraries/CMSIS/CM4/CoreSupport/cmsis_gcc.h **** 
 138:../Libraries/CMSIS/CM4/CoreSupport/cmsis_gcc.h ****   __ASM volatile ("MRS %0, xpsr" : "=r" (result) );
 139:../Libraries/CMSIS/CM4/CoreSupport/cmsis_gcc.h ****   return(result);
 140:../Libraries/CMSIS/CM4/CoreSupport/cmsis_gcc.h **** }
 141:../Libraries/CMSIS/CM4/CoreSupport/cmsis_gcc.h **** 
 142:../Libraries/CMSIS/CM4/CoreSupport/cmsis_gcc.h **** 
 143:../Libraries/CMSIS/CM4/CoreSupport/cmsis_gcc.h **** /**
 144:../Libraries/CMSIS/CM4/CoreSupport/cmsis_gcc.h ****   \brief   Get Process Stack Pointer
 145:../Libraries/CMSIS/CM4/CoreSupport/cmsis_gcc.h ****   \details Returns the current value of the Process Stack Pointer (PSP).
 146:../Libraries/CMSIS/CM4/CoreSupport/cmsis_gcc.h ****   \return               PSP Register value
 147:../Libraries/CMSIS/CM4/CoreSupport/cmsis_gcc.h ****  */
 148:../Libraries/CMSIS/CM4/CoreSupport/cmsis_gcc.h **** __attribute__( ( always_inline ) ) __STATIC_INLINE uint32_t __get_PSP(void)
 149:../Libraries/CMSIS/CM4/CoreSupport/cmsis_gcc.h **** {
 150:../Libraries/CMSIS/CM4/CoreSupport/cmsis_gcc.h ****   register uint32_t result;
 151:../Libraries/CMSIS/CM4/CoreSupport/cmsis_gcc.h **** 
 152:../Libraries/CMSIS/CM4/CoreSupport/cmsis_gcc.h ****   __ASM volatile ("MRS %0, psp\n"  : "=r" (result) );
 153:../Libraries/CMSIS/CM4/CoreSupport/cmsis_gcc.h ****   return(result);
 154:../Libraries/CMSIS/CM4/CoreSupport/cmsis_gcc.h **** }
 155:../Libraries/CMSIS/CM4/CoreSupport/cmsis_gcc.h **** 
 156:../Libraries/CMSIS/CM4/CoreSupport/cmsis_gcc.h **** 
 157:../Libraries/CMSIS/CM4/CoreSupport/cmsis_gcc.h **** /**
 158:../Libraries/CMSIS/CM4/CoreSupport/cmsis_gcc.h ****   \brief   Set Process Stack Pointer
 159:../Libraries/CMSIS/CM4/CoreSupport/cmsis_gcc.h ****   \details Assigns the given value to the Process Stack Pointer (PSP).
 160:../Libraries/CMSIS/CM4/CoreSupport/cmsis_gcc.h ****   \param [in]    topOfProcStack  Process Stack Pointer value to set
 161:../Libraries/CMSIS/CM4/CoreSupport/cmsis_gcc.h ****  */
 162:../Libraries/CMSIS/CM4/CoreSupport/cmsis_gcc.h **** __attribute__( ( always_inline ) ) __STATIC_INLINE void __set_PSP(uint32_t topOfProcStack)
 163:../Libraries/CMSIS/CM4/CoreSupport/cmsis_gcc.h **** {
 164:../Libraries/CMSIS/CM4/CoreSupport/cmsis_gcc.h ****   __ASM volatile ("MSR psp, %0\n" : : "r" (topOfProcStack) : "sp");
 165:../Libraries/CMSIS/CM4/CoreSupport/cmsis_gcc.h **** }
 166:../Libraries/CMSIS/CM4/CoreSupport/cmsis_gcc.h **** 
 167:../Libraries/CMSIS/CM4/CoreSupport/cmsis_gcc.h **** 
 168:../Libraries/CMSIS/CM4/CoreSupport/cmsis_gcc.h **** /**
 169:../Libraries/CMSIS/CM4/CoreSupport/cmsis_gcc.h ****   \brief   Get Main Stack Pointer
 170:../Libraries/CMSIS/CM4/CoreSupport/cmsis_gcc.h ****   \details Returns the current value of the Main Stack Pointer (MSP).
 171:../Libraries/CMSIS/CM4/CoreSupport/cmsis_gcc.h ****   \return               MSP Register value
 172:../Libraries/CMSIS/CM4/CoreSupport/cmsis_gcc.h ****  */
 173:../Libraries/CMSIS/CM4/CoreSupport/cmsis_gcc.h **** __attribute__( ( always_inline ) ) __STATIC_INLINE uint32_t __get_MSP(void)
 174:../Libraries/CMSIS/CM4/CoreSupport/cmsis_gcc.h **** {
 175:../Libraries/CMSIS/CM4/CoreSupport/cmsis_gcc.h ****   register uint32_t result;
 176:../Libraries/CMSIS/CM4/CoreSupport/cmsis_gcc.h **** 
 177:../Libraries/CMSIS/CM4/CoreSupport/cmsis_gcc.h ****   __ASM volatile ("MRS %0, msp\n" : "=r" (result) );
 178:../Libraries/CMSIS/CM4/CoreSupport/cmsis_gcc.h ****   return(result);
 179:../Libraries/CMSIS/CM4/CoreSupport/cmsis_gcc.h **** }
 180:../Libraries/CMSIS/CM4/CoreSupport/cmsis_gcc.h **** 
 181:../Libraries/CMSIS/CM4/CoreSupport/cmsis_gcc.h **** 
 182:../Libraries/CMSIS/CM4/CoreSupport/cmsis_gcc.h **** /**
 183:../Libraries/CMSIS/CM4/CoreSupport/cmsis_gcc.h ****   \brief   Set Main Stack Pointer
 184:../Libraries/CMSIS/CM4/CoreSupport/cmsis_gcc.h ****   \details Assigns the given value to the Main Stack Pointer (MSP).
 185:../Libraries/CMSIS/CM4/CoreSupport/cmsis_gcc.h **** 
 186:../Libraries/CMSIS/CM4/CoreSupport/cmsis_gcc.h ****     \param [in]    topOfMainStack  Main Stack Pointer value to set
 187:../Libraries/CMSIS/CM4/CoreSupport/cmsis_gcc.h ****  */
 188:../Libraries/CMSIS/CM4/CoreSupport/cmsis_gcc.h **** __attribute__( ( always_inline ) ) __STATIC_INLINE void __set_MSP(uint32_t topOfMainStack)
 189:../Libraries/CMSIS/CM4/CoreSupport/cmsis_gcc.h **** {
 190:../Libraries/CMSIS/CM4/CoreSupport/cmsis_gcc.h ****   __ASM volatile ("MSR msp, %0\n" : : "r" (topOfMainStack) : "sp");
 191:../Libraries/CMSIS/CM4/CoreSupport/cmsis_gcc.h **** }
ARM GAS  /var/folders/l3/4y5292px21b4835bsnjwqc7w009kq1/T//ccNqrcnV.s 			page 52


 192:../Libraries/CMSIS/CM4/CoreSupport/cmsis_gcc.h **** 
 193:../Libraries/CMSIS/CM4/CoreSupport/cmsis_gcc.h **** 
 194:../Libraries/CMSIS/CM4/CoreSupport/cmsis_gcc.h **** /**
 195:../Libraries/CMSIS/CM4/CoreSupport/cmsis_gcc.h ****   \brief   Get Priority Mask
 196:../Libraries/CMSIS/CM4/CoreSupport/cmsis_gcc.h ****   \details Returns the current state of the priority mask bit from the Priority Mask Register.
 197:../Libraries/CMSIS/CM4/CoreSupport/cmsis_gcc.h ****   \return               Priority Mask value
 198:../Libraries/CMSIS/CM4/CoreSupport/cmsis_gcc.h ****  */
 199:../Libraries/CMSIS/CM4/CoreSupport/cmsis_gcc.h **** __attribute__( ( always_inline ) ) __STATIC_INLINE uint32_t __get_PRIMASK(void)
 200:../Libraries/CMSIS/CM4/CoreSupport/cmsis_gcc.h **** {
 201:../Libraries/CMSIS/CM4/CoreSupport/cmsis_gcc.h ****   uint32_t result;
 202:../Libraries/CMSIS/CM4/CoreSupport/cmsis_gcc.h **** 
 203:../Libraries/CMSIS/CM4/CoreSupport/cmsis_gcc.h ****   __ASM volatile ("MRS %0, primask" : "=r" (result) );
 204:../Libraries/CMSIS/CM4/CoreSupport/cmsis_gcc.h ****   return(result);
 205:../Libraries/CMSIS/CM4/CoreSupport/cmsis_gcc.h **** }
 206:../Libraries/CMSIS/CM4/CoreSupport/cmsis_gcc.h **** 
 207:../Libraries/CMSIS/CM4/CoreSupport/cmsis_gcc.h **** 
 208:../Libraries/CMSIS/CM4/CoreSupport/cmsis_gcc.h **** /**
 209:../Libraries/CMSIS/CM4/CoreSupport/cmsis_gcc.h ****   \brief   Set Priority Mask
 210:../Libraries/CMSIS/CM4/CoreSupport/cmsis_gcc.h ****   \details Assigns the given value to the Priority Mask Register.
 211:../Libraries/CMSIS/CM4/CoreSupport/cmsis_gcc.h ****   \param [in]    priMask  Priority Mask
 212:../Libraries/CMSIS/CM4/CoreSupport/cmsis_gcc.h ****  */
 213:../Libraries/CMSIS/CM4/CoreSupport/cmsis_gcc.h **** __attribute__( ( always_inline ) ) __STATIC_INLINE void __set_PRIMASK(uint32_t priMask)
 214:../Libraries/CMSIS/CM4/CoreSupport/cmsis_gcc.h **** {
 215:../Libraries/CMSIS/CM4/CoreSupport/cmsis_gcc.h ****   __ASM volatile ("MSR primask, %0" : : "r" (priMask) : "memory");
 1466              		.loc 7 215 0
 1467 0002 0123     		movs	r3, #1
 1468              		.syntax unified
 1469              	@ 215 "../Libraries/CMSIS/CM4/CoreSupport/cmsis_gcc.h" 1
 1470 0004 83F31088 		MSR primask, r3
 1471              	@ 0 "" 2
 1472              	.LVL184:
 1473              		.thumb
 1474              		.syntax unified
 1475              	.LBE151:
 1476              	.LBE150:
  84:Src/main.cpp  ****     //printf ("after bspinit \n");
 1477              		.loc 5 84 0
 1478 0008 FFF7FEFF 		bl	bsp_Init
 1479              	.LVL185:
 1480              	.LBB152:
 1481              	.LBB153:
 181:../Libraries/ROSSerial/ros/node_handle.h ****     bytes_ = 0;
 1482              		.loc 6 181 0
 1483 000c 0D48     		ldr	r0, .L94
 1484 000e 0023     		movs	r3, #0
 1485 0010 C0F8A434 		str	r3, [r0, #1188]
 182:../Libraries/ROSSerial/ros/node_handle.h ****     index_ = 0;
 1486              		.loc 6 182 0
 1487 0014 C0F8A834 		str	r3, [r0, #1192]
 183:../Libraries/ROSSerial/ros/node_handle.h ****     topic_ = 0;
 1488              		.loc 6 183 0
 1489 0018 C0F8B034 		str	r3, [r0, #1200]
 184:../Libraries/ROSSerial/ros/node_handle.h ****     //printf("Node init\n");
 1490              		.loc 6 184 0
 1491 001c C0F8AC34 		str	r3, [r0, #1196]
 1492              	.LVL186:
 1493              	.LBE153:
ARM GAS  /var/folders/l3/4y5292px21b4835bsnjwqc7w009kq1/T//ccNqrcnV.s 			page 53


 1494              	.LBE152:
  91:Src/main.cpp  ****     {
 1495              		.loc 5 91 0
 1496 0020 FFF7FEFF 		bl	_Z15rosSpinTaskInitPN3ros11NodeHandle_I13STM32HardwareLi5ELi5ELi512ELi512EEE
 1497              	.LVL187:
 1498 0024 00B1     		cbz	r0, .L86
 1499              	.L87:
 1500 0026 FEE7     		b	.L87
 1501              	.L86:
  97:Src/main.cpp  ****     {
 1502              		.loc 5 97 0
 1503 0028 0648     		ldr	r0, .L94
 1504 002a FFF7FEFF 		bl	_Z15publishInitTaskPN3ros11NodeHandle_I13STM32HardwareLi5ELi5ELi512ELi512EEE
 1505              	.LVL188:
 1506 002e 00B1     		cbz	r0, .L88
 1507              	.L89:
 1508 0030 FEE7     		b	.L89
 1509              	.L88:
 103:Src/main.cpp  ****     {
 1510              		.loc 5 103 0
 1511 0032 0448     		ldr	r0, .L94
 1512 0034 FFF7FEFF 		bl	_Z20rosSubscribeInitTaskPN3ros11NodeHandle_I13STM32HardwareLi5ELi5ELi512ELi512EEE
 1513              	.LVL189:
 1514 0038 00B1     		cbz	r0, .L90
 1515              	.L91:
 1516 003a FEE7     		b	.L91
 1517              	.L90:
 124:Src/main.cpp  **** 
 1518              		.loc 5 124 0
 1519 003c FFF7FEFF 		bl	vTaskStartScheduler
 1520              	.LVL190:
 1521              	.L92:
 1522 0040 FEE7     		b	.L92
 1523              	.L95:
 1524 0042 00BF     		.align	2
 1525              	.L94:
 1526 0044 00000000 		.word	.LANCHOR1
 1527              		.cfi_endproc
 1528              	.LFE478:
 1529              		.fnend
 1531              		.section	.text._Z10App_PrintfPKcz,"ax",%progbits
 1532              		.align	1
 1533              		.global	_Z10App_PrintfPKcz
 1534              		.syntax unified
 1535              		.thumb
 1536              		.thumb_func
 1537              		.fpu fpv4-sp-d16
 1539              	_Z10App_PrintfPKcz:
 1540              		.fnstart
 1541              	.LFB484:
 282:Src/main.cpp  ****     char buf_str[200+1];//max number contain character is 200
 1542              		.loc 5 282 0
 1543              		.cfi_startproc
 1544              		@ args = 4, pretend = 16, frame = 208
 1545              		@ frame_needed = 0, uses_anonymous_args = 1
 1546              	.LVL191:
 1547 0000 0FB4     		push	{r0, r1, r2, r3}
ARM GAS  /var/folders/l3/4y5292px21b4835bsnjwqc7w009kq1/T//ccNqrcnV.s 			page 54


 1548              		.save {r0, r1, r2, r3}
 1549              	.LCFI11:
 1550              		.cfi_def_cfa_offset 16
 1551              		.cfi_offset 0, -16
 1552              		.cfi_offset 1, -12
 1553              		.cfi_offset 2, -8
 1554              		.cfi_offset 3, -4
 1555 0002 00B5     		push	{lr}
 1556              		.save {lr}
 1557              	.LCFI12:
 1558              		.cfi_def_cfa_offset 20
 1559              		.cfi_offset 14, -20
 1560              		.pad #212
 1561 0004 B5B0     		sub	sp, sp, #212
 1562              	.LCFI13:
 1563              		.cfi_def_cfa_offset 232
 1564 0006 36AB     		add	r3, sp, #216
 1565 0008 53F8042B 		ldr	r2, [r3], #4
 286:Src/main.cpp  ****     
 1566              		.loc 5 286 0
 1567 000c 0093     		str	r3, [sp]
 288:Src/main.cpp  ****                     (size_t)sizeof(buf_str),
 1568              		.loc 5 288 0
 1569 000e C921     		movs	r1, #201
 1570 0010 01A8     		add	r0, sp, #4
 1571 0012 FFF7FEFF 		bl	vsnprintf
 1572              	.LVL192:
 294:Src/main.cpp  ****     printf("%s", buf_str);
 1573              		.loc 5 294 0
 1574 0016 0023     		movs	r3, #0
 1575 0018 4FF0FF32 		mov	r2, #-1
 1576 001c 1946     		mov	r1, r3
 1577 001e 1846     		mov	r0, r3
 1578 0020 FFF7FEFF 		bl	xQueueGenericReceive
 1579              	.LVL193:
 295:Src/main.cpp  ****     xSemaphoreGive(xHandleMutexPrint);//the mutex must be given back
 1580              		.loc 5 295 0
 1581 0024 01A9     		add	r1, sp, #4
 1582 0026 0748     		ldr	r0, .L98
 1583 0028 FFF7FEFF 		bl	printf
 1584              	.LVL194:
 296:Src/main.cpp  **** }
 1585              		.loc 5 296 0
 1586 002c 0023     		movs	r3, #0
 1587 002e 1A46     		mov	r2, r3
 1588 0030 1946     		mov	r1, r3
 1589 0032 1846     		mov	r0, r3
 1590 0034 FFF7FEFF 		bl	xQueueGenericSend
 1591              	.LVL195:
 297:Src/main.cpp  **** 
 1592              		.loc 5 297 0
 1593 0038 35B0     		add	sp, sp, #212
 1594              	.LCFI14:
 1595              		.cfi_def_cfa_offset 20
 1596              		@ sp needed
 1597 003a 5DF804EB 		ldr	lr, [sp], #4
 1598              	.LCFI15:
ARM GAS  /var/folders/l3/4y5292px21b4835bsnjwqc7w009kq1/T//ccNqrcnV.s 			page 55


 1599              		.cfi_restore 14
 1600              		.cfi_def_cfa_offset 16
 1601 003e 04B0     		add	sp, sp, #16
 1602              	.LCFI16:
 1603              		.cfi_restore 3
 1604              		.cfi_restore 2
 1605              		.cfi_restore 1
 1606              		.cfi_restore 0
 1607              		.cfi_def_cfa_offset 0
 1608 0040 7047     		bx	lr
 1609              	.L99:
 1610 0042 00BF     		.align	2
 1611              	.L98:
 1612 0044 00000000 		.word	.LC7
 1613              		.cfi_endproc
 1614              	.LFE484:
 1615              		.fnend
 1617              		.section	.text.vApplicationMallocFailedHook,"ax",%progbits
 1618              		.align	1
 1619              		.global	vApplicationMallocFailedHook
 1620              		.syntax unified
 1621              		.thumb
 1622              		.thumb_func
 1623              		.fpu fpv4-sp-d16
 1625              	vApplicationMallocFailedHook:
 1626              		.fnstart
 1627              	.LFB487:
 352:Src/main.cpp  ****     printf("mallock failed hook\n");
 1628              		.loc 5 352 0
 1629              		.cfi_startproc
 1630              		@ args = 0, pretend = 0, frame = 0
 1631              		@ frame_needed = 0, uses_anonymous_args = 0
 1632 0000 08B5     		push	{r3, lr}
 1633              		.save {r3, lr}
 1634              	.LCFI17:
 1635              		.cfi_def_cfa_offset 8
 1636              		.cfi_offset 3, -8
 1637              		.cfi_offset 14, -4
 353:Src/main.cpp  ****     while(1);
 1638              		.loc 5 353 0
 1639 0002 0248     		ldr	r0, .L103
 1640 0004 FFF7FEFF 		bl	puts
 1641              	.LVL196:
 1642              	.L101:
 1643 0008 FEE7     		b	.L101
 1644              	.L104:
 1645 000a 00BF     		.align	2
 1646              	.L103:
 1647 000c 00000000 		.word	.LC8
 1648              		.cfi_endproc
 1649              	.LFE487:
 1650              		.fnend
 1652              		.section	.text.vApplicationStackOverflowHook,"ax",%progbits
 1653              		.align	1
 1654              		.global	vApplicationStackOverflowHook
 1655              		.syntax unified
 1656              		.thumb
ARM GAS  /var/folders/l3/4y5292px21b4835bsnjwqc7w009kq1/T//ccNqrcnV.s 			page 56


 1657              		.thumb_func
 1658              		.fpu fpv4-sp-d16
 1660              	vApplicationStackOverflowHook:
 1661              		.fnstart
 1662              	.LFB488:
 369:Src/main.cpp  ****     //App_Printf("task: %s stack is overFlow\r\n",pcTaskName);
 1663              		.loc 5 369 0
 1664              		.cfi_startproc
 1665              		@ args = 0, pretend = 0, frame = 0
 1666              		@ frame_needed = 0, uses_anonymous_args = 0
 1667              	.LVL197:
 1668 0000 08B5     		push	{r3, lr}
 1669              		.save {r3, lr}
 1670              	.LCFI18:
 1671              		.cfi_def_cfa_offset 8
 1672              		.cfi_offset 3, -8
 1673              		.cfi_offset 14, -4
 371:Src/main.cpp  **** }
 1674              		.loc 5 371 0
 1675 0002 0248     		ldr	r0, .L107
 1676              	.LVL198:
 1677 0004 FFF7FEFF 		bl	printf
 1678              	.LVL199:
 1679              		.loc 5 372 0
 1680 0008 08BD     		pop	{r3, pc}
 1681              	.L108:
 1682 000a 00BF     		.align	2
 1683              	.L107:
 1684 000c 00000000 		.word	.LC9
 1685              		.cfi_endproc
 1686              	.LFE488:
 1687              		.fnend
 1689              		.section	.text._ZN3ros11NodeHandle_I13STM32HardwareLi5ELi5ELi512ELi512EE8publish1EiPKNS_3MsgE,"axG
 1690              		.align	1
 1691              		.weak	_ZN3ros11NodeHandle_I13STM32HardwareLi5ELi5ELi512ELi512EE8publish1EiPKNS_3MsgE
 1692              		.syntax unified
 1693              		.thumb
 1694              		.thumb_func
 1695              		.fpu fpv4-sp-d16
 1697              	_ZN3ros11NodeHandle_I13STM32HardwareLi5ELi5ELi512ELi512EE8publish1EiPKNS_3MsgE:
 1698              		.fnstart
 1699              	.LFB506:
 399:../Libraries/ROSSerial/ros/node_handle.h **** 
 400:../Libraries/ROSSerial/ros/node_handle.h ****   /********************************************************************
 401:../Libraries/ROSSerial/ros/node_handle.h ****    * Time functions
 402:../Libraries/ROSSerial/ros/node_handle.h ****    */
 403:../Libraries/ROSSerial/ros/node_handle.h **** 
 404:../Libraries/ROSSerial/ros/node_handle.h ****   void requestSyncTime()
 405:../Libraries/ROSSerial/ros/node_handle.h ****   {
 406:../Libraries/ROSSerial/ros/node_handle.h ****     std_msgs::Time t;
 407:../Libraries/ROSSerial/ros/node_handle.h ****     publish1(TopicInfo::ID_TIME, &t);
 408:../Libraries/ROSSerial/ros/node_handle.h ****     rt_time = hardware_.time();
 409:../Libraries/ROSSerial/ros/node_handle.h ****   }
 410:../Libraries/ROSSerial/ros/node_handle.h **** 
 411:../Libraries/ROSSerial/ros/node_handle.h ****   void syncTime(uint8_t * data)
 412:../Libraries/ROSSerial/ros/node_handle.h ****   {
 413:../Libraries/ROSSerial/ros/node_handle.h ****     std_msgs::Time t;
ARM GAS  /var/folders/l3/4y5292px21b4835bsnjwqc7w009kq1/T//ccNqrcnV.s 			page 57


 414:../Libraries/ROSSerial/ros/node_handle.h ****     uint32_t offset = hardware_.time() - rt_time;
 415:../Libraries/ROSSerial/ros/node_handle.h **** 
 416:../Libraries/ROSSerial/ros/node_handle.h ****     t.deserialize(data);
 417:../Libraries/ROSSerial/ros/node_handle.h ****     t.data.sec += offset / 1000;
 418:../Libraries/ROSSerial/ros/node_handle.h ****     t.data.nsec += (offset % 1000) * 1000000UL;
 419:../Libraries/ROSSerial/ros/node_handle.h **** 
 420:../Libraries/ROSSerial/ros/node_handle.h ****     this->setNow(t.data);
 421:../Libraries/ROSSerial/ros/node_handle.h ****     last_sync_receive_time = hardware_.time();
 422:../Libraries/ROSSerial/ros/node_handle.h ****   }
 423:../Libraries/ROSSerial/ros/node_handle.h **** 
 424:../Libraries/ROSSerial/ros/node_handle.h ****   Time now()
 425:../Libraries/ROSSerial/ros/node_handle.h ****   {
 426:../Libraries/ROSSerial/ros/node_handle.h ****     uint32_t ms = hardware_.time();
 427:../Libraries/ROSSerial/ros/node_handle.h ****     Time current_time;
 428:../Libraries/ROSSerial/ros/node_handle.h ****     current_time.sec = ms / 1000 + sec_offset;
 429:../Libraries/ROSSerial/ros/node_handle.h ****     current_time.nsec = (ms % 1000) * 1000000UL + nsec_offset;
 430:../Libraries/ROSSerial/ros/node_handle.h ****     normalizeSecNSec(current_time.sec, current_time.nsec);
 431:../Libraries/ROSSerial/ros/node_handle.h ****     return current_time;
 432:../Libraries/ROSSerial/ros/node_handle.h ****   }
 433:../Libraries/ROSSerial/ros/node_handle.h **** 
 434:../Libraries/ROSSerial/ros/node_handle.h ****   void setNow(Time & new_now)
 435:../Libraries/ROSSerial/ros/node_handle.h ****   {
 436:../Libraries/ROSSerial/ros/node_handle.h ****     uint32_t ms = hardware_.time();
 437:../Libraries/ROSSerial/ros/node_handle.h ****     sec_offset = new_now.sec - ms / 1000 - 1;
 438:../Libraries/ROSSerial/ros/node_handle.h ****     nsec_offset = new_now.nsec - (ms % 1000) * 1000000UL + 1000000000UL;
 439:../Libraries/ROSSerial/ros/node_handle.h ****     normalizeSecNSec(sec_offset, nsec_offset);
 440:../Libraries/ROSSerial/ros/node_handle.h ****   }
 441:../Libraries/ROSSerial/ros/node_handle.h **** 
 442:../Libraries/ROSSerial/ros/node_handle.h ****   /********************************************************************
 443:../Libraries/ROSSerial/ros/node_handle.h ****    * Topic Management
 444:../Libraries/ROSSerial/ros/node_handle.h ****    */
 445:../Libraries/ROSSerial/ros/node_handle.h **** 
 446:../Libraries/ROSSerial/ros/node_handle.h ****   /* Register a new publisher */
 447:../Libraries/ROSSerial/ros/node_handle.h ****   bool advertise(Publisher & p)
 448:../Libraries/ROSSerial/ros/node_handle.h ****   {
 449:../Libraries/ROSSerial/ros/node_handle.h ****     for (int i = 0; i < MAX_PUBLISHERS; i++)
 450:../Libraries/ROSSerial/ros/node_handle.h ****     {
 451:../Libraries/ROSSerial/ros/node_handle.h ****       if (publishers[i] == 0) // empty slot
 452:../Libraries/ROSSerial/ros/node_handle.h ****       {
 453:../Libraries/ROSSerial/ros/node_handle.h ****         publishers[i] = &p;
 454:../Libraries/ROSSerial/ros/node_handle.h ****         p.id_ = i + 100 + MAX_SUBSCRIBERS;
 455:../Libraries/ROSSerial/ros/node_handle.h ****         p.nh_ = this;
 456:../Libraries/ROSSerial/ros/node_handle.h ****         return true;
 457:../Libraries/ROSSerial/ros/node_handle.h ****       }
 458:../Libraries/ROSSerial/ros/node_handle.h ****     }
 459:../Libraries/ROSSerial/ros/node_handle.h ****     return false;
 460:../Libraries/ROSSerial/ros/node_handle.h ****   }
 461:../Libraries/ROSSerial/ros/node_handle.h **** 
 462:../Libraries/ROSSerial/ros/node_handle.h ****   /* Register a new subscriber */
 463:../Libraries/ROSSerial/ros/node_handle.h ****   template<typename SubscriberT>
 464:../Libraries/ROSSerial/ros/node_handle.h ****   bool subscribe(SubscriberT& s)
 465:../Libraries/ROSSerial/ros/node_handle.h ****   {
 466:../Libraries/ROSSerial/ros/node_handle.h ****     for (int i = 0; i < MAX_SUBSCRIBERS; i++)
 467:../Libraries/ROSSerial/ros/node_handle.h ****     {
 468:../Libraries/ROSSerial/ros/node_handle.h ****       if (subscribers[i] == 0) // empty slot
 469:../Libraries/ROSSerial/ros/node_handle.h ****       {
 470:../Libraries/ROSSerial/ros/node_handle.h ****         subscribers[i] = static_cast<Subscriber_*>(&s);
ARM GAS  /var/folders/l3/4y5292px21b4835bsnjwqc7w009kq1/T//ccNqrcnV.s 			page 58


 471:../Libraries/ROSSerial/ros/node_handle.h ****         s.id_ = i + 100;
 472:../Libraries/ROSSerial/ros/node_handle.h ****         return true;
 473:../Libraries/ROSSerial/ros/node_handle.h ****       }
 474:../Libraries/ROSSerial/ros/node_handle.h ****     }
 475:../Libraries/ROSSerial/ros/node_handle.h ****     return false;
 476:../Libraries/ROSSerial/ros/node_handle.h ****   }
 477:../Libraries/ROSSerial/ros/node_handle.h **** 
 478:../Libraries/ROSSerial/ros/node_handle.h ****   bool addSubscriber(SubscriberType sub)
 479:../Libraries/ROSSerial/ros/node_handle.h ****   {
 480:../Libraries/ROSSerial/ros/node_handle.h ****     for (int i = 0; i < MAX_SUBSCRIBERS; i++)
 481:../Libraries/ROSSerial/ros/node_handle.h ****     {
 482:../Libraries/ROSSerial/ros/node_handle.h ****       if (subscribers2[i].topic_id == 0) {// empty slot}
 483:../Libraries/ROSSerial/ros/node_handle.h ****         void * ptr = &subscribers2[i];
 484:../Libraries/ROSSerial/ros/node_handle.h ****         memcpy(ptr, &sub, sizeof(sub));
 485:../Libraries/ROSSerial/ros/node_handle.h ****         subscribers2[i].topic_id = i + 100;
 486:../Libraries/ROSSerial/ros/node_handle.h ****         
 487:../Libraries/ROSSerial/ros/node_handle.h ****         return true;
 488:../Libraries/ROSSerial/ros/node_handle.h ****       }
 489:../Libraries/ROSSerial/ros/node_handle.h ****     }
 490:../Libraries/ROSSerial/ros/node_handle.h ****     return false;
 491:../Libraries/ROSSerial/ros/node_handle.h ****   }
 492:../Libraries/ROSSerial/ros/node_handle.h **** 
 493:../Libraries/ROSSerial/ros/node_handle.h ****   /* Register a new Service Server */
 494:../Libraries/ROSSerial/ros/node_handle.h ****   template<typename MReq, typename MRes, typename ObjT>
 495:../Libraries/ROSSerial/ros/node_handle.h ****   bool advertiseService(ServiceServer<MReq, MRes, ObjT>& srv)
 496:../Libraries/ROSSerial/ros/node_handle.h ****   {
 497:../Libraries/ROSSerial/ros/node_handle.h ****     bool v = advertise(srv.pub);
 498:../Libraries/ROSSerial/ros/node_handle.h ****     for (int i = 0; i < MAX_SUBSCRIBERS; i++)
 499:../Libraries/ROSSerial/ros/node_handle.h ****     {
 500:../Libraries/ROSSerial/ros/node_handle.h ****       if (subscribers[i] == 0) // empty slot
 501:../Libraries/ROSSerial/ros/node_handle.h ****       {
 502:../Libraries/ROSSerial/ros/node_handle.h ****         subscribers[i] = static_cast<Subscriber_*>(&srv);
 503:../Libraries/ROSSerial/ros/node_handle.h ****         srv.id_ = i + 100;
 504:../Libraries/ROSSerial/ros/node_handle.h ****         return v;
 505:../Libraries/ROSSerial/ros/node_handle.h ****       }
 506:../Libraries/ROSSerial/ros/node_handle.h ****     }
 507:../Libraries/ROSSerial/ros/node_handle.h ****     return false;
 508:../Libraries/ROSSerial/ros/node_handle.h ****   }
 509:../Libraries/ROSSerial/ros/node_handle.h **** 
 510:../Libraries/ROSSerial/ros/node_handle.h ****   /* Register a new Service Client */
 511:../Libraries/ROSSerial/ros/node_handle.h ****   template<typename MReq, typename MRes>
 512:../Libraries/ROSSerial/ros/node_handle.h ****   bool serviceClient(ServiceClient<MReq, MRes>& srv)
 513:../Libraries/ROSSerial/ros/node_handle.h ****   {
 514:../Libraries/ROSSerial/ros/node_handle.h ****     bool v = advertise(srv.pub);
 515:../Libraries/ROSSerial/ros/node_handle.h ****     for (int i = 0; i < MAX_SUBSCRIBERS; i++)
 516:../Libraries/ROSSerial/ros/node_handle.h ****     {
 517:../Libraries/ROSSerial/ros/node_handle.h ****       if (subscribers[i] == 0) // empty slot
 518:../Libraries/ROSSerial/ros/node_handle.h ****       {
 519:../Libraries/ROSSerial/ros/node_handle.h ****         subscribers[i] = static_cast<Subscriber_*>(&srv);
 520:../Libraries/ROSSerial/ros/node_handle.h ****         srv.id_ = i + 100;
 521:../Libraries/ROSSerial/ros/node_handle.h ****         return v;
 522:../Libraries/ROSSerial/ros/node_handle.h ****       }
 523:../Libraries/ROSSerial/ros/node_handle.h ****     }
 524:../Libraries/ROSSerial/ros/node_handle.h ****     return false;
 525:../Libraries/ROSSerial/ros/node_handle.h ****   }
 526:../Libraries/ROSSerial/ros/node_handle.h **** 
 527:../Libraries/ROSSerial/ros/node_handle.h ****   void negotiateTopics()
ARM GAS  /var/folders/l3/4y5292px21b4835bsnjwqc7w009kq1/T//ccNqrcnV.s 			page 59


 528:../Libraries/ROSSerial/ros/node_handle.h ****   {
 529:../Libraries/ROSSerial/ros/node_handle.h ****     rosserial_msgs::TopicInfo ti;
 530:../Libraries/ROSSerial/ros/node_handle.h ****     int i;
 531:../Libraries/ROSSerial/ros/node_handle.h ****     for (i = 0; i < MAX_PUBLISHERS; i++)
 532:../Libraries/ROSSerial/ros/node_handle.h ****     {
 533:../Libraries/ROSSerial/ros/node_handle.h ****       if (publishers[i] != 0) // non-empty slot
 534:../Libraries/ROSSerial/ros/node_handle.h ****       {
 535:../Libraries/ROSSerial/ros/node_handle.h ****         ti.topic_id = publishers[i]->id_;
 536:../Libraries/ROSSerial/ros/node_handle.h ****         ti.topic_name = (char *) publishers[i]->topic_;
 537:../Libraries/ROSSerial/ros/node_handle.h ****         ti.message_type = (char *) publishers[i]->msg_->getType();
 538:../Libraries/ROSSerial/ros/node_handle.h ****         ti.md5sum = (char *) publishers[i]->msg_->getMD5();
 539:../Libraries/ROSSerial/ros/node_handle.h ****         ti.buffer_size = OUTPUT_SIZE;
 540:../Libraries/ROSSerial/ros/node_handle.h ****         publish1(publishers[i]->getEndpointType(), &ti);
 541:../Libraries/ROSSerial/ros/node_handle.h ****       }
 542:../Libraries/ROSSerial/ros/node_handle.h ****     }
 543:../Libraries/ROSSerial/ros/node_handle.h ****     for (i = 0; i < MAX_SUBSCRIBERS; i++)
 544:../Libraries/ROSSerial/ros/node_handle.h ****     {
 545:../Libraries/ROSSerial/ros/node_handle.h ****       if (subscribers2[i].topic_id != 0) // non-empty slot
 546:../Libraries/ROSSerial/ros/node_handle.h ****       {
 547:../Libraries/ROSSerial/ros/node_handle.h ****         // ti.topic_id = subscribers[i]->id_;
 548:../Libraries/ROSSerial/ros/node_handle.h ****         // ti.topic_name = "led"; //(char *) subscribers[i]->topic_;
 549:../Libraries/ROSSerial/ros/node_handle.h ****         // ti.message_type = "std_msgs/UInt16" ; //(char *) subscribers[i]->getMsgType();
 550:../Libraries/ROSSerial/ros/node_handle.h ****         // ti.md5sum = "1df79edf208b629fe6b81923a544552d"; // (char *) subscribers[i]->getMsgMD5();
 551:../Libraries/ROSSerial/ros/node_handle.h ****         // ti.buffer_size = INPUT_SIZE;
 552:../Libraries/ROSSerial/ros/node_handle.h ****         // publish1(rosserial_msgs::TopicInfo::ID_SUBSCRIBER, &ti);
 553:../Libraries/ROSSerial/ros/node_handle.h **** 
 554:../Libraries/ROSSerial/ros/node_handle.h ****         ti.topic_id = subscribers2[i].topic_id;
 555:../Libraries/ROSSerial/ros/node_handle.h ****         ti.topic_name = subscribers2[i].topic_name;
 556:../Libraries/ROSSerial/ros/node_handle.h ****         ti.message_type = subscribers2[i].message_type;
 557:../Libraries/ROSSerial/ros/node_handle.h ****         ti.md5sum = subscribers2[i].md5sum;
 558:../Libraries/ROSSerial/ros/node_handle.h ****         ti.buffer_size = INPUT_SIZE;
 559:../Libraries/ROSSerial/ros/node_handle.h ****         publish1(rosserial_msgs::TopicInfo::ID_SUBSCRIBER, &ti);
 560:../Libraries/ROSSerial/ros/node_handle.h ****       }
 561:../Libraries/ROSSerial/ros/node_handle.h ****     }
 562:../Libraries/ROSSerial/ros/node_handle.h ****     configured_ = true;
 563:../Libraries/ROSSerial/ros/node_handle.h ****   }
 564:../Libraries/ROSSerial/ros/node_handle.h **** 
 565:../Libraries/ROSSerial/ros/node_handle.h ****   virtual int publish(int id, const Msg * msg)
 566:../Libraries/ROSSerial/ros/node_handle.h ****   {
 567:../Libraries/ROSSerial/ros/node_handle.h ****     return publish1(id, msg);
 568:../Libraries/ROSSerial/ros/node_handle.h ****   }
 569:../Libraries/ROSSerial/ros/node_handle.h **** 
 570:../Libraries/ROSSerial/ros/node_handle.h ****   int publish1(int id, const Msg * msg)
 1700              		.loc 6 570 0
 1701              		.cfi_startproc
 1702              		@ args = 0, pretend = 0, frame = 16
 1703              		@ frame_needed = 0, uses_anonymous_args = 0
 1704              	.LVL200:
 1705 0000 30B5     		push	{r4, r5, lr}
 1706              		.save {r4, r5, lr}
 1707              	.LCFI19:
 1708              		.cfi_def_cfa_offset 12
 1709              		.cfi_offset 4, -12
 1710              		.cfi_offset 5, -8
 1711              		.cfi_offset 14, -4
 1712              		.pad #20
 1713 0002 85B0     		sub	sp, sp, #20
ARM GAS  /var/folders/l3/4y5292px21b4835bsnjwqc7w009kq1/T//ccNqrcnV.s 			page 60


 1714              	.LCFI20:
 1715              		.cfi_def_cfa_offset 32
 571:../Libraries/ROSSerial/ros/node_handle.h ****   {
 572:../Libraries/ROSSerial/ros/node_handle.h ****     //printf("in nh.publsh\n");
 573:../Libraries/ROSSerial/ros/node_handle.h ****     if (id >= 100 && !configured_)
 1716              		.loc 6 573 0
 1717 0004 6329     		cmp	r1, #99
 1718 0006 03DD     		ble	.L110
 1719              		.loc 6 573 0 is_stmt 0 discriminator 1
 1720 0008 90F8B834 		ldrb	r3, [r0, #1208]	@ zero_extendqisi2
 1721 000c 002B     		cmp	r3, #0
 1722 000e 50D0     		beq	.L115
 1723              	.L110:
 1724 0010 0D46     		mov	r5, r1
 1725 0012 0446     		mov	r4, r0
 574:../Libraries/ROSSerial/ros/node_handle.h ****       return 0;
 575:../Libraries/ROSSerial/ros/node_handle.h ****     //printf("in nh.publsh2\n");
 576:../Libraries/ROSSerial/ros/node_handle.h ****     /* serialize message */
 577:../Libraries/ROSSerial/ros/node_handle.h ****     int l = msg->serialize(message_out + 7);
 1726              		.loc 6 577 0 is_stmt 1
 1727 0014 1368     		ldr	r3, [r2]
 1728 0016 1B68     		ldr	r3, [r3]
 1729 0018 00F21F21 		addw	r1, r0, #543
 1730              	.LVL201:
 1731 001c 1046     		mov	r0, r2
 1732              	.LVL202:
 1733 001e 9847     		blx	r3
 1734              	.LVL203:
 578:../Libraries/ROSSerial/ros/node_handle.h **** 
 579:../Libraries/ROSSerial/ros/node_handle.h ****     /* setup the header */
 580:../Libraries/ROSSerial/ros/node_handle.h ****     message_out[0] = 0xff;
 1735              		.loc 6 580 0
 1736 0020 FF23     		movs	r3, #255
 1737 0022 84F81832 		strb	r3, [r4, #536]
 581:../Libraries/ROSSerial/ros/node_handle.h ****     message_out[1] = PROTOCOL_VER;
 1738              		.loc 6 581 0
 1739 0026 FE23     		movs	r3, #254
 1740 0028 84F81932 		strb	r3, [r4, #537]
 582:../Libraries/ROSSerial/ros/node_handle.h ****     message_out[2] = (uint8_t)((uint16_t)l & 255);
 1741              		.loc 6 582 0
 1742 002c C3B2     		uxtb	r3, r0
 1743 002e 84F81A32 		strb	r3, [r4, #538]
 583:../Libraries/ROSSerial/ros/node_handle.h ****     message_out[3] = (uint8_t)((uint16_t)l >> 8);
 1744              		.loc 6 583 0
 1745 0032 C0F30722 		ubfx	r2, r0, #8, #8
 1746 0036 84F81B22 		strb	r2, [r4, #539]
 584:../Libraries/ROSSerial/ros/node_handle.h ****     message_out[4] = 255 - ((message_out[2] + message_out[3]) % 256);
 1747              		.loc 6 584 0
 1748 003a 1344     		add	r3, r3, r2
 1749 003c DBB2     		uxtb	r3, r3
 1750 003e DB43     		mvns	r3, r3
 1751 0040 84F81C32 		strb	r3, [r4, #540]
 585:../Libraries/ROSSerial/ros/node_handle.h ****     message_out[5] = (uint8_t)((int16_t)id & 255);
 1752              		.loc 6 585 0
 1753 0044 84F81D52 		strb	r5, [r4, #541]
 586:../Libraries/ROSSerial/ros/node_handle.h ****     message_out[6] = (uint8_t)((int16_t)id >> 8);
 1754              		.loc 6 586 0
ARM GAS  /var/folders/l3/4y5292px21b4835bsnjwqc7w009kq1/T//ccNqrcnV.s 			page 61


 1755 0048 45F30721 		sbfx	r1, r5, #8, #8
 1756 004c 84F81E12 		strb	r1, [r4, #542]
 1757              	.LVL204:
 1758              	.LBB163:
 587:../Libraries/ROSSerial/ros/node_handle.h **** 
 588:../Libraries/ROSSerial/ros/node_handle.h ****     /* calculate checksum */
 589:../Libraries/ROSSerial/ros/node_handle.h ****     int chk = 0;
 590:../Libraries/ROSSerial/ros/node_handle.h ****     for (int i = 5; i < l + 7; i++)
 1759              		.loc 6 590 0
 1760 0050 0523     		movs	r3, #5
 1761              	.LBE163:
 589:../Libraries/ROSSerial/ros/node_handle.h ****     for (int i = 5; i < l + 7; i++)
 1762              		.loc 6 589 0
 1763 0052 0022     		movs	r2, #0
 1764              	.LVL205:
 1765              	.L113:
 1766              	.LBB164:
 1767              		.loc 6 590 0 discriminator 3
 1768 0054 C11D     		adds	r1, r0, #7
 1769 0056 9942     		cmp	r1, r3
 1770 0058 05DD     		ble	.L112
 591:../Libraries/ROSSerial/ros/node_handle.h ****       chk += message_out[i];
 1771              		.loc 6 591 0 discriminator 2
 1772 005a E118     		adds	r1, r4, r3
 1773 005c 91F81812 		ldrb	r1, [r1, #536]	@ zero_extendqisi2
 1774 0060 0A44     		add	r2, r2, r1
 1775              	.LVL206:
 590:../Libraries/ROSSerial/ros/node_handle.h ****       chk += message_out[i];
 1776              		.loc 6 590 0 discriminator 2
 1777 0062 0133     		adds	r3, r3, #1
 1778              	.LVL207:
 1779 0064 F6E7     		b	.L113
 1780              	.L112:
 1781              	.LVL208:
 1782              	.LBE164:
 592:../Libraries/ROSSerial/ros/node_handle.h ****     l += 7;
 593:../Libraries/ROSSerial/ros/node_handle.h ****     message_out[l++] = 255 - (chk % 256);
 1783              		.loc 6 593 0
 1784 0066 5342     		rsbs	r3, r2, #0
 1785              	.LVL209:
 1786 0068 D2B2     		uxtb	r2, r2
 1787              	.LVL210:
 1788 006a DBB2     		uxtb	r3, r3
 1789 006c 58BF     		it	pl
 1790 006e 5A42     		rsbpl	r2, r3, #0
 1791 0070 00F10805 		add	r5, r0, #8
 1792              	.LVL211:
 1793 0074 D243     		mvns	r2, r2
 1794 0076 2144     		add	r1, r1, r4
 1795 0078 81F81822 		strb	r2, [r1, #536]
 594:../Libraries/ROSSerial/ros/node_handle.h ****     //printf("Sending message - %s\n",message_out);
 595:../Libraries/ROSSerial/ros/node_handle.h ****     if (l <= OUTPUT_SIZE)
 1796              		.loc 6 595 0
 1797 007c B5F5007F 		cmp	r5, #512
 1798 0080 08DC     		bgt	.L114
 1799              	.LVL212:
 1800              	.LBB165:
ARM GAS  /var/folders/l3/4y5292px21b4835bsnjwqc7w009kq1/T//ccNqrcnV.s 			page 62


 1801              	.LBB166:
 1802              		.file 8 "../Libraries/ROSSerial/stm32hardware.h"
   1:../Libraries/ROSSerial/stm32hardware.h **** /*
   2:../Libraries/ROSSerial/stm32hardware.h ****  * Software License Agreement (BSD License)
   3:../Libraries/ROSSerial/stm32hardware.h ****  *
   4:../Libraries/ROSSerial/stm32hardware.h ****  * Copyright (c) 2011, Willow Garage, Inc.
   5:../Libraries/ROSSerial/stm32hardware.h ****  * All rights reserved.
   6:../Libraries/ROSSerial/stm32hardware.h ****  *
   7:../Libraries/ROSSerial/stm32hardware.h ****  * Redistribution and use in source and binary forms, with or without
   8:../Libraries/ROSSerial/stm32hardware.h ****  * modification, are permitted provided that the following conditions
   9:../Libraries/ROSSerial/stm32hardware.h ****  * are met:
  10:../Libraries/ROSSerial/stm32hardware.h ****  *
  11:../Libraries/ROSSerial/stm32hardware.h ****  *  * Redistributions of source code must retain the above copyright
  12:../Libraries/ROSSerial/stm32hardware.h ****  *    notice, this list of conditions and the following disclaimer.
  13:../Libraries/ROSSerial/stm32hardware.h ****  *  * Redistributions in binary form must reproduce the above
  14:../Libraries/ROSSerial/stm32hardware.h ****  *    copyright notice, this list of conditions and the following
  15:../Libraries/ROSSerial/stm32hardware.h ****  *    disclaimer in the documentation and/or other materials provided
  16:../Libraries/ROSSerial/stm32hardware.h ****  *    with the distribution.
  17:../Libraries/ROSSerial/stm32hardware.h ****  *  * Neither the name of Willow Garage, Inc. nor the names of its
  18:../Libraries/ROSSerial/stm32hardware.h ****  *    contributors may be used to endorse or promote prducts derived
  19:../Libraries/ROSSerial/stm32hardware.h ****  *    from this software without specific prior written permission.
  20:../Libraries/ROSSerial/stm32hardware.h ****  *
  21:../Libraries/ROSSerial/stm32hardware.h ****  * THIS SOFTWARE IS PROVIDED BY THE COPYRIGHT HOLDERS AND CONTRIBUTORS
  22:../Libraries/ROSSerial/stm32hardware.h ****  * "AS IS" AND ANY EXPRESS OR IMPLIED WARRANTIES, INCLUDING, BUT NOT
  23:../Libraries/ROSSerial/stm32hardware.h ****  * LIMITED TO, THE IMPLIED WARRANTIES OF MERCHANTABILITY AND FITNESS
  24:../Libraries/ROSSerial/stm32hardware.h ****  * FOR A PARTICULAR PURPOSE ARE DISCLAIMED. IN NO EVENT SHALL THE
  25:../Libraries/ROSSerial/stm32hardware.h ****  * COPYRIGHT OWNER OR CONTRIBUTORS BE LIABLE FOR ANY DIRECT, INDIRECT,
  26:../Libraries/ROSSerial/stm32hardware.h ****  * INCIDENTAL, SPECIAL, EXEMPLARY, OR CONSEQUENTIAL DAMAGES (INCLUDING,
  27:../Libraries/ROSSerial/stm32hardware.h ****  * BUT NOT LIMITED TO, PROCUREMENT OF SUBSTITUTE GOODS OR SERVICES;
  28:../Libraries/ROSSerial/stm32hardware.h ****  * LOSS OF USE, DATA, OR PROFITS; OR BUSINESS INTERRUPTION) HOWEVER
  29:../Libraries/ROSSerial/stm32hardware.h ****  * CAUSED AND ON ANY THEORY OF LIABILITY, WHETHER IN CONTRACT, STRICT
  30:../Libraries/ROSSerial/stm32hardware.h ****  * LIABILITY, OR TORT (INCLUDING NEGLIGENCE OR OTHERWISE) ARISING IN
  31:../Libraries/ROSSerial/stm32hardware.h ****  * ANY WAY OUT OF THE USE OF THIS SOFTWARE, EVEN IF ADVISED OF THE
  32:../Libraries/ROSSerial/stm32hardware.h ****  * POSSIBILITY OF SUCH DAMAGE.
  33:../Libraries/ROSSerial/stm32hardware.h ****  */
  34:../Libraries/ROSSerial/stm32hardware.h **** 
  35:../Libraries/ROSSerial/stm32hardware.h **** #ifndef STM32HARDWARE_H_
  36:../Libraries/ROSSerial/stm32hardware.h **** #define STM32HARDWARE_H_
  37:../Libraries/ROSSerial/stm32hardware.h **** 
  38:../Libraries/ROSSerial/stm32hardware.h **** #include "FreeRTOS.h"
  39:../Libraries/ROSSerial/stm32hardware.h **** #include "bsp_uart_fifo.h"
  40:../Libraries/ROSSerial/stm32hardware.h **** #include <stdio.h>
  41:../Libraries/ROSSerial/stm32hardware.h **** 
  42:../Libraries/ROSSerial/stm32hardware.h **** class STM32Hardware
  43:../Libraries/ROSSerial/stm32hardware.h **** {
  44:../Libraries/ROSSerial/stm32hardware.h **** public:
  45:../Libraries/ROSSerial/stm32hardware.h **** 	STM32Hardware()
  46:../Libraries/ROSSerial/stm32hardware.h **** 	{
  47:../Libraries/ROSSerial/stm32hardware.h **** 	}
  48:../Libraries/ROSSerial/stm32hardware.h **** 
  49:../Libraries/ROSSerial/stm32hardware.h **** 	/*
  50:../Libraries/ROSSerial/stm32hardware.h **** 	 * Method: init
  51:../Libraries/ROSSerial/stm32hardware.h **** 	 * ----------------------------
  52:../Libraries/ROSSerial/stm32hardware.h **** 	 *   Initialize the STM32 hardware specific to ROS like UART
  53:../Libraries/ROSSerial/stm32hardware.h **** 	 *   parameters: none
  54:../Libraries/ROSSerial/stm32hardware.h **** 	 *   returns: none
  55:../Libraries/ROSSerial/stm32hardware.h **** 	 */
ARM GAS  /var/folders/l3/4y5292px21b4835bsnjwqc7w009kq1/T//ccNqrcnV.s 			page 63


  56:../Libraries/ROSSerial/stm32hardware.h **** 	void init(void)
  57:../Libraries/ROSSerial/stm32hardware.h **** 	{
  58:../Libraries/ROSSerial/stm32hardware.h **** 
  59:../Libraries/ROSSerial/stm32hardware.h **** 	}
  60:../Libraries/ROSSerial/stm32hardware.h **** 
  61:../Libraries/ROSSerial/stm32hardware.h **** 	/*
  62:../Libraries/ROSSerial/stm32hardware.h ****      * Method: read
  63:../Libraries/ROSSerial/stm32hardware.h **** 	 * ----------------------------
  64:../Libraries/ROSSerial/stm32hardware.h **** 	 *   Read a byte of data from ROS connection
  65:../Libraries/ROSSerial/stm32hardware.h **** 	 *   parameters: none
  66:../Libraries/ROSSerial/stm32hardware.h **** 	 *   returns: data, or -1 if there are no data
  67:../Libraries/ROSSerial/stm32hardware.h **** 	 */
  68:../Libraries/ROSSerial/stm32hardware.h **** 	int read(void)
  69:../Libraries/ROSSerial/stm32hardware.h **** 	{
  70:../Libraries/ROSSerial/stm32hardware.h **** 		uint8_t ucData = -1;
  71:../Libraries/ROSSerial/stm32hardware.h **** 		if(comGetChar(COM1,&ucData) == 0) {
  72:../Libraries/ROSSerial/stm32hardware.h **** 			return -1;
  73:../Libraries/ROSSerial/stm32hardware.h **** 		}
  74:../Libraries/ROSSerial/stm32hardware.h **** 		//printf("Got %c\n",ucData);
  75:../Libraries/ROSSerial/stm32hardware.h **** 		return ucData;
  76:../Libraries/ROSSerial/stm32hardware.h **** 	}
  77:../Libraries/ROSSerial/stm32hardware.h **** 
  78:../Libraries/ROSSerial/stm32hardware.h **** 	/*
  79:../Libraries/ROSSerial/stm32hardware.h **** 	 * Method: write
  80:../Libraries/ROSSerial/stm32hardware.h ****      * ----------------------------
  81:../Libraries/ROSSerial/stm32hardware.h **** 	 *   Send data to ROS connection
  82:../Libraries/ROSSerial/stm32hardware.h **** 	 *   parameters: pointer to data array, length of data
  83:../Libraries/ROSSerial/stm32hardware.h **** 	 *   returns: none
  84:../Libraries/ROSSerial/stm32hardware.h **** 	 */
  85:../Libraries/ROSSerial/stm32hardware.h **** 	void write(uint8_t* data, uint32_t length)
  86:../Libraries/ROSSerial/stm32hardware.h **** 	{
  87:../Libraries/ROSSerial/stm32hardware.h **** 		comSendBuf(COM1,data,length);
 1803              		.loc 8 87 0
 1804 0082 AAB2     		uxth	r2, r5
 1805 0084 04F50671 		add	r1, r4, #536
 1806              	.LVL213:
 1807 0088 0020     		movs	r0, #0
 1808 008a FFF7FEFF 		bl	comSendBuf
 1809              	.LVL214:
 1810              	.L109:
 1811              	.LBE166:
 1812              	.LBE165:
 596:../Libraries/ROSSerial/ros/node_handle.h ****     {
 597:../Libraries/ROSSerial/ros/node_handle.h ****       hardware_.write(message_out, l);
 598:../Libraries/ROSSerial/ros/node_handle.h ****       return l;
 599:../Libraries/ROSSerial/ros/node_handle.h ****     }
 600:../Libraries/ROSSerial/ros/node_handle.h ****     else
 601:../Libraries/ROSSerial/ros/node_handle.h ****     {
 602:../Libraries/ROSSerial/ros/node_handle.h ****       logerror("Message from device dropped: message larger than buffer.");
 603:../Libraries/ROSSerial/ros/node_handle.h ****       return -1;
 604:../Libraries/ROSSerial/ros/node_handle.h ****     }
 605:../Libraries/ROSSerial/ros/node_handle.h ****   }
 1813              		.loc 6 605 0
 1814 008e 2846     		mov	r0, r5
 1815 0090 05B0     		add	sp, sp, #20
 1816              	.LCFI21:
 1817              		.cfi_remember_state
ARM GAS  /var/folders/l3/4y5292px21b4835bsnjwqc7w009kq1/T//ccNqrcnV.s 			page 64


 1818              		.cfi_def_cfa_offset 12
 1819              		@ sp needed
 1820 0092 30BD     		pop	{r4, r5, pc}
 1821              	.LVL215:
 1822              	.L114:
 1823              	.LCFI22:
 1824              		.cfi_restore_state
 1825              	.LBB167:
 1826              	.LBB168:
 1827              	.LBB169:
 1828              	.LBB170:
 1829              	.LBB171:
  13:../Libraries/ROSSerial/rosserial_msgs/Log.h ****   {
 1830              		.loc 3 13 0
 1831 0094 084B     		ldr	r3, .L117
 1832 0096 0193     		str	r3, [sp, #4]
 1833              	.LVL216:
 1834              	.LBE171:
 1835              	.LBE170:
 606:../Libraries/ROSSerial/ros/node_handle.h **** 
 607:../Libraries/ROSSerial/ros/node_handle.h ****   /********************************************************************
 608:../Libraries/ROSSerial/ros/node_handle.h ****    * Logging
 609:../Libraries/ROSSerial/ros/node_handle.h ****    */
 610:../Libraries/ROSSerial/ros/node_handle.h **** 
 611:../Libraries/ROSSerial/ros/node_handle.h **** private:
 612:../Libraries/ROSSerial/ros/node_handle.h ****   void log(char byte, const char * msg)
 613:../Libraries/ROSSerial/ros/node_handle.h ****   {
 614:../Libraries/ROSSerial/ros/node_handle.h ****     rosserial_msgs::Log l;
 615:../Libraries/ROSSerial/ros/node_handle.h ****     l.level = byte;
 1836              		.loc 6 615 0
 1837 0098 0323     		movs	r3, #3
 1838 009a 8DF80830 		strb	r3, [sp, #8]
 616:../Libraries/ROSSerial/ros/node_handle.h ****     l.msg = (char*)msg;
 1839              		.loc 6 616 0
 1840 009e 074B     		ldr	r3, .L117+4
 1841 00a0 0393     		str	r3, [sp, #12]
 617:../Libraries/ROSSerial/ros/node_handle.h ****     publish1(rosserial_msgs::TopicInfo::ID_LOG, &l);
 1842              		.loc 6 617 0
 1843 00a2 01AA     		add	r2, sp, #4
 1844 00a4 0721     		movs	r1, #7
 1845 00a6 2046     		mov	r0, r4
 1846 00a8 FFF7FEFF 		bl	_ZN3ros11NodeHandle_I13STM32HardwareLi5ELi5ELi512ELi512EE8publish1EiPKNS_3MsgE
 1847              	.LVL217:
 1848              	.LBE169:
 1849              	.LBE168:
 1850              	.LBE167:
 603:../Libraries/ROSSerial/ros/node_handle.h ****     }
 1851              		.loc 6 603 0
 1852 00ac 4FF0FF35 		mov	r5, #-1
 1853              	.LVL218:
 1854 00b0 EDE7     		b	.L109
 1855              	.LVL219:
 1856              	.L115:
 574:../Libraries/ROSSerial/ros/node_handle.h ****     //printf("in nh.publsh2\n");
 1857              		.loc 6 574 0
 1858 00b2 0025     		movs	r5, #0
 1859 00b4 EBE7     		b	.L109
ARM GAS  /var/folders/l3/4y5292px21b4835bsnjwqc7w009kq1/T//ccNqrcnV.s 			page 65


 1860              	.L118:
 1861 00b6 00BF     		.align	2
 1862              	.L117:
 1863 00b8 08000000 		.word	_ZTVN14rosserial_msgs3LogE+8
 1864 00bc 00000000 		.word	.LC10
 1865              		.cfi_endproc
 1866              	.LFE506:
 1867              		.fnend
 1869              		.section	.text._ZN3ros11NodeHandle_I13STM32HardwareLi5ELi5ELi512ELi512EE7publishEiPKNS_3MsgE,"axG"
 1870              		.align	1
 1871              		.weak	_ZN3ros11NodeHandle_I13STM32HardwareLi5ELi5ELi512ELi512EE7publishEiPKNS_3MsgE
 1872              		.syntax unified
 1873              		.thumb
 1874              		.thumb_func
 1875              		.fpu fpv4-sp-d16
 1877              	_ZN3ros11NodeHandle_I13STM32HardwareLi5ELi5ELi512ELi512EE7publishEiPKNS_3MsgE:
 1878              		.fnstart
 1879              	.LFB503:
 565:../Libraries/ROSSerial/ros/node_handle.h ****   {
 1880              		.loc 6 565 0
 1881              		.cfi_startproc
 1882              		@ args = 0, pretend = 0, frame = 24
 1883              		@ frame_needed = 0, uses_anonymous_args = 0
 1884              	.LVL220:
 1885 0000 30B5     		push	{r4, r5, lr}
 1886              		.save {r4, r5, lr}
 1887              	.LCFI23:
 1888              		.cfi_def_cfa_offset 12
 1889              		.cfi_offset 4, -12
 1890              		.cfi_offset 5, -8
 1891              		.cfi_offset 14, -4
 1892              		.pad #28
 1893 0002 87B0     		sub	sp, sp, #28
 1894              	.LCFI24:
 1895              		.cfi_def_cfa_offset 40
 1896              	.LVL221:
 1897              	.LBB194:
 1898              	.LBB195:
 573:../Libraries/ROSSerial/ros/node_handle.h ****       return 0;
 1899              		.loc 6 573 0
 1900 0004 6329     		cmp	r1, #99
 1901 0006 04DD     		ble	.L120
 1902 0008 90F8B834 		ldrb	r3, [r0, #1208]	@ zero_extendqisi2
 1903 000c 002B     		cmp	r3, #0
 1904 000e 00F09480 		beq	.L129
 1905              	.L120:
 1906 0012 0D46     		mov	r5, r1
 1907 0014 0446     		mov	r4, r0
 577:../Libraries/ROSSerial/ros/node_handle.h **** 
 1908              		.loc 6 577 0
 1909 0016 1368     		ldr	r3, [r2]
 1910 0018 1B68     		ldr	r3, [r3]
 1911 001a 00F21F21 		addw	r1, r0, #543
 1912              	.LVL222:
 1913 001e 1046     		mov	r0, r2
 1914              	.LVL223:
 1915 0020 9847     		blx	r3
ARM GAS  /var/folders/l3/4y5292px21b4835bsnjwqc7w009kq1/T//ccNqrcnV.s 			page 66


 1916              	.LVL224:
 580:../Libraries/ROSSerial/ros/node_handle.h ****     message_out[1] = PROTOCOL_VER;
 1917              		.loc 6 580 0
 1918 0022 FF23     		movs	r3, #255
 1919 0024 84F81832 		strb	r3, [r4, #536]
 581:../Libraries/ROSSerial/ros/node_handle.h ****     message_out[2] = (uint8_t)((uint16_t)l & 255);
 1920              		.loc 6 581 0
 1921 0028 FE23     		movs	r3, #254
 1922 002a 84F81932 		strb	r3, [r4, #537]
 582:../Libraries/ROSSerial/ros/node_handle.h ****     message_out[3] = (uint8_t)((uint16_t)l >> 8);
 1923              		.loc 6 582 0
 1924 002e C3B2     		uxtb	r3, r0
 1925 0030 84F81A32 		strb	r3, [r4, #538]
 583:../Libraries/ROSSerial/ros/node_handle.h ****     message_out[4] = 255 - ((message_out[2] + message_out[3]) % 256);
 1926              		.loc 6 583 0
 1927 0034 C0F30722 		ubfx	r2, r0, #8, #8
 1928 0038 84F81B22 		strb	r2, [r4, #539]
 584:../Libraries/ROSSerial/ros/node_handle.h ****     message_out[5] = (uint8_t)((int16_t)id & 255);
 1929              		.loc 6 584 0
 1930 003c 1344     		add	r3, r3, r2
 1931 003e DBB2     		uxtb	r3, r3
 1932 0040 DB43     		mvns	r3, r3
 1933 0042 84F81C32 		strb	r3, [r4, #540]
 585:../Libraries/ROSSerial/ros/node_handle.h ****     message_out[6] = (uint8_t)((int16_t)id >> 8);
 1934              		.loc 6 585 0
 1935 0046 84F81D52 		strb	r5, [r4, #541]
 586:../Libraries/ROSSerial/ros/node_handle.h **** 
 1936              		.loc 6 586 0
 1937 004a 45F30721 		sbfx	r1, r5, #8, #8
 1938 004e 84F81E12 		strb	r1, [r4, #542]
 1939              	.LVL225:
 1940              	.LBB196:
 590:../Libraries/ROSSerial/ros/node_handle.h ****       chk += message_out[i];
 1941              		.loc 6 590 0
 1942 0052 0523     		movs	r3, #5
 1943              	.LBE196:
 589:../Libraries/ROSSerial/ros/node_handle.h ****     for (int i = 5; i < l + 7; i++)
 1944              		.loc 6 589 0
 1945 0054 0022     		movs	r2, #0
 1946              	.LVL226:
 1947              	.L123:
 1948              	.LBB197:
 590:../Libraries/ROSSerial/ros/node_handle.h ****       chk += message_out[i];
 1949              		.loc 6 590 0
 1950 0056 C11D     		adds	r1, r0, #7
 1951 0058 9942     		cmp	r1, r3
 1952 005a 05DD     		ble	.L122
 591:../Libraries/ROSSerial/ros/node_handle.h ****     l += 7;
 1953              		.loc 6 591 0
 1954 005c E118     		adds	r1, r4, r3
 1955 005e 91F81812 		ldrb	r1, [r1, #536]	@ zero_extendqisi2
 1956 0062 0A44     		add	r2, r2, r1
 1957              	.LVL227:
 590:../Libraries/ROSSerial/ros/node_handle.h ****       chk += message_out[i];
 1958              		.loc 6 590 0
 1959 0064 0133     		adds	r3, r3, #1
 1960              	.LVL228:
ARM GAS  /var/folders/l3/4y5292px21b4835bsnjwqc7w009kq1/T//ccNqrcnV.s 			page 67


 1961 0066 F6E7     		b	.L123
 1962              	.L122:
 1963              	.LVL229:
 1964              	.LBE197:
 593:../Libraries/ROSSerial/ros/node_handle.h ****     //printf("Sending message - %s\n",message_out);
 1965              		.loc 6 593 0
 1966 0068 5342     		rsbs	r3, r2, #0
 1967              	.LVL230:
 1968 006a D2B2     		uxtb	r2, r2
 1969              	.LVL231:
 1970 006c DBB2     		uxtb	r3, r3
 1971 006e 58BF     		it	pl
 1972 0070 5A42     		rsbpl	r2, r3, #0
 1973 0072 00F10805 		add	r5, r0, #8
 1974              	.LVL232:
 1975 0076 D243     		mvns	r2, r2
 1976 0078 2144     		add	r1, r1, r4
 1977 007a 81F81822 		strb	r2, [r1, #536]
 595:../Libraries/ROSSerial/ros/node_handle.h ****     {
 1978              		.loc 6 595 0
 1979 007e B5F5007F 		cmp	r5, #512
 1980 0082 08DC     		bgt	.L124
 1981              	.LVL233:
 1982              	.LBB198:
 1983              	.LBB199:
 1984              		.loc 8 87 0
 1985 0084 AAB2     		uxth	r2, r5
 1986 0086 04F50671 		add	r1, r4, #536
 1987              	.LVL234:
 1988 008a 0020     		movs	r0, #0
 1989 008c FFF7FEFF 		bl	comSendBuf
 1990              	.LVL235:
 1991              	.L119:
 1992              	.LBE199:
 1993              	.LBE198:
 1994              	.LBE195:
 1995              	.LBE194:
 568:../Libraries/ROSSerial/ros/node_handle.h **** 
 1996              		.loc 6 568 0
 1997 0090 2846     		mov	r0, r5
 1998 0092 07B0     		add	sp, sp, #28
 1999              	.LCFI25:
 2000              		.cfi_remember_state
 2001              		.cfi_def_cfa_offset 12
 2002              		@ sp needed
 2003 0094 30BD     		pop	{r4, r5, pc}
 2004              	.LVL236:
 2005              	.L124:
 2006              	.LCFI26:
 2007              		.cfi_restore_state
 2008              	.LBB221:
 2009              	.LBB220:
 2010              	.LBB200:
 2011              	.LBB201:
 2012              	.LBB202:
 2013              	.LBB203:
 2014              	.LBB204:
ARM GAS  /var/folders/l3/4y5292px21b4835bsnjwqc7w009kq1/T//ccNqrcnV.s 			page 68


  13:../Libraries/ROSSerial/rosserial_msgs/Log.h ****   {
 2015              		.loc 3 13 0
 2016 0096 2A4B     		ldr	r3, .L131
 2017 0098 0093     		str	r3, [sp]
 2018              	.LVL237:
 2019              	.LBE204:
 2020              	.LBE203:
 615:../Libraries/ROSSerial/ros/node_handle.h ****     l.msg = (char*)msg;
 2021              		.loc 6 615 0
 2022 009a 0322     		movs	r2, #3
 2023 009c 8DF80420 		strb	r2, [sp, #4]
 616:../Libraries/ROSSerial/ros/node_handle.h ****     publish1(rosserial_msgs::TopicInfo::ID_LOG, &l);
 2024              		.loc 6 616 0
 2025 00a0 284A     		ldr	r2, .L131+4
 2026 00a2 0292     		str	r2, [sp, #8]
 2027              	.LVL238:
 2028              	.LBB205:
 2029              	.LBB206:
 577:../Libraries/ROSSerial/ros/node_handle.h **** 
 2030              		.loc 6 577 0
 2031 00a4 1B68     		ldr	r3, [r3]
 2032 00a6 04F21F21 		addw	r1, r4, #543
 2033 00aa 6846     		mov	r0, sp
 2034 00ac 9847     		blx	r3
 2035              	.LVL239:
 580:../Libraries/ROSSerial/ros/node_handle.h ****     message_out[1] = PROTOCOL_VER;
 2036              		.loc 6 580 0
 2037 00ae FF23     		movs	r3, #255
 2038 00b0 84F81832 		strb	r3, [r4, #536]
 581:../Libraries/ROSSerial/ros/node_handle.h ****     message_out[2] = (uint8_t)((uint16_t)l & 255);
 2039              		.loc 6 581 0
 2040 00b4 FE23     		movs	r3, #254
 2041 00b6 84F81932 		strb	r3, [r4, #537]
 582:../Libraries/ROSSerial/ros/node_handle.h ****     message_out[3] = (uint8_t)((uint16_t)l >> 8);
 2042              		.loc 6 582 0
 2043 00ba C3B2     		uxtb	r3, r0
 2044 00bc 84F81A32 		strb	r3, [r4, #538]
 583:../Libraries/ROSSerial/ros/node_handle.h ****     message_out[4] = 255 - ((message_out[2] + message_out[3]) % 256);
 2045              		.loc 6 583 0
 2046 00c0 C0F30722 		ubfx	r2, r0, #8, #8
 2047 00c4 84F81B22 		strb	r2, [r4, #539]
 584:../Libraries/ROSSerial/ros/node_handle.h ****     message_out[5] = (uint8_t)((int16_t)id & 255);
 2048              		.loc 6 584 0
 2049 00c8 1344     		add	r3, r3, r2
 2050 00ca DBB2     		uxtb	r3, r3
 2051 00cc DB43     		mvns	r3, r3
 2052 00ce 84F81C32 		strb	r3, [r4, #540]
 585:../Libraries/ROSSerial/ros/node_handle.h ****     message_out[6] = (uint8_t)((int16_t)id >> 8);
 2053              		.loc 6 585 0
 2054 00d2 0723     		movs	r3, #7
 2055 00d4 84F81D32 		strb	r3, [r4, #541]
 586:../Libraries/ROSSerial/ros/node_handle.h **** 
 2056              		.loc 6 586 0
 2057 00d8 0023     		movs	r3, #0
 2058 00da 84F81E32 		strb	r3, [r4, #542]
 2059              	.LVL240:
 2060              	.LBB207:
ARM GAS  /var/folders/l3/4y5292px21b4835bsnjwqc7w009kq1/T//ccNqrcnV.s 			page 69


 590:../Libraries/ROSSerial/ros/node_handle.h ****       chk += message_out[i];
 2061              		.loc 6 590 0
 2062 00de 0522     		movs	r2, #5
 2063              	.LVL241:
 2064              	.L126:
 2065 00e0 C11D     		adds	r1, r0, #7
 2066 00e2 9142     		cmp	r1, r2
 2067 00e4 05DD     		ble	.L125
 591:../Libraries/ROSSerial/ros/node_handle.h ****     l += 7;
 2068              		.loc 6 591 0
 2069 00e6 A118     		adds	r1, r4, r2
 2070 00e8 91F81812 		ldrb	r1, [r1, #536]	@ zero_extendqisi2
 2071 00ec 0B44     		add	r3, r3, r1
 2072              	.LVL242:
 590:../Libraries/ROSSerial/ros/node_handle.h ****       chk += message_out[i];
 2073              		.loc 6 590 0
 2074 00ee 0132     		adds	r2, r2, #1
 2075              	.LVL243:
 2076 00f0 F6E7     		b	.L126
 2077              	.L125:
 2078              	.LVL244:
 2079              	.LBE207:
 593:../Libraries/ROSSerial/ros/node_handle.h ****     //printf("Sending message - %s\n",message_out);
 2080              		.loc 6 593 0
 2081 00f2 5A42     		rsbs	r2, r3, #0
 2082              	.LVL245:
 2083 00f4 DBB2     		uxtb	r3, r3
 2084              	.LVL246:
 2085 00f6 D2B2     		uxtb	r2, r2
 2086 00f8 58BF     		it	pl
 2087 00fa 5342     		rsbpl	r3, r2, #0
 2088 00fc 00F10802 		add	r2, r0, #8
 2089              	.LVL247:
 2090 0100 DB43     		mvns	r3, r3
 2091 0102 2144     		add	r1, r1, r4
 2092 0104 81F81832 		strb	r3, [r1, #536]
 595:../Libraries/ROSSerial/ros/node_handle.h ****     {
 2093              		.loc 6 595 0
 2094 0108 B2F5007F 		cmp	r2, #512
 2095 010c 08DC     		bgt	.L127
 2096              	.LVL248:
 2097              	.LBB208:
 2098              	.LBB209:
 2099              		.loc 8 87 0
 2100 010e 92B2     		uxth	r2, r2
 2101              	.LVL249:
 2102 0110 04F50671 		add	r1, r4, #536
 2103              	.LVL250:
 2104 0114 0020     		movs	r0, #0
 2105              	.LVL251:
 2106 0116 FFF7FEFF 		bl	comSendBuf
 2107              	.LVL252:
 2108              	.L128:
 2109              	.LBE209:
 2110              	.LBE208:
 2111              	.LBE206:
 2112              	.LBE205:
ARM GAS  /var/folders/l3/4y5292px21b4835bsnjwqc7w009kq1/T//ccNqrcnV.s 			page 70


 2113              	.LBE202:
 2114              	.LBE201:
 2115              	.LBE200:
 603:../Libraries/ROSSerial/ros/node_handle.h ****     }
 2116              		.loc 6 603 0
 2117 011a 4FF0FF35 		mov	r5, #-1
 2118              	.LVL253:
 2119 011e B7E7     		b	.L119
 2120              	.LVL254:
 2121              	.L127:
 2122              	.LBB219:
 2123              	.LBB218:
 2124              	.LBB217:
 2125              	.LBB216:
 2126              	.LBB215:
 2127              	.LBB210:
 2128              	.LBB211:
 2129              	.LBB212:
 2130              	.LBB213:
 2131              	.LBB214:
  13:../Libraries/ROSSerial/rosserial_msgs/Log.h ****   {
 2132              		.loc 3 13 0
 2133 0120 074B     		ldr	r3, .L131
 2134 0122 0393     		str	r3, [sp, #12]
 2135              	.LVL255:
 2136              	.LBE214:
 2137              	.LBE213:
 615:../Libraries/ROSSerial/ros/node_handle.h ****     l.msg = (char*)msg;
 2138              		.loc 6 615 0
 2139 0124 0323     		movs	r3, #3
 2140 0126 8DF81030 		strb	r3, [sp, #16]
 616:../Libraries/ROSSerial/ros/node_handle.h ****     publish1(rosserial_msgs::TopicInfo::ID_LOG, &l);
 2141              		.loc 6 616 0
 2142 012a 064B     		ldr	r3, .L131+4
 2143 012c 0593     		str	r3, [sp, #20]
 2144              		.loc 6 617 0
 2145 012e 03AA     		add	r2, sp, #12
 2146              	.LVL256:
 2147 0130 0721     		movs	r1, #7
 2148 0132 2046     		mov	r0, r4
 2149              	.LVL257:
 2150 0134 FFF7FEFF 		bl	_ZN3ros11NodeHandle_I13STM32HardwareLi5ELi5ELi512ELi512EE8publish1EiPKNS_3MsgE
 2151              	.LVL258:
 2152 0138 EFE7     		b	.L128
 2153              	.LVL259:
 2154              	.L129:
 2155              	.LBE212:
 2156              	.LBE211:
 2157              	.LBE210:
 2158              	.LBE215:
 2159              	.LBE216:
 2160              	.LBE217:
 2161              	.LBE218:
 2162              	.LBE219:
 574:../Libraries/ROSSerial/ros/node_handle.h ****     //printf("in nh.publsh2\n");
 2163              		.loc 6 574 0
 2164 013a 0025     		movs	r5, #0
ARM GAS  /var/folders/l3/4y5292px21b4835bsnjwqc7w009kq1/T//ccNqrcnV.s 			page 71


 2165              	.LVL260:
 2166              	.LBE220:
 2167              	.LBE221:
 567:../Libraries/ROSSerial/ros/node_handle.h ****   }
 2168              		.loc 6 567 0
 2169 013c A8E7     		b	.L119
 2170              	.L132:
 2171 013e 00BF     		.align	2
 2172              	.L131:
 2173 0140 08000000 		.word	_ZTVN14rosserial_msgs3LogE+8
 2174 0144 00000000 		.word	.LC10
 2175              		.cfi_endproc
 2176              	.LFE503:
 2177              		.fnend
 2179              		.section	.text._ZN3ros11NodeHandle_I13STM32HardwareLi5ELi5ELi512ELi512EE15requestSyncTimeEv,"axG",
 2180              		.align	1
 2181              		.weak	_ZN3ros11NodeHandle_I13STM32HardwareLi5ELi5ELi512ELi512EE15requestSyncTimeEv
 2182              		.syntax unified
 2183              		.thumb
 2184              		.thumb_func
 2185              		.fpu fpv4-sp-d16
 2187              	_ZN3ros11NodeHandle_I13STM32HardwareLi5ELi5ELi512ELi512EE15requestSyncTimeEv:
 2188              		.fnstart
 2189              	.LFB509:
 404:../Libraries/ROSSerial/ros/node_handle.h ****   {
 2190              		.loc 6 404 0
 2191              		.cfi_startproc
 2192              		@ args = 0, pretend = 0, frame = 40
 2193              		@ frame_needed = 0, uses_anonymous_args = 0
 2194              	.LVL261:
 2195 0000 30B5     		push	{r4, r5, lr}
 2196              		.save {r4, r5, lr}
 2197              	.LCFI27:
 2198              		.cfi_def_cfa_offset 12
 2199              		.cfi_offset 4, -12
 2200              		.cfi_offset 5, -8
 2201              		.cfi_offset 14, -4
 2202              		.pad #44
 2203 0002 8BB0     		sub	sp, sp, #44
 2204              	.LCFI28:
 2205              		.cfi_def_cfa_offset 56
 2206 0004 0546     		mov	r5, r0
 2207              	.LVL262:
 2208              	.LBB260:
 2209              	.LBB261:
  14:../Libraries/ROSSerial/std_msgs/Time.h ****   {
 2210              		.loc 1 14 0
 2211 0006 4A4B     		ldr	r3, .L143
 2212 0008 0793     		str	r3, [sp, #28]
 2213              	.LVL263:
 2214              	.LBB262:
 2215              	.LBB263:
 2216              	.LBB264:
 2217              		.file 9 "../Libraries/ROSSerial/ros/time.h"
   1:../Libraries/ROSSerial/ros/time.h **** /*
   2:../Libraries/ROSSerial/ros/time.h ****  * Software License Agreement (BSD License)
   3:../Libraries/ROSSerial/ros/time.h ****  *
ARM GAS  /var/folders/l3/4y5292px21b4835bsnjwqc7w009kq1/T//ccNqrcnV.s 			page 72


   4:../Libraries/ROSSerial/ros/time.h ****  * Copyright (c) 2011, Willow Garage, Inc.
   5:../Libraries/ROSSerial/ros/time.h ****  * All rights reserved.
   6:../Libraries/ROSSerial/ros/time.h ****  *
   7:../Libraries/ROSSerial/ros/time.h ****  * Redistribution and use in source and binary forms, with or without
   8:../Libraries/ROSSerial/ros/time.h ****  * modification, are permitted provided that the following conditions
   9:../Libraries/ROSSerial/ros/time.h ****  * are met:
  10:../Libraries/ROSSerial/ros/time.h ****  *
  11:../Libraries/ROSSerial/ros/time.h ****  *  * Redistributions of source code must retain the above copyright
  12:../Libraries/ROSSerial/ros/time.h ****  *    notice, this list of conditions and the following disclaimer.
  13:../Libraries/ROSSerial/ros/time.h ****  *  * Redistributions in binary form must reproduce the above
  14:../Libraries/ROSSerial/ros/time.h ****  *    copyright notice, this list of conditions and the following
  15:../Libraries/ROSSerial/ros/time.h ****  *    disclaimer in the documentation and/or other materials provided
  16:../Libraries/ROSSerial/ros/time.h ****  *    with the distribution.
  17:../Libraries/ROSSerial/ros/time.h ****  *  * Neither the name of Willow Garage, Inc. nor the names of its
  18:../Libraries/ROSSerial/ros/time.h ****  *    contributors may be used to endorse or promote prducts derived
  19:../Libraries/ROSSerial/ros/time.h ****  *    from this software without specific prior written permission.
  20:../Libraries/ROSSerial/ros/time.h ****  *
  21:../Libraries/ROSSerial/ros/time.h ****  * THIS SOFTWARE IS PROVIDED BY THE COPYRIGHT HOLDERS AND CONTRIBUTORS
  22:../Libraries/ROSSerial/ros/time.h ****  * "AS IS" AND ANY EXPRESS OR IMPLIED WARRANTIES, INCLUDING, BUT NOT
  23:../Libraries/ROSSerial/ros/time.h ****  * LIMITED TO, THE IMPLIED WARRANTIES OF MERCHANTABILITY AND FITNESS
  24:../Libraries/ROSSerial/ros/time.h ****  * FOR A PARTICULAR PURPOSE ARE DISCLAIMED. IN NO EVENT SHALL THE
  25:../Libraries/ROSSerial/ros/time.h ****  * COPYRIGHT OWNER OR CONTRIBUTORS BE LIABLE FOR ANY DIRECT, INDIRECT,
  26:../Libraries/ROSSerial/ros/time.h ****  * INCIDENTAL, SPECIAL, EXEMPLARY, OR CONSEQUENTIAL DAMAGES (INCLUDING,
  27:../Libraries/ROSSerial/ros/time.h ****  * BUT NOT LIMITED TO, PROCUREMENT OF SUBSTITUTE GOODS OR SERVICES;
  28:../Libraries/ROSSerial/ros/time.h ****  * LOSS OF USE, DATA, OR PROFITS; OR BUSINESS INTERRUPTION) HOWEVER
  29:../Libraries/ROSSerial/ros/time.h ****  * CAUSED AND ON ANY THEORY OF LIABILITY, WHETHER IN CONTRACT, STRICT
  30:../Libraries/ROSSerial/ros/time.h ****  * LIABILITY, OR TORT (INCLUDING NEGLIGENCE OR OTHERWISE) ARISING IN
  31:../Libraries/ROSSerial/ros/time.h ****  * ANY WAY OUT OF THE USE OF THIS SOFTWARE, EVEN IF ADVISED OF THE
  32:../Libraries/ROSSerial/ros/time.h ****  * POSSIBILITY OF SUCH DAMAGE.
  33:../Libraries/ROSSerial/ros/time.h ****  */
  34:../Libraries/ROSSerial/ros/time.h **** 
  35:../Libraries/ROSSerial/ros/time.h **** #ifndef ROS_TIME_H_
  36:../Libraries/ROSSerial/ros/time.h **** #define ROS_TIME_H_
  37:../Libraries/ROSSerial/ros/time.h **** 
  38:../Libraries/ROSSerial/ros/time.h **** #include "ros/duration.h"
  39:../Libraries/ROSSerial/ros/time.h **** #include <math.h>
  40:../Libraries/ROSSerial/ros/time.h **** #include <stdint.h>
  41:../Libraries/ROSSerial/ros/time.h **** 
  42:../Libraries/ROSSerial/ros/time.h **** namespace ros
  43:../Libraries/ROSSerial/ros/time.h **** {
  44:../Libraries/ROSSerial/ros/time.h **** void normalizeSecNSec(uint32_t &sec, uint32_t &nsec);
  45:../Libraries/ROSSerial/ros/time.h **** 
  46:../Libraries/ROSSerial/ros/time.h **** class Time
  47:../Libraries/ROSSerial/ros/time.h **** {
  48:../Libraries/ROSSerial/ros/time.h **** public:
  49:../Libraries/ROSSerial/ros/time.h ****   uint32_t sec, nsec;
  50:../Libraries/ROSSerial/ros/time.h **** 
  51:../Libraries/ROSSerial/ros/time.h ****   Time() : sec(0), nsec(0) {}
 2218              		.loc 9 51 0
 2219 000a 0024     		movs	r4, #0
 2220 000c 0894     		str	r4, [sp, #32]
 2221 000e 0994     		str	r4, [sp, #36]
 2222              	.LVL264:
 2223              	.LBE264:
 2224              	.LBE263:
 2225              	.LBE262:
 2226              	.LBE261:
ARM GAS  /var/folders/l3/4y5292px21b4835bsnjwqc7w009kq1/T//ccNqrcnV.s 			page 73


 2227              	.LBE260:
 2228              	.LBB265:
 2229              	.LBB266:
 577:../Libraries/ROSSerial/ros/node_handle.h **** 
 2230              		.loc 6 577 0
 2231 0010 1B68     		ldr	r3, [r3]
 2232 0012 00F21F21 		addw	r1, r0, #543
 2233 0016 07A8     		add	r0, sp, #28
 2234              	.LVL265:
 2235 0018 9847     		blx	r3
 2236              	.LVL266:
 580:../Libraries/ROSSerial/ros/node_handle.h ****     message_out[1] = PROTOCOL_VER;
 2237              		.loc 6 580 0
 2238 001a FF23     		movs	r3, #255
 2239 001c 85F81832 		strb	r3, [r5, #536]
 581:../Libraries/ROSSerial/ros/node_handle.h ****     message_out[2] = (uint8_t)((uint16_t)l & 255);
 2240              		.loc 6 581 0
 2241 0020 FE23     		movs	r3, #254
 2242 0022 85F81932 		strb	r3, [r5, #537]
 582:../Libraries/ROSSerial/ros/node_handle.h ****     message_out[3] = (uint8_t)((uint16_t)l >> 8);
 2243              		.loc 6 582 0
 2244 0026 C3B2     		uxtb	r3, r0
 2245 0028 85F81A32 		strb	r3, [r5, #538]
 583:../Libraries/ROSSerial/ros/node_handle.h ****     message_out[4] = 255 - ((message_out[2] + message_out[3]) % 256);
 2246              		.loc 6 583 0
 2247 002c C0F30722 		ubfx	r2, r0, #8, #8
 2248 0030 85F81B22 		strb	r2, [r5, #539]
 584:../Libraries/ROSSerial/ros/node_handle.h ****     message_out[5] = (uint8_t)((int16_t)id & 255);
 2249              		.loc 6 584 0
 2250 0034 1344     		add	r3, r3, r2
 2251 0036 DBB2     		uxtb	r3, r3
 2252 0038 DB43     		mvns	r3, r3
 2253 003a 85F81C32 		strb	r3, [r5, #540]
 585:../Libraries/ROSSerial/ros/node_handle.h ****     message_out[6] = (uint8_t)((int16_t)id >> 8);
 2254              		.loc 6 585 0
 2255 003e 0A23     		movs	r3, #10
 2256 0040 85F81D32 		strb	r3, [r5, #541]
 586:../Libraries/ROSSerial/ros/node_handle.h **** 
 2257              		.loc 6 586 0
 2258 0044 85F81E42 		strb	r4, [r5, #542]
 2259              	.LVL267:
 2260              	.LBB267:
 590:../Libraries/ROSSerial/ros/node_handle.h ****       chk += message_out[i];
 2261              		.loc 6 590 0
 2262 0048 0521     		movs	r1, #5
 2263              	.LBE267:
 589:../Libraries/ROSSerial/ros/node_handle.h ****     for (int i = 5; i < l + 7; i++)
 2264              		.loc 6 589 0
 2265 004a 2346     		mov	r3, r4
 2266              	.LVL268:
 2267              	.L135:
 2268              	.LBB268:
 590:../Libraries/ROSSerial/ros/node_handle.h ****       chk += message_out[i];
 2269              		.loc 6 590 0
 2270 004c C41D     		adds	r4, r0, #7
 2271 004e 8C42     		cmp	r4, r1
 2272 0050 05DD     		ble	.L134
ARM GAS  /var/folders/l3/4y5292px21b4835bsnjwqc7w009kq1/T//ccNqrcnV.s 			page 74


 591:../Libraries/ROSSerial/ros/node_handle.h ****     l += 7;
 2273              		.loc 6 591 0
 2274 0052 6A18     		adds	r2, r5, r1
 2275 0054 92F81822 		ldrb	r2, [r2, #536]	@ zero_extendqisi2
 2276 0058 1344     		add	r3, r3, r2
 2277              	.LVL269:
 590:../Libraries/ROSSerial/ros/node_handle.h ****       chk += message_out[i];
 2278              		.loc 6 590 0
 2279 005a 0131     		adds	r1, r1, #1
 2280              	.LVL270:
 2281 005c F6E7     		b	.L135
 2282              	.L134:
 2283              	.LVL271:
 2284              	.LBE268:
 593:../Libraries/ROSSerial/ros/node_handle.h ****     //printf("Sending message - %s\n",message_out);
 2285              		.loc 6 593 0
 2286 005e 5A42     		rsbs	r2, r3, #0
 2287 0060 DBB2     		uxtb	r3, r3
 2288              	.LVL272:
 2289 0062 D2B2     		uxtb	r2, r2
 2290 0064 58BF     		it	pl
 2291 0066 5342     		rsbpl	r3, r2, #0
 2292 0068 00F10802 		add	r2, r0, #8
 2293              	.LVL273:
 2294 006c DB43     		mvns	r3, r3
 2295 006e 2C44     		add	r4, r4, r5
 2296 0070 84F81832 		strb	r3, [r4, #536]
 595:../Libraries/ROSSerial/ros/node_handle.h ****     {
 2297              		.loc 6 595 0
 2298 0074 B2F5007F 		cmp	r2, #512
 2299 0078 0ADC     		bgt	.L136
 2300              	.LVL274:
 2301              	.LBB269:
 2302              	.LBB270:
 2303              		.loc 8 87 0
 2304 007a 92B2     		uxth	r2, r2
 2305              	.LVL275:
 2306 007c 05F50671 		add	r1, r5, #536
 2307              	.LVL276:
 2308 0080 0020     		movs	r0, #0
 2309              	.LVL277:
 2310 0082 FFF7FEFF 		bl	comSendBuf
 2311              	.LVL278:
 2312              	.L137:
 2313              	.LBE270:
 2314              	.LBE269:
 2315              	.LBE266:
 2316              	.LBE265:
 2317              	.LBB287:
 2318              	.LBB288:
  88:../Libraries/ROSSerial/stm32hardware.h **** 	}
  89:../Libraries/ROSSerial/stm32hardware.h **** 
  90:../Libraries/ROSSerial/stm32hardware.h **** 	/*
  91:../Libraries/ROSSerial/stm32hardware.h **** 	 * Method: time
  92:../Libraries/ROSSerial/stm32hardware.h **** 	 * ----------------------------
  93:../Libraries/ROSSerial/stm32hardware.h ****      *   Returns milliseconds since start of program
  94:../Libraries/ROSSerial/stm32hardware.h **** 	 *   parameters: none
ARM GAS  /var/folders/l3/4y5292px21b4835bsnjwqc7w009kq1/T//ccNqrcnV.s 			page 75


  95:../Libraries/ROSSerial/stm32hardware.h **** 	 *   returns: time in milliseconds
  96:../Libraries/ROSSerial/stm32hardware.h **** 	 */
  97:../Libraries/ROSSerial/stm32hardware.h **** 	uint32_t time(void)
  98:../Libraries/ROSSerial/stm32hardware.h **** 	{
  99:../Libraries/ROSSerial/stm32hardware.h **** 		return (uint32_t) xTaskGetTickCount();
 2319              		.loc 8 99 0
 2320 0086 FFF7FEFF 		bl	xTaskGetTickCount
 2321              	.LVL279:
 2322              	.LBE288:
 2323              	.LBE287:
 408:../Libraries/ROSSerial/ros/node_handle.h ****   }
 2324              		.loc 6 408 0
 2325 008a A860     		str	r0, [r5, #8]
 409:../Libraries/ROSSerial/ros/node_handle.h **** 
 2326              		.loc 6 409 0
 2327 008c 0BB0     		add	sp, sp, #44
 2328              	.LCFI29:
 2329              		.cfi_remember_state
 2330              		.cfi_def_cfa_offset 12
 2331              		@ sp needed
 2332 008e 30BD     		pop	{r4, r5, pc}
 2333              	.LVL280:
 2334              	.L136:
 2335              	.LCFI30:
 2336              		.cfi_restore_state
 2337              	.LBB289:
 2338              	.LBB286:
 2339              	.LBB271:
 2340              	.LBB272:
 2341              	.LBB273:
 2342              	.LBB274:
 2343              	.LBB275:
  13:../Libraries/ROSSerial/rosserial_msgs/Log.h ****   {
 2344              		.loc 3 13 0
 2345 0090 284B     		ldr	r3, .L143+4
 2346 0092 0193     		str	r3, [sp, #4]
 2347              	.LVL281:
 2348              	.LBE275:
 2349              	.LBE274:
 615:../Libraries/ROSSerial/ros/node_handle.h ****     l.msg = (char*)msg;
 2350              		.loc 6 615 0
 2351 0094 0322     		movs	r2, #3
 2352              	.LVL282:
 2353 0096 8DF80820 		strb	r2, [sp, #8]
 616:../Libraries/ROSSerial/ros/node_handle.h ****     publish1(rosserial_msgs::TopicInfo::ID_LOG, &l);
 2354              		.loc 6 616 0
 2355 009a 274A     		ldr	r2, .L143+8
 2356 009c 0392     		str	r2, [sp, #12]
 2357              	.LVL283:
 2358              	.LBB276:
 2359              	.LBB277:
 577:../Libraries/ROSSerial/ros/node_handle.h **** 
 2360              		.loc 6 577 0
 2361 009e 1B68     		ldr	r3, [r3]
 2362 00a0 05F21F21 		addw	r1, r5, #543
 2363              	.LVL284:
 2364 00a4 01A8     		add	r0, sp, #4
ARM GAS  /var/folders/l3/4y5292px21b4835bsnjwqc7w009kq1/T//ccNqrcnV.s 			page 76


 2365              	.LVL285:
 2366 00a6 9847     		blx	r3
 2367              	.LVL286:
 580:../Libraries/ROSSerial/ros/node_handle.h ****     message_out[1] = PROTOCOL_VER;
 2368              		.loc 6 580 0
 2369 00a8 FF23     		movs	r3, #255
 2370 00aa 85F81832 		strb	r3, [r5, #536]
 581:../Libraries/ROSSerial/ros/node_handle.h ****     message_out[2] = (uint8_t)((uint16_t)l & 255);
 2371              		.loc 6 581 0
 2372 00ae FE23     		movs	r3, #254
 2373 00b0 85F81932 		strb	r3, [r5, #537]
 582:../Libraries/ROSSerial/ros/node_handle.h ****     message_out[3] = (uint8_t)((uint16_t)l >> 8);
 2374              		.loc 6 582 0
 2375 00b4 C3B2     		uxtb	r3, r0
 2376 00b6 85F81A32 		strb	r3, [r5, #538]
 583:../Libraries/ROSSerial/ros/node_handle.h ****     message_out[4] = 255 - ((message_out[2] + message_out[3]) % 256);
 2377              		.loc 6 583 0
 2378 00ba C0F30722 		ubfx	r2, r0, #8, #8
 2379 00be 85F81B22 		strb	r2, [r5, #539]
 584:../Libraries/ROSSerial/ros/node_handle.h ****     message_out[5] = (uint8_t)((int16_t)id & 255);
 2380              		.loc 6 584 0
 2381 00c2 1344     		add	r3, r3, r2
 2382 00c4 DBB2     		uxtb	r3, r3
 2383 00c6 DB43     		mvns	r3, r3
 2384 00c8 85F81C32 		strb	r3, [r5, #540]
 585:../Libraries/ROSSerial/ros/node_handle.h ****     message_out[6] = (uint8_t)((int16_t)id >> 8);
 2385              		.loc 6 585 0
 2386 00cc 0723     		movs	r3, #7
 2387 00ce 85F81D32 		strb	r3, [r5, #541]
 586:../Libraries/ROSSerial/ros/node_handle.h **** 
 2388              		.loc 6 586 0
 2389 00d2 0023     		movs	r3, #0
 2390 00d4 85F81E32 		strb	r3, [r5, #542]
 2391              	.LVL287:
 2392              	.LBB278:
 590:../Libraries/ROSSerial/ros/node_handle.h ****       chk += message_out[i];
 2393              		.loc 6 590 0
 2394 00d8 0522     		movs	r2, #5
 2395              	.LVL288:
 2396              	.L139:
 2397 00da C11D     		adds	r1, r0, #7
 2398 00dc 9142     		cmp	r1, r2
 2399 00de 05DD     		ble	.L138
 591:../Libraries/ROSSerial/ros/node_handle.h ****     l += 7;
 2400              		.loc 6 591 0
 2401 00e0 A918     		adds	r1, r5, r2
 2402 00e2 91F81812 		ldrb	r1, [r1, #536]	@ zero_extendqisi2
 2403 00e6 0B44     		add	r3, r3, r1
 2404              	.LVL289:
 590:../Libraries/ROSSerial/ros/node_handle.h ****       chk += message_out[i];
 2405              		.loc 6 590 0
 2406 00e8 0132     		adds	r2, r2, #1
 2407              	.LVL290:
 2408 00ea F6E7     		b	.L139
 2409              	.L138:
 2410              	.LVL291:
 2411              	.LBE278:
ARM GAS  /var/folders/l3/4y5292px21b4835bsnjwqc7w009kq1/T//ccNqrcnV.s 			page 77


 593:../Libraries/ROSSerial/ros/node_handle.h ****     //printf("Sending message - %s\n",message_out);
 2412              		.loc 6 593 0
 2413 00ec 5A42     		rsbs	r2, r3, #0
 2414              	.LVL292:
 2415 00ee DBB2     		uxtb	r3, r3
 2416              	.LVL293:
 2417 00f0 D2B2     		uxtb	r2, r2
 2418 00f2 58BF     		it	pl
 2419 00f4 5342     		rsbpl	r3, r2, #0
 2420 00f6 00F10802 		add	r2, r0, #8
 2421              	.LVL294:
 2422 00fa DB43     		mvns	r3, r3
 2423 00fc 2944     		add	r1, r1, r5
 2424 00fe 81F81832 		strb	r3, [r1, #536]
 595:../Libraries/ROSSerial/ros/node_handle.h ****     {
 2425              		.loc 6 595 0
 2426 0102 B2F5007F 		cmp	r2, #512
 2427 0106 06DC     		bgt	.L140
 2428              	.LVL295:
 2429              	.LBB279:
 2430              	.LBB280:
  87:../Libraries/ROSSerial/stm32hardware.h **** 	}
 2431              		.loc 8 87 0
 2432 0108 92B2     		uxth	r2, r2
 2433              	.LVL296:
 2434 010a 05F50671 		add	r1, r5, #536
 2435              	.LVL297:
 2436 010e 0020     		movs	r0, #0
 2437              	.LVL298:
 2438 0110 FFF7FEFF 		bl	comSendBuf
 2439              	.LVL299:
 2440 0114 B7E7     		b	.L137
 2441              	.LVL300:
 2442              	.L140:
 2443              	.LBE280:
 2444              	.LBE279:
 2445              	.LBB281:
 2446              	.LBB282:
 2447              	.LBB283:
 2448              	.LBB284:
 2449              	.LBB285:
  13:../Libraries/ROSSerial/rosserial_msgs/Log.h ****   {
 2450              		.loc 3 13 0
 2451 0116 074B     		ldr	r3, .L143+4
 2452 0118 0493     		str	r3, [sp, #16]
 2453              	.LVL301:
 2454              	.LBE285:
 2455              	.LBE284:
 615:../Libraries/ROSSerial/ros/node_handle.h ****     l.msg = (char*)msg;
 2456              		.loc 6 615 0
 2457 011a 0323     		movs	r3, #3
 2458 011c 8DF81430 		strb	r3, [sp, #20]
 616:../Libraries/ROSSerial/ros/node_handle.h ****     publish1(rosserial_msgs::TopicInfo::ID_LOG, &l);
 2459              		.loc 6 616 0
 2460 0120 054B     		ldr	r3, .L143+8
 2461 0122 0693     		str	r3, [sp, #24]
 2462              		.loc 6 617 0
ARM GAS  /var/folders/l3/4y5292px21b4835bsnjwqc7w009kq1/T//ccNqrcnV.s 			page 78


 2463 0124 04AA     		add	r2, sp, #16
 2464              	.LVL302:
 2465 0126 0721     		movs	r1, #7
 2466 0128 2846     		mov	r0, r5
 2467              	.LVL303:
 2468 012a FFF7FEFF 		bl	_ZN3ros11NodeHandle_I13STM32HardwareLi5ELi5ELi512ELi512EE8publish1EiPKNS_3MsgE
 2469              	.LVL304:
 2470 012e AAE7     		b	.L137
 2471              	.L144:
 2472              		.align	2
 2473              	.L143:
 2474 0130 08000000 		.word	_ZTVN8std_msgs4TimeE+8
 2475 0134 08000000 		.word	_ZTVN14rosserial_msgs3LogE+8
 2476 0138 00000000 		.word	.LC10
 2477              	.LBE283:
 2478              	.LBE282:
 2479              	.LBE281:
 2480              	.LBE277:
 2481              	.LBE276:
 2482              	.LBE273:
 2483              	.LBE272:
 2484              	.LBE271:
 2485              	.LBE286:
 2486              	.LBE289:
 2487              		.cfi_endproc
 2488              	.LFE509:
 2489              		.fnend
 2491              		.section	.text._ZN3ros11NodeHandle_I13STM32HardwareLi5ELi5ELi512ELi512EE15negotiateTopicsEv,"axG",
 2492              		.align	1
 2493              		.weak	_ZN3ros11NodeHandle_I13STM32HardwareLi5ELi5ELi512ELi512EE15negotiateTopicsEv
 2494              		.syntax unified
 2495              		.thumb
 2496              		.thumb_func
 2497              		.fpu fpv4-sp-d16
 2499              	_ZN3ros11NodeHandle_I13STM32HardwareLi5ELi5ELi512ELi512EE15negotiateTopicsEv:
 2500              		.fnstart
 2501              	.LFB513:
 527:../Libraries/ROSSerial/ros/node_handle.h ****   {
 2502              		.loc 6 527 0
 2503              		.cfi_startproc
 2504              		@ args = 0, pretend = 0, frame = 48
 2505              		@ frame_needed = 0, uses_anonymous_args = 0
 2506              	.LVL305:
 2507 0000 70B5     		push	{r4, r5, r6, lr}
 2508              		.save {r4, r5, r6, lr}
 2509              	.LCFI31:
 2510              		.cfi_def_cfa_offset 16
 2511              		.cfi_offset 4, -16
 2512              		.cfi_offset 5, -12
 2513              		.cfi_offset 6, -8
 2514              		.cfi_offset 14, -4
 2515              		.pad #48
 2516 0002 8CB0     		sub	sp, sp, #48
 2517              	.LCFI32:
 2518              		.cfi_def_cfa_offset 64
 2519 0004 0446     		mov	r4, r0
 2520              	.LVL306:
ARM GAS  /var/folders/l3/4y5292px21b4835bsnjwqc7w009kq1/T//ccNqrcnV.s 			page 79


 2521              	.LBB339:
 2522              	.LBB340:
  12:../Libraries/ROSSerial/rosserial_msgs/TopicInfo.h ****   {
 2523              		.loc 2 12 0
 2524 0006 B54B     		ldr	r3, .L170
 2525 0008 0693     		str	r3, [sp, #24]
 2526              	.LVL307:
 2527              	.LBE340:
 2528              	.LBE339:
 531:../Libraries/ROSSerial/ros/node_handle.h ****     {
 2529              		.loc 6 531 0
 2530 000a 0026     		movs	r6, #0
 2531 000c 14E0     		b	.L157
 2532              	.LVL308:
 2533              	.L150:
 2534              	.LBB341:
 2535              	.LBB342:
 593:../Libraries/ROSSerial/ros/node_handle.h ****     //printf("Sending message - %s\n",message_out);
 2536              		.loc 6 593 0
 2537 000e 4B42     		rsbs	r3, r1, #0
 2538              	.LVL309:
 2539 0010 C9B2     		uxtb	r1, r1
 2540              	.LVL310:
 2541 0012 DBB2     		uxtb	r3, r3
 2542 0014 58BF     		it	pl
 2543 0016 5942     		rsbpl	r1, r3, #0
 2544 0018 00F10802 		add	r2, r0, #8
 2545              	.LVL311:
 2546 001c C943     		mvns	r1, r1
 2547 001e 2544     		add	r5, r5, r4
 2548 0020 85F81812 		strb	r1, [r5, #536]
 595:../Libraries/ROSSerial/ros/node_handle.h ****     {
 2549              		.loc 6 595 0
 2550 0024 B2F5007F 		cmp	r2, #512
 2551 0028 57DC     		bgt	.L152
 2552              	.LVL312:
 2553              	.LBB343:
 2554              	.LBB344:
  87:../Libraries/ROSSerial/stm32hardware.h **** 	}
 2555              		.loc 8 87 0
 2556 002a 92B2     		uxth	r2, r2
 2557              	.LVL313:
 2558 002c 04F50671 		add	r1, r4, #536
 2559              	.LVL314:
 2560 0030 0020     		movs	r0, #0
 2561              	.LVL315:
 2562 0032 FFF7FEFF 		bl	comSendBuf
 2563              	.LVL316:
 2564              	.L147:
 2565              	.LBE344:
 2566              	.LBE343:
 2567              	.LBE342:
 2568              	.LBE341:
 531:../Libraries/ROSSerial/ros/node_handle.h ****     {
 2569              		.loc 6 531 0 discriminator 2
 2570 0036 0136     		adds	r6, r6, #1
 2571              	.LVL317:
ARM GAS  /var/folders/l3/4y5292px21b4835bsnjwqc7w009kq1/T//ccNqrcnV.s 			page 80


 2572              	.L157:
 531:../Libraries/ROSSerial/ros/node_handle.h ****     {
 2573              		.loc 6 531 0 is_stmt 0 discriminator 1
 2574 0038 042E     		cmp	r6, #4
 2575 003a 00F39E80 		bgt	.L168
 533:../Libraries/ROSSerial/ros/node_handle.h ****       {
 2576              		.loc 6 533 0 is_stmt 1
 2577 003e 06F58373 		add	r3, r6, #262
 2578 0042 54F82330 		ldr	r3, [r4, r3, lsl #2]
 2579 0046 002B     		cmp	r3, #0
 2580 0048 F5D0     		beq	.L147
 535:../Libraries/ROSSerial/ros/node_handle.h ****         ti.topic_name = (char *) publishers[i]->topic_;
 2581              		.loc 6 535 0
 2582 004a 9A68     		ldr	r2, [r3, #8]
 2583 004c ADF81C20 		strh	r2, [sp, #28]	@ movhi
 536:../Libraries/ROSSerial/ros/node_handle.h ****         ti.message_type = (char *) publishers[i]->msg_->getType();
 2584              		.loc 6 536 0
 2585 0050 1A68     		ldr	r2, [r3]
 2586 0052 0892     		str	r2, [sp, #32]
 537:../Libraries/ROSSerial/ros/node_handle.h ****         ti.md5sum = (char *) publishers[i]->msg_->getMD5();
 2587              		.loc 6 537 0
 2588 0054 5868     		ldr	r0, [r3, #4]
 2589 0056 0368     		ldr	r3, [r0]
 2590 0058 9B68     		ldr	r3, [r3, #8]
 2591 005a 9847     		blx	r3
 2592              	.LVL318:
 2593 005c 0990     		str	r0, [sp, #36]
 538:../Libraries/ROSSerial/ros/node_handle.h ****         ti.buffer_size = OUTPUT_SIZE;
 2594              		.loc 6 538 0
 2595 005e 06F58375 		add	r5, r6, #262
 2596 0062 54F82530 		ldr	r3, [r4, r5, lsl #2]
 2597 0066 5868     		ldr	r0, [r3, #4]
 2598 0068 0368     		ldr	r3, [r0]
 2599 006a DB68     		ldr	r3, [r3, #12]
 2600 006c 9847     		blx	r3
 2601              	.LVL319:
 2602 006e 0A90     		str	r0, [sp, #40]
 539:../Libraries/ROSSerial/ros/node_handle.h ****         publish1(publishers[i]->getEndpointType(), &ti);
 2603              		.loc 6 539 0
 2604 0070 4FF40073 		mov	r3, #512
 2605 0074 0B93     		str	r3, [sp, #44]
 540:../Libraries/ROSSerial/ros/node_handle.h ****       }
 2606              		.loc 6 540 0
 2607 0076 54F82530 		ldr	r3, [r4, r5, lsl #2]
 2608              	.LVL320:
 2609              	.LBB363:
 2610              	.LBB364:
 2611              		.file 10 "../Libraries/ROSSerial/ros/publisher.h"
   1:../Libraries/ROSSerial/ros/publisher.h **** /*
   2:../Libraries/ROSSerial/ros/publisher.h ****  * Software License Agreement (BSD License)
   3:../Libraries/ROSSerial/ros/publisher.h ****  *
   4:../Libraries/ROSSerial/ros/publisher.h ****  * Copyright (c) 2011, Willow Garage, Inc.
   5:../Libraries/ROSSerial/ros/publisher.h ****  * All rights reserved.
   6:../Libraries/ROSSerial/ros/publisher.h ****  *
   7:../Libraries/ROSSerial/ros/publisher.h ****  * Redistribution and use in source and binary forms, with or without
   8:../Libraries/ROSSerial/ros/publisher.h ****  * modification, are permitted provided that the following conditions
   9:../Libraries/ROSSerial/ros/publisher.h ****  * are met:
ARM GAS  /var/folders/l3/4y5292px21b4835bsnjwqc7w009kq1/T//ccNqrcnV.s 			page 81


  10:../Libraries/ROSSerial/ros/publisher.h ****  *
  11:../Libraries/ROSSerial/ros/publisher.h ****  *  * Redistributions of source code must retain the above copyright
  12:../Libraries/ROSSerial/ros/publisher.h ****  *    notice, this list of conditions and the following disclaimer.
  13:../Libraries/ROSSerial/ros/publisher.h ****  *  * Redistributions in binary form must reproduce the above
  14:../Libraries/ROSSerial/ros/publisher.h ****  *    copyright notice, this list of conditions and the following
  15:../Libraries/ROSSerial/ros/publisher.h ****  *    disclaimer in the documentation and/or other materials provided
  16:../Libraries/ROSSerial/ros/publisher.h ****  *    with the distribution.
  17:../Libraries/ROSSerial/ros/publisher.h ****  *  * Neither the name of Willow Garage, Inc. nor the names of its
  18:../Libraries/ROSSerial/ros/publisher.h ****  *    contributors may be used to endorse or promote prducts derived
  19:../Libraries/ROSSerial/ros/publisher.h ****  *    from this software without specific prior written permission.
  20:../Libraries/ROSSerial/ros/publisher.h ****  *
  21:../Libraries/ROSSerial/ros/publisher.h ****  * THIS SOFTWARE IS PROVIDED BY THE COPYRIGHT HOLDERS AND CONTRIBUTORS
  22:../Libraries/ROSSerial/ros/publisher.h ****  * "AS IS" AND ANY EXPRESS OR IMPLIED WARRANTIES, INCLUDING, BUT NOT
  23:../Libraries/ROSSerial/ros/publisher.h ****  * LIMITED TO, THE IMPLIED WARRANTIES OF MERCHANTABILITY AND FITNESS
  24:../Libraries/ROSSerial/ros/publisher.h ****  * FOR A PARTICULAR PURPOSE ARE DISCLAIMED. IN NO EVENT SHALL THE
  25:../Libraries/ROSSerial/ros/publisher.h ****  * COPYRIGHT OWNER OR CONTRIBUTORS BE LIABLE FOR ANY DIRECT, INDIRECT,
  26:../Libraries/ROSSerial/ros/publisher.h ****  * INCIDENTAL, SPECIAL, EXEMPLARY, OR CONSEQUENTIAL DAMAGES (INCLUDING,
  27:../Libraries/ROSSerial/ros/publisher.h ****  * BUT NOT LIMITED TO, PROCUREMENT OF SUBSTITUTE GOODS OR SERVICES;
  28:../Libraries/ROSSerial/ros/publisher.h ****  * LOSS OF USE, DATA, OR PROFITS; OR BUSINESS INTERRUPTION) HOWEVER
  29:../Libraries/ROSSerial/ros/publisher.h ****  * CAUSED AND ON ANY THEORY OF LIABILITY, WHETHER IN CONTRACT, STRICT
  30:../Libraries/ROSSerial/ros/publisher.h ****  * LIABILITY, OR TORT (INCLUDING NEGLIGENCE OR OTHERWISE) ARISING IN
  31:../Libraries/ROSSerial/ros/publisher.h ****  * ANY WAY OUT OF THE USE OF THIS SOFTWARE, EVEN IF ADVISED OF THE
  32:../Libraries/ROSSerial/ros/publisher.h ****  * POSSIBILITY OF SUCH DAMAGE.
  33:../Libraries/ROSSerial/ros/publisher.h ****  */
  34:../Libraries/ROSSerial/ros/publisher.h **** 
  35:../Libraries/ROSSerial/ros/publisher.h **** #ifndef _ROS_PUBLISHER_H_
  36:../Libraries/ROSSerial/ros/publisher.h **** #define _ROS_PUBLISHER_H_
  37:../Libraries/ROSSerial/ros/publisher.h **** 
  38:../Libraries/ROSSerial/ros/publisher.h **** #include "rosserial_msgs/TopicInfo.h"
  39:../Libraries/ROSSerial/ros/publisher.h **** #include "ros/node_handle.h"
  40:../Libraries/ROSSerial/ros/publisher.h **** 
  41:../Libraries/ROSSerial/ros/publisher.h **** namespace ros
  42:../Libraries/ROSSerial/ros/publisher.h **** {
  43:../Libraries/ROSSerial/ros/publisher.h **** 
  44:../Libraries/ROSSerial/ros/publisher.h **** /* Generic Publisher */
  45:../Libraries/ROSSerial/ros/publisher.h **** class Publisher
  46:../Libraries/ROSSerial/ros/publisher.h **** {
  47:../Libraries/ROSSerial/ros/publisher.h **** public:
  48:../Libraries/ROSSerial/ros/publisher.h ****   Publisher(const char * topic_name, Msg * msg, int endpoint = rosserial_msgs::TopicInfo::ID_PUBLIS
  49:../Libraries/ROSSerial/ros/publisher.h ****     topic_(topic_name),
  50:../Libraries/ROSSerial/ros/publisher.h ****     msg_(msg),
  51:../Libraries/ROSSerial/ros/publisher.h ****     endpoint_(endpoint) {};
  52:../Libraries/ROSSerial/ros/publisher.h **** 
  53:../Libraries/ROSSerial/ros/publisher.h ****   int publish(const Msg * msg)
  54:../Libraries/ROSSerial/ros/publisher.h ****   {
  55:../Libraries/ROSSerial/ros/publisher.h ****     //printf("nh_ = %x, id_ = %d, chatter publishing %s\n",nh_, id_,msg->getType());
  56:../Libraries/ROSSerial/ros/publisher.h ****     return nh_->publish(id_, msg); //this doesn't work so moved to publish_task
  57:../Libraries/ROSSerial/ros/publisher.h ****   };
  58:../Libraries/ROSSerial/ros/publisher.h **** 
  59:../Libraries/ROSSerial/ros/publisher.h ****   int getEndpointType()
  60:../Libraries/ROSSerial/ros/publisher.h ****   {
  61:../Libraries/ROSSerial/ros/publisher.h ****     return endpoint_;
 2612              		.loc 10 61 0
 2613 007a 1D69     		ldr	r5, [r3, #16]
 2614              	.LVL321:
 2615              	.LBE364:
 2616              	.LBE363:
ARM GAS  /var/folders/l3/4y5292px21b4835bsnjwqc7w009kq1/T//ccNqrcnV.s 			page 82


 2617              	.LBB365:
 2618              	.LBB362:
 573:../Libraries/ROSSerial/ros/node_handle.h ****       return 0;
 2619              		.loc 6 573 0
 2620 007c 632D     		cmp	r5, #99
 2621 007e 03DD     		ble	.L148
 2622 0080 94F8B834 		ldrb	r3, [r4, #1208]	@ zero_extendqisi2
 2623 0084 002B     		cmp	r3, #0
 2624 0086 D6D0     		beq	.L147
 2625              	.L148:
 577:../Libraries/ROSSerial/ros/node_handle.h **** 
 2626              		.loc 6 577 0
 2627 0088 069B     		ldr	r3, [sp, #24]
 2628 008a 1B68     		ldr	r3, [r3]
 2629 008c 04F21F21 		addw	r1, r4, #543
 2630 0090 06A8     		add	r0, sp, #24
 2631              	.LVL322:
 2632 0092 9847     		blx	r3
 2633              	.LVL323:
 580:../Libraries/ROSSerial/ros/node_handle.h ****     message_out[1] = PROTOCOL_VER;
 2634              		.loc 6 580 0
 2635 0094 FF23     		movs	r3, #255
 2636 0096 84F81832 		strb	r3, [r4, #536]
 581:../Libraries/ROSSerial/ros/node_handle.h ****     message_out[2] = (uint8_t)((uint16_t)l & 255);
 2637              		.loc 6 581 0
 2638 009a FE23     		movs	r3, #254
 2639 009c 84F81932 		strb	r3, [r4, #537]
 582:../Libraries/ROSSerial/ros/node_handle.h ****     message_out[3] = (uint8_t)((uint16_t)l >> 8);
 2640              		.loc 6 582 0
 2641 00a0 C3B2     		uxtb	r3, r0
 2642 00a2 84F81A32 		strb	r3, [r4, #538]
 583:../Libraries/ROSSerial/ros/node_handle.h ****     message_out[4] = 255 - ((message_out[2] + message_out[3]) % 256);
 2643              		.loc 6 583 0
 2644 00a6 C0F30722 		ubfx	r2, r0, #8, #8
 2645 00aa 84F81B22 		strb	r2, [r4, #539]
 584:../Libraries/ROSSerial/ros/node_handle.h ****     message_out[5] = (uint8_t)((int16_t)id & 255);
 2646              		.loc 6 584 0
 2647 00ae 1344     		add	r3, r3, r2
 2648 00b0 DBB2     		uxtb	r3, r3
 2649 00b2 DB43     		mvns	r3, r3
 2650 00b4 84F81C32 		strb	r3, [r4, #540]
 585:../Libraries/ROSSerial/ros/node_handle.h ****     message_out[6] = (uint8_t)((int16_t)id >> 8);
 2651              		.loc 6 585 0
 2652 00b8 84F81D52 		strb	r5, [r4, #541]
 586:../Libraries/ROSSerial/ros/node_handle.h **** 
 2653              		.loc 6 586 0
 2654 00bc 45F30725 		sbfx	r5, r5, #8, #8
 2655              	.LVL324:
 2656 00c0 84F81E52 		strb	r5, [r4, #542]
 2657              	.LVL325:
 2658              	.LBB345:
 590:../Libraries/ROSSerial/ros/node_handle.h ****       chk += message_out[i];
 2659              		.loc 6 590 0
 2660 00c4 0523     		movs	r3, #5
 2661              	.LBE345:
 589:../Libraries/ROSSerial/ros/node_handle.h ****     for (int i = 5; i < l + 7; i++)
 2662              		.loc 6 589 0
ARM GAS  /var/folders/l3/4y5292px21b4835bsnjwqc7w009kq1/T//ccNqrcnV.s 			page 83


 2663 00c6 0021     		movs	r1, #0
 2664              	.LVL326:
 2665              	.L151:
 2666              	.LBB346:
 590:../Libraries/ROSSerial/ros/node_handle.h ****       chk += message_out[i];
 2667              		.loc 6 590 0
 2668 00c8 C51D     		adds	r5, r0, #7
 2669 00ca 9D42     		cmp	r5, r3
 2670 00cc 9FDD     		ble	.L150
 591:../Libraries/ROSSerial/ros/node_handle.h ****     l += 7;
 2671              		.loc 6 591 0
 2672 00ce E218     		adds	r2, r4, r3
 2673 00d0 92F81822 		ldrb	r2, [r2, #536]	@ zero_extendqisi2
 2674 00d4 1144     		add	r1, r1, r2
 2675              	.LVL327:
 590:../Libraries/ROSSerial/ros/node_handle.h ****       chk += message_out[i];
 2676              		.loc 6 590 0
 2677 00d6 0133     		adds	r3, r3, #1
 2678              	.LVL328:
 2679 00d8 F6E7     		b	.L151
 2680              	.LVL329:
 2681              	.L152:
 2682              	.LBE346:
 2683              	.LBB347:
 2684              	.LBB348:
 2685              	.LBB349:
 2686              	.LBB350:
 2687              	.LBB351:
  13:../Libraries/ROSSerial/rosserial_msgs/Log.h ****   {
 2688              		.loc 3 13 0
 2689 00da 814B     		ldr	r3, .L170+4
 2690 00dc 0093     		str	r3, [sp]
 2691              	.LVL330:
 2692              	.LBE351:
 2693              	.LBE350:
 615:../Libraries/ROSSerial/ros/node_handle.h ****     l.msg = (char*)msg;
 2694              		.loc 6 615 0
 2695 00de 0322     		movs	r2, #3
 2696              	.LVL331:
 2697 00e0 8DF80420 		strb	r2, [sp, #4]
 616:../Libraries/ROSSerial/ros/node_handle.h ****     publish1(rosserial_msgs::TopicInfo::ID_LOG, &l);
 2698              		.loc 6 616 0
 2699 00e4 7F4A     		ldr	r2, .L170+8
 2700 00e6 0292     		str	r2, [sp, #8]
 2701              	.LVL332:
 2702              	.LBB352:
 2703              	.LBB353:
 577:../Libraries/ROSSerial/ros/node_handle.h **** 
 2704              		.loc 6 577 0
 2705 00e8 1B68     		ldr	r3, [r3]
 2706 00ea 04F21F21 		addw	r1, r4, #543
 2707 00ee 6846     		mov	r0, sp
 2708              	.LVL333:
 2709 00f0 9847     		blx	r3
 2710              	.LVL334:
 580:../Libraries/ROSSerial/ros/node_handle.h ****     message_out[1] = PROTOCOL_VER;
 2711              		.loc 6 580 0
ARM GAS  /var/folders/l3/4y5292px21b4835bsnjwqc7w009kq1/T//ccNqrcnV.s 			page 84


 2712 00f2 FF23     		movs	r3, #255
 2713 00f4 84F81832 		strb	r3, [r4, #536]
 581:../Libraries/ROSSerial/ros/node_handle.h ****     message_out[2] = (uint8_t)((uint16_t)l & 255);
 2714              		.loc 6 581 0
 2715 00f8 FE23     		movs	r3, #254
 2716 00fa 84F81932 		strb	r3, [r4, #537]
 582:../Libraries/ROSSerial/ros/node_handle.h ****     message_out[3] = (uint8_t)((uint16_t)l >> 8);
 2717              		.loc 6 582 0
 2718 00fe C3B2     		uxtb	r3, r0
 2719 0100 84F81A32 		strb	r3, [r4, #538]
 583:../Libraries/ROSSerial/ros/node_handle.h ****     message_out[4] = 255 - ((message_out[2] + message_out[3]) % 256);
 2720              		.loc 6 583 0
 2721 0104 C0F30722 		ubfx	r2, r0, #8, #8
 2722 0108 84F81B22 		strb	r2, [r4, #539]
 584:../Libraries/ROSSerial/ros/node_handle.h ****     message_out[5] = (uint8_t)((int16_t)id & 255);
 2723              		.loc 6 584 0
 2724 010c 1344     		add	r3, r3, r2
 2725 010e DBB2     		uxtb	r3, r3
 2726 0110 DB43     		mvns	r3, r3
 2727 0112 84F81C32 		strb	r3, [r4, #540]
 585:../Libraries/ROSSerial/ros/node_handle.h ****     message_out[6] = (uint8_t)((int16_t)id >> 8);
 2728              		.loc 6 585 0
 2729 0116 0723     		movs	r3, #7
 2730 0118 84F81D32 		strb	r3, [r4, #541]
 586:../Libraries/ROSSerial/ros/node_handle.h **** 
 2731              		.loc 6 586 0
 2732 011c 0023     		movs	r3, #0
 2733 011e 84F81E32 		strb	r3, [r4, #542]
 2734              	.LVL335:
 2735              	.LBB354:
 590:../Libraries/ROSSerial/ros/node_handle.h ****       chk += message_out[i];
 2736              		.loc 6 590 0
 2737 0122 0522     		movs	r2, #5
 2738              	.LVL336:
 2739              	.L154:
 2740 0124 C11D     		adds	r1, r0, #7
 2741 0126 9142     		cmp	r1, r2
 2742 0128 05DD     		ble	.L153
 591:../Libraries/ROSSerial/ros/node_handle.h ****     l += 7;
 2743              		.loc 6 591 0
 2744 012a A118     		adds	r1, r4, r2
 2745 012c 91F81812 		ldrb	r1, [r1, #536]	@ zero_extendqisi2
 2746 0130 0B44     		add	r3, r3, r1
 2747              	.LVL337:
 590:../Libraries/ROSSerial/ros/node_handle.h ****       chk += message_out[i];
 2748              		.loc 6 590 0
 2749 0132 0132     		adds	r2, r2, #1
 2750              	.LVL338:
 2751 0134 F6E7     		b	.L154
 2752              	.L153:
 2753              	.LVL339:
 2754              	.LBE354:
 593:../Libraries/ROSSerial/ros/node_handle.h ****     //printf("Sending message - %s\n",message_out);
 2755              		.loc 6 593 0
 2756 0136 5A42     		rsbs	r2, r3, #0
 2757              	.LVL340:
 2758 0138 DBB2     		uxtb	r3, r3
ARM GAS  /var/folders/l3/4y5292px21b4835bsnjwqc7w009kq1/T//ccNqrcnV.s 			page 85


 2759              	.LVL341:
 2760 013a D2B2     		uxtb	r2, r2
 2761 013c 58BF     		it	pl
 2762 013e 5342     		rsbpl	r3, r2, #0
 2763 0140 00F10802 		add	r2, r0, #8
 2764              	.LVL342:
 2765 0144 DB43     		mvns	r3, r3
 2766 0146 2144     		add	r1, r1, r4
 2767 0148 81F81832 		strb	r3, [r1, #536]
 595:../Libraries/ROSSerial/ros/node_handle.h ****     {
 2768              		.loc 6 595 0
 2769 014c B2F5007F 		cmp	r2, #512
 2770 0150 06DC     		bgt	.L155
 2771              	.LVL343:
 2772              	.LBB355:
 2773              	.LBB356:
  87:../Libraries/ROSSerial/stm32hardware.h **** 	}
 2774              		.loc 8 87 0
 2775 0152 92B2     		uxth	r2, r2
 2776              	.LVL344:
 2777 0154 04F50671 		add	r1, r4, #536
 2778              	.LVL345:
 2779 0158 0020     		movs	r0, #0
 2780              	.LVL346:
 2781 015a FFF7FEFF 		bl	comSendBuf
 2782              	.LVL347:
 2783 015e 6AE7     		b	.L147
 2784              	.LVL348:
 2785              	.L155:
 2786              	.LBE356:
 2787              	.LBE355:
 2788              	.LBB357:
 2789              	.LBB358:
 2790              	.LBB359:
 2791              	.LBB360:
 2792              	.LBB361:
  13:../Libraries/ROSSerial/rosserial_msgs/Log.h ****   {
 2793              		.loc 3 13 0
 2794 0160 5F4B     		ldr	r3, .L170+4
 2795 0162 0393     		str	r3, [sp, #12]
 2796              	.LVL349:
 2797              	.LBE361:
 2798              	.LBE360:
 615:../Libraries/ROSSerial/ros/node_handle.h ****     l.msg = (char*)msg;
 2799              		.loc 6 615 0
 2800 0164 0323     		movs	r3, #3
 2801 0166 8DF81030 		strb	r3, [sp, #16]
 616:../Libraries/ROSSerial/ros/node_handle.h ****     publish1(rosserial_msgs::TopicInfo::ID_LOG, &l);
 2802              		.loc 6 616 0
 2803 016a 5E4B     		ldr	r3, .L170+8
 2804 016c 0593     		str	r3, [sp, #20]
 2805              		.loc 6 617 0
 2806 016e 03AA     		add	r2, sp, #12
 2807              	.LVL350:
 2808 0170 0721     		movs	r1, #7
 2809 0172 2046     		mov	r0, r4
 2810              	.LVL351:
ARM GAS  /var/folders/l3/4y5292px21b4835bsnjwqc7w009kq1/T//ccNqrcnV.s 			page 86


 2811 0174 FFF7FEFF 		bl	_ZN3ros11NodeHandle_I13STM32HardwareLi5ELi5ELi512ELi512EE8publish1EiPKNS_3MsgE
 2812              	.LVL352:
 2813 0178 5DE7     		b	.L147
 2814              	.LVL353:
 2815              	.L168:
 2816              	.LBE359:
 2817              	.LBE358:
 2818              	.LBE357:
 2819              	.LBE353:
 2820              	.LBE352:
 2821              	.LBE349:
 2822              	.LBE348:
 2823              	.LBE347:
 2824              	.LBE362:
 2825              	.LBE365:
 543:../Libraries/ROSSerial/ros/node_handle.h ****     {
 2826              		.loc 6 543 0
 2827 017a 0025     		movs	r5, #0
 2828 017c 14E0     		b	.L146
 2829              	.LVL354:
 2830              	.L160:
 2831              	.LBB366:
 2832              	.LBB367:
 593:../Libraries/ROSSerial/ros/node_handle.h ****     //printf("Sending message - %s\n",message_out);
 2833              		.loc 6 593 0
 2834 017e 4B42     		rsbs	r3, r1, #0
 2835              	.LVL355:
 2836 0180 C9B2     		uxtb	r1, r1
 2837              	.LVL356:
 2838 0182 DBB2     		uxtb	r3, r3
 2839 0184 58BF     		it	pl
 2840 0186 5942     		rsbpl	r1, r3, #0
 2841 0188 00F10802 		add	r2, r0, #8
 2842              	.LVL357:
 2843 018c C943     		mvns	r1, r1
 2844 018e 2644     		add	r6, r6, r4
 2845 0190 86F81812 		strb	r1, [r6, #536]
 595:../Libraries/ROSSerial/ros/node_handle.h ****     {
 2846              		.loc 6 595 0
 2847 0194 B2F5007F 		cmp	r2, #512
 2848 0198 4BDC     		bgt	.L162
 2849              	.LVL358:
 2850              	.LBB368:
 2851              	.LBB369:
  87:../Libraries/ROSSerial/stm32hardware.h **** 	}
 2852              		.loc 8 87 0
 2853 019a 92B2     		uxth	r2, r2
 2854              	.LVL359:
 2855 019c 04F50671 		add	r1, r4, #536
 2856              	.LVL360:
 2857 01a0 0020     		movs	r0, #0
 2858              	.LVL361:
 2859 01a2 FFF7FEFF 		bl	comSendBuf
 2860              	.LVL362:
 2861              	.L159:
 2862              	.LBE369:
 2863              	.LBE368:
ARM GAS  /var/folders/l3/4y5292px21b4835bsnjwqc7w009kq1/T//ccNqrcnV.s 			page 87


 2864              	.LBE367:
 2865              	.LBE366:
 543:../Libraries/ROSSerial/ros/node_handle.h ****     {
 2866              		.loc 6 543 0 discriminator 2
 2867 01a6 0135     		adds	r5, r5, #1
 2868              	.LVL363:
 2869              	.L146:
 543:../Libraries/ROSSerial/ros/node_handle.h ****     {
 2870              		.loc 6 543 0 is_stmt 0 discriminator 1
 2871 01a8 042D     		cmp	r5, #4
 2872 01aa 00F39280 		bgt	.L158
 545:../Libraries/ROSSerial/ros/node_handle.h ****       {
 2873              		.loc 6 545 0 is_stmt 1
 2874 01ae 05EB8502 		add	r2, r5, r5, lsl #2
 2875 01b2 9300     		lsls	r3, r2, #2
 2876 01b4 2344     		add	r3, r3, r4
 2877 01b6 B3F84034 		ldrh	r3, [r3, #1088]
 2878 01ba 002B     		cmp	r3, #0
 2879 01bc F3D0     		beq	.L159
 554:../Libraries/ROSSerial/ros/node_handle.h ****         ti.topic_name = subscribers2[i].topic_name;
 2880              		.loc 6 554 0
 2881 01be ADF81C30 		strh	r3, [sp, #28]	@ movhi
 555:../Libraries/ROSSerial/ros/node_handle.h ****         ti.message_type = subscribers2[i].message_type;
 2882              		.loc 6 555 0
 2883 01c2 AA00     		lsls	r2, r5, #2
 2884 01c4 2A44     		add	r2, r2, r5
 2885 01c6 9300     		lsls	r3, r2, #2
 2886 01c8 2344     		add	r3, r3, r4
 2887 01ca D3F84424 		ldr	r2, [r3, #1092]
 2888 01ce 0892     		str	r2, [sp, #32]
 556:../Libraries/ROSSerial/ros/node_handle.h ****         ti.md5sum = subscribers2[i].md5sum;
 2889              		.loc 6 556 0
 2890 01d0 D3F84824 		ldr	r2, [r3, #1096]
 2891 01d4 0992     		str	r2, [sp, #36]
 557:../Libraries/ROSSerial/ros/node_handle.h ****         ti.buffer_size = INPUT_SIZE;
 2892              		.loc 6 557 0
 2893 01d6 D3F84C34 		ldr	r3, [r3, #1100]
 2894 01da 0A93     		str	r3, [sp, #40]
 558:../Libraries/ROSSerial/ros/node_handle.h ****         publish1(rosserial_msgs::TopicInfo::ID_SUBSCRIBER, &ti);
 2895              		.loc 6 558 0
 2896 01dc 4FF40073 		mov	r3, #512
 2897 01e0 0B93     		str	r3, [sp, #44]
 2898              	.LVL364:
 2899              	.LBB387:
 2900              	.LBB386:
 577:../Libraries/ROSSerial/ros/node_handle.h **** 
 2901              		.loc 6 577 0
 2902 01e2 069B     		ldr	r3, [sp, #24]
 2903 01e4 1B68     		ldr	r3, [r3]
 2904 01e6 04F21F21 		addw	r1, r4, #543
 2905 01ea 06A8     		add	r0, sp, #24
 2906              	.LVL365:
 2907 01ec 9847     		blx	r3
 2908              	.LVL366:
 580:../Libraries/ROSSerial/ros/node_handle.h ****     message_out[1] = PROTOCOL_VER;
 2909              		.loc 6 580 0
 2910 01ee FF23     		movs	r3, #255
ARM GAS  /var/folders/l3/4y5292px21b4835bsnjwqc7w009kq1/T//ccNqrcnV.s 			page 88


 2911 01f0 84F81832 		strb	r3, [r4, #536]
 581:../Libraries/ROSSerial/ros/node_handle.h ****     message_out[2] = (uint8_t)((uint16_t)l & 255);
 2912              		.loc 6 581 0
 2913 01f4 FE23     		movs	r3, #254
 2914 01f6 84F81932 		strb	r3, [r4, #537]
 582:../Libraries/ROSSerial/ros/node_handle.h ****     message_out[3] = (uint8_t)((uint16_t)l >> 8);
 2915              		.loc 6 582 0
 2916 01fa C3B2     		uxtb	r3, r0
 2917 01fc 84F81A32 		strb	r3, [r4, #538]
 583:../Libraries/ROSSerial/ros/node_handle.h ****     message_out[4] = 255 - ((message_out[2] + message_out[3]) % 256);
 2918              		.loc 6 583 0
 2919 0200 C0F30722 		ubfx	r2, r0, #8, #8
 2920 0204 84F81B22 		strb	r2, [r4, #539]
 584:../Libraries/ROSSerial/ros/node_handle.h ****     message_out[5] = (uint8_t)((int16_t)id & 255);
 2921              		.loc 6 584 0
 2922 0208 1344     		add	r3, r3, r2
 2923 020a DBB2     		uxtb	r3, r3
 2924 020c DB43     		mvns	r3, r3
 2925 020e 84F81C32 		strb	r3, [r4, #540]
 585:../Libraries/ROSSerial/ros/node_handle.h ****     message_out[6] = (uint8_t)((int16_t)id >> 8);
 2926              		.loc 6 585 0
 2927 0212 0123     		movs	r3, #1
 2928 0214 84F81D32 		strb	r3, [r4, #541]
 586:../Libraries/ROSSerial/ros/node_handle.h **** 
 2929              		.loc 6 586 0
 2930 0218 0021     		movs	r1, #0
 2931 021a 84F81E12 		strb	r1, [r4, #542]
 2932              	.LVL367:
 2933              	.LBB370:
 590:../Libraries/ROSSerial/ros/node_handle.h ****       chk += message_out[i];
 2934              		.loc 6 590 0
 2935 021e 0523     		movs	r3, #5
 2936              	.LVL368:
 2937              	.L161:
 2938 0220 C61D     		adds	r6, r0, #7
 2939 0222 9E42     		cmp	r6, r3
 2940 0224 ABDD     		ble	.L160
 591:../Libraries/ROSSerial/ros/node_handle.h ****     l += 7;
 2941              		.loc 6 591 0
 2942 0226 E218     		adds	r2, r4, r3
 2943 0228 92F81822 		ldrb	r2, [r2, #536]	@ zero_extendqisi2
 2944 022c 1144     		add	r1, r1, r2
 2945              	.LVL369:
 590:../Libraries/ROSSerial/ros/node_handle.h ****       chk += message_out[i];
 2946              		.loc 6 590 0
 2947 022e 0133     		adds	r3, r3, #1
 2948              	.LVL370:
 2949 0230 F6E7     		b	.L161
 2950              	.LVL371:
 2951              	.L162:
 2952              	.LBE370:
 2953              	.LBB371:
 2954              	.LBB372:
 2955              	.LBB373:
 2956              	.LBB374:
 2957              	.LBB375:
  13:../Libraries/ROSSerial/rosserial_msgs/Log.h ****   {
ARM GAS  /var/folders/l3/4y5292px21b4835bsnjwqc7w009kq1/T//ccNqrcnV.s 			page 89


 2958              		.loc 3 13 0
 2959 0232 2B4B     		ldr	r3, .L170+4
 2960 0234 0093     		str	r3, [sp]
 2961              	.LVL372:
 2962              	.LBE375:
 2963              	.LBE374:
 615:../Libraries/ROSSerial/ros/node_handle.h ****     l.msg = (char*)msg;
 2964              		.loc 6 615 0
 2965 0236 0322     		movs	r2, #3
 2966              	.LVL373:
 2967 0238 8DF80420 		strb	r2, [sp, #4]
 616:../Libraries/ROSSerial/ros/node_handle.h ****     publish1(rosserial_msgs::TopicInfo::ID_LOG, &l);
 2968              		.loc 6 616 0
 2969 023c 294A     		ldr	r2, .L170+8
 2970 023e 0292     		str	r2, [sp, #8]
 2971              	.LVL374:
 2972              	.LBB376:
 2973              	.LBB377:
 577:../Libraries/ROSSerial/ros/node_handle.h **** 
 2974              		.loc 6 577 0
 2975 0240 1B68     		ldr	r3, [r3]
 2976 0242 04F21F21 		addw	r1, r4, #543
 2977 0246 6846     		mov	r0, sp
 2978              	.LVL375:
 2979 0248 9847     		blx	r3
 2980              	.LVL376:
 580:../Libraries/ROSSerial/ros/node_handle.h ****     message_out[1] = PROTOCOL_VER;
 2981              		.loc 6 580 0
 2982 024a FF23     		movs	r3, #255
 2983 024c 84F81832 		strb	r3, [r4, #536]
 581:../Libraries/ROSSerial/ros/node_handle.h ****     message_out[2] = (uint8_t)((uint16_t)l & 255);
 2984              		.loc 6 581 0
 2985 0250 FE23     		movs	r3, #254
 2986 0252 84F81932 		strb	r3, [r4, #537]
 582:../Libraries/ROSSerial/ros/node_handle.h ****     message_out[3] = (uint8_t)((uint16_t)l >> 8);
 2987              		.loc 6 582 0
 2988 0256 C3B2     		uxtb	r3, r0
 2989 0258 84F81A32 		strb	r3, [r4, #538]
 583:../Libraries/ROSSerial/ros/node_handle.h ****     message_out[4] = 255 - ((message_out[2] + message_out[3]) % 256);
 2990              		.loc 6 583 0
 2991 025c C0F30722 		ubfx	r2, r0, #8, #8
 2992 0260 84F81B22 		strb	r2, [r4, #539]
 584:../Libraries/ROSSerial/ros/node_handle.h ****     message_out[5] = (uint8_t)((int16_t)id & 255);
 2993              		.loc 6 584 0
 2994 0264 1344     		add	r3, r3, r2
 2995 0266 DBB2     		uxtb	r3, r3
 2996 0268 DB43     		mvns	r3, r3
 2997 026a 84F81C32 		strb	r3, [r4, #540]
 585:../Libraries/ROSSerial/ros/node_handle.h ****     message_out[6] = (uint8_t)((int16_t)id >> 8);
 2998              		.loc 6 585 0
 2999 026e 0723     		movs	r3, #7
 3000 0270 84F81D32 		strb	r3, [r4, #541]
 586:../Libraries/ROSSerial/ros/node_handle.h **** 
 3001              		.loc 6 586 0
 3002 0274 0023     		movs	r3, #0
 3003 0276 84F81E32 		strb	r3, [r4, #542]
 3004              	.LVL377:
ARM GAS  /var/folders/l3/4y5292px21b4835bsnjwqc7w009kq1/T//ccNqrcnV.s 			page 90


 3005              	.LBB378:
 590:../Libraries/ROSSerial/ros/node_handle.h ****       chk += message_out[i];
 3006              		.loc 6 590 0
 3007 027a 0522     		movs	r2, #5
 3008              	.LVL378:
 3009              	.L165:
 3010 027c C11D     		adds	r1, r0, #7
 3011 027e 9142     		cmp	r1, r2
 3012 0280 05DD     		ble	.L164
 591:../Libraries/ROSSerial/ros/node_handle.h ****     l += 7;
 3013              		.loc 6 591 0
 3014 0282 A118     		adds	r1, r4, r2
 3015 0284 91F81812 		ldrb	r1, [r1, #536]	@ zero_extendqisi2
 3016 0288 0B44     		add	r3, r3, r1
 3017              	.LVL379:
 590:../Libraries/ROSSerial/ros/node_handle.h ****       chk += message_out[i];
 3018              		.loc 6 590 0
 3019 028a 0132     		adds	r2, r2, #1
 3020              	.LVL380:
 3021 028c F6E7     		b	.L165
 3022              	.L164:
 3023              	.LVL381:
 3024              	.LBE378:
 593:../Libraries/ROSSerial/ros/node_handle.h ****     //printf("Sending message - %s\n",message_out);
 3025              		.loc 6 593 0
 3026 028e 5A42     		rsbs	r2, r3, #0
 3027              	.LVL382:
 3028 0290 DBB2     		uxtb	r3, r3
 3029              	.LVL383:
 3030 0292 D2B2     		uxtb	r2, r2
 3031 0294 58BF     		it	pl
 3032 0296 5342     		rsbpl	r3, r2, #0
 3033 0298 00F10802 		add	r2, r0, #8
 3034              	.LVL384:
 3035 029c DB43     		mvns	r3, r3
 3036 029e 2144     		add	r1, r1, r4
 3037 02a0 81F81832 		strb	r3, [r1, #536]
 595:../Libraries/ROSSerial/ros/node_handle.h ****     {
 3038              		.loc 6 595 0
 3039 02a4 B2F5007F 		cmp	r2, #512
 3040 02a8 06DC     		bgt	.L166
 3041              	.LVL385:
 3042              	.LBB379:
 3043              	.LBB380:
  87:../Libraries/ROSSerial/stm32hardware.h **** 	}
 3044              		.loc 8 87 0
 3045 02aa 92B2     		uxth	r2, r2
 3046              	.LVL386:
 3047 02ac 04F50671 		add	r1, r4, #536
 3048              	.LVL387:
 3049 02b0 0020     		movs	r0, #0
 3050              	.LVL388:
 3051 02b2 FFF7FEFF 		bl	comSendBuf
 3052              	.LVL389:
 3053 02b6 76E7     		b	.L159
 3054              	.LVL390:
 3055              	.L166:
ARM GAS  /var/folders/l3/4y5292px21b4835bsnjwqc7w009kq1/T//ccNqrcnV.s 			page 91


 3056              	.LBE380:
 3057              	.LBE379:
 3058              	.LBB381:
 3059              	.LBB382:
 3060              	.LBB383:
 3061              	.LBB384:
 3062              	.LBB385:
  13:../Libraries/ROSSerial/rosserial_msgs/Log.h ****   {
 3063              		.loc 3 13 0
 3064 02b8 094B     		ldr	r3, .L170+4
 3065 02ba 0393     		str	r3, [sp, #12]
 3066              	.LVL391:
 3067              	.LBE385:
 3068              	.LBE384:
 615:../Libraries/ROSSerial/ros/node_handle.h ****     l.msg = (char*)msg;
 3069              		.loc 6 615 0
 3070 02bc 0323     		movs	r3, #3
 3071 02be 8DF81030 		strb	r3, [sp, #16]
 616:../Libraries/ROSSerial/ros/node_handle.h ****     publish1(rosserial_msgs::TopicInfo::ID_LOG, &l);
 3072              		.loc 6 616 0
 3073 02c2 084B     		ldr	r3, .L170+8
 3074 02c4 0593     		str	r3, [sp, #20]
 3075              		.loc 6 617 0
 3076 02c6 03AA     		add	r2, sp, #12
 3077              	.LVL392:
 3078 02c8 0721     		movs	r1, #7
 3079 02ca 2046     		mov	r0, r4
 3080              	.LVL393:
 3081 02cc FFF7FEFF 		bl	_ZN3ros11NodeHandle_I13STM32HardwareLi5ELi5ELi512ELi512EE8publish1EiPKNS_3MsgE
 3082              	.LVL394:
 3083 02d0 69E7     		b	.L159
 3084              	.LVL395:
 3085              	.L158:
 3086              	.LBE383:
 3087              	.LBE382:
 3088              	.LBE381:
 3089              	.LBE377:
 3090              	.LBE376:
 3091              	.LBE373:
 3092              	.LBE372:
 3093              	.LBE371:
 3094              	.LBE386:
 3095              	.LBE387:
 562:../Libraries/ROSSerial/ros/node_handle.h ****   }
 3096              		.loc 6 562 0
 3097 02d2 0123     		movs	r3, #1
 3098 02d4 84F8B834 		strb	r3, [r4, #1208]
 563:../Libraries/ROSSerial/ros/node_handle.h **** 
 3099              		.loc 6 563 0
 3100 02d8 0CB0     		add	sp, sp, #48
 3101              	.LCFI33:
 3102              		.cfi_def_cfa_offset 16
 3103              		@ sp needed
 3104 02da 70BD     		pop	{r4, r5, r6, pc}
 3105              	.LVL396:
 3106              	.L171:
 3107              		.align	2
ARM GAS  /var/folders/l3/4y5292px21b4835bsnjwqc7w009kq1/T//ccNqrcnV.s 			page 92


 3108              	.L170:
 3109 02dc 08000000 		.word	_ZTVN14rosserial_msgs9TopicInfoE+8
 3110 02e0 08000000 		.word	_ZTVN14rosserial_msgs3LogE+8
 3111 02e4 00000000 		.word	.LC10
 3112              		.cfi_endproc
 3113              	.LFE513:
 3114              		.fnend
 3116              		.section	.text._ZN3ros11NodeHandle_I13STM32HardwareLi5ELi5ELi512ELi512EE8spinOnceEv,"axG",%progbit
 3117              		.align	1
 3118              		.weak	_ZN3ros11NodeHandle_I13STM32HardwareLi5ELi5ELi512ELi512EE8spinOnceEv
 3119              		.syntax unified
 3120              		.thumb
 3121              		.thumb_func
 3122              		.fpu fpv4-sp-d16
 3124              	_ZN3ros11NodeHandle_I13STM32HardwareLi5ELi5ELi512ELi512EE8spinOnceEv:
 3125              		.fnstart
 3126              	.LFB504:
 231:../Libraries/ROSSerial/ros/node_handle.h ****     return spinOnce1();
 3127              		.loc 6 231 0
 3128              		.cfi_startproc
 3129              		@ args = 0, pretend = 0, frame = 24
 3130              		@ frame_needed = 0, uses_anonymous_args = 0
 3131              	.LVL397:
 3132 0000 2DE9F043 		push	{r4, r5, r6, r7, r8, r9, lr}
 3133              		.save {r4, r5, r6, r7, r8, r9, lr}
 3134              	.LCFI34:
 3135              		.cfi_def_cfa_offset 28
 3136              		.cfi_offset 4, -28
 3137              		.cfi_offset 5, -24
 3138              		.cfi_offset 6, -20
 3139              		.cfi_offset 7, -16
 3140              		.cfi_offset 8, -12
 3141              		.cfi_offset 9, -8
 3142              		.cfi_offset 14, -4
 3143              		.pad #28
 3144 0004 87B0     		sub	sp, sp, #28
 3145              	.LCFI35:
 3146              		.cfi_def_cfa_offset 56
 3147 0006 0446     		mov	r4, r0
 3148              	.LVL398:
 3149              	.LBB468:
 3150              	.LBB469:
 3151              	.LBB470:
 3152              	.LBB471:
 3153              		.loc 8 99 0
 3154 0008 FFF7FEFF 		bl	xTaskGetTickCount
 3155              	.LVL399:
 3156 000c 0546     		mov	r5, r0
 3157              	.LVL400:
 3158              	.LBE471:
 3159              	.LBE470:
 245:../Libraries/ROSSerial/ros/node_handle.h ****     {
 3160              		.loc 6 245 0
 3161 000e D4F8C034 		ldr	r3, [r4, #1216]
 3162 0012 C31A     		subs	r3, r0, r3
 3163 0014 42F6F822 		movw	r2, #11000
 3164 0018 9342     		cmp	r3, r2
ARM GAS  /var/folders/l3/4y5292px21b4835bsnjwqc7w009kq1/T//ccNqrcnV.s 			page 93


 3165 001a 02D9     		bls	.L173
 247:../Libraries/ROSSerial/ros/node_handle.h ****     }
 3166              		.loc 6 247 0
 3167 001c 0023     		movs	r3, #0
 3168 001e 84F8B834 		strb	r3, [r4, #1208]
 3169              	.L173:
 251:../Libraries/ROSSerial/ros/node_handle.h ****     {
 3170              		.loc 6 251 0
 3171 0022 D4F8A434 		ldr	r3, [r4, #1188]
 3172 0026 33B3     		cbz	r3, .L175
 253:../Libraries/ROSSerial/ros/node_handle.h ****       {
 3173              		.loc 6 253 0
 3174 0028 D4F8C434 		ldr	r3, [r4, #1220]
 3175 002c 9D42     		cmp	r5, r3
 3176 002e 22D9     		bls	.L175
 255:../Libraries/ROSSerial/ros/node_handle.h ****       }
 3177              		.loc 6 255 0
 3178 0030 0023     		movs	r3, #0
 3179 0032 C4F8A434 		str	r3, [r4, #1188]
 3180 0036 1EE0     		b	.L175
 3181              	.LVL401:
 3182              	.L219:
 384:../Libraries/ROSSerial/ros/node_handle.h ****     {
 3183              		.loc 6 384 0
 3184 0038 94F8B834 		ldrb	r3, [r4, #1208]	@ zero_extendqisi2
 3185 003c 002B     		cmp	r3, #0
 3186 003e 00F07B82 		beq	.L172
 3187 0042 D4F8BC34 		ldr	r3, [r4, #1212]
 3188 0046 EB1A     		subs	r3, r5, r3
 3189 0048 40F6C412 		movw	r2, #2500
 3190 004c 9342     		cmp	r3, r2
 3191 004e 00F21D82 		bhi	.L218
 390:../Libraries/ROSSerial/ros/node_handle.h ****   }
 3192              		.loc 6 390 0
 3193 0052 0020     		movs	r0, #0
 3194              	.LVL402:
 3195              	.LBE469:
 3196              	.LBE468:
 232:../Libraries/ROSSerial/ros/node_handle.h ****   }
 3197              		.loc 6 232 0
 3198 0054 70E2     		b	.L172
 3199              	.LVL403:
 3200              	.L220:
 3201              	.LBB555:
 3202              	.LBB554:
 3203              	.LBB472:
 281:../Libraries/ROSSerial/ros/node_handle.h ****         bytes_--;
 3204              		.loc 6 281 0
 3205 0056 D4F8B034 		ldr	r3, [r4, #1200]
 3206 005a 5A1C     		adds	r2, r3, #1
 3207 005c C4F8B024 		str	r2, [r4, #1200]
 3208 0060 2344     		add	r3, r3, r4
 3209 0062 1976     		strb	r1, [r3, #24]
 282:../Libraries/ROSSerial/ros/node_handle.h ****         if (bytes_ == 0)                 /* is message complete? if so, checksum */
 3210              		.loc 6 282 0
 3211 0064 D4F8A834 		ldr	r3, [r4, #1192]
 3212 0068 013B     		subs	r3, r3, #1
ARM GAS  /var/folders/l3/4y5292px21b4835bsnjwqc7w009kq1/T//ccNqrcnV.s 			page 94


 3213 006a C4F8A834 		str	r3, [r4, #1192]
 283:../Libraries/ROSSerial/ros/node_handle.h ****           mode_ = MODE_MSG_CHECKSUM;
 3214              		.loc 6 283 0
 3215 006e 13B9     		cbnz	r3, .L175
 284:../Libraries/ROSSerial/ros/node_handle.h ****       }
 3216              		.loc 6 284 0
 3217 0070 0823     		movs	r3, #8
 3218 0072 C4F8A434 		str	r3, [r4, #1188]
 3219              	.LVL404:
 3220              	.L175:
 263:../Libraries/ROSSerial/ros/node_handle.h ****       {
 3221              		.loc 6 263 0
 3222 0076 6369     		ldr	r3, [r4, #20]
 3223 0078 33B1     		cbz	r3, .L176
 3224              	.LVL405:
 3225              	.LBB473:
 3226              	.LBB474:
 3227              		.loc 8 99 0
 3228 007a FFF7FEFF 		bl	xTaskGetTickCount
 3229              	.LVL406:
 3230              	.LBE474:
 3231              	.LBE473:
 269:../Libraries/ROSSerial/ros/node_handle.h ****         {
 3232              		.loc 6 269 0
 3233 007e 401B     		subs	r0, r0, r5
 3234 0080 6369     		ldr	r3, [r4, #20]
 3235 0082 9842     		cmp	r0, r3
 3236 0084 00F25682 		bhi	.L215
 3237              	.L176:
 3238              	.LVL407:
 3239              	.LBB475:
 3240              	.LBB476:
  70:../Libraries/ROSSerial/stm32hardware.h **** 		if(comGetChar(COM1,&ucData) == 0) {
 3241              		.loc 8 70 0
 3242 0088 06A9     		add	r1, sp, #24
 3243 008a FF23     		movs	r3, #255
 3244 008c 01F80C3D 		strb	r3, [r1, #-12]!
  71:../Libraries/ROSSerial/stm32hardware.h **** 			return -1;
 3245              		.loc 8 71 0
 3246 0090 0020     		movs	r0, #0
 3247 0092 FFF7FEFF 		bl	comGetChar
 3248              	.LVL408:
 3249 0096 0028     		cmp	r0, #0
 3250 0098 CED0     		beq	.L219
  75:../Libraries/ROSSerial/stm32hardware.h **** 	}
 3251              		.loc 8 75 0
 3252 009a 9DF80C10 		ldrb	r1, [sp, #12]	@ zero_extendqisi2
 3253              	.LVL409:
 3254              	.LBE476:
 3255              	.LBE475:
 278:../Libraries/ROSSerial/ros/node_handle.h ****       if (mode_ == MODE_MESSAGE)          /* message data being recieved */
 3256              		.loc 6 278 0
 3257 009e D4F8B424 		ldr	r2, [r4, #1204]
 3258 00a2 0A44     		add	r2, r2, r1
 3259 00a4 C4F8B424 		str	r2, [r4, #1204]
 279:../Libraries/ROSSerial/ros/node_handle.h ****       {
 3260              		.loc 6 279 0
ARM GAS  /var/folders/l3/4y5292px21b4835bsnjwqc7w009kq1/T//ccNqrcnV.s 			page 95


 3261 00a8 D4F8A434 		ldr	r3, [r4, #1188]
 3262 00ac 072B     		cmp	r3, #7
 3263 00ae D2D0     		beq	.L220
 286:../Libraries/ROSSerial/ros/node_handle.h ****       {
 3264              		.loc 6 286 0
 3265 00b0 B3B9     		cbnz	r3, .L182
 288:../Libraries/ROSSerial/ros/node_handle.h ****         {
 3266              		.loc 6 288 0
 3267 00b2 FF29     		cmp	r1, #255
 3268 00b4 07D1     		bne	.L183
 290:../Libraries/ROSSerial/ros/node_handle.h ****           last_msg_timeout_time = c_time + SERIAL_MSG_TIMEOUT;
 3269              		.loc 6 290 0
 3270 00b6 0133     		adds	r3, r3, #1
 3271 00b8 C4F8A434 		str	r3, [r4, #1188]
 291:../Libraries/ROSSerial/ros/node_handle.h ****         }
 3272              		.loc 6 291 0
 3273 00bc 05F11403 		add	r3, r5, #20
 3274 00c0 C4F8C434 		str	r3, [r4, #1220]
 3275 00c4 D7E7     		b	.L175
 3276              	.L183:
 3277              	.LVL410:
 3278              	.LBB477:
 3279              	.LBB478:
 3280              		.loc 8 99 0
 3281 00c6 FFF7FEFF 		bl	xTaskGetTickCount
 3282              	.LVL411:
 3283              	.LBE478:
 3284              	.LBE477:
 293:../Libraries/ROSSerial/ros/node_handle.h ****         {
 3285              		.loc 6 293 0
 3286 00ca 401B     		subs	r0, r0, r5
 3287 00cc 41F28833 		movw	r3, #5000
 3288 00d0 9842     		cmp	r0, r3
 3289 00d2 D0D9     		bls	.L175
 296:../Libraries/ROSSerial/ros/node_handle.h ****           return SPIN_TIMEOUT;
 3290              		.loc 6 296 0
 3291 00d4 0023     		movs	r3, #0
 3292 00d6 84F8B834 		strb	r3, [r4, #1208]
 297:../Libraries/ROSSerial/ros/node_handle.h ****         }
 3293              		.loc 6 297 0
 3294 00da 6FF00100 		mvn	r0, #1
 3295 00de 2BE2     		b	.L172
 3296              	.LVL412:
 3297              	.L182:
 300:../Libraries/ROSSerial/ros/node_handle.h ****       {
 3298              		.loc 6 300 0
 3299 00e0 012B     		cmp	r3, #1
 3300 00e2 3DD0     		beq	.L221
 313:../Libraries/ROSSerial/ros/node_handle.h ****       {
 3301              		.loc 6 313 0
 3302 00e4 022B     		cmp	r3, #2
 3303 00e6 00F09980 		beq	.L222
 320:../Libraries/ROSSerial/ros/node_handle.h ****       {
 3304              		.loc 6 320 0
 3305 00ea 032B     		cmp	r3, #3
 3306 00ec 00F0A180 		beq	.L223
 325:../Libraries/ROSSerial/ros/node_handle.h ****       {
ARM GAS  /var/folders/l3/4y5292px21b4835bsnjwqc7w009kq1/T//ccNqrcnV.s 			page 96


 3307              		.loc 6 325 0
 3308 00f0 042B     		cmp	r3, #4
 3309 00f2 00F0A880 		beq	.L224
 332:../Libraries/ROSSerial/ros/node_handle.h ****       {
 3310              		.loc 6 332 0
 3311 00f6 052B     		cmp	r3, #5
 3312 00f8 00F0B480 		beq	.L225
 338:../Libraries/ROSSerial/ros/node_handle.h ****       {
 3313              		.loc 6 338 0
 3314 00fc 062B     		cmp	r3, #6
 3315 00fe 00F0B980 		beq	.L226
 345:../Libraries/ROSSerial/ros/node_handle.h ****       {
 3316              		.loc 6 345 0
 3317 0102 082B     		cmp	r3, #8
 3318 0104 B7D1     		bne	.L175
 347:../Libraries/ROSSerial/ros/node_handle.h ****         if ((checksum_ % 256) == 255)
 3319              		.loc 6 347 0
 3320 0106 0023     		movs	r3, #0
 3321 0108 C4F8A434 		str	r3, [r4, #1188]
 348:../Libraries/ROSSerial/ros/node_handle.h ****         {
 3322              		.loc 6 348 0
 3323 010c 9B1A     		subs	r3, r3, r2
 3324 010e D2B2     		uxtb	r2, r2
 3325 0110 DBB2     		uxtb	r3, r3
 3326 0112 58BF     		it	pl
 3327 0114 5A42     		rsbpl	r2, r3, #0
 3328 0116 FF2A     		cmp	r2, #255
 3329 0118 ADD1     		bne	.L175
 350:../Libraries/ROSSerial/ros/node_handle.h ****           {
 3330              		.loc 6 350 0
 3331 011a D4F8AC34 		ldr	r3, [r4, #1196]
 3332 011e 002B     		cmp	r3, #0
 3333 0120 00F0BA80 		beq	.L227
 358:../Libraries/ROSSerial/ros/node_handle.h ****           {
 3334              		.loc 6 358 0
 3335 0124 0A2B     		cmp	r3, #10
 3336 0126 00F0C480 		beq	.L228
 362:../Libraries/ROSSerial/ros/node_handle.h ****           {
 3337              		.loc 6 362 0
 3338 012a 062B     		cmp	r3, #6
 3339 012c 00F00681 		beq	.L229
 367:../Libraries/ROSSerial/ros/node_handle.h ****           {
 3340              		.loc 6 367 0
 3341 0130 0B2B     		cmp	r3, #11
 3342 0132 00F09881 		beq	.L230
 373:../Libraries/ROSSerial/ros/node_handle.h ****               //subscribers[topic_ - 100]->callback(message_in);
 3343              		.loc 6 373 0
 3344 0136 643B     		subs	r3, r3, #100
 3345 0138 03EB8302 		add	r2, r3, r3, lsl #2
 3346 013c 04EB8202 		add	r2, r4, r2, lsl #2
 3347 0140 B2F84024 		ldrh	r2, [r2, #1088]
 3348 0144 002A     		cmp	r2, #0
 3349 0146 96D0     		beq	.L175
 375:../Libraries/ROSSerial/ros/node_handle.h ****               s_CallBack(message_in);
 3350              		.loc 6 375 0
 3351 0148 03EB8303 		add	r3, r3, r3, lsl #2
 3352 014c 04EB8303 		add	r3, r4, r3, lsl #2
ARM GAS  /var/folders/l3/4y5292px21b4835bsnjwqc7w009kq1/T//ccNqrcnV.s 			page 97


 3353 0150 D3F85034 		ldr	r3, [r3, #1104]
 3354 0154 C64A     		ldr	r2, .L237
 3355 0156 1360     		str	r3, [r2]
 376:../Libraries/ROSSerial/ros/node_handle.h ****             }
 3356              		.loc 6 376 0
 3357 0158 04F11800 		add	r0, r4, #24
 3358 015c 9847     		blx	r3
 3359              	.LVL413:
 3360 015e 8AE7     		b	.L175
 3361              	.LVL414:
 3362              	.L221:
 302:../Libraries/ROSSerial/ros/node_handle.h ****         {
 3363              		.loc 6 302 0
 3364 0160 FE29     		cmp	r1, #254
 3365 0162 32D0     		beq	.L231
 308:../Libraries/ROSSerial/ros/node_handle.h ****           if (configured_ == false)
 3366              		.loc 6 308 0
 3367 0164 0023     		movs	r3, #0
 3368 0166 C4F8A434 		str	r3, [r4, #1188]
 309:../Libraries/ROSSerial/ros/node_handle.h ****             requestSyncTime();  /* send a msg back showing our protocol version */
 3369              		.loc 6 309 0
 3370 016a 94F8B834 		ldrb	r3, [r4, #1208]	@ zero_extendqisi2
 3371 016e 002B     		cmp	r3, #0
 3372 0170 81D1     		bne	.L175
 3373              	.LVL415:
 3374              	.LBB479:
 3375              	.LBB480:
 3376              	.LBB481:
 3377              	.LBB482:
  14:../Libraries/ROSSerial/std_msgs/Time.h ****   {
 3378              		.loc 1 14 0
 3379 0172 C04B     		ldr	r3, .L237+4
 3380 0174 0093     		str	r3, [sp]
 3381              	.LVL416:
 3382              	.LBB483:
 3383              	.LBB484:
 3384              	.LBB485:
 3385              		.loc 9 51 0
 3386 0176 0026     		movs	r6, #0
 3387 0178 0196     		str	r6, [sp, #4]
 3388 017a 0296     		str	r6, [sp, #8]
 3389              	.LVL417:
 3390              	.LBE485:
 3391              	.LBE484:
 3392              	.LBE483:
 3393              	.LBE482:
 3394              	.LBE481:
 3395              	.LBB486:
 3396              	.LBB487:
 577:../Libraries/ROSSerial/ros/node_handle.h **** 
 3397              		.loc 6 577 0
 3398 017c 1B68     		ldr	r3, [r3]
 3399 017e 04F21F21 		addw	r1, r4, #543
 3400              	.LVL418:
 3401 0182 6846     		mov	r0, sp
 3402 0184 9847     		blx	r3
 3403              	.LVL419:
ARM GAS  /var/folders/l3/4y5292px21b4835bsnjwqc7w009kq1/T//ccNqrcnV.s 			page 98


 580:../Libraries/ROSSerial/ros/node_handle.h ****     message_out[1] = PROTOCOL_VER;
 3404              		.loc 6 580 0
 3405 0186 FF23     		movs	r3, #255
 3406 0188 84F81832 		strb	r3, [r4, #536]
 581:../Libraries/ROSSerial/ros/node_handle.h ****     message_out[2] = (uint8_t)((uint16_t)l & 255);
 3407              		.loc 6 581 0
 3408 018c FE23     		movs	r3, #254
 3409 018e 84F81932 		strb	r3, [r4, #537]
 582:../Libraries/ROSSerial/ros/node_handle.h ****     message_out[3] = (uint8_t)((uint16_t)l >> 8);
 3410              		.loc 6 582 0
 3411 0192 C3B2     		uxtb	r3, r0
 3412 0194 84F81A32 		strb	r3, [r4, #538]
 583:../Libraries/ROSSerial/ros/node_handle.h ****     message_out[4] = 255 - ((message_out[2] + message_out[3]) % 256);
 3413              		.loc 6 583 0
 3414 0198 C0F30722 		ubfx	r2, r0, #8, #8
 3415 019c 84F81B22 		strb	r2, [r4, #539]
 584:../Libraries/ROSSerial/ros/node_handle.h ****     message_out[5] = (uint8_t)((int16_t)id & 255);
 3416              		.loc 6 584 0
 3417 01a0 1344     		add	r3, r3, r2
 3418 01a2 DBB2     		uxtb	r3, r3
 3419 01a4 DB43     		mvns	r3, r3
 3420 01a6 84F81C32 		strb	r3, [r4, #540]
 585:../Libraries/ROSSerial/ros/node_handle.h ****     message_out[6] = (uint8_t)((int16_t)id >> 8);
 3421              		.loc 6 585 0
 3422 01aa 0A23     		movs	r3, #10
 3423 01ac 84F81D32 		strb	r3, [r4, #541]
 586:../Libraries/ROSSerial/ros/node_handle.h **** 
 3424              		.loc 6 586 0
 3425 01b0 84F81E62 		strb	r6, [r4, #542]
 3426              	.LVL420:
 3427              	.LBB488:
 590:../Libraries/ROSSerial/ros/node_handle.h ****       chk += message_out[i];
 3428              		.loc 6 590 0
 3429 01b4 0522     		movs	r2, #5
 3430              	.LBE488:
 589:../Libraries/ROSSerial/ros/node_handle.h ****     for (int i = 5; i < l + 7; i++)
 3431              		.loc 6 589 0
 3432 01b6 3346     		mov	r3, r6
 3433              	.LVL421:
 3434              	.L187:
 3435              	.LBB489:
 590:../Libraries/ROSSerial/ros/node_handle.h ****       chk += message_out[i];
 3436              		.loc 6 590 0
 3437 01b8 C11D     		adds	r1, r0, #7
 3438 01ba 9142     		cmp	r1, r2
 3439 01bc 09DD     		ble	.L186
 591:../Libraries/ROSSerial/ros/node_handle.h ****     l += 7;
 3440              		.loc 6 591 0
 3441 01be A118     		adds	r1, r4, r2
 3442 01c0 91F81812 		ldrb	r1, [r1, #536]	@ zero_extendqisi2
 3443 01c4 0B44     		add	r3, r3, r1
 3444              	.LVL422:
 590:../Libraries/ROSSerial/ros/node_handle.h ****       chk += message_out[i];
 3445              		.loc 6 590 0
 3446 01c6 0132     		adds	r2, r2, #1
 3447              	.LVL423:
 3448 01c8 F6E7     		b	.L187
ARM GAS  /var/folders/l3/4y5292px21b4835bsnjwqc7w009kq1/T//ccNqrcnV.s 			page 99


 3449              	.LVL424:
 3450              	.L231:
 3451              	.LBE489:
 3452              	.LBE487:
 3453              	.LBE486:
 3454              	.LBE480:
 3455              	.LBE479:
 304:../Libraries/ROSSerial/ros/node_handle.h ****         }
 3456              		.loc 6 304 0
 3457 01ca 0133     		adds	r3, r3, #1
 3458 01cc C4F8A434 		str	r3, [r4, #1188]
 3459 01d0 51E7     		b	.L175
 3460              	.LVL425:
 3461              	.L186:
 3462              	.LBB504:
 3463              	.LBB503:
 3464              	.LBB499:
 3465              	.LBB497:
 593:../Libraries/ROSSerial/ros/node_handle.h ****     //printf("Sending message - %s\n",message_out);
 3466              		.loc 6 593 0
 3467 01d2 5A42     		rsbs	r2, r3, #0
 3468              	.LVL426:
 3469 01d4 DBB2     		uxtb	r3, r3
 3470              	.LVL427:
 3471 01d6 D2B2     		uxtb	r2, r2
 3472 01d8 58BF     		it	pl
 3473 01da 5342     		rsbpl	r3, r2, #0
 3474 01dc 00F10802 		add	r2, r0, #8
 3475              	.LVL428:
 3476 01e0 DB43     		mvns	r3, r3
 3477 01e2 2144     		add	r1, r1, r4
 3478 01e4 81F81832 		strb	r3, [r1, #536]
 595:../Libraries/ROSSerial/ros/node_handle.h ****     {
 3479              		.loc 6 595 0
 3480 01e8 B2F5007F 		cmp	r2, #512
 3481 01ec 09DC     		bgt	.L188
 3482              	.LVL429:
 3483              	.LBB490:
 3484              	.LBB491:
  87:../Libraries/ROSSerial/stm32hardware.h **** 	}
 3485              		.loc 8 87 0
 3486 01ee 92B2     		uxth	r2, r2
 3487              	.LVL430:
 3488 01f0 04F50671 		add	r1, r4, #536
 3489              	.LVL431:
 3490 01f4 0020     		movs	r0, #0
 3491              	.LVL432:
 3492 01f6 FFF7FEFF 		bl	comSendBuf
 3493              	.LVL433:
 3494              	.L189:
 3495              	.LBE491:
 3496              	.LBE490:
 3497              	.LBE497:
 3498              	.LBE499:
 3499              	.LBB500:
 3500              	.LBB501:
 3501              		.loc 8 99 0
ARM GAS  /var/folders/l3/4y5292px21b4835bsnjwqc7w009kq1/T//ccNqrcnV.s 			page 100


 3502 01fa FFF7FEFF 		bl	xTaskGetTickCount
 3503              	.LVL434:
 3504              	.LBE501:
 3505              	.LBE500:
 408:../Libraries/ROSSerial/ros/node_handle.h ****   }
 3506              		.loc 6 408 0
 3507 01fe A060     		str	r0, [r4, #8]
 3508 0200 39E7     		b	.L175
 3509              	.LVL435:
 3510              	.L188:
 3511              	.LBB502:
 3512              	.LBB498:
 3513              	.LBB492:
 3514              	.LBB493:
 3515              	.LBB494:
 3516              	.LBB495:
 3517              	.LBB496:
  13:../Libraries/ROSSerial/rosserial_msgs/Log.h ****   {
 3518              		.loc 3 13 0
 3519 0202 9D4B     		ldr	r3, .L237+8
 3520 0204 0393     		str	r3, [sp, #12]
 3521              	.LVL436:
 3522              	.LBE496:
 3523              	.LBE495:
 615:../Libraries/ROSSerial/ros/node_handle.h ****     l.msg = (char*)msg;
 3524              		.loc 6 615 0
 3525 0206 0323     		movs	r3, #3
 3526 0208 8DF81030 		strb	r3, [sp, #16]
 616:../Libraries/ROSSerial/ros/node_handle.h ****     publish1(rosserial_msgs::TopicInfo::ID_LOG, &l);
 3527              		.loc 6 616 0
 3528 020c 9B4B     		ldr	r3, .L237+12
 3529 020e 0593     		str	r3, [sp, #20]
 3530              		.loc 6 617 0
 3531 0210 03AA     		add	r2, sp, #12
 3532              	.LVL437:
 3533 0212 0721     		movs	r1, #7
 3534 0214 2046     		mov	r0, r4
 3535              	.LVL438:
 3536 0216 FFF7FEFF 		bl	_ZN3ros11NodeHandle_I13STM32HardwareLi5ELi5ELi512ELi512EE8publish1EiPKNS_3MsgE
 3537              	.LVL439:
 3538 021a EEE7     		b	.L189
 3539              	.LVL440:
 3540              	.L222:
 3541              	.LBE494:
 3542              	.LBE493:
 3543              	.LBE492:
 3544              	.LBE498:
 3545              	.LBE502:
 3546              	.LBE503:
 3547              	.LBE504:
 315:../Libraries/ROSSerial/ros/node_handle.h ****         index_ = 0;
 3548              		.loc 6 315 0
 3549 021c C4F8A814 		str	r1, [r4, #1192]
 316:../Libraries/ROSSerial/ros/node_handle.h ****         mode_++;
 3550              		.loc 6 316 0
 3551 0220 0022     		movs	r2, #0
 3552 0222 C4F8B024 		str	r2, [r4, #1200]
ARM GAS  /var/folders/l3/4y5292px21b4835bsnjwqc7w009kq1/T//ccNqrcnV.s 			page 101


 317:../Libraries/ROSSerial/ros/node_handle.h ****         checksum_ = data;               /* first byte for calculating size checksum */
 3553              		.loc 6 317 0
 3554 0226 0133     		adds	r3, r3, #1
 3555 0228 C4F8A434 		str	r3, [r4, #1188]
 318:../Libraries/ROSSerial/ros/node_handle.h ****       }
 3556              		.loc 6 318 0
 3557 022c C4F8B414 		str	r1, [r4, #1204]
 3558 0230 21E7     		b	.L175
 3559              	.L223:
 322:../Libraries/ROSSerial/ros/node_handle.h ****         mode_++;
 3560              		.loc 6 322 0
 3561 0232 D4F8A824 		ldr	r2, [r4, #1192]
 3562 0236 02EB0121 		add	r1, r2, r1, lsl #8
 3563              	.LVL441:
 3564 023a C4F8A814 		str	r1, [r4, #1192]
 323:../Libraries/ROSSerial/ros/node_handle.h ****       }
 3565              		.loc 6 323 0
 3566 023e 0133     		adds	r3, r3, #1
 3567 0240 C4F8A434 		str	r3, [r4, #1188]
 3568 0244 17E7     		b	.L175
 3569              	.LVL442:
 3570              	.L224:
 327:../Libraries/ROSSerial/ros/node_handle.h ****           mode_++;
 3571              		.loc 6 327 0
 3572 0246 5142     		rsbs	r1, r2, #0
 3573              	.LVL443:
 3574 0248 D2B2     		uxtb	r2, r2
 3575 024a C9B2     		uxtb	r1, r1
 3576 024c 58BF     		it	pl
 3577 024e 4A42     		rsbpl	r2, r1, #0
 3578 0250 FF2A     		cmp	r2, #255
 3579 0252 03D0     		beq	.L232
 330:../Libraries/ROSSerial/ros/node_handle.h ****       }
 3580              		.loc 6 330 0
 3581 0254 0023     		movs	r3, #0
 3582 0256 C4F8A434 		str	r3, [r4, #1188]
 3583 025a 0CE7     		b	.L175
 3584              	.L232:
 328:../Libraries/ROSSerial/ros/node_handle.h ****         else
 3585              		.loc 6 328 0
 3586 025c 0133     		adds	r3, r3, #1
 3587 025e C4F8A434 		str	r3, [r4, #1188]
 3588 0262 08E7     		b	.L175
 3589              	.LVL444:
 3590              	.L225:
 334:../Libraries/ROSSerial/ros/node_handle.h ****         mode_++;
 3591              		.loc 6 334 0
 3592 0264 C4F8AC14 		str	r1, [r4, #1196]
 335:../Libraries/ROSSerial/ros/node_handle.h ****         checksum_ = data;               /* first byte included in checksum */
 3593              		.loc 6 335 0
 3594 0268 0133     		adds	r3, r3, #1
 3595 026a C4F8A434 		str	r3, [r4, #1188]
 336:../Libraries/ROSSerial/ros/node_handle.h ****       }
 3596              		.loc 6 336 0
 3597 026e C4F8B414 		str	r1, [r4, #1204]
 3598 0272 00E7     		b	.L175
 3599              	.L226:
ARM GAS  /var/folders/l3/4y5292px21b4835bsnjwqc7w009kq1/T//ccNqrcnV.s 			page 102


 340:../Libraries/ROSSerial/ros/node_handle.h ****         mode_ = MODE_MESSAGE;
 3600              		.loc 6 340 0
 3601 0274 D4F8AC34 		ldr	r3, [r4, #1196]
 3602 0278 03EB0123 		add	r3, r3, r1, lsl #8
 3603 027c C4F8AC34 		str	r3, [r4, #1196]
 341:../Libraries/ROSSerial/ros/node_handle.h ****         if (bytes_ == 0)
 3604              		.loc 6 341 0
 3605 0280 0723     		movs	r3, #7
 3606 0282 C4F8A434 		str	r3, [r4, #1188]
 342:../Libraries/ROSSerial/ros/node_handle.h ****           mode_ = MODE_MSG_CHECKSUM;
 3607              		.loc 6 342 0
 3608 0286 D4F8A834 		ldr	r3, [r4, #1192]
 3609 028a 002B     		cmp	r3, #0
 3610 028c 7FF4F3AE 		bne	.L175
 343:../Libraries/ROSSerial/ros/node_handle.h ****       }
 3611              		.loc 6 343 0
 3612 0290 0823     		movs	r3, #8
 3613 0292 C4F8A434 		str	r3, [r4, #1188]
 3614 0296 EEE6     		b	.L175
 3615              	.L227:
 352:../Libraries/ROSSerial/ros/node_handle.h ****             negotiateTopics();
 3616              		.loc 6 352 0
 3617 0298 2046     		mov	r0, r4
 3618 029a FFF7FEFF 		bl	_ZN3ros11NodeHandle_I13STM32HardwareLi5ELi5ELi512ELi512EE15requestSyncTimeEv
 3619              	.LVL445:
 353:../Libraries/ROSSerial/ros/node_handle.h ****             last_sync_time = c_time;
 3620              		.loc 6 353 0
 3621 029e 2046     		mov	r0, r4
 3622 02a0 FFF7FEFF 		bl	_ZN3ros11NodeHandle_I13STM32HardwareLi5ELi5ELi512ELi512EE15negotiateTopicsEv
 3623              	.LVL446:
 354:../Libraries/ROSSerial/ros/node_handle.h ****             last_sync_receive_time = c_time;
 3624              		.loc 6 354 0
 3625 02a4 C4F8BC54 		str	r5, [r4, #1212]
 355:../Libraries/ROSSerial/ros/node_handle.h ****             return SPIN_ERR;
 3626              		.loc 6 355 0
 3627 02a8 C4F8C054 		str	r5, [r4, #1216]
 356:../Libraries/ROSSerial/ros/node_handle.h ****           }
 3628              		.loc 6 356 0
 3629 02ac 4FF0FF30 		mov	r0, #-1
 3630 02b0 42E1     		b	.L172
 3631              	.LVL447:
 3632              	.L228:
 360:../Libraries/ROSSerial/ros/node_handle.h ****           }
 3633              		.loc 6 360 0
 3634 02b2 04F11806 		add	r6, r4, #24
 3635              	.LVL448:
 3636              	.LBB505:
 3637              	.LBB506:
 3638              	.LBB507:
 3639              	.LBB508:
 3640              		.loc 8 99 0
 3641 02b6 FFF7FEFF 		bl	xTaskGetTickCount
 3642              	.LVL449:
 3643              	.LBE508:
 3644              	.LBE507:
 414:../Libraries/ROSSerial/ros/node_handle.h **** 
 3645              		.loc 6 414 0
ARM GAS  /var/folders/l3/4y5292px21b4835bsnjwqc7w009kq1/T//ccNqrcnV.s 			page 103


 3646 02ba A368     		ldr	r3, [r4, #8]
 3647 02bc C01A     		subs	r0, r0, r3
 3648              	.LVL450:
 3649              	.LBB509:
 3650              	.LBB510:
  38:../Libraries/ROSSerial/std_msgs/Time.h ****       this->data.sec |= ((uint32_t) (*(inbuffer + offset + 1))) << (8 * 1);
 3651              		.loc 1 38 0
 3652 02be 227E     		ldrb	r2, [r4, #24]	@ zero_extendqisi2
  39:../Libraries/ROSSerial/std_msgs/Time.h ****       this->data.sec |= ((uint32_t) (*(inbuffer + offset + 2))) << (8 * 2);
 3653              		.loc 1 39 0
 3654 02c0 3346     		mov	r3, r6
 3655 02c2 7178     		ldrb	r1, [r6, #1]	@ zero_extendqisi2
 3656 02c4 42EA0122 		orr	r2, r2, r1, lsl #8
  40:../Libraries/ROSSerial/std_msgs/Time.h ****       this->data.sec |= ((uint32_t) (*(inbuffer + offset + 3))) << (8 * 3);
 3657              		.loc 1 40 0
 3658 02c8 B178     		ldrb	r1, [r6, #2]	@ zero_extendqisi2
 3659 02ca 42EA0142 		orr	r2, r2, r1, lsl #16
  41:../Libraries/ROSSerial/std_msgs/Time.h ****       offset += sizeof(this->data.sec);
 3660              		.loc 1 41 0
 3661 02ce F178     		ldrb	r1, [r6, #3]	@ zero_extendqisi2
 3662 02d0 42EA0161 		orr	r1, r2, r1, lsl #24
 3663              	.LVL451:
  43:../Libraries/ROSSerial/std_msgs/Time.h ****       this->data.nsec |= ((uint32_t) (*(inbuffer + offset + 1))) << (8 * 1);
 3664              		.loc 1 43 0
 3665 02d4 3279     		ldrb	r2, [r6, #4]	@ zero_extendqisi2
  44:../Libraries/ROSSerial/std_msgs/Time.h ****       this->data.nsec |= ((uint32_t) (*(inbuffer + offset + 2))) << (8 * 2);
 3666              		.loc 1 44 0
 3667 02d6 7679     		ldrb	r6, [r6, #5]	@ zero_extendqisi2
 3668 02d8 42EA0622 		orr	r2, r2, r6, lsl #8
  45:../Libraries/ROSSerial/std_msgs/Time.h ****       this->data.nsec |= ((uint32_t) (*(inbuffer + offset + 3))) << (8 * 3);
 3669              		.loc 1 45 0
 3670 02dc 9E79     		ldrb	r6, [r3, #6]	@ zero_extendqisi2
 3671 02de 42EA0642 		orr	r2, r2, r6, lsl #16
  46:../Libraries/ROSSerial/std_msgs/Time.h ****       offset += sizeof(this->data.nsec);
 3672              		.loc 1 46 0
 3673 02e2 DB79     		ldrb	r3, [r3, #7]	@ zero_extendqisi2
 3674 02e4 42EA0362 		orr	r2, r2, r3, lsl #24
 3675              	.LVL452:
 3676              	.LBE510:
 3677              	.LBE509:
 417:../Libraries/ROSSerial/ros/node_handle.h ****     t.data.nsec += (offset % 1000) * 1000000UL;
 3678              		.loc 6 417 0
 3679 02e8 654E     		ldr	r6, .L237+16
 3680 02ea A6FB0073 		umull	r7, r3, r6, r0
 3681 02ee 9B09     		lsrs	r3, r3, #6
 3682 02f0 1944     		add	r1, r1, r3
 3683 02f2 0491     		str	r1, [sp, #16]
 418:../Libraries/ROSSerial/ros/node_handle.h **** 
 3684              		.loc 6 418 0
 3685 02f4 4FF47A78 		mov	r8, #1000
 3686 02f8 08FB1303 		mls	r3, r8, r3, r0
 3687 02fc 614F     		ldr	r7, .L237+20
 3688 02fe 07FB0323 		mla	r3, r7, r3, r2
 3689 0302 0593     		str	r3, [sp, #20]
 3690              	.LVL453:
 3691              	.LBB511:
 3692              	.LBB512:
ARM GAS  /var/folders/l3/4y5292px21b4835bsnjwqc7w009kq1/T//ccNqrcnV.s 			page 104


 3693              	.LBB513:
 3694              	.LBB514:
 3695              		.loc 8 99 0
 3696 0304 FFF7FEFF 		bl	xTaskGetTickCount
 3697              	.LVL454:
 3698              	.LBE514:
 3699              	.LBE513:
 437:../Libraries/ROSSerial/ros/node_handle.h ****     nsec_offset = new_now.nsec - (ms % 1000) * 1000000UL + 1000000000UL;
 3700              		.loc 6 437 0
 3701 0308 A6FB0023 		umull	r2, r3, r6, r0
 3702 030c 9B09     		lsrs	r3, r3, #6
 3703 030e 049A     		ldr	r2, [sp, #16]
 3704 0310 D21A     		subs	r2, r2, r3
 3705 0312 013A     		subs	r2, r2, #1
 3706 0314 E260     		str	r2, [r4, #12]
 438:../Libraries/ROSSerial/ros/node_handle.h ****     normalizeSecNSec(sec_offset, nsec_offset);
 3707              		.loc 6 438 0
 3708 0316 08FB1303 		mls	r3, r8, r3, r0
 3709 031a 059A     		ldr	r2, [sp, #20]
 3710 031c 07FB1323 		mls	r3, r7, r3, r2
 3711 0320 594A     		ldr	r2, .L237+24
 3712 0322 1A44     		add	r2, r2, r3
 3713 0324 2146     		mov	r1, r4
 3714 0326 41F8102F 		str	r2, [r1, #16]!
 439:../Libraries/ROSSerial/ros/node_handle.h ****   }
 3715              		.loc 6 439 0
 3716 032a 04F10C00 		add	r0, r4, #12
 3717              	.LVL455:
 3718 032e FFF7FEFF 		bl	_ZN3ros16normalizeSecNSecERmS0_
 3719              	.LVL456:
 3720              	.LBE512:
 3721              	.LBE511:
 3722              	.LBB515:
 3723              	.LBB516:
 3724              		.loc 8 99 0
 3725 0332 FFF7FEFF 		bl	xTaskGetTickCount
 3726              	.LVL457:
 3727              	.LBE516:
 3728              	.LBE515:
 421:../Libraries/ROSSerial/ros/node_handle.h ****   }
 3729              		.loc 6 421 0
 3730 0336 C4F8C004 		str	r0, [r4, #1216]
 3731 033a 9CE6     		b	.L175
 3732              	.LVL458:
 3733              	.L229:
 3734              	.LBE506:
 3735              	.LBE505:
 364:../Libraries/ROSSerial/ros/node_handle.h ****             param_recieved = true;
 3736              		.loc 6 364 0
 3737 033c 04F2CC48 		addw	r8, r4, #1228
 3738 0340 04F11807 		add	r7, r4, #24
 3739              	.LVL459:
 3740              	.LBB517:
 3741              	.LBB518:
 116:../Libraries/ROSSerial/rosserial_msgs/RequestParam.h ****       if(ints_lengthT > ints_length)
 3742              		.loc 4 116 0
 3743 0344 267E     		ldrb	r6, [r4, #24]	@ zero_extendqisi2
ARM GAS  /var/folders/l3/4y5292px21b4835bsnjwqc7w009kq1/T//ccNqrcnV.s 			page 105


 3744              	.LVL460:
 117:../Libraries/ROSSerial/rosserial_msgs/RequestParam.h ****         this->ints = (int32_t*)realloc(this->ints, ints_lengthT * sizeof(int32_t));
 3745              		.loc 4 117 0
 3746 0346 98F80430 		ldrb	r3, [r8, #4]	@ zero_extendqisi2
 3747 034a 9E42     		cmp	r6, r3
 3748 034c 1ED8     		bhi	.L233
 3749              	.LVL461:
 3750              	.L199:
 120:../Libraries/ROSSerial/rosserial_msgs/RequestParam.h ****       for( uint8_t i = 0; i < ints_length; i++){
 3751              		.loc 4 120 0
 3752 034e 88F80460 		strb	r6, [r8, #4]
 3753              	.LVL462:
 3754              	.LBB519:
 121:../Libraries/ROSSerial/rosserial_msgs/RequestParam.h ****       union {
 3755              		.loc 4 121 0
 3756 0352 0022     		movs	r2, #0
 3757              	.LBE519:
 119:../Libraries/ROSSerial/rosserial_msgs/RequestParam.h ****       ints_length = ints_lengthT;
 3758              		.loc 4 119 0
 3759 0354 0426     		movs	r6, #4
 3760              	.LVL463:
 3761              	.L201:
 3762              	.LBB521:
 121:../Libraries/ROSSerial/rosserial_msgs/RequestParam.h ****       union {
 3763              		.loc 4 121 0
 3764 0356 98F80430 		ldrb	r3, [r8, #4]	@ zero_extendqisi2
 3765 035a 9342     		cmp	r3, r2
 3766 035c 1ED9     		bls	.L200
 3767              	.LBB520:
 127:../Libraries/ROSSerial/rosserial_msgs/RequestParam.h ****       u_st_ints.base |= ((uint32_t) (*(inbuffer + offset + 1))) << (8 * 1);
 3768              		.loc 4 127 0
 3769 035e BB5D     		ldrb	r3, [r7, r6]	@ zero_extendqisi2
 128:../Libraries/ROSSerial/rosserial_msgs/RequestParam.h ****       u_st_ints.base |= ((uint32_t) (*(inbuffer + offset + 2))) << (8 * 2);
 3770              		.loc 4 128 0
 3771 0360 711C     		adds	r1, r6, #1
 3772 0362 795C     		ldrb	r1, [r7, r1]	@ zero_extendqisi2
 3773 0364 43EA0123 		orr	r3, r3, r1, lsl #8
 129:../Libraries/ROSSerial/rosserial_msgs/RequestParam.h ****       u_st_ints.base |= ((uint32_t) (*(inbuffer + offset + 3))) << (8 * 3);
 3774              		.loc 4 129 0
 3775 0368 B11C     		adds	r1, r6, #2
 3776 036a 795C     		ldrb	r1, [r7, r1]	@ zero_extendqisi2
 3777 036c 43EA0143 		orr	r3, r3, r1, lsl #16
 130:../Libraries/ROSSerial/rosserial_msgs/RequestParam.h ****       this->st_ints = u_st_ints.real;
 3778              		.loc 4 130 0
 3779 0370 F11C     		adds	r1, r6, #3
 3780 0372 795C     		ldrb	r1, [r7, r1]	@ zero_extendqisi2
 3781 0374 43EA0163 		orr	r3, r3, r1, lsl #24
 131:../Libraries/ROSSerial/rosserial_msgs/RequestParam.h ****       offset += sizeof(this->st_ints);
 3782              		.loc 4 131 0
 3783 0378 C8F80830 		str	r3, [r8, #8]
 132:../Libraries/ROSSerial/rosserial_msgs/RequestParam.h ****         memcpy( &(this->ints[i]), &(this->st_ints), sizeof(int32_t));
 3784              		.loc 4 132 0
 3785 037c 0436     		adds	r6, r6, #4
 3786              	.LVL464:
 133:../Libraries/ROSSerial/rosserial_msgs/RequestParam.h ****       }
 3787              		.loc 4 133 0
 3788 037e D8F80C10 		ldr	r1, [r8, #12]
ARM GAS  /var/folders/l3/4y5292px21b4835bsnjwqc7w009kq1/T//ccNqrcnV.s 			page 106


 3789 0382 41F82230 		str	r3, [r1, r2, lsl #2]	@ unaligned
 3790              	.LBE520:
 121:../Libraries/ROSSerial/rosserial_msgs/RequestParam.h ****       union {
 3791              		.loc 4 121 0
 3792 0386 0132     		adds	r2, r2, #1
 3793              	.LVL465:
 3794 0388 D2B2     		uxtb	r2, r2
 3795              	.LVL466:
 3796 038a E4E7     		b	.L201
 3797              	.LVL467:
 3798              	.L233:
 3799              	.LBE521:
 118:../Libraries/ROSSerial/rosserial_msgs/RequestParam.h ****       offset += 3;
 3800              		.loc 4 118 0
 3801 038c B100     		lsls	r1, r6, #2
 3802              	.LVL468:
 3803 038e D8F80C00 		ldr	r0, [r8, #12]
 3804 0392 FFF7FEFF 		bl	realloc
 3805              	.LVL469:
 3806 0396 C8F80C00 		str	r0, [r8, #12]
 3807 039a D8E7     		b	.L199
 3808              	.LVL470:
 3809              	.L200:
 135:../Libraries/ROSSerial/rosserial_msgs/RequestParam.h ****       if(floats_lengthT > floats_length)
 3810              		.loc 4 135 0
 3811 039c 17F80690 		ldrb	r9, [r7, r6]	@ zero_extendqisi2
 3812              	.LVL471:
 136:../Libraries/ROSSerial/rosserial_msgs/RequestParam.h ****         this->floats = (float*)realloc(this->floats, floats_lengthT * sizeof(float));
 3813              		.loc 4 136 0
 3814 03a0 98F81030 		ldrb	r3, [r8, #16]	@ zero_extendqisi2
 3815 03a4 9945     		cmp	r9, r3
 3816 03a6 1ED8     		bhi	.L234
 3817              	.LVL472:
 3818              	.L202:
 138:../Libraries/ROSSerial/rosserial_msgs/RequestParam.h ****       floats_length = floats_lengthT;
 3819              		.loc 4 138 0
 3820 03a8 0436     		adds	r6, r6, #4
 3821              	.LVL473:
 139:../Libraries/ROSSerial/rosserial_msgs/RequestParam.h ****       for( uint8_t i = 0; i < floats_length; i++){
 3822              		.loc 4 139 0
 3823 03aa 88F81090 		strb	r9, [r8, #16]
 3824              	.LVL474:
 3825              	.LBB522:
 140:../Libraries/ROSSerial/rosserial_msgs/RequestParam.h ****       union {
 3826              		.loc 4 140 0
 3827 03ae 0022     		movs	r2, #0
 3828              	.LVL475:
 3829              	.L204:
 3830 03b0 98F81030 		ldrb	r3, [r8, #16]	@ zero_extendqisi2
 3831 03b4 9342     		cmp	r3, r2
 3832 03b6 1FD9     		bls	.L203
 3833              	.LBB523:
 146:../Libraries/ROSSerial/rosserial_msgs/RequestParam.h ****       u_st_floats.base |= ((uint32_t) (*(inbuffer + offset + 1))) << (8 * 1);
 3834              		.loc 4 146 0
 3835 03b8 BB5D     		ldrb	r3, [r7, r6]	@ zero_extendqisi2
 147:../Libraries/ROSSerial/rosserial_msgs/RequestParam.h ****       u_st_floats.base |= ((uint32_t) (*(inbuffer + offset + 2))) << (8 * 2);
 3836              		.loc 4 147 0
ARM GAS  /var/folders/l3/4y5292px21b4835bsnjwqc7w009kq1/T//ccNqrcnV.s 			page 107


 3837 03ba 711C     		adds	r1, r6, #1
 3838 03bc 795C     		ldrb	r1, [r7, r1]	@ zero_extendqisi2
 3839 03be 43EA0123 		orr	r3, r3, r1, lsl #8
 148:../Libraries/ROSSerial/rosserial_msgs/RequestParam.h ****       u_st_floats.base |= ((uint32_t) (*(inbuffer + offset + 3))) << (8 * 3);
 3840              		.loc 4 148 0
 3841 03c2 B11C     		adds	r1, r6, #2
 3842 03c4 795C     		ldrb	r1, [r7, r1]	@ zero_extendqisi2
 3843 03c6 43EA0143 		orr	r3, r3, r1, lsl #16
 149:../Libraries/ROSSerial/rosserial_msgs/RequestParam.h ****       this->st_floats = u_st_floats.real;
 3844              		.loc 4 149 0
 3845 03ca F11C     		adds	r1, r6, #3
 3846 03cc 795C     		ldrb	r1, [r7, r1]	@ zero_extendqisi2
 3847 03ce 43EA0163 		orr	r3, r3, r1, lsl #24
 150:../Libraries/ROSSerial/rosserial_msgs/RequestParam.h ****       offset += sizeof(this->st_floats);
 3848              		.loc 4 150 0
 3849 03d2 C8F81430 		str	r3, [r8, #20]	@ float
 151:../Libraries/ROSSerial/rosserial_msgs/RequestParam.h ****         memcpy( &(this->floats[i]), &(this->st_floats), sizeof(float));
 3850              		.loc 4 151 0
 3851 03d6 0436     		adds	r6, r6, #4
 3852              	.LVL476:
 152:../Libraries/ROSSerial/rosserial_msgs/RequestParam.h ****       }
 3853              		.loc 4 152 0
 3854 03d8 D8F81810 		ldr	r1, [r8, #24]
 3855 03dc 41F82230 		str	r3, [r1, r2, lsl #2]	@ unaligned
 3856              	.LBE523:
 140:../Libraries/ROSSerial/rosserial_msgs/RequestParam.h ****       union {
 3857              		.loc 4 140 0
 3858 03e0 0132     		adds	r2, r2, #1
 3859              	.LVL477:
 3860 03e2 D2B2     		uxtb	r2, r2
 3861              	.LVL478:
 3862 03e4 E4E7     		b	.L204
 3863              	.LVL479:
 3864              	.L234:
 3865              	.LBE522:
 137:../Libraries/ROSSerial/rosserial_msgs/RequestParam.h ****       offset += 3;
 3866              		.loc 4 137 0
 3867 03e6 4FEA8901 		lsl	r1, r9, #2
 3868 03ea D8F81800 		ldr	r0, [r8, #24]
 3869 03ee FFF7FEFF 		bl	realloc
 3870              	.LVL480:
 3871 03f2 C8F81800 		str	r0, [r8, #24]
 3872 03f6 D7E7     		b	.L202
 3873              	.LVL481:
 3874              	.L203:
 154:../Libraries/ROSSerial/rosserial_msgs/RequestParam.h ****       if(strings_lengthT > strings_length)
 3875              		.loc 4 154 0
 3876 03f8 17F80690 		ldrb	r9, [r7, r6]	@ zero_extendqisi2
 3877              	.LVL482:
 155:../Libraries/ROSSerial/rosserial_msgs/RequestParam.h ****         this->strings = (char**)realloc(this->strings, strings_lengthT * sizeof(char*));
 3878              		.loc 4 155 0
 3879 03fc 98F81C30 		ldrb	r3, [r8, #28]	@ zero_extendqisi2
 3880 0400 9945     		cmp	r9, r3
 3881 0402 05D8     		bhi	.L235
 3882              	.LVL483:
 3883              	.L205:
 157:../Libraries/ROSSerial/rosserial_msgs/RequestParam.h ****       strings_length = strings_lengthT;
ARM GAS  /var/folders/l3/4y5292px21b4835bsnjwqc7w009kq1/T//ccNqrcnV.s 			page 108


 3884              		.loc 4 157 0
 3885 0404 321D     		adds	r2, r6, #4
 3886              	.LVL484:
 158:../Libraries/ROSSerial/rosserial_msgs/RequestParam.h ****       for( uint8_t i = 0; i < strings_length; i++){
 3887              		.loc 4 158 0
 3888 0406 88F81C90 		strb	r9, [r8, #28]
 3889              	.LVL485:
 3890              	.LBB524:
 159:../Libraries/ROSSerial/rosserial_msgs/RequestParam.h ****       uint32_t length_st_strings;
 3891              		.loc 4 159 0
 3892 040a 4FF0000C 		mov	ip, #0
 3893 040e 17E0     		b	.L209
 3894              	.LVL486:
 3895              	.L235:
 3896              	.LBE524:
 156:../Libraries/ROSSerial/rosserial_msgs/RequestParam.h ****       offset += 3;
 3897              		.loc 4 156 0
 3898 0410 4FEA8901 		lsl	r1, r9, #2
 3899 0414 D8F82400 		ldr	r0, [r8, #36]
 3900 0418 FFF7FEFF 		bl	realloc
 3901              	.LVL487:
 3902 041c C8F82400 		str	r0, [r8, #36]
 3903 0420 F0E7     		b	.L205
 3904              	.LVL488:
 3905              	.L207:
 3906              	.LBB528:
 3907              	.LBB525:
 166:../Libraries/ROSSerial/rosserial_msgs/RequestParam.h ****       this->st_strings = (char *)(inbuffer + offset-1);
 3908              		.loc 4 166 0
 3909 0422 531E     		subs	r3, r2, #1
 3910              	.LVL489:
 3911 0424 0021     		movs	r1, #0
 3912 0426 F954     		strb	r1, [r7, r3]
 167:../Libraries/ROSSerial/rosserial_msgs/RequestParam.h ****       offset += length_st_strings;
 3913              		.loc 4 167 0
 3914 0428 731E     		subs	r3, r6, #1
 3915 042a 3B44     		add	r3, r3, r7
 3916 042c C8F82030 		str	r3, [r8, #32]
 3917              	.LVL490:
 169:../Libraries/ROSSerial/rosserial_msgs/RequestParam.h ****       }
 3918              		.loc 4 169 0
 3919 0430 D8F82410 		ldr	r1, [r8, #36]
 3920 0434 41F82C30 		str	r3, [r1, ip, lsl #2]	@ unaligned
 3921              	.LVL491:
 3922              	.LBE525:
 159:../Libraries/ROSSerial/rosserial_msgs/RequestParam.h ****       uint32_t length_st_strings;
 3923              		.loc 4 159 0
 3924 0438 0CF1010C 		add	ip, ip, #1
 3925              	.LVL492:
 3926 043c 5FFA8CFC 		uxtb	ip, ip
 3927              	.LVL493:
 3928              	.L209:
 3929 0440 98F81C30 		ldrb	r3, [r8, #28]	@ zero_extendqisi2
 3930 0444 6345     		cmp	r3, ip
 3931 0446 0AD9     		bls	.L206
 3932              	.LBB527:
 161:../Libraries/ROSSerial/rosserial_msgs/RequestParam.h ****       offset += 4;
ARM GAS  /var/folders/l3/4y5292px21b4835bsnjwqc7w009kq1/T//ccNqrcnV.s 			page 109


 3933              		.loc 4 161 0
 3934 0448 B858     		ldr	r0, [r7, r2]	@ unaligned
 3935              	.LVL494:
 162:../Libraries/ROSSerial/rosserial_msgs/RequestParam.h ****       for(unsigned int k= offset; k< offset+length_st_strings; ++k){
 3936              		.loc 4 162 0
 3937 044a 161D     		adds	r6, r2, #4
 3938              	.LVL495:
 3939              	.LBB526:
 163:../Libraries/ROSSerial/rosserial_msgs/RequestParam.h ****           inbuffer[k-1]=inbuffer[k];
 3940              		.loc 4 163 0
 3941 044c 3346     		mov	r3, r6
 3942              	.LVL496:
 3943              	.L208:
 3944 044e 8219     		adds	r2, r0, r6
 3945 0450 9A42     		cmp	r2, r3
 3946 0452 E6D9     		bls	.L207
 164:../Libraries/ROSSerial/rosserial_msgs/RequestParam.h ****       }
 3947              		.loc 4 164 0
 3948 0454 5A1E     		subs	r2, r3, #1
 3949 0456 F95C     		ldrb	r1, [r7, r3]	@ zero_extendqisi2
 3950 0458 B954     		strb	r1, [r7, r2]
 163:../Libraries/ROSSerial/rosserial_msgs/RequestParam.h ****           inbuffer[k-1]=inbuffer[k];
 3951              		.loc 4 163 0
 3952 045a 0133     		adds	r3, r3, #1
 3953              	.LVL497:
 3954 045c F7E7     		b	.L208
 3955              	.LVL498:
 3956              	.L206:
 3957              	.LBE526:
 3958              	.LBE527:
 3959              	.LBE528:
 3960              	.LBE518:
 3961              	.LBE517:
 365:../Libraries/ROSSerial/ros/node_handle.h ****           }
 3962              		.loc 6 365 0
 3963 045e 0123     		movs	r3, #1
 3964 0460 84F8C834 		strb	r3, [r4, #1224]
 3965 0464 07E6     		b	.L175
 3966              	.LVL499:
 3967              	.L230:
 369:../Libraries/ROSSerial/ros/node_handle.h ****           }
 3968              		.loc 6 369 0
 3969 0466 0023     		movs	r3, #0
 3970 0468 84F8B834 		strb	r3, [r4, #1208]
 3971 046c 03E6     		b	.L175
 3972              	.L238:
 3973 046e 00BF     		.align	2
 3974              	.L237:
 3975 0470 00000000 		.word	_ZZN3ros11NodeHandle_I13STM32HardwareLi5ELi5ELi512ELi512EE9spinOnce1EvE10s_CallBack
 3976 0474 08000000 		.word	_ZTVN8std_msgs4TimeE+8
 3977 0478 08000000 		.word	_ZTVN14rosserial_msgs3LogE+8
 3978 047c 00000000 		.word	.LC10
 3979 0480 D34D6210 		.word	274877907
 3980 0484 40420F00 		.word	1000000
 3981 0488 00CA9A3B 		.word	1000000000
 3982              	.LVL500:
 3983              	.L218:
ARM GAS  /var/folders/l3/4y5292px21b4835bsnjwqc7w009kq1/T//ccNqrcnV.s 			page 110


 3984              	.LBE472:
 3985              	.LBB529:
 3986              	.LBB530:
 3987              	.LBB531:
 3988              	.LBB532:
  14:../Libraries/ROSSerial/std_msgs/Time.h ****   {
 3989              		.loc 1 14 0
 3990 048c 2C4B     		ldr	r3, .L239
 3991 048e 0093     		str	r3, [sp]
 3992              	.LVL501:
 3993              	.LBB533:
 3994              	.LBB534:
 3995              	.LBB535:
 3996              		.loc 9 51 0
 3997 0490 0026     		movs	r6, #0
 3998 0492 0196     		str	r6, [sp, #4]
 3999 0494 0296     		str	r6, [sp, #8]
 4000              	.LVL502:
 4001              	.LBE535:
 4002              	.LBE534:
 4003              	.LBE533:
 4004              	.LBE532:
 4005              	.LBE531:
 4006              	.LBB536:
 4007              	.LBB537:
 577:../Libraries/ROSSerial/ros/node_handle.h **** 
 4008              		.loc 6 577 0
 4009 0496 1B68     		ldr	r3, [r3]
 4010 0498 04F21F21 		addw	r1, r4, #543
 4011 049c 6846     		mov	r0, sp
 4012 049e 9847     		blx	r3
 4013              	.LVL503:
 580:../Libraries/ROSSerial/ros/node_handle.h ****     message_out[1] = PROTOCOL_VER;
 4014              		.loc 6 580 0
 4015 04a0 FF23     		movs	r3, #255
 4016 04a2 84F81832 		strb	r3, [r4, #536]
 581:../Libraries/ROSSerial/ros/node_handle.h ****     message_out[2] = (uint8_t)((uint16_t)l & 255);
 4017              		.loc 6 581 0
 4018 04a6 FE23     		movs	r3, #254
 4019 04a8 84F81932 		strb	r3, [r4, #537]
 582:../Libraries/ROSSerial/ros/node_handle.h ****     message_out[3] = (uint8_t)((uint16_t)l >> 8);
 4020              		.loc 6 582 0
 4021 04ac C3B2     		uxtb	r3, r0
 4022 04ae 84F81A32 		strb	r3, [r4, #538]
 583:../Libraries/ROSSerial/ros/node_handle.h ****     message_out[4] = 255 - ((message_out[2] + message_out[3]) % 256);
 4023              		.loc 6 583 0
 4024 04b2 C0F30722 		ubfx	r2, r0, #8, #8
 4025 04b6 84F81B22 		strb	r2, [r4, #539]
 584:../Libraries/ROSSerial/ros/node_handle.h ****     message_out[5] = (uint8_t)((int16_t)id & 255);
 4026              		.loc 6 584 0
 4027 04ba 1344     		add	r3, r3, r2
 4028 04bc DBB2     		uxtb	r3, r3
 4029 04be DB43     		mvns	r3, r3
 4030 04c0 84F81C32 		strb	r3, [r4, #540]
 585:../Libraries/ROSSerial/ros/node_handle.h ****     message_out[6] = (uint8_t)((int16_t)id >> 8);
 4031              		.loc 6 585 0
 4032 04c4 0A23     		movs	r3, #10
ARM GAS  /var/folders/l3/4y5292px21b4835bsnjwqc7w009kq1/T//ccNqrcnV.s 			page 111


 4033 04c6 84F81D32 		strb	r3, [r4, #541]
 586:../Libraries/ROSSerial/ros/node_handle.h **** 
 4034              		.loc 6 586 0
 4035 04ca 84F81E62 		strb	r6, [r4, #542]
 4036              	.LVL504:
 4037              	.LBB538:
 590:../Libraries/ROSSerial/ros/node_handle.h ****       chk += message_out[i];
 4038              		.loc 6 590 0
 4039 04ce 0522     		movs	r2, #5
 4040              	.LBE538:
 589:../Libraries/ROSSerial/ros/node_handle.h ****     for (int i = 5; i < l + 7; i++)
 4041              		.loc 6 589 0
 4042 04d0 3346     		mov	r3, r6
 4043 04d2 04E0     		b	.L212
 4044              	.LVL505:
 4045              	.L236:
 4046              	.LBB539:
 591:../Libraries/ROSSerial/ros/node_handle.h ****     l += 7;
 4047              		.loc 6 591 0
 4048 04d4 A118     		adds	r1, r4, r2
 4049 04d6 91F81812 		ldrb	r1, [r1, #536]	@ zero_extendqisi2
 4050 04da 0B44     		add	r3, r3, r1
 4051              	.LVL506:
 590:../Libraries/ROSSerial/ros/node_handle.h ****       chk += message_out[i];
 4052              		.loc 6 590 0
 4053 04dc 0132     		adds	r2, r2, #1
 4054              	.LVL507:
 4055              	.L212:
 4056 04de C11D     		adds	r1, r0, #7
 4057 04e0 9142     		cmp	r1, r2
 4058 04e2 F7DC     		bgt	.L236
 4059              	.LVL508:
 4060              	.LBE539:
 593:../Libraries/ROSSerial/ros/node_handle.h ****     //printf("Sending message - %s\n",message_out);
 4061              		.loc 6 593 0
 4062 04e4 5A42     		rsbs	r2, r3, #0
 4063              	.LVL509:
 4064 04e6 DBB2     		uxtb	r3, r3
 4065              	.LVL510:
 4066 04e8 D2B2     		uxtb	r2, r2
 4067 04ea 58BF     		it	pl
 4068 04ec 5342     		rsbpl	r3, r2, #0
 4069 04ee 00F10802 		add	r2, r0, #8
 4070              	.LVL511:
 4071 04f2 DB43     		mvns	r3, r3
 4072 04f4 2144     		add	r1, r1, r4
 4073 04f6 81F81832 		strb	r3, [r1, #536]
 595:../Libraries/ROSSerial/ros/node_handle.h ****     {
 4074              		.loc 6 595 0
 4075 04fa B2F5007F 		cmp	r2, #512
 4076 04fe 0CDC     		bgt	.L213
 4077              	.LVL512:
 4078              	.LBB540:
 4079              	.LBB541:
  87:../Libraries/ROSSerial/stm32hardware.h **** 	}
 4080              		.loc 8 87 0
 4081 0500 92B2     		uxth	r2, r2
ARM GAS  /var/folders/l3/4y5292px21b4835bsnjwqc7w009kq1/T//ccNqrcnV.s 			page 112


 4082              	.LVL513:
 4083 0502 04F50671 		add	r1, r4, #536
 4084              	.LVL514:
 4085 0506 0020     		movs	r0, #0
 4086              	.LVL515:
 4087 0508 FFF7FEFF 		bl	comSendBuf
 4088              	.LVL516:
 4089              	.L214:
 4090              	.LBE541:
 4091              	.LBE540:
 4092              	.LBE537:
 4093              	.LBE536:
 4094              	.LBB548:
 4095              	.LBB549:
 4096              		.loc 8 99 0
 4097 050c FFF7FEFF 		bl	xTaskGetTickCount
 4098              	.LVL517:
 4099              	.LBE549:
 4100              	.LBE548:
 408:../Libraries/ROSSerial/ros/node_handle.h ****   }
 4101              		.loc 6 408 0
 4102 0510 A060     		str	r0, [r4, #8]
 4103              	.LVL518:
 4104              	.LBE530:
 4105              	.LBE529:
 387:../Libraries/ROSSerial/ros/node_handle.h ****     }
 4106              		.loc 6 387 0
 4107 0512 C4F8BC54 		str	r5, [r4, #1212]
 390:../Libraries/ROSSerial/ros/node_handle.h ****   }
 4108              		.loc 6 390 0
 4109 0516 0020     		movs	r0, #0
 4110 0518 0EE0     		b	.L172
 4111              	.LVL519:
 4112              	.L213:
 4113              	.LBB552:
 4114              	.LBB551:
 4115              	.LBB550:
 4116              	.LBB547:
 4117              	.LBB542:
 4118              	.LBB543:
 4119              	.LBB544:
 4120              	.LBB545:
 4121              	.LBB546:
  13:../Libraries/ROSSerial/rosserial_msgs/Log.h ****   {
 4122              		.loc 3 13 0
 4123 051a 0A4B     		ldr	r3, .L239+4
 4124 051c 0393     		str	r3, [sp, #12]
 4125              	.LVL520:
 4126              	.LBE546:
 4127              	.LBE545:
 615:../Libraries/ROSSerial/ros/node_handle.h ****     l.msg = (char*)msg;
 4128              		.loc 6 615 0
 4129 051e 0323     		movs	r3, #3
 4130 0520 8DF81030 		strb	r3, [sp, #16]
 616:../Libraries/ROSSerial/ros/node_handle.h ****     publish1(rosserial_msgs::TopicInfo::ID_LOG, &l);
 4131              		.loc 6 616 0
 4132 0524 084B     		ldr	r3, .L239+8
ARM GAS  /var/folders/l3/4y5292px21b4835bsnjwqc7w009kq1/T//ccNqrcnV.s 			page 113


 4133 0526 0593     		str	r3, [sp, #20]
 4134              		.loc 6 617 0
 4135 0528 03AA     		add	r2, sp, #12
 4136              	.LVL521:
 4137 052a 0721     		movs	r1, #7
 4138 052c 2046     		mov	r0, r4
 4139              	.LVL522:
 4140 052e FFF7FEFF 		bl	_ZN3ros11NodeHandle_I13STM32HardwareLi5ELi5ELi512ELi512EE8publish1EiPKNS_3MsgE
 4141              	.LVL523:
 4142 0532 EBE7     		b	.L214
 4143              	.LVL524:
 4144              	.L215:
 4145              	.LBE544:
 4146              	.LBE543:
 4147              	.LBE542:
 4148              	.LBE547:
 4149              	.LBE550:
 4150              	.LBE551:
 4151              	.LBE552:
 4152              	.LBB553:
 272:../Libraries/ROSSerial/ros/node_handle.h ****         }
 4153              		.loc 6 272 0
 4154 0534 6FF00100 		mvn	r0, #1
 4155              	.LVL525:
 4156              	.L172:
 4157              	.LBE553:
 4158              	.LBE554:
 4159              	.LBE555:
 233:../Libraries/ROSSerial/ros/node_handle.h **** 
 4160              		.loc 6 233 0
 4161 0538 07B0     		add	sp, sp, #28
 4162              	.LCFI36:
 4163              		.cfi_def_cfa_offset 28
 4164              		@ sp needed
 4165 053a BDE8F083 		pop	{r4, r5, r6, r7, r8, r9, pc}
 4166              	.LVL526:
 4167              	.L240:
 4168 053e 00BF     		.align	2
 4169              	.L239:
 4170 0540 08000000 		.word	_ZTVN8std_msgs4TimeE+8
 4171 0544 08000000 		.word	_ZTVN14rosserial_msgs3LogE+8
 4172 0548 00000000 		.word	.LC10
 4173              		.cfi_endproc
 4174              	.LFE504:
 4175              		.fnend
 4177              		.section	.text._GLOBAL__sub_I_nh,"ax",%progbits
 4178              		.align	1
 4179              		.syntax unified
 4180              		.thumb
 4181              		.thumb_func
 4182              		.fpu fpv4-sp-d16
 4184              	_GLOBAL__sub_I_nh:
 4185              		.fnstart
 4186              	.LFB523:
 4187              		.loc 5 372 0
 4188              		.cfi_startproc
 4189              		@ args = 0, pretend = 0, frame = 0
ARM GAS  /var/folders/l3/4y5292px21b4835bsnjwqc7w009kq1/T//ccNqrcnV.s 			page 114


 4190              		@ frame_needed = 0, uses_anonymous_args = 0
 4191 0000 08B5     		push	{r3, lr}
 4192              	.LCFI37:
 4193              		.cfi_def_cfa_offset 8
 4194              		.cfi_offset 3, -8
 4195              		.cfi_offset 14, -4
 4196              		.loc 5 372 0
 4197 0002 4FF6FF71 		movw	r1, #65535
 4198 0006 0120     		movs	r0, #1
 4199 0008 FFF7FEFF 		bl	_Z41__static_initialization_and_destruction_0ii
 4200              	.LVL527:
 4201 000c 08BD     		pop	{r3, pc}
 4202              		.cfi_endproc
 4203              	.LFE523:
 4204              		.cantunwind
 4205              		.fnend
 4207              		.section	.init_array,"aw",%init_array
 4208              		.align	2
 4209 0000 00000000 		.word	_GLOBAL__sub_I_nh(target1)
 4210              		.weak	_ZZN3ros11NodeHandle_I13STM32HardwareLi5ELi5ELi512ELi512EE9spinOnce1EvE10s_CallBack
 4211              		.section	.bss._ZZN3ros11NodeHandle_I13STM32HardwareLi5ELi5ELi512ELi512EE9spinOnce1EvE10s_CallBack,
 4212              		.align	2
 4215              	_ZZN3ros11NodeHandle_I13STM32HardwareLi5ELi5ELi512ELi512EE9spinOnce1EvE10s_CallBack:
 4216 0000 00000000 		.space	4
 4217              		.weak	_ZTVN8std_msgs4TimeE
 4218              		.section	.rodata._ZTVN8std_msgs4TimeE,"aG",%progbits,_ZTVN8std_msgs4TimeE,comdat
 4219              		.align	2
 4222              	_ZTVN8std_msgs4TimeE:
 4223 0000 00000000 		.word	0
 4224 0004 00000000 		.word	0
 4225 0008 00000000 		.word	_ZNK8std_msgs4Time9serializeEPh
 4226 000c 00000000 		.word	_ZN8std_msgs4Time11deserializeEPh
 4227 0010 00000000 		.word	_ZN8std_msgs4Time7getTypeEv
 4228 0014 00000000 		.word	_ZN8std_msgs4Time6getMD5Ev
 4229              		.weak	_ZTVN14rosserial_msgs9TopicInfoE
 4230              		.section	.rodata._ZTVN14rosserial_msgs9TopicInfoE,"aG",%progbits,_ZTVN14rosserial_msgs9TopicInfoE,
 4231              		.align	2
 4234              	_ZTVN14rosserial_msgs9TopicInfoE:
 4235 0000 00000000 		.word	0
 4236 0004 00000000 		.word	0
 4237 0008 00000000 		.word	_ZNK14rosserial_msgs9TopicInfo9serializeEPh
 4238 000c 00000000 		.word	_ZN14rosserial_msgs9TopicInfo11deserializeEPh
 4239 0010 00000000 		.word	_ZN14rosserial_msgs9TopicInfo7getTypeEv
 4240 0014 00000000 		.word	_ZN14rosserial_msgs9TopicInfo6getMD5Ev
 4241              		.weak	_ZTVN14rosserial_msgs3LogE
 4242              		.section	.rodata._ZTVN14rosserial_msgs3LogE,"aG",%progbits,_ZTVN14rosserial_msgs3LogE,comdat
 4243              		.align	2
 4246              	_ZTVN14rosserial_msgs3LogE:
 4247 0000 00000000 		.word	0
 4248 0004 00000000 		.word	0
 4249 0008 00000000 		.word	_ZNK14rosserial_msgs3Log9serializeEPh
 4250 000c 00000000 		.word	_ZN14rosserial_msgs3Log11deserializeEPh
 4251 0010 00000000 		.word	_ZN14rosserial_msgs3Log7getTypeEv
 4252 0014 00000000 		.word	_ZN14rosserial_msgs3Log6getMD5Ev
 4253              		.weak	_ZTVN14rosserial_msgs20RequestParamResponseE
 4254              		.section	.rodata._ZTVN14rosserial_msgs20RequestParamResponseE,"aG",%progbits,_ZTVN14rosserial_msgs
 4255              		.align	2
ARM GAS  /var/folders/l3/4y5292px21b4835bsnjwqc7w009kq1/T//ccNqrcnV.s 			page 115


 4258              	_ZTVN14rosserial_msgs20RequestParamResponseE:
 4259 0000 00000000 		.word	0
 4260 0004 00000000 		.word	0
 4261 0008 00000000 		.word	_ZNK14rosserial_msgs20RequestParamResponse9serializeEPh
 4262 000c 00000000 		.word	_ZN14rosserial_msgs20RequestParamResponse11deserializeEPh
 4263 0010 00000000 		.word	_ZN14rosserial_msgs20RequestParamResponse7getTypeEv
 4264 0014 00000000 		.word	_ZN14rosserial_msgs20RequestParamResponse6getMD5Ev
 4265              		.weak	_ZTVN3ros11NodeHandle_I13STM32HardwareLi5ELi5ELi512ELi512EEE
 4266              		.section	.rodata._ZTVN3ros11NodeHandle_I13STM32HardwareLi5ELi5ELi512ELi512EEE,"aG",%progbits,_ZTVN
 4267              		.align	2
 4270              	_ZTVN3ros11NodeHandle_I13STM32HardwareLi5ELi5ELi512ELi512EEE:
 4271 0000 00000000 		.word	0
 4272 0004 00000000 		.word	0
 4273 0008 00000000 		.word	_ZN3ros11NodeHandle_I13STM32HardwareLi5ELi5ELi512ELi512EE7publishEiPKNS_3MsgE
 4274 000c 00000000 		.word	_ZN3ros11NodeHandle_I13STM32HardwareLi5ELi5ELi512ELi512EE8spinOnceEv
 4275 0010 00000000 		.word	_ZN3ros11NodeHandle_I13STM32HardwareLi5ELi5ELi512ELi512EE9connectedEv
 4276              		.global	nh
 4277              		.section	.bss.nh,"aw",%nobits
 4278              		.align	2
 4279              		.set	.LANCHOR1,. + 0
 4282              	nh:
 4283 0000 00000000 		.space	1268
 4283      00000000 
 4283      00000000 
 4283      00000000 
 4283      00000000 
 4284              		.section	.rodata._Z10App_PrintfPKcz.str1.4,"aMS",%progbits,1
 4285              		.align	2
 4286              	.LC7:
 4287 0000 257300   		.ascii	"%s\000"
 4288              		.section	.rodata._ZN14rosserial_msgs20RequestParamResponse6getMD5Ev.str1.4,"aMS",%progbits,1
 4289              		.align	2
 4290              	.LC6:
 4291 0000 39663065 		.ascii	"9f0e98bda65981986ddf53afa7a40e49\000"
 4291      39386264 
 4291      61363539 
 4291      38313938 
 4291      36646466 
 4292              		.section	.rodata._ZN14rosserial_msgs3Log6getMD5Ev.str1.4,"aMS",%progbits,1
 4293              		.align	2
 4294              	.LC5:
 4295 0000 31316162 		.ascii	"11abd731c25933261cd6183bd12d6295\000"
 4295      64373331 
 4295      63323539 
 4295      33333236 
 4295      31636436 
 4296              		.section	.rodata._ZN14rosserial_msgs3Log7getTypeEv.str1.4,"aMS",%progbits,1
 4297              		.align	2
 4298              	.LC4:
 4299 0000 726F7373 		.ascii	"rosserial_msgs/Log\000"
 4299      65726961 
 4299      6C5F6D73 
 4299      67732F4C 
 4299      6F6700
 4300              		.section	.rodata._ZN14rosserial_msgs9TopicInfo6getMD5Ev.str1.4,"aMS",%progbits,1
 4301              		.align	2
 4302              	.LC3:
ARM GAS  /var/folders/l3/4y5292px21b4835bsnjwqc7w009kq1/T//ccNqrcnV.s 			page 116


 4303 0000 30616435 		.ascii	"0ad51f88fc44892f8c10684077646005\000"
 4303      31663838 
 4303      66633434 
 4303      38393266 
 4303      38633130 
 4304              		.section	.rodata._ZN14rosserial_msgs9TopicInfo7getTypeEv.str1.4,"aMS",%progbits,1
 4305              		.align	2
 4306              	.LC2:
 4307 0000 726F7373 		.ascii	"rosserial_msgs/TopicInfo\000"
 4307      65726961 
 4307      6C5F6D73 
 4307      67732F54 
 4307      6F706963 
 4308              		.section	.rodata._ZN14rosserial_msgsL12REQUESTPARAME,"a",%progbits
 4309              		.align	2
 4310              		.set	.LANCHOR0,. + 0
 4313              	_ZN14rosserial_msgsL12REQUESTPARAME:
 4314 0000 726F7373 		.ascii	"rosserial_msgs/RequestParam\000"
 4314      65726961 
 4314      6C5F6D73 
 4314      67732F52 
 4314      65717565 
 4315              		.section	.rodata._ZN3ros11NodeHandle_I13STM32HardwareLi5ELi5ELi512ELi512EE8publish1EiPKNS_3MsgE.st
 4316              		.align	2
 4317              	.LC10:
 4318 0000 4D657373 		.ascii	"Message from device dropped: message larger than bu"
 4318      61676520 
 4318      66726F6D 
 4318      20646576 
 4318      69636520 
 4319 0033 66666572 		.ascii	"ffer.\000"
 4319      2E00
 4320              		.section	.rodata._ZN8std_msgs4Time6getMD5Ev.str1.4,"aMS",%progbits,1
 4321              		.align	2
 4322              	.LC1:
 4323 0000 63643731 		.ascii	"cd7166c74c552c311fbcc2fe5a7bc289\000"
 4323      36366337 
 4323      34633535 
 4323      32633331 
 4323      31666263 
 4324              		.section	.rodata._ZN8std_msgs4Time7getTypeEv.str1.4,"aMS",%progbits,1
 4325              		.align	2
 4326              	.LC0:
 4327 0000 7374645F 		.ascii	"std_msgs/Time\000"
 4327      6D736773 
 4327      2F54696D 
 4327      6500
 4328              		.section	.rodata.vApplicationMallocFailedHook.str1.4,"aMS",%progbits,1
 4329              		.align	2
 4330              	.LC8:
 4331 0000 6D616C6C 		.ascii	"mallock failed hook\000"
 4331      6F636B20 
 4331      6661696C 
 4331      65642068 
 4331      6F6F6B00 
 4332              		.section	.rodata.vApplicationStackOverflowHook.str1.4,"aMS",%progbits,1
 4333              		.align	2
ARM GAS  /var/folders/l3/4y5292px21b4835bsnjwqc7w009kq1/T//ccNqrcnV.s 			page 117


 4334              	.LC9:
 4335 0000 7461736B 		.ascii	"task: %s stack is overFlow\015\012\000"
 4335      3A202573 
 4335      20737461 
 4335      636B2069 
 4335      73206F76 
 4336              		.text
 4337              	.Letext0:
 4338              		.file 11 "/usr/local/Cellar/gcc-arm-none-eabi/20180627/lib/gcc/arm-none-eabi/7.3.1/include/stdarg.
 4339              		.file 12 "/usr/local/Cellar/gcc-arm-none-eabi/20180627/arm-none-eabi/include/machine/_default_type
 4340              		.file 13 "/usr/local/Cellar/gcc-arm-none-eabi/20180627/lib/gcc/arm-none-eabi/7.3.1/include/stddef.
 4341              		.file 14 "/usr/local/Cellar/gcc-arm-none-eabi/20180627/arm-none-eabi/include/sys/lock.h"
 4342              		.file 15 "/usr/local/Cellar/gcc-arm-none-eabi/20180627/arm-none-eabi/include/sys/_types.h"
 4343              		.file 16 "/usr/local/Cellar/gcc-arm-none-eabi/20180627/arm-none-eabi/include/sys/reent.h"
 4344              		.file 17 "<built-in>"
 4345              		.file 18 "/usr/local/Cellar/gcc-arm-none-eabi/20180627/arm-none-eabi/include/sys/_stdint.h"
 4346              		.file 19 "/usr/local/Cellar/gcc-arm-none-eabi/20180627/arm-none-eabi/include/c++/7.3.1/cstdlib"
 4347              		.file 20 "/usr/local/Cellar/gcc-arm-none-eabi/20180627/arm-none-eabi/include/c++/7.3.1/bits/cpp_ty
 4348              		.file 21 "/usr/local/Cellar/gcc-arm-none-eabi/20180627/arm-none-eabi/include/c++/7.3.1/cmath"
 4349              		.file 22 "/usr/local/Cellar/gcc-arm-none-eabi/20180627/arm-none-eabi/include/c++/7.3.1/cstring"
 4350              		.file 23 "/usr/local/Cellar/gcc-arm-none-eabi/20180627/arm-none-eabi/include/c++/7.3.1/arm-none-ea
 4351              		.file 24 "/usr/local/Cellar/gcc-arm-none-eabi/20180627/arm-none-eabi/include/stdlib.h"
 4352              		.file 25 "/usr/local/Cellar/gcc-arm-none-eabi/20180627/arm-none-eabi/include/c++/7.3.1/stdlib.h"
 4353              		.file 26 "/usr/local/Cellar/gcc-arm-none-eabi/20180627/arm-none-eabi/include/math.h"
 4354              		.file 27 "/usr/local/Cellar/gcc-arm-none-eabi/20180627/arm-none-eabi/include/c++/7.3.1/math.h"
 4355              		.file 28 "../Libraries/CMSIS/CM4/CoreSupport/core_cm4.h"
 4356              		.file 29 "../Libraries/CMSIS/CM4/DeviceSupport/system_at32f4xx.h"
 4357              		.file 30 "../Libraries/CMSIS/CM4/DeviceSupport/at32f4xx.h"
 4358              		.file 31 "Inc/FreeRTOSConfig.h"
 4359              		.file 32 "../Middlewares/FreeRTOS//Source/portable/GCC/ARM_CM4F/portmacro.h"
 4360              		.file 33 "../Middlewares/FreeRTOS//Source/include/task.h"
 4361              		.file 34 "../Middlewares/FreeRTOS//Source/include/queue.h"
 4362              		.file 35 "../Middlewares/FreeRTOS//Source/include/semphr.h"
 4363              		.file 36 "bsp/inc/bsp_uart_fifo.h"
 4364              		.file 37 "../Libraries/ROSSerial/ros/msg.h"
 4365              		.file 38 "../Libraries/ROSSerial/ros/duration.h"
 4366              		.file 39 "../Libraries/ROSSerial/ros.h"
 4367              		.file 40 "/usr/local/Cellar/gcc-arm-none-eabi/20180627/arm-none-eabi/include/string.h"
 4368              		.file 41 "/usr/local/Cellar/gcc-arm-none-eabi/20180627/arm-none-eabi/include/stdio.h"
 4369              		.file 42 "bsp/inc/bsp.h"
 4370              		.file 43 "ROSTasks/Inc/spin_task.h"
 4371              		.file 44 "ROSTasks/Inc/publish_task.h"
 4372              		.file 45 "ROSTasks/Inc/subscribe_task.h"
ARM GAS  /var/folders/l3/4y5292px21b4835bsnjwqc7w009kq1/T//ccNqrcnV.s 			page 118


DEFINED SYMBOLS
                            *ABS*:0000000000000000 main.cpp
/var/folders/l3/4y5292px21b4835bsnjwqc7w009kq1/T//ccNqrcnV.s:17     .text._ZNK8std_msgs4Time9serializeEPh:0000000000000000 $t
/var/folders/l3/4y5292px21b4835bsnjwqc7w009kq1/T//ccNqrcnV.s:24     .text._ZNK8std_msgs4Time9serializeEPh:0000000000000000 _ZNK8std_msgs4Time9serializeEPh
.ARM.exidx.text._ZNK8std_msgs4Time9serializeEPh:0000000000000000 $d
/var/folders/l3/4y5292px21b4835bsnjwqc7w009kq1/T//ccNqrcnV.s:72     .text._ZN8std_msgs4Time11deserializeEPh:0000000000000000 $t
/var/folders/l3/4y5292px21b4835bsnjwqc7w009kq1/T//ccNqrcnV.s:79     .text._ZN8std_msgs4Time11deserializeEPh:0000000000000000 _ZN8std_msgs4Time11deserializeEPh
.ARM.exidx.text._ZN8std_msgs4Time11deserializeEPh:0000000000000000 $d
/var/folders/l3/4y5292px21b4835bsnjwqc7w009kq1/T//ccNqrcnV.s:130    .text._ZN8std_msgs4Time7getTypeEv:0000000000000000 $t
/var/folders/l3/4y5292px21b4835bsnjwqc7w009kq1/T//ccNqrcnV.s:137    .text._ZN8std_msgs4Time7getTypeEv:0000000000000000 _ZN8std_msgs4Time7getTypeEv
/var/folders/l3/4y5292px21b4835bsnjwqc7w009kq1/T//ccNqrcnV.s:153    .text._ZN8std_msgs4Time7getTypeEv:0000000000000004 $d
.ARM.exidx.text._ZN8std_msgs4Time7getTypeEv:0000000000000000 $d
/var/folders/l3/4y5292px21b4835bsnjwqc7w009kq1/T//ccNqrcnV.s:160    .text._ZN8std_msgs4Time6getMD5Ev:0000000000000000 $t
/var/folders/l3/4y5292px21b4835bsnjwqc7w009kq1/T//ccNqrcnV.s:167    .text._ZN8std_msgs4Time6getMD5Ev:0000000000000000 _ZN8std_msgs4Time6getMD5Ev
/var/folders/l3/4y5292px21b4835bsnjwqc7w009kq1/T//ccNqrcnV.s:183    .text._ZN8std_msgs4Time6getMD5Ev:0000000000000004 $d
.ARM.exidx.text._ZN8std_msgs4Time6getMD5Ev:0000000000000000 $d
/var/folders/l3/4y5292px21b4835bsnjwqc7w009kq1/T//ccNqrcnV.s:190    .text._ZN14rosserial_msgs9TopicInfo11deserializeEPh:0000000000000000 $t
/var/folders/l3/4y5292px21b4835bsnjwqc7w009kq1/T//ccNqrcnV.s:197    .text._ZN14rosserial_msgs9TopicInfo11deserializeEPh:0000000000000000 _ZN14rosserial_msgs9TopicInfo11deserializeEPh
.ARM.exidx.text._ZN14rosserial_msgs9TopicInfo11deserializeEPh:0000000000000000 $d
/var/folders/l3/4y5292px21b4835bsnjwqc7w009kq1/T//ccNqrcnV.s:359    .text._ZN14rosserial_msgs9TopicInfo7getTypeEv:0000000000000000 $t
/var/folders/l3/4y5292px21b4835bsnjwqc7w009kq1/T//ccNqrcnV.s:366    .text._ZN14rosserial_msgs9TopicInfo7getTypeEv:0000000000000000 _ZN14rosserial_msgs9TopicInfo7getTypeEv
/var/folders/l3/4y5292px21b4835bsnjwqc7w009kq1/T//ccNqrcnV.s:382    .text._ZN14rosserial_msgs9TopicInfo7getTypeEv:0000000000000004 $d
.ARM.exidx.text._ZN14rosserial_msgs9TopicInfo7getTypeEv:0000000000000000 $d
/var/folders/l3/4y5292px21b4835bsnjwqc7w009kq1/T//ccNqrcnV.s:389    .text._ZN14rosserial_msgs9TopicInfo6getMD5Ev:0000000000000000 $t
/var/folders/l3/4y5292px21b4835bsnjwqc7w009kq1/T//ccNqrcnV.s:396    .text._ZN14rosserial_msgs9TopicInfo6getMD5Ev:0000000000000000 _ZN14rosserial_msgs9TopicInfo6getMD5Ev
/var/folders/l3/4y5292px21b4835bsnjwqc7w009kq1/T//ccNqrcnV.s:412    .text._ZN14rosserial_msgs9TopicInfo6getMD5Ev:0000000000000004 $d
.ARM.exidx.text._ZN14rosserial_msgs9TopicInfo6getMD5Ev:0000000000000000 $d
/var/folders/l3/4y5292px21b4835bsnjwqc7w009kq1/T//ccNqrcnV.s:419    .text._ZN14rosserial_msgs3Log11deserializeEPh:0000000000000000 $t
/var/folders/l3/4y5292px21b4835bsnjwqc7w009kq1/T//ccNqrcnV.s:426    .text._ZN14rosserial_msgs3Log11deserializeEPh:0000000000000000 _ZN14rosserial_msgs3Log11deserializeEPh
.ARM.exidx.text._ZN14rosserial_msgs3Log11deserializeEPh:0000000000000000 $d
/var/folders/l3/4y5292px21b4835bsnjwqc7w009kq1/T//ccNqrcnV.s:494    .text._ZN14rosserial_msgs3Log7getTypeEv:0000000000000000 $t
/var/folders/l3/4y5292px21b4835bsnjwqc7w009kq1/T//ccNqrcnV.s:501    .text._ZN14rosserial_msgs3Log7getTypeEv:0000000000000000 _ZN14rosserial_msgs3Log7getTypeEv
/var/folders/l3/4y5292px21b4835bsnjwqc7w009kq1/T//ccNqrcnV.s:517    .text._ZN14rosserial_msgs3Log7getTypeEv:0000000000000004 $d
.ARM.exidx.text._ZN14rosserial_msgs3Log7getTypeEv:0000000000000000 $d
/var/folders/l3/4y5292px21b4835bsnjwqc7w009kq1/T//ccNqrcnV.s:524    .text._ZN14rosserial_msgs3Log6getMD5Ev:0000000000000000 $t
/var/folders/l3/4y5292px21b4835bsnjwqc7w009kq1/T//ccNqrcnV.s:531    .text._ZN14rosserial_msgs3Log6getMD5Ev:0000000000000000 _ZN14rosserial_msgs3Log6getMD5Ev
/var/folders/l3/4y5292px21b4835bsnjwqc7w009kq1/T//ccNqrcnV.s:547    .text._ZN14rosserial_msgs3Log6getMD5Ev:0000000000000004 $d
.ARM.exidx.text._ZN14rosserial_msgs3Log6getMD5Ev:0000000000000000 $d
/var/folders/l3/4y5292px21b4835bsnjwqc7w009kq1/T//ccNqrcnV.s:554    .text._ZN14rosserial_msgs20RequestParamResponse7getTypeEv:0000000000000000 $t
/var/folders/l3/4y5292px21b4835bsnjwqc7w009kq1/T//ccNqrcnV.s:561    .text._ZN14rosserial_msgs20RequestParamResponse7getTypeEv:0000000000000000 _ZN14rosserial_msgs20RequestParamResponse7getTypeEv
/var/folders/l3/4y5292px21b4835bsnjwqc7w009kq1/T//ccNqrcnV.s:578    .text._ZN14rosserial_msgs20RequestParamResponse7getTypeEv:0000000000000004 $d
.ARM.exidx.text._ZN14rosserial_msgs20RequestParamResponse7getTypeEv:0000000000000000 $d
/var/folders/l3/4y5292px21b4835bsnjwqc7w009kq1/T//ccNqrcnV.s:585    .text._ZN14rosserial_msgs20RequestParamResponse6getMD5Ev:0000000000000000 $t
/var/folders/l3/4y5292px21b4835bsnjwqc7w009kq1/T//ccNqrcnV.s:592    .text._ZN14rosserial_msgs20RequestParamResponse6getMD5Ev:0000000000000000 _ZN14rosserial_msgs20RequestParamResponse6getMD5Ev
/var/folders/l3/4y5292px21b4835bsnjwqc7w009kq1/T//ccNqrcnV.s:608    .text._ZN14rosserial_msgs20RequestParamResponse6getMD5Ev:0000000000000004 $d
.ARM.exidx.text._ZN14rosserial_msgs20RequestParamResponse6getMD5Ev:0000000000000000 $d
/var/folders/l3/4y5292px21b4835bsnjwqc7w009kq1/T//ccNqrcnV.s:615    .text._Z41__static_initialization_and_destruction_0ii:0000000000000000 $t
/var/folders/l3/4y5292px21b4835bsnjwqc7w009kq1/T//ccNqrcnV.s:621    .text._Z41__static_initialization_and_destruction_0ii:0000000000000000 _Z41__static_initialization_and_destruction_0ii
/var/folders/l3/4y5292px21b4835bsnjwqc7w009kq1/T//ccNqrcnV.s:768    .text._Z41__static_initialization_and_destruction_0ii:00000000000000a0 $d
/var/folders/l3/4y5292px21b4835bsnjwqc7w009kq1/T//ccNqrcnV.s:4270   .rodata._ZTVN3ros11NodeHandle_I13STM32HardwareLi5ELi5ELi512ELi512EEE:0000000000000000 _ZTVN3ros11NodeHandle_I13STM32HardwareLi5ELi5ELi512ELi512EEE
/var/folders/l3/4y5292px21b4835bsnjwqc7w009kq1/T//ccNqrcnV.s:4258   .rodata._ZTVN14rosserial_msgs20RequestParamResponseE:0000000000000000 _ZTVN14rosserial_msgs20RequestParamResponseE
.ARM.exidx.text._Z41__static_initialization_and_destruction_0ii:0000000000000000 $d
/var/folders/l3/4y5292px21b4835bsnjwqc7w009kq1/T//ccNqrcnV.s:777    .text._ZN3ros11NodeHandle_I13STM32HardwareLi5ELi5ELi512ELi512EE9connectedEv:0000000000000000 $t
/var/folders/l3/4y5292px21b4835bsnjwqc7w009kq1/T//ccNqrcnV.s:784    .text._ZN3ros11NodeHandle_I13STM32HardwareLi5ELi5ELi512ELi512EE9connectedEv:0000000000000000 _ZN3ros11NodeHandle_I13STM32HardwareLi5ELi5ELi512ELi512EE9connectedEv
.ARM.exidx.text._ZN3ros11NodeHandle_I13STM32HardwareLi5ELi5ELi512ELi512EE9connectedEv:0000000000000000 $d
/var/folders/l3/4y5292px21b4835bsnjwqc7w009kq1/T//ccNqrcnV.s:803    .text._ZNK14rosserial_msgs9TopicInfo9serializeEPh:0000000000000000 $t
/var/folders/l3/4y5292px21b4835bsnjwqc7w009kq1/T//ccNqrcnV.s:810    .text._ZNK14rosserial_msgs9TopicInfo9serializeEPh:0000000000000000 _ZNK14rosserial_msgs9TopicInfo9serializeEPh
ARM GAS  /var/folders/l3/4y5292px21b4835bsnjwqc7w009kq1/T//ccNqrcnV.s 			page 119


.ARM.exidx.text._ZNK14rosserial_msgs9TopicInfo9serializeEPh:0000000000000000 $d
/var/folders/l3/4y5292px21b4835bsnjwqc7w009kq1/T//ccNqrcnV.s:927    .text._ZNK14rosserial_msgs3Log9serializeEPh:0000000000000000 $t
/var/folders/l3/4y5292px21b4835bsnjwqc7w009kq1/T//ccNqrcnV.s:934    .text._ZNK14rosserial_msgs3Log9serializeEPh:0000000000000000 _ZNK14rosserial_msgs3Log9serializeEPh
.ARM.exidx.text._ZNK14rosserial_msgs3Log9serializeEPh:0000000000000000 $d
/var/folders/l3/4y5292px21b4835bsnjwqc7w009kq1/T//ccNqrcnV.s:983    .text._ZNK14rosserial_msgs20RequestParamResponse9serializeEPh:0000000000000000 $t
/var/folders/l3/4y5292px21b4835bsnjwqc7w009kq1/T//ccNqrcnV.s:990    .text._ZNK14rosserial_msgs20RequestParamResponse9serializeEPh:0000000000000000 _ZNK14rosserial_msgs20RequestParamResponse9serializeEPh
.ARM.exidx.text._ZNK14rosserial_msgs20RequestParamResponse9serializeEPh:0000000000000000 $d
/var/folders/l3/4y5292px21b4835bsnjwqc7w009kq1/T//ccNqrcnV.s:1185   .text._ZN14rosserial_msgs20RequestParamResponse11deserializeEPh:0000000000000000 $t
/var/folders/l3/4y5292px21b4835bsnjwqc7w009kq1/T//ccNqrcnV.s:1192   .text._ZN14rosserial_msgs20RequestParamResponse11deserializeEPh:0000000000000000 _ZN14rosserial_msgs20RequestParamResponse11deserializeEPh
.ARM.exidx.text._ZN14rosserial_msgs20RequestParamResponse11deserializeEPh:0000000000000000 $d
/var/folders/l3/4y5292px21b4835bsnjwqc7w009kq1/T//ccNqrcnV.s:1442   .text.main:0000000000000000 $t
/var/folders/l3/4y5292px21b4835bsnjwqc7w009kq1/T//ccNqrcnV.s:1449   .text.main:0000000000000000 main
/var/folders/l3/4y5292px21b4835bsnjwqc7w009kq1/T//ccNqrcnV.s:1526   .text.main:0000000000000044 $d
             .ARM.extab.text.main:0000000000000000 $d
             .ARM.exidx.text.main:0000000000000000 $d
/var/folders/l3/4y5292px21b4835bsnjwqc7w009kq1/T//ccNqrcnV.s:1532   .text._Z10App_PrintfPKcz:0000000000000000 $t
/var/folders/l3/4y5292px21b4835bsnjwqc7w009kq1/T//ccNqrcnV.s:1539   .text._Z10App_PrintfPKcz:0000000000000000 _Z10App_PrintfPKcz
/var/folders/l3/4y5292px21b4835bsnjwqc7w009kq1/T//ccNqrcnV.s:1612   .text._Z10App_PrintfPKcz:0000000000000044 $d
.ARM.extab.text._Z10App_PrintfPKcz:0000000000000000 $d
.ARM.exidx.text._Z10App_PrintfPKcz:0000000000000000 $d
/var/folders/l3/4y5292px21b4835bsnjwqc7w009kq1/T//ccNqrcnV.s:1618   .text.vApplicationMallocFailedHook:0000000000000000 $t
/var/folders/l3/4y5292px21b4835bsnjwqc7w009kq1/T//ccNqrcnV.s:1625   .text.vApplicationMallocFailedHook:0000000000000000 vApplicationMallocFailedHook
/var/folders/l3/4y5292px21b4835bsnjwqc7w009kq1/T//ccNqrcnV.s:1647   .text.vApplicationMallocFailedHook:000000000000000c $d
.ARM.extab.text.vApplicationMallocFailedHook:0000000000000000 $d
.ARM.exidx.text.vApplicationMallocFailedHook:0000000000000000 $d
/var/folders/l3/4y5292px21b4835bsnjwqc7w009kq1/T//ccNqrcnV.s:1653   .text.vApplicationStackOverflowHook:0000000000000000 $t
/var/folders/l3/4y5292px21b4835bsnjwqc7w009kq1/T//ccNqrcnV.s:1660   .text.vApplicationStackOverflowHook:0000000000000000 vApplicationStackOverflowHook
/var/folders/l3/4y5292px21b4835bsnjwqc7w009kq1/T//ccNqrcnV.s:1684   .text.vApplicationStackOverflowHook:000000000000000c $d
.ARM.extab.text.vApplicationStackOverflowHook:0000000000000000 $d
.ARM.exidx.text.vApplicationStackOverflowHook:0000000000000000 $d
/var/folders/l3/4y5292px21b4835bsnjwqc7w009kq1/T//ccNqrcnV.s:1690   .text._ZN3ros11NodeHandle_I13STM32HardwareLi5ELi5ELi512ELi512EE8publish1EiPKNS_3MsgE:0000000000000000 $t
/var/folders/l3/4y5292px21b4835bsnjwqc7w009kq1/T//ccNqrcnV.s:1697   .text._ZN3ros11NodeHandle_I13STM32HardwareLi5ELi5ELi512ELi512EE8publish1EiPKNS_3MsgE:0000000000000000 _ZN3ros11NodeHandle_I13STM32HardwareLi5ELi5ELi512ELi512EE8publish1EiPKNS_3MsgE
/var/folders/l3/4y5292px21b4835bsnjwqc7w009kq1/T//ccNqrcnV.s:1863   .text._ZN3ros11NodeHandle_I13STM32HardwareLi5ELi5ELi512ELi512EE8publish1EiPKNS_3MsgE:00000000000000b8 $d
/var/folders/l3/4y5292px21b4835bsnjwqc7w009kq1/T//ccNqrcnV.s:4246   .rodata._ZTVN14rosserial_msgs3LogE:0000000000000000 _ZTVN14rosserial_msgs3LogE
.ARM.exidx.text._ZN3ros11NodeHandle_I13STM32HardwareLi5ELi5ELi512ELi512EE8publish1EiPKNS_3MsgE:0000000000000000 $d
/var/folders/l3/4y5292px21b4835bsnjwqc7w009kq1/T//ccNqrcnV.s:1870   .text._ZN3ros11NodeHandle_I13STM32HardwareLi5ELi5ELi512ELi512EE7publishEiPKNS_3MsgE:0000000000000000 $t
/var/folders/l3/4y5292px21b4835bsnjwqc7w009kq1/T//ccNqrcnV.s:1877   .text._ZN3ros11NodeHandle_I13STM32HardwareLi5ELi5ELi512ELi512EE7publishEiPKNS_3MsgE:0000000000000000 _ZN3ros11NodeHandle_I13STM32HardwareLi5ELi5ELi512ELi512EE7publishEiPKNS_3MsgE
/var/folders/l3/4y5292px21b4835bsnjwqc7w009kq1/T//ccNqrcnV.s:2173   .text._ZN3ros11NodeHandle_I13STM32HardwareLi5ELi5ELi512ELi512EE7publishEiPKNS_3MsgE:0000000000000140 $d
.ARM.exidx.text._ZN3ros11NodeHandle_I13STM32HardwareLi5ELi5ELi512ELi512EE7publishEiPKNS_3MsgE:0000000000000000 $d
/var/folders/l3/4y5292px21b4835bsnjwqc7w009kq1/T//ccNqrcnV.s:2180   .text._ZN3ros11NodeHandle_I13STM32HardwareLi5ELi5ELi512ELi512EE15requestSyncTimeEv:0000000000000000 $t
/var/folders/l3/4y5292px21b4835bsnjwqc7w009kq1/T//ccNqrcnV.s:2187   .text._ZN3ros11NodeHandle_I13STM32HardwareLi5ELi5ELi512ELi512EE15requestSyncTimeEv:0000000000000000 _ZN3ros11NodeHandle_I13STM32HardwareLi5ELi5ELi512ELi512EE15requestSyncTimeEv
/var/folders/l3/4y5292px21b4835bsnjwqc7w009kq1/T//ccNqrcnV.s:2474   .text._ZN3ros11NodeHandle_I13STM32HardwareLi5ELi5ELi512ELi512EE15requestSyncTimeEv:0000000000000130 $d
/var/folders/l3/4y5292px21b4835bsnjwqc7w009kq1/T//ccNqrcnV.s:4222   .rodata._ZTVN8std_msgs4TimeE:0000000000000000 _ZTVN8std_msgs4TimeE
.ARM.exidx.text._ZN3ros11NodeHandle_I13STM32HardwareLi5ELi5ELi512ELi512EE15requestSyncTimeEv:0000000000000000 $d
/var/folders/l3/4y5292px21b4835bsnjwqc7w009kq1/T//ccNqrcnV.s:2492   .text._ZN3ros11NodeHandle_I13STM32HardwareLi5ELi5ELi512ELi512EE15negotiateTopicsEv:0000000000000000 $t
/var/folders/l3/4y5292px21b4835bsnjwqc7w009kq1/T//ccNqrcnV.s:2499   .text._ZN3ros11NodeHandle_I13STM32HardwareLi5ELi5ELi512ELi512EE15negotiateTopicsEv:0000000000000000 _ZN3ros11NodeHandle_I13STM32HardwareLi5ELi5ELi512ELi512EE15negotiateTopicsEv
/var/folders/l3/4y5292px21b4835bsnjwqc7w009kq1/T//ccNqrcnV.s:3109   .text._ZN3ros11NodeHandle_I13STM32HardwareLi5ELi5ELi512ELi512EE15negotiateTopicsEv:00000000000002dc $d
/var/folders/l3/4y5292px21b4835bsnjwqc7w009kq1/T//ccNqrcnV.s:4234   .rodata._ZTVN14rosserial_msgs9TopicInfoE:0000000000000000 _ZTVN14rosserial_msgs9TopicInfoE
.ARM.exidx.text._ZN3ros11NodeHandle_I13STM32HardwareLi5ELi5ELi512ELi512EE15negotiateTopicsEv:0000000000000000 $d
/var/folders/l3/4y5292px21b4835bsnjwqc7w009kq1/T//ccNqrcnV.s:3117   .text._ZN3ros11NodeHandle_I13STM32HardwareLi5ELi5ELi512ELi512EE8spinOnceEv:0000000000000000 $t
/var/folders/l3/4y5292px21b4835bsnjwqc7w009kq1/T//ccNqrcnV.s:3124   .text._ZN3ros11NodeHandle_I13STM32HardwareLi5ELi5ELi512ELi512EE8spinOnceEv:0000000000000000 _ZN3ros11NodeHandle_I13STM32HardwareLi5ELi5ELi512ELi512EE8spinOnceEv
/var/folders/l3/4y5292px21b4835bsnjwqc7w009kq1/T//ccNqrcnV.s:3975   .text._ZN3ros11NodeHandle_I13STM32HardwareLi5ELi5ELi512ELi512EE8spinOnceEv:0000000000000470 $d
/var/folders/l3/4y5292px21b4835bsnjwqc7w009kq1/T//ccNqrcnV.s:4215   .bss._ZZN3ros11NodeHandle_I13STM32HardwareLi5ELi5ELi512ELi512EE9spinOnce1EvE10s_CallBack:0000000000000000 _ZZN3ros11NodeHandle_I13STM32HardwareLi5ELi5ELi512ELi512EE9spinOnce1EvE10s_CallBack
/var/folders/l3/4y5292px21b4835bsnjwqc7w009kq1/T//ccNqrcnV.s:3990   .text._ZN3ros11NodeHandle_I13STM32HardwareLi5ELi5ELi512ELi512EE8spinOnceEv:000000000000048c $t
/var/folders/l3/4y5292px21b4835bsnjwqc7w009kq1/T//ccNqrcnV.s:4170   .text._ZN3ros11NodeHandle_I13STM32HardwareLi5ELi5ELi512ELi512EE8spinOnceEv:0000000000000540 $d
.ARM.exidx.text._ZN3ros11NodeHandle_I13STM32HardwareLi5ELi5ELi512ELi512EE8spinOnceEv:0000000000000000 $d
/var/folders/l3/4y5292px21b4835bsnjwqc7w009kq1/T//ccNqrcnV.s:4178   .text._GLOBAL__sub_I_nh:0000000000000000 $t
ARM GAS  /var/folders/l3/4y5292px21b4835bsnjwqc7w009kq1/T//ccNqrcnV.s 			page 120


/var/folders/l3/4y5292px21b4835bsnjwqc7w009kq1/T//ccNqrcnV.s:4184   .text._GLOBAL__sub_I_nh:0000000000000000 _GLOBAL__sub_I_nh
.ARM.exidx.text._GLOBAL__sub_I_nh:0000000000000000 $d
/var/folders/l3/4y5292px21b4835bsnjwqc7w009kq1/T//ccNqrcnV.s:4208   .init_array:0000000000000000 $d
/var/folders/l3/4y5292px21b4835bsnjwqc7w009kq1/T//ccNqrcnV.s:4212   .bss._ZZN3ros11NodeHandle_I13STM32HardwareLi5ELi5ELi512ELi512EE9spinOnce1EvE10s_CallBack:0000000000000000 $d
/var/folders/l3/4y5292px21b4835bsnjwqc7w009kq1/T//ccNqrcnV.s:4219   .rodata._ZTVN8std_msgs4TimeE:0000000000000000 $d
/var/folders/l3/4y5292px21b4835bsnjwqc7w009kq1/T//ccNqrcnV.s:4231   .rodata._ZTVN14rosserial_msgs9TopicInfoE:0000000000000000 $d
/var/folders/l3/4y5292px21b4835bsnjwqc7w009kq1/T//ccNqrcnV.s:4243   .rodata._ZTVN14rosserial_msgs3LogE:0000000000000000 $d
/var/folders/l3/4y5292px21b4835bsnjwqc7w009kq1/T//ccNqrcnV.s:4255   .rodata._ZTVN14rosserial_msgs20RequestParamResponseE:0000000000000000 $d
/var/folders/l3/4y5292px21b4835bsnjwqc7w009kq1/T//ccNqrcnV.s:4267   .rodata._ZTVN3ros11NodeHandle_I13STM32HardwareLi5ELi5ELi512ELi512EEE:0000000000000000 $d
/var/folders/l3/4y5292px21b4835bsnjwqc7w009kq1/T//ccNqrcnV.s:4282   .bss.nh:0000000000000000 nh
/var/folders/l3/4y5292px21b4835bsnjwqc7w009kq1/T//ccNqrcnV.s:4278   .bss.nh:0000000000000000 $d
/var/folders/l3/4y5292px21b4835bsnjwqc7w009kq1/T//ccNqrcnV.s:4285   .rodata._Z10App_PrintfPKcz.str1.4:0000000000000000 $d
/var/folders/l3/4y5292px21b4835bsnjwqc7w009kq1/T//ccNqrcnV.s:4289   .rodata._ZN14rosserial_msgs20RequestParamResponse6getMD5Ev.str1.4:0000000000000000 $d
/var/folders/l3/4y5292px21b4835bsnjwqc7w009kq1/T//ccNqrcnV.s:4293   .rodata._ZN14rosserial_msgs3Log6getMD5Ev.str1.4:0000000000000000 $d
/var/folders/l3/4y5292px21b4835bsnjwqc7w009kq1/T//ccNqrcnV.s:4297   .rodata._ZN14rosserial_msgs3Log7getTypeEv.str1.4:0000000000000000 $d
/var/folders/l3/4y5292px21b4835bsnjwqc7w009kq1/T//ccNqrcnV.s:4301   .rodata._ZN14rosserial_msgs9TopicInfo6getMD5Ev.str1.4:0000000000000000 $d
/var/folders/l3/4y5292px21b4835bsnjwqc7w009kq1/T//ccNqrcnV.s:4305   .rodata._ZN14rosserial_msgs9TopicInfo7getTypeEv.str1.4:0000000000000000 $d
/var/folders/l3/4y5292px21b4835bsnjwqc7w009kq1/T//ccNqrcnV.s:4309   .rodata._ZN14rosserial_msgsL12REQUESTPARAME:0000000000000000 $d
/var/folders/l3/4y5292px21b4835bsnjwqc7w009kq1/T//ccNqrcnV.s:4313   .rodata._ZN14rosserial_msgsL12REQUESTPARAME:0000000000000000 _ZN14rosserial_msgsL12REQUESTPARAME
/var/folders/l3/4y5292px21b4835bsnjwqc7w009kq1/T//ccNqrcnV.s:4316   .rodata._ZN3ros11NodeHandle_I13STM32HardwareLi5ELi5ELi512ELi512EE8publish1EiPKNS_3MsgE.str1.4:0000000000000000 $d
/var/folders/l3/4y5292px21b4835bsnjwqc7w009kq1/T//ccNqrcnV.s:4321   .rodata._ZN8std_msgs4Time6getMD5Ev.str1.4:0000000000000000 $d
/var/folders/l3/4y5292px21b4835bsnjwqc7w009kq1/T//ccNqrcnV.s:4325   .rodata._ZN8std_msgs4Time7getTypeEv.str1.4:0000000000000000 $d
/var/folders/l3/4y5292px21b4835bsnjwqc7w009kq1/T//ccNqrcnV.s:4329   .rodata.vApplicationMallocFailedHook.str1.4:0000000000000000 $d
/var/folders/l3/4y5292px21b4835bsnjwqc7w009kq1/T//ccNqrcnV.s:4333   .rodata.vApplicationStackOverflowHook.str1.4:0000000000000000 $d

UNDEFINED SYMBOLS
strlen
memcpy
realloc
bsp_Init
_Z15rosSpinTaskInitPN3ros11NodeHandle_I13STM32HardwareLi5ELi5ELi512ELi512EEE
_Z15publishInitTaskPN3ros11NodeHandle_I13STM32HardwareLi5ELi5ELi512ELi512EEE
_Z20rosSubscribeInitTaskPN3ros11NodeHandle_I13STM32HardwareLi5ELi5ELi512ELi512EEE
vTaskStartScheduler
__aeabi_unwind_cpp_pr1
vsnprintf
xQueueGenericReceive
printf
xQueueGenericSend
puts
comSendBuf
__aeabi_unwind_cpp_pr0
xTaskGetTickCount
comGetChar
_ZN3ros16normalizeSecNSecERmS0_
