Archive member included to satisfy reference by file (symbol)

/usr/local/Cellar/gcc-arm-none-eabi/20180627/bin/../lib/gcc/arm-none-eabi/7.3.1/../../../../arm-none-eabi/lib/thumb/v7e-m/fpv4-sp/softfp/libc_nano.a(lib_a-exit.o)
                              /usr/local/Cellar/gcc-arm-none-eabi/20180627/bin/../lib/gcc/arm-none-eabi/7.3.1/../../../../arm-none-eabi/lib/thumb/v7e-m/fpv4-sp/softfp/crt0.o (exit)
/usr/local/Cellar/gcc-arm-none-eabi/20180627/bin/../lib/gcc/arm-none-eabi/7.3.1/../../../../arm-none-eabi/lib/thumb/v7e-m/fpv4-sp/softfp/libc_nano.a(lib_a-impure.o)
                              /usr/local/Cellar/gcc-arm-none-eabi/20180627/bin/../lib/gcc/arm-none-eabi/7.3.1/../../../../arm-none-eabi/lib/thumb/v7e-m/fpv4-sp/softfp/libc_nano.a(lib_a-exit.o) (_global_impure_ptr)
/usr/local/Cellar/gcc-arm-none-eabi/20180627/bin/../lib/gcc/arm-none-eabi/7.3.1/../../../../arm-none-eabi/lib/thumb/v7e-m/fpv4-sp/softfp/libc_nano.a(lib_a-init.o)
                              /usr/local/Cellar/gcc-arm-none-eabi/20180627/bin/../lib/gcc/arm-none-eabi/7.3.1/../../../../arm-none-eabi/lib/thumb/v7e-m/fpv4-sp/softfp/crt0.o (__libc_init_array)
/usr/local/Cellar/gcc-arm-none-eabi/20180627/bin/../lib/gcc/arm-none-eabi/7.3.1/../../../../arm-none-eabi/lib/thumb/v7e-m/fpv4-sp/softfp/libc_nano.a(lib_a-memcpy-stub.o)
                              build/queue.o (memcpy)
/usr/local/Cellar/gcc-arm-none-eabi/20180627/bin/../lib/gcc/arm-none-eabi/7.3.1/../../../../arm-none-eabi/lib/thumb/v7e-m/fpv4-sp/softfp/libc_nano.a(lib_a-memset.o)
                              /usr/local/Cellar/gcc-arm-none-eabi/20180627/bin/../lib/gcc/arm-none-eabi/7.3.1/../../../../arm-none-eabi/lib/thumb/v7e-m/fpv4-sp/softfp/crt0.o (memset)
/usr/local/Cellar/gcc-arm-none-eabi/20180627/bin/../lib/gcc/arm-none-eabi/7.3.1/../../../../arm-none-eabi/lib/thumb/v7e-m/fpv4-sp/softfp/libc_nano.a(lib_a-printf.o)
                              build/main.o (printf)
/usr/local/Cellar/gcc-arm-none-eabi/20180627/bin/../lib/gcc/arm-none-eabi/7.3.1/../../../../arm-none-eabi/lib/thumb/v7e-m/fpv4-sp/softfp/libc_nano.a(lib_a-puts.o)
                              build/main.o (puts)
/usr/local/Cellar/gcc-arm-none-eabi/20180627/bin/../lib/gcc/arm-none-eabi/7.3.1/../../../../arm-none-eabi/lib/thumb/v7e-m/fpv4-sp/softfp/libc_nano.a(lib_a-realloc.o)
                              build/main.o (realloc)
/usr/local/Cellar/gcc-arm-none-eabi/20180627/bin/../lib/gcc/arm-none-eabi/7.3.1/../../../../arm-none-eabi/lib/thumb/v7e-m/fpv4-sp/softfp/libc_nano.a(lib_a-sprintf.o)
                              build/tasks.o (sprintf)
/usr/local/Cellar/gcc-arm-none-eabi/20180627/bin/../lib/gcc/arm-none-eabi/7.3.1/../../../../arm-none-eabi/lib/thumb/v7e-m/fpv4-sp/softfp/libc_nano.a(lib_a-strcpy.o)
                              build/tasks.o (strcpy)
/usr/local/Cellar/gcc-arm-none-eabi/20180627/bin/../lib/gcc/arm-none-eabi/7.3.1/../../../../arm-none-eabi/lib/thumb/v7e-m/fpv4-sp/softfp/libc_nano.a(lib_a-strlen.o)
                              build/tasks.o (strlen)
/usr/local/Cellar/gcc-arm-none-eabi/20180627/bin/../lib/gcc/arm-none-eabi/7.3.1/../../../../arm-none-eabi/lib/thumb/v7e-m/fpv4-sp/softfp/libc_nano.a(lib_a-vsnprintf.o)
                              build/main.o (vsnprintf)
/usr/local/Cellar/gcc-arm-none-eabi/20180627/bin/../lib/gcc/arm-none-eabi/7.3.1/../../../../arm-none-eabi/lib/thumb/v7e-m/fpv4-sp/softfp/libc_nano.a(lib_a-wbuf.o)
                              /usr/local/Cellar/gcc-arm-none-eabi/20180627/bin/../lib/gcc/arm-none-eabi/7.3.1/../../../../arm-none-eabi/lib/thumb/v7e-m/fpv4-sp/softfp/libc_nano.a(lib_a-puts.o) (__swbuf_r)
/usr/local/Cellar/gcc-arm-none-eabi/20180627/bin/../lib/gcc/arm-none-eabi/7.3.1/../../../../arm-none-eabi/lib/thumb/v7e-m/fpv4-sp/softfp/libc_nano.a(lib_a-wsetup.o)
                              /usr/local/Cellar/gcc-arm-none-eabi/20180627/bin/../lib/gcc/arm-none-eabi/7.3.1/../../../../arm-none-eabi/lib/thumb/v7e-m/fpv4-sp/softfp/libc_nano.a(lib_a-puts.o) (__swsetup_r)
/usr/local/Cellar/gcc-arm-none-eabi/20180627/bin/../lib/gcc/arm-none-eabi/7.3.1/../../../../arm-none-eabi/lib/thumb/v7e-m/fpv4-sp/softfp/libc_nano.a(lib_a-fflush.o)
                              /usr/local/Cellar/gcc-arm-none-eabi/20180627/bin/../lib/gcc/arm-none-eabi/7.3.1/../../../../arm-none-eabi/lib/thumb/v7e-m/fpv4-sp/softfp/libc_nano.a(lib_a-wbuf.o) (_fflush_r)
/usr/local/Cellar/gcc-arm-none-eabi/20180627/bin/../lib/gcc/arm-none-eabi/7.3.1/../../../../arm-none-eabi/lib/thumb/v7e-m/fpv4-sp/softfp/libc_nano.a(lib_a-findfp.o)
                              /usr/local/Cellar/gcc-arm-none-eabi/20180627/bin/../lib/gcc/arm-none-eabi/7.3.1/../../../../arm-none-eabi/lib/thumb/v7e-m/fpv4-sp/softfp/libc_nano.a(lib_a-printf.o) (__sinit)
/usr/local/Cellar/gcc-arm-none-eabi/20180627/bin/../lib/gcc/arm-none-eabi/7.3.1/../../../../arm-none-eabi/lib/thumb/v7e-m/fpv4-sp/softfp/libc_nano.a(lib_a-fwalk.o)
                              /usr/local/Cellar/gcc-arm-none-eabi/20180627/bin/../lib/gcc/arm-none-eabi/7.3.1/../../../../arm-none-eabi/lib/thumb/v7e-m/fpv4-sp/softfp/libc_nano.a(lib_a-findfp.o) (_fwalk)
/usr/local/Cellar/gcc-arm-none-eabi/20180627/bin/../lib/gcc/arm-none-eabi/7.3.1/../../../../arm-none-eabi/lib/thumb/v7e-m/fpv4-sp/softfp/libc_nano.a(lib_a-makebuf.o)
                              /usr/local/Cellar/gcc-arm-none-eabi/20180627/bin/../lib/gcc/arm-none-eabi/7.3.1/../../../../arm-none-eabi/lib/thumb/v7e-m/fpv4-sp/softfp/libc_nano.a(lib_a-wsetup.o) (__smakebuf_r)
/usr/local/Cellar/gcc-arm-none-eabi/20180627/bin/../lib/gcc/arm-none-eabi/7.3.1/../../../../arm-none-eabi/lib/thumb/v7e-m/fpv4-sp/softfp/libc_nano.a(lib_a-nano-freer.o)
                              /usr/local/Cellar/gcc-arm-none-eabi/20180627/bin/../lib/gcc/arm-none-eabi/7.3.1/../../../../arm-none-eabi/lib/thumb/v7e-m/fpv4-sp/softfp/libc_nano.a(lib_a-wsetup.o) (_free_r)
/usr/local/Cellar/gcc-arm-none-eabi/20180627/bin/../lib/gcc/arm-none-eabi/7.3.1/../../../../arm-none-eabi/lib/thumb/v7e-m/fpv4-sp/softfp/libc_nano.a(lib_a-nano-mallocr.o)
                              /usr/local/Cellar/gcc-arm-none-eabi/20180627/bin/../lib/gcc/arm-none-eabi/7.3.1/../../../../arm-none-eabi/lib/thumb/v7e-m/fpv4-sp/softfp/libc_nano.a(lib_a-findfp.o) (_malloc_r)
/usr/local/Cellar/gcc-arm-none-eabi/20180627/bin/../lib/gcc/arm-none-eabi/7.3.1/../../../../arm-none-eabi/lib/thumb/v7e-m/fpv4-sp/softfp/libc_nano.a(lib_a-nano-reallocr.o)
                              /usr/local/Cellar/gcc-arm-none-eabi/20180627/bin/../lib/gcc/arm-none-eabi/7.3.1/../../../../arm-none-eabi/lib/thumb/v7e-m/fpv4-sp/softfp/libc_nano.a(lib_a-realloc.o) (_realloc_r)
/usr/local/Cellar/gcc-arm-none-eabi/20180627/bin/../lib/gcc/arm-none-eabi/7.3.1/../../../../arm-none-eabi/lib/thumb/v7e-m/fpv4-sp/softfp/libc_nano.a(lib_a-nano-svfprintf.o)
                              /usr/local/Cellar/gcc-arm-none-eabi/20180627/bin/../lib/gcc/arm-none-eabi/7.3.1/../../../../arm-none-eabi/lib/thumb/v7e-m/fpv4-sp/softfp/libc_nano.a(lib_a-sprintf.o) (_svfprintf_r)
/usr/local/Cellar/gcc-arm-none-eabi/20180627/bin/../lib/gcc/arm-none-eabi/7.3.1/../../../../arm-none-eabi/lib/thumb/v7e-m/fpv4-sp/softfp/libc_nano.a(lib_a-nano-vfprintf.o)
                              /usr/local/Cellar/gcc-arm-none-eabi/20180627/bin/../lib/gcc/arm-none-eabi/7.3.1/../../../../arm-none-eabi/lib/thumb/v7e-m/fpv4-sp/softfp/libc_nano.a(lib_a-printf.o) (_vfprintf_r)
/usr/local/Cellar/gcc-arm-none-eabi/20180627/bin/../lib/gcc/arm-none-eabi/7.3.1/../../../../arm-none-eabi/lib/thumb/v7e-m/fpv4-sp/softfp/libc_nano.a(lib_a-nano-vfprintf_i.o)
                              /usr/local/Cellar/gcc-arm-none-eabi/20180627/bin/../lib/gcc/arm-none-eabi/7.3.1/../../../../arm-none-eabi/lib/thumb/v7e-m/fpv4-sp/softfp/libc_nano.a(lib_a-nano-svfprintf.o) (_printf_i)
/usr/local/Cellar/gcc-arm-none-eabi/20180627/bin/../lib/gcc/arm-none-eabi/7.3.1/../../../../arm-none-eabi/lib/thumb/v7e-m/fpv4-sp/softfp/libc_nano.a(lib_a-sbrkr.o)
                              /usr/local/Cellar/gcc-arm-none-eabi/20180627/bin/../lib/gcc/arm-none-eabi/7.3.1/../../../../arm-none-eabi/lib/thumb/v7e-m/fpv4-sp/softfp/libc_nano.a(lib_a-nano-mallocr.o) (_sbrk_r)
/usr/local/Cellar/gcc-arm-none-eabi/20180627/bin/../lib/gcc/arm-none-eabi/7.3.1/../../../../arm-none-eabi/lib/thumb/v7e-m/fpv4-sp/softfp/libc_nano.a(lib_a-stdio.o)
                              /usr/local/Cellar/gcc-arm-none-eabi/20180627/bin/../lib/gcc/arm-none-eabi/7.3.1/../../../../arm-none-eabi/lib/thumb/v7e-m/fpv4-sp/softfp/libc_nano.a(lib_a-findfp.o) (__sread)
/usr/local/Cellar/gcc-arm-none-eabi/20180627/bin/../lib/gcc/arm-none-eabi/7.3.1/../../../../arm-none-eabi/lib/thumb/v7e-m/fpv4-sp/softfp/libc_nano.a(lib_a-writer.o)
                              /usr/local/Cellar/gcc-arm-none-eabi/20180627/bin/../lib/gcc/arm-none-eabi/7.3.1/../../../../arm-none-eabi/lib/thumb/v7e-m/fpv4-sp/softfp/libc_nano.a(lib_a-stdio.o) (_write_r)
/usr/local/Cellar/gcc-arm-none-eabi/20180627/bin/../lib/gcc/arm-none-eabi/7.3.1/../../../../arm-none-eabi/lib/thumb/v7e-m/fpv4-sp/softfp/libc_nano.a(lib_a-closer.o)
                              /usr/local/Cellar/gcc-arm-none-eabi/20180627/bin/../lib/gcc/arm-none-eabi/7.3.1/../../../../arm-none-eabi/lib/thumb/v7e-m/fpv4-sp/softfp/libc_nano.a(lib_a-stdio.o) (_close_r)
/usr/local/Cellar/gcc-arm-none-eabi/20180627/bin/../lib/gcc/arm-none-eabi/7.3.1/../../../../arm-none-eabi/lib/thumb/v7e-m/fpv4-sp/softfp/libc_nano.a(lib_a-fstatr.o)
                              /usr/local/Cellar/gcc-arm-none-eabi/20180627/bin/../lib/gcc/arm-none-eabi/7.3.1/../../../../arm-none-eabi/lib/thumb/v7e-m/fpv4-sp/softfp/libc_nano.a(lib_a-makebuf.o) (_fstat_r)
/usr/local/Cellar/gcc-arm-none-eabi/20180627/bin/../lib/gcc/arm-none-eabi/7.3.1/../../../../arm-none-eabi/lib/thumb/v7e-m/fpv4-sp/softfp/libc_nano.a(lib_a-fvwrite.o)
                              /usr/local/Cellar/gcc-arm-none-eabi/20180627/bin/../lib/gcc/arm-none-eabi/7.3.1/../../../../arm-none-eabi/lib/thumb/v7e-m/fpv4-sp/softfp/libc_nano.a(lib_a-nano-vfprintf.o) (__sfvwrite_r)
/usr/local/Cellar/gcc-arm-none-eabi/20180627/bin/../lib/gcc/arm-none-eabi/7.3.1/../../../../arm-none-eabi/lib/thumb/v7e-m/fpv4-sp/softfp/libc_nano.a(lib_a-isattyr.o)
                              /usr/local/Cellar/gcc-arm-none-eabi/20180627/bin/../lib/gcc/arm-none-eabi/7.3.1/../../../../arm-none-eabi/lib/thumb/v7e-m/fpv4-sp/softfp/libc_nano.a(lib_a-makebuf.o) (_isatty_r)
/usr/local/Cellar/gcc-arm-none-eabi/20180627/bin/../lib/gcc/arm-none-eabi/7.3.1/../../../../arm-none-eabi/lib/thumb/v7e-m/fpv4-sp/softfp/libc_nano.a(lib_a-lseekr.o)
                              /usr/local/Cellar/gcc-arm-none-eabi/20180627/bin/../lib/gcc/arm-none-eabi/7.3.1/../../../../arm-none-eabi/lib/thumb/v7e-m/fpv4-sp/softfp/libc_nano.a(lib_a-stdio.o) (_lseek_r)
/usr/local/Cellar/gcc-arm-none-eabi/20180627/bin/../lib/gcc/arm-none-eabi/7.3.1/../../../../arm-none-eabi/lib/thumb/v7e-m/fpv4-sp/softfp/libc_nano.a(lib_a-memchr.o)
                              /usr/local/Cellar/gcc-arm-none-eabi/20180627/bin/../lib/gcc/arm-none-eabi/7.3.1/../../../../arm-none-eabi/lib/thumb/v7e-m/fpv4-sp/softfp/libc_nano.a(lib_a-nano-svfprintf.o) (memchr)
/usr/local/Cellar/gcc-arm-none-eabi/20180627/bin/../lib/gcc/arm-none-eabi/7.3.1/../../../../arm-none-eabi/lib/thumb/v7e-m/fpv4-sp/softfp/libc_nano.a(lib_a-memmove.o)
                              /usr/local/Cellar/gcc-arm-none-eabi/20180627/bin/../lib/gcc/arm-none-eabi/7.3.1/../../../../arm-none-eabi/lib/thumb/v7e-m/fpv4-sp/softfp/libc_nano.a(lib_a-nano-svfprintf.o) (memmove)
/usr/local/Cellar/gcc-arm-none-eabi/20180627/bin/../lib/gcc/arm-none-eabi/7.3.1/../../../../arm-none-eabi/lib/thumb/v7e-m/fpv4-sp/softfp/libc_nano.a(lib_a-mlock.o)
                              /usr/local/Cellar/gcc-arm-none-eabi/20180627/bin/../lib/gcc/arm-none-eabi/7.3.1/../../../../arm-none-eabi/lib/thumb/v7e-m/fpv4-sp/softfp/libc_nano.a(lib_a-nano-freer.o) (__malloc_lock)
/usr/local/Cellar/gcc-arm-none-eabi/20180627/bin/../lib/gcc/arm-none-eabi/7.3.1/../../../../arm-none-eabi/lib/thumb/v7e-m/fpv4-sp/softfp/libc_nano.a(lib_a-nano-msizer.o)
                              /usr/local/Cellar/gcc-arm-none-eabi/20180627/bin/../lib/gcc/arm-none-eabi/7.3.1/../../../../arm-none-eabi/lib/thumb/v7e-m/fpv4-sp/softfp/libc_nano.a(lib_a-nano-reallocr.o) (_malloc_usable_size_r)
/usr/local/Cellar/gcc-arm-none-eabi/20180627/bin/../lib/gcc/arm-none-eabi/7.3.1/../../../../arm-none-eabi/lib/thumb/v7e-m/fpv4-sp/softfp/libc_nano.a(lib_a-readr.o)
                              /usr/local/Cellar/gcc-arm-none-eabi/20180627/bin/../lib/gcc/arm-none-eabi/7.3.1/../../../../arm-none-eabi/lib/thumb/v7e-m/fpv4-sp/softfp/libc_nano.a(lib_a-stdio.o) (_read_r)
/usr/local/Cellar/gcc-arm-none-eabi/20180627/bin/../lib/gcc/arm-none-eabi/7.3.1/../../../../arm-none-eabi/lib/thumb/v7e-m/fpv4-sp/softfp/libc_nano.a(lib_a-reent.o)
                              /usr/local/Cellar/gcc-arm-none-eabi/20180627/bin/../lib/gcc/arm-none-eabi/7.3.1/../../../../arm-none-eabi/lib/thumb/v7e-m/fpv4-sp/softfp/libc_nano.a(lib_a-sbrkr.o) (errno)
/usr/local/Cellar/gcc-arm-none-eabi/20180627/bin/../lib/gcc/arm-none-eabi/7.3.1/../../../../arm-none-eabi/lib/thumb/v7e-m/fpv4-sp/softfp/libnosys.a(close.o)
                              /usr/local/Cellar/gcc-arm-none-eabi/20180627/bin/../lib/gcc/arm-none-eabi/7.3.1/../../../../arm-none-eabi/lib/thumb/v7e-m/fpv4-sp/softfp/libc_nano.a(lib_a-closer.o) (_close)
/usr/local/Cellar/gcc-arm-none-eabi/20180627/bin/../lib/gcc/arm-none-eabi/7.3.1/../../../../arm-none-eabi/lib/thumb/v7e-m/fpv4-sp/softfp/libnosys.a(fstat.o)
                              /usr/local/Cellar/gcc-arm-none-eabi/20180627/bin/../lib/gcc/arm-none-eabi/7.3.1/../../../../arm-none-eabi/lib/thumb/v7e-m/fpv4-sp/softfp/libc_nano.a(lib_a-fstatr.o) (_fstat)
/usr/local/Cellar/gcc-arm-none-eabi/20180627/bin/../lib/gcc/arm-none-eabi/7.3.1/../../../../arm-none-eabi/lib/thumb/v7e-m/fpv4-sp/softfp/libnosys.a(isatty.o)
                              /usr/local/Cellar/gcc-arm-none-eabi/20180627/bin/../lib/gcc/arm-none-eabi/7.3.1/../../../../arm-none-eabi/lib/thumb/v7e-m/fpv4-sp/softfp/libc_nano.a(lib_a-isattyr.o) (_isatty)
/usr/local/Cellar/gcc-arm-none-eabi/20180627/bin/../lib/gcc/arm-none-eabi/7.3.1/../../../../arm-none-eabi/lib/thumb/v7e-m/fpv4-sp/softfp/libnosys.a(lseek.o)
                              /usr/local/Cellar/gcc-arm-none-eabi/20180627/bin/../lib/gcc/arm-none-eabi/7.3.1/../../../../arm-none-eabi/lib/thumb/v7e-m/fpv4-sp/softfp/libc_nano.a(lib_a-lseekr.o) (_lseek)
/usr/local/Cellar/gcc-arm-none-eabi/20180627/bin/../lib/gcc/arm-none-eabi/7.3.1/../../../../arm-none-eabi/lib/thumb/v7e-m/fpv4-sp/softfp/libnosys.a(read.o)
                              /usr/local/Cellar/gcc-arm-none-eabi/20180627/bin/../lib/gcc/arm-none-eabi/7.3.1/../../../../arm-none-eabi/lib/thumb/v7e-m/fpv4-sp/softfp/libc_nano.a(lib_a-readr.o) (_read)
/usr/local/Cellar/gcc-arm-none-eabi/20180627/bin/../lib/gcc/arm-none-eabi/7.3.1/../../../../arm-none-eabi/lib/thumb/v7e-m/fpv4-sp/softfp/libnosys.a(sbrk.o)
                              /usr/local/Cellar/gcc-arm-none-eabi/20180627/bin/../lib/gcc/arm-none-eabi/7.3.1/../../../../arm-none-eabi/lib/thumb/v7e-m/fpv4-sp/softfp/libc_nano.a(lib_a-sbrkr.o) (_sbrk)
/usr/local/Cellar/gcc-arm-none-eabi/20180627/bin/../lib/gcc/arm-none-eabi/7.3.1/../../../../arm-none-eabi/lib/thumb/v7e-m/fpv4-sp/softfp/libnosys.a(_exit.o)
                              /usr/local/Cellar/gcc-arm-none-eabi/20180627/bin/../lib/gcc/arm-none-eabi/7.3.1/../../../../arm-none-eabi/lib/thumb/v7e-m/fpv4-sp/softfp/libc_nano.a(lib_a-exit.o) (_exit)
/usr/local/Cellar/gcc-arm-none-eabi/20180627/bin/../lib/gcc/arm-none-eabi/7.3.1/thumb/v7e-m/fpv4-sp/softfp/libgcc.a(_arm_addsubdf3.o)
                              build/duration.o (__aeabi_i2d)
/usr/local/Cellar/gcc-arm-none-eabi/20180627/bin/../lib/gcc/arm-none-eabi/7.3.1/thumb/v7e-m/fpv4-sp/softfp/libgcc.a(_arm_muldivdf3.o)
                              build/duration.o (__aeabi_dmul)
/usr/local/Cellar/gcc-arm-none-eabi/20180627/bin/../lib/gcc/arm-none-eabi/7.3.1/thumb/v7e-m/fpv4-sp/softfp/libgcc.a(_arm_fixdfsi.o)
                              build/duration.o (__aeabi_d2iz)
/usr/local/Cellar/gcc-arm-none-eabi/20180627/bin/../lib/gcc/arm-none-eabi/7.3.1/thumb/v7e-m/fpv4-sp/softfp/libgcc.a(unwind-arm.o)
                              build/main.o (__aeabi_unwind_cpp_pr0)
/usr/local/Cellar/gcc-arm-none-eabi/20180627/bin/../lib/gcc/arm-none-eabi/7.3.1/thumb/v7e-m/fpv4-sp/softfp/libgcc.a(libunwind.o)
                              /usr/local/Cellar/gcc-arm-none-eabi/20180627/bin/../lib/gcc/arm-none-eabi/7.3.1/thumb/v7e-m/fpv4-sp/softfp/libgcc.a(unwind-arm.o) (restore_core_regs)
/usr/local/Cellar/gcc-arm-none-eabi/20180627/bin/../lib/gcc/arm-none-eabi/7.3.1/thumb/v7e-m/fpv4-sp/softfp/libgcc.a(pr-support.o)
                              /usr/local/Cellar/gcc-arm-none-eabi/20180627/bin/../lib/gcc/arm-none-eabi/7.3.1/thumb/v7e-m/fpv4-sp/softfp/libgcc.a(unwind-arm.o) (__gnu_unwind_execute)
/usr/local/Cellar/gcc-arm-none-eabi/20180627/bin/../lib/gcc/arm-none-eabi/7.3.1/../../../../arm-none-eabi/lib/thumb/v7e-m/fpv4-sp/softfp/libc_nano.a(lib_a-abort.o)
                              /usr/local/Cellar/gcc-arm-none-eabi/20180627/bin/../lib/gcc/arm-none-eabi/7.3.1/thumb/v7e-m/fpv4-sp/softfp/libgcc.a(unwind-arm.o) (abort)
/usr/local/Cellar/gcc-arm-none-eabi/20180627/bin/../lib/gcc/arm-none-eabi/7.3.1/../../../../arm-none-eabi/lib/thumb/v7e-m/fpv4-sp/softfp/libc_nano.a(lib_a-signal.o)
                              /usr/local/Cellar/gcc-arm-none-eabi/20180627/bin/../lib/gcc/arm-none-eabi/7.3.1/../../../../arm-none-eabi/lib/thumb/v7e-m/fpv4-sp/softfp/libc_nano.a(lib_a-abort.o) (raise)
/usr/local/Cellar/gcc-arm-none-eabi/20180627/bin/../lib/gcc/arm-none-eabi/7.3.1/../../../../arm-none-eabi/lib/thumb/v7e-m/fpv4-sp/softfp/libc_nano.a(lib_a-signalr.o)
                              /usr/local/Cellar/gcc-arm-none-eabi/20180627/bin/../lib/gcc/arm-none-eabi/7.3.1/../../../../arm-none-eabi/lib/thumb/v7e-m/fpv4-sp/softfp/libc_nano.a(lib_a-signal.o) (_kill_r)
/usr/local/Cellar/gcc-arm-none-eabi/20180627/bin/../lib/gcc/arm-none-eabi/7.3.1/../../../../arm-none-eabi/lib/thumb/v7e-m/fpv4-sp/softfp/libnosys.a(getpid.o)
                              /usr/local/Cellar/gcc-arm-none-eabi/20180627/bin/../lib/gcc/arm-none-eabi/7.3.1/../../../../arm-none-eabi/lib/thumb/v7e-m/fpv4-sp/softfp/libc_nano.a(lib_a-signalr.o) (_getpid)
/usr/local/Cellar/gcc-arm-none-eabi/20180627/bin/../lib/gcc/arm-none-eabi/7.3.1/../../../../arm-none-eabi/lib/thumb/v7e-m/fpv4-sp/softfp/libnosys.a(kill.o)
                              /usr/local/Cellar/gcc-arm-none-eabi/20180627/bin/../lib/gcc/arm-none-eabi/7.3.1/../../../../arm-none-eabi/lib/thumb/v7e-m/fpv4-sp/softfp/libc_nano.a(lib_a-signalr.o) (_kill)

Allocating common symbols
Common symbol       size              file

errno               0x4               /usr/local/Cellar/gcc-arm-none-eabi/20180627/bin/../lib/gcc/arm-none-eabi/7.3.1/../../../../arm-none-eabi/lib/thumb/v7e-m/fpv4-sp/softfp/libc_nano.a(lib_a-reent.o)
xQueueRegistry      0x40              build/queue.o

Discarded input sections

 .text          0x0000000000000000        0x0 /usr/local/Cellar/gcc-arm-none-eabi/20180627/bin/../lib/gcc/arm-none-eabi/7.3.1/thumb/v7e-m/fpv4-sp/softfp/crti.o
 .data          0x0000000000000000        0x0 /usr/local/Cellar/gcc-arm-none-eabi/20180627/bin/../lib/gcc/arm-none-eabi/7.3.1/thumb/v7e-m/fpv4-sp/softfp/crti.o
 .bss           0x0000000000000000        0x0 /usr/local/Cellar/gcc-arm-none-eabi/20180627/bin/../lib/gcc/arm-none-eabi/7.3.1/thumb/v7e-m/fpv4-sp/softfp/crti.o
 .data          0x0000000000000000        0x4 /usr/local/Cellar/gcc-arm-none-eabi/20180627/bin/../lib/gcc/arm-none-eabi/7.3.1/thumb/v7e-m/fpv4-sp/softfp/crtbegin.o
 .text          0x0000000000000000       0x74 /usr/local/Cellar/gcc-arm-none-eabi/20180627/bin/../lib/gcc/arm-none-eabi/7.3.1/../../../../arm-none-eabi/lib/thumb/v7e-m/fpv4-sp/softfp/crt0.o
 .data          0x0000000000000000        0x0 /usr/local/Cellar/gcc-arm-none-eabi/20180627/bin/../lib/gcc/arm-none-eabi/7.3.1/../../../../arm-none-eabi/lib/thumb/v7e-m/fpv4-sp/softfp/crt0.o
 .bss           0x0000000000000000        0x0 /usr/local/Cellar/gcc-arm-none-eabi/20180627/bin/../lib/gcc/arm-none-eabi/7.3.1/../../../../arm-none-eabi/lib/thumb/v7e-m/fpv4-sp/softfp/crt0.o
 .ARM.extab     0x0000000000000000        0x0 /usr/local/Cellar/gcc-arm-none-eabi/20180627/bin/../lib/gcc/arm-none-eabi/7.3.1/../../../../arm-none-eabi/lib/thumb/v7e-m/fpv4-sp/softfp/crt0.o
 .ARM.exidx     0x0000000000000000        0x8 /usr/local/Cellar/gcc-arm-none-eabi/20180627/bin/../lib/gcc/arm-none-eabi/7.3.1/../../../../arm-none-eabi/lib/thumb/v7e-m/fpv4-sp/softfp/crt0.o
 .ARM.attributes
                0x0000000000000000       0x20 /usr/local/Cellar/gcc-arm-none-eabi/20180627/bin/../lib/gcc/arm-none-eabi/7.3.1/../../../../arm-none-eabi/lib/thumb/v7e-m/fpv4-sp/softfp/crt0.o
 .text          0x0000000000000000        0x0 build/at32_hoverboard.o
 .data          0x0000000000000000        0x0 build/at32_hoverboard.o
 .bss           0x0000000000000000        0x0 build/at32_hoverboard.o
 .text.Board_Init
                0x0000000000000000       0x30 build/at32_hoverboard.o
 .text.AT32_USB_GPIO_init
                0x0000000000000000       0x44 build/at32_hoverboard.o
 .text.AT32_BUTTON_Init
                0x0000000000000000       0x44 build/at32_hoverboard.o
 .text.AT32_BUTTON_State
                0x0000000000000000       0x1c build/at32_hoverboard.o
 .text.AT32_LEDn_Init
                0x0000000000000000       0x4c build/at32_hoverboard.o
 .text.AT32_LEDn_ON
                0x0000000000000000       0x20 build/at32_hoverboard.o
 .text.AT32_LEDn_OFF
                0x0000000000000000       0x20 build/at32_hoverboard.o
 .text.AT32_LEDn_Toggle
                0x0000000000000000       0x24 build/at32_hoverboard.o
 .text.Delay_init
                0x0000000000000000       0x4c build/at32_hoverboard.o
 .text.AT32_Hoverboard_Init
                0x0000000000000000       0x3c build/at32_hoverboard.o
 .text.Delay_us
                0x0000000000000000       0x4c build/at32_hoverboard.o
 .text.Delay_ms
                0x0000000000000000       0x80 build/at32_hoverboard.o
 .text.AT32_BUTTON_Press
                0x0000000000000000       0x6c build/at32_hoverboard.o
 .text.Delay_sec
                0x0000000000000000       0x22 build/at32_hoverboard.o
 .bss.fac_ms    0x0000000000000000        0x4 build/at32_hoverboard.o
 .bss.fac_us    0x0000000000000000        0x4 build/at32_hoverboard.o
 .data.BUTTON_GPIO_PIN
                0x0000000000000000        0x4 build/at32_hoverboard.o
 .data.BUTTON_GPIO_PORT
                0x0000000000000000        0x8 build/at32_hoverboard.o
 .data.BUTTON_GPIO_RCC_CLK
                0x0000000000000000        0x8 build/at32_hoverboard.o
 .data.LED_GPIO_PIN
                0x0000000000000000        0x8 build/at32_hoverboard.o
 .data.LED_GPIO_PORT
                0x0000000000000000       0x10 build/at32_hoverboard.o
 .data.LED_GPIO_RCC_CLK
                0x0000000000000000       0x10 build/at32_hoverboard.o
 .data.Pressed.9389
                0x0000000000000000        0x1 build/at32_hoverboard.o
 .text          0x0000000000000000        0x0 build/system_at32f4xx.o
 .data          0x0000000000000000        0x0 build/system_at32f4xx.o
 .bss           0x0000000000000000        0x0 build/system_at32f4xx.o
 .text.SystemCoreClockUpdate
                0x0000000000000000       0xbc build/system_at32f4xx.o
 .data.AHBPscTable
                0x0000000000000000       0x10 build/system_at32f4xx.o
 .text          0x0000000000000000        0x0 build/at32f4xx_gpio.o
 .data          0x0000000000000000        0x0 build/at32f4xx_gpio.o
 .bss           0x0000000000000000        0x0 build/at32f4xx_gpio.o
 .text.GPIO_Reset
                0x0000000000000000       0xcc build/at32f4xx_gpio.o
 .text.GPIO_AFIOReset
                0x0000000000000000       0x14 build/at32f4xx_gpio.o
 .text.GPIO_ReadInputDataBit
                0x0000000000000000        0xe build/at32f4xx_gpio.o
 .text.GPIO_ReadInputData
                0x0000000000000000        0x6 build/at32f4xx_gpio.o
 .text.GPIO_ReadOutputDataBit
                0x0000000000000000        0xe build/at32f4xx_gpio.o
 .text.GPIO_ReadOutputData
                0x0000000000000000        0x6 build/at32f4xx_gpio.o
 .text.GPIO_SetBits
                0x0000000000000000        0x4 build/at32f4xx_gpio.o
 .text.GPIO_ResetBits
                0x0000000000000000        0x4 build/at32f4xx_gpio.o
 .text.GPIO_WriteBit
                0x0000000000000000        0xa build/at32f4xx_gpio.o
 .text.GPIO_Write
                0x0000000000000000        0x4 build/at32f4xx_gpio.o
 .text.GPIO_PinsLockConfig
                0x0000000000000000       0x10 build/at32f4xx_gpio.o
 .text.GPIO_EventOutputConfig
                0x0000000000000000       0x1c build/at32f4xx_gpio.o
 .text.GPIO_EventOutputCmd
                0x0000000000000000        0xc build/at32f4xx_gpio.o
 .text.GPIO_PinsRemapConfig
                0x0000000000000000      0x384 build/at32f4xx_gpio.o
 .text.GPIO_EXTILineConfig
                0x0000000000000000       0x34 build/at32f4xx_gpio.o
 .text          0x0000000000000000        0x0 build/at32f4xx_rcc.o
 .data          0x0000000000000000        0x0 build/at32f4xx_rcc.o
 .bss           0x0000000000000000        0x0 build/at32f4xx_rcc.o
 .text.RCC_Reset
                0x0000000000000000       0x50 build/at32f4xx_rcc.o
 .text.RCC_HSEConfig
                0x0000000000000000       0x3c build/at32f4xx_rcc.o
 .text.RCC_SetHSITweakValue
                0x0000000000000000       0x14 build/at32f4xx_rcc.o
 .text.RCC_SetHSICalibValue
                0x0000000000000000       0x24 build/at32f4xx_rcc.o
 .text.RCC_HSICmd
                0x0000000000000000        0xc build/at32f4xx_rcc.o
 .text.RCC_PLLConfig
                0x0000000000000000       0x20 build/at32f4xx_rcc.o
 .text.RCC_PLLCmd
                0x0000000000000000        0xc build/at32f4xx_rcc.o
 .text.RCC_SYSCLKConfig
                0x0000000000000000       0x14 build/at32f4xx_rcc.o
 .text.RCC_GetSYSCLKSelction
                0x0000000000000000       0x10 build/at32f4xx_rcc.o
 .text.RCC_AHBCLKConfig
                0x0000000000000000       0x14 build/at32f4xx_rcc.o
 .text.RCC_APB1CLKConfig
                0x0000000000000000       0x14 build/at32f4xx_rcc.o
 .text.RCC_APB2CLKConfig
                0x0000000000000000       0x14 build/at32f4xx_rcc.o
 .text.RCC_INTConfig
                0x0000000000000000       0x1c build/at32f4xx_rcc.o
 .text.RCC_USBCLKConfig
                0x0000000000000000       0x14 build/at32f4xx_rcc.o
 .text.RCC_ADCCLKConfig
                0x0000000000000000       0x18 build/at32f4xx_rcc.o
 .text.RCC_LSEConfig
                0x0000000000000000       0x28 build/at32f4xx_rcc.o
 .text.RCC_LSICmd
                0x0000000000000000        0xc build/at32f4xx_rcc.o
 .text.RCC_RTCCLKConfig
                0x0000000000000000       0x10 build/at32f4xx_rcc.o
 .text.RCC_RTCCLKCmd
                0x0000000000000000        0xc build/at32f4xx_rcc.o
 .text.RCC_AHBPeriphClockCmd
                0x0000000000000000       0x1c build/at32f4xx_rcc.o
 .text.RCC_APB2PeriphResetCmd
                0x0000000000000000       0x1c build/at32f4xx_rcc.o
 .text.RCC_APB1PeriphResetCmd
                0x0000000000000000       0x1c build/at32f4xx_rcc.o
 .text.RCC_BackupResetCmd
                0x0000000000000000        0xc build/at32f4xx_rcc.o
 .text.RCC_HSEClockFailureDetectorCmd
                0x0000000000000000        0xc build/at32f4xx_rcc.o
 .text.RCC_CLKOUTConfig
                0x0000000000000000       0x48 build/at32f4xx_rcc.o
 .text.RCC_GetFlagStatus
                0x0000000000000000       0x34 build/at32f4xx_rcc.o
 .text.RCC_WaitForHSEStable
                0x0000000000000000       0x34 build/at32f4xx_rcc.o
 .text.RCC_ClearFlag
                0x0000000000000000       0x10 build/at32f4xx_rcc.o
 .text.RCC_GetINTStatus
                0x0000000000000000       0x14 build/at32f4xx_rcc.o
 .text.RCC_ClearINTPendingBit
                0x0000000000000000        0xc build/at32f4xx_rcc.o
 .text          0x0000000000000000        0x0 build/at32f4xx_tim.o
 .data          0x0000000000000000        0x0 build/at32f4xx_tim.o
 .bss           0x0000000000000000        0x0 build/at32f4xx_tim.o
 .text.TI1_Config
                0x0000000000000000       0x7c build/at32f4xx_tim.o
 .text.TI2_Config
                0x0000000000000000       0x84 build/at32f4xx_tim.o
 .text.TI3_Config
                0x0000000000000000       0x80 build/at32f4xx_tim.o
 .text.TI4_Config
                0x0000000000000000       0x88 build/at32f4xx_tim.o
 .text.TMR_Reset
                0x0000000000000000      0x1c4 build/at32f4xx_tim.o
 .text.TMR_SelectPlusMode
                0x0000000000000000       0x3c build/at32f4xx_tim.o
 .text.TMR_OC1Init
                0x0000000000000000       0x74 build/at32f4xx_tim.o
 .text.TMR_OC2Init
                0x0000000000000000       0x90 build/at32f4xx_tim.o
 .text.TMR_OC3Init
                0x0000000000000000       0x8c build/at32f4xx_tim.o
 .text.TMR_OC4Init
                0x0000000000000000       0x70 build/at32f4xx_tim.o
 .text.TMR_BRKDTConfig
                0x0000000000000000       0x28 build/at32f4xx_tim.o
 .text.TMR_TimeBaseStructInit
                0x0000000000000000       0x12 build/at32f4xx_tim.o
 .text.TMR_OCStructInit
                0x0000000000000000       0x14 build/at32f4xx_tim.o
 .text.TMR_ICStructInit
                0x0000000000000000       0x10 build/at32f4xx_tim.o
 .text.TMR_BRKDTStructInit
                0x0000000000000000       0x12 build/at32f4xx_tim.o
 .text.TMR_CtrlPWMOutputs
                0x0000000000000000       0x1e build/at32f4xx_tim.o
 .text.TMR_GenerateEvent
                0x0000000000000000        0x4 build/at32f4xx_tim.o
 .text.TMR_DMAConfig
                0x0000000000000000        0x8 build/at32f4xx_tim.o
 .text.TMR_DMACmd
                0x0000000000000000       0x14 build/at32f4xx_tim.o
 .text.TMR_InternalClockConfig
                0x0000000000000000        0xe build/at32f4xx_tim.o
 .text.TMR_ETRConfig
                0x0000000000000000       0x18 build/at32f4xx_tim.o
 .text.TMR_ETRClockMode1Config
                0x0000000000000000       0x12 build/at32f4xx_tim.o
 .text.TMR_ETRClockMode2Config
                0x0000000000000000       0x12 build/at32f4xx_tim.o
 .text.TMR_DIVConfig
                0x0000000000000000        0x6 build/at32f4xx_tim.o
 .text.TMR_CounterModeConfig
                0x0000000000000000        0xe build/at32f4xx_tim.o
 .text.TMR_SelectInputTrigger
                0x0000000000000000        0xe build/at32f4xx_tim.o
 .text.TMR_ITRxExternalClockConfig
                0x0000000000000000       0x12 build/at32f4xx_tim.o
 .text.TMR_TIxExternalClockConfig
                0x0000000000000000       0x2c build/at32f4xx_tim.o
 .text.TMR_EncoderInterfaceConfig
                0x0000000000000000       0x3a build/at32f4xx_tim.o
 .text.TMR_ForcedOC1Config
                0x0000000000000000        0xe build/at32f4xx_tim.o
 .text.TMR_ForcedOC2Config
                0x0000000000000000       0x12 build/at32f4xx_tim.o
 .text.TMR_ForcedOC3Config
                0x0000000000000000        0xe build/at32f4xx_tim.o
 .text.TMR_ForcedOC4Config
                0x0000000000000000       0x12 build/at32f4xx_tim.o
 .text.TMR_SelectHALL
                0x0000000000000000       0x1a build/at32f4xx_tim.o
 .text.TMR_SelectCCDMA
                0x0000000000000000       0x1a build/at32f4xx_tim.o
 .text.TMR_CCPreloadControl
                0x0000000000000000       0x1a build/at32f4xx_tim.o
 .text.TMR_OC1PreloadConfig
                0x0000000000000000        0xe build/at32f4xx_tim.o
 .text.TMR_OC2PreloadConfig
                0x0000000000000000       0x12 build/at32f4xx_tim.o
 .text.TMR_OC3PreloadConfig
                0x0000000000000000        0xe build/at32f4xx_tim.o
 .text.TMR_OC4PreloadConfig
                0x0000000000000000       0x12 build/at32f4xx_tim.o
 .text.TMR_OC1FastConfig
                0x0000000000000000        0xe build/at32f4xx_tim.o
 .text.TMR_OC2FastConfig
                0x0000000000000000       0x12 build/at32f4xx_tim.o
 .text.TMR_OC3FastConfig
                0x0000000000000000        0xe build/at32f4xx_tim.o
 .text.TMR_OC4FastConfig
                0x0000000000000000       0x12 build/at32f4xx_tim.o
 .text.TMR_ClearOC1Ref
                0x0000000000000000        0xe build/at32f4xx_tim.o
 .text.TMR_ClearOC2Ref
                0x0000000000000000       0x10 build/at32f4xx_tim.o
 .text.TMR_ClearOC3Ref
                0x0000000000000000        0xe build/at32f4xx_tim.o
 .text.TMR_ClearOC4Ref
                0x0000000000000000       0x10 build/at32f4xx_tim.o
 .text.TMR_OC1PolarityConfig
                0x0000000000000000        0xe build/at32f4xx_tim.o
 .text.TMR_OC1NPolarityConfig
                0x0000000000000000        0xe build/at32f4xx_tim.o
 .text.TMR_OC2PolarityConfig
                0x0000000000000000       0x12 build/at32f4xx_tim.o
 .text.TMR_OC2NPolarityConfig
                0x0000000000000000       0x12 build/at32f4xx_tim.o
 .text.TMR_OC3PolarityConfig
                0x0000000000000000       0x12 build/at32f4xx_tim.o
 .text.TMR_OC3NPolarityConfig
                0x0000000000000000       0x12 build/at32f4xx_tim.o
 .text.TMR_OC4PolarityConfig
                0x0000000000000000       0x12 build/at32f4xx_tim.o
 .text.TMR_CCxCmd
                0x0000000000000000       0x22 build/at32f4xx_tim.o
 .text.TMR_CCxNCmd
                0x0000000000000000       0x22 build/at32f4xx_tim.o
 .text.TMR_SelectOCxM
                0x0000000000000000       0x48 build/at32f4xx_tim.o
 .text.TMR_UpdateDisableConfig
                0x0000000000000000       0x1a build/at32f4xx_tim.o
 .text.TMR_UpdateRequestConfig
                0x0000000000000000       0x1a build/at32f4xx_tim.o
 .text.TMR_SelectHallSensor
                0x0000000000000000       0x1a build/at32f4xx_tim.o
 .text.TMR_SelectOnePulseMode
                0x0000000000000000       0x14 build/at32f4xx_tim.o
 .text.TMR_SelectOutputTrigger
                0x0000000000000000       0x14 build/at32f4xx_tim.o
 .text.TMR_SelectSlaveMode
                0x0000000000000000       0x14 build/at32f4xx_tim.o
 .text.TMR_SelectMasterSlaveMode
                0x0000000000000000       0x14 build/at32f4xx_tim.o
 .text.TMR_SetCounter
                0x0000000000000000        0x4 build/at32f4xx_tim.o
 .text.TMR_SetAutoreload
                0x0000000000000000        0x4 build/at32f4xx_tim.o
 .text.TMR_SetCompare1
                0x0000000000000000        0x4 build/at32f4xx_tim.o
 .text.TMR_SetCompare2
                0x0000000000000000        0x4 build/at32f4xx_tim.o
 .text.TMR_SetCompare3
                0x0000000000000000        0x4 build/at32f4xx_tim.o
 .text.TMR_SetCompare4
                0x0000000000000000        0x4 build/at32f4xx_tim.o
 .text.TMR_SetIC1DIV
                0x0000000000000000       0x14 build/at32f4xx_tim.o
 .text.TMR_SetIC2DIV
                0x0000000000000000       0x18 build/at32f4xx_tim.o
 .text.TMR_PWMIConfig
                0x0000000000000000       0x6c build/at32f4xx_tim.o
 .text.TMR_SetIC3DIV
                0x0000000000000000       0x14 build/at32f4xx_tim.o
 .text.TMR_SetIC4DIV
                0x0000000000000000       0x18 build/at32f4xx_tim.o
 .text.TMR_ICInit
                0x0000000000000000       0x62 build/at32f4xx_tim.o
 .text.TMR_SetClockDivision
                0x0000000000000000       0x14 build/at32f4xx_tim.o
 .text.TMR_GetCapture1
                0x0000000000000000        0x4 build/at32f4xx_tim.o
 .text.TMR_GetCapture2
                0x0000000000000000        0x4 build/at32f4xx_tim.o
 .text.TMR_GetCapture3
                0x0000000000000000        0x4 build/at32f4xx_tim.o
 .text.TMR_GetCapture4
                0x0000000000000000        0x4 build/at32f4xx_tim.o
 .text.TMR_GetCounter
                0x0000000000000000        0x4 build/at32f4xx_tim.o
 .text.TMR_GetDIV
                0x0000000000000000        0x4 build/at32f4xx_tim.o
 .text.TMR_GetFlagStatus
                0x0000000000000000        0xe build/at32f4xx_tim.o
 .text.TMR_ClearFlag
                0x0000000000000000        0x8 build/at32f4xx_tim.o
 .text          0x0000000000000000        0x0 build/at32f4xx_usart.o
 .data          0x0000000000000000        0x0 build/at32f4xx_usart.o
 .bss           0x0000000000000000        0x0 build/at32f4xx_usart.o
 .text.USART_Reset
                0x0000000000000000       0xa4 build/at32f4xx_usart.o
 .text.USART_ClockInit
                0x0000000000000000       0x22 build/at32f4xx_usart.o
 .text.USART_ClockStructInit
                0x0000000000000000        0xc build/at32f4xx_usart.o
 .text.USART_DMACmd
                0x0000000000000000       0x14 build/at32f4xx_usart.o
 .text.USART_SetAddress
                0x0000000000000000       0x14 build/at32f4xx_usart.o
 .text.USART_WakeUpConfig
                0x0000000000000000       0x14 build/at32f4xx_usart.o
 .text.USART_ReceiverWakeUpCmd
                0x0000000000000000       0x1a build/at32f4xx_usart.o
 .text.USART_LINBreakDetectLengthConfig
                0x0000000000000000       0x14 build/at32f4xx_usart.o
 .text.USART_LINCmd
                0x0000000000000000       0x1a build/at32f4xx_usart.o
 .text.USART_SendBreak
                0x0000000000000000        0xa build/at32f4xx_usart.o
 .text.USART_SetGuardTime
                0x0000000000000000       0x10 build/at32f4xx_usart.o
 .text.USART_SetPrescaler
                0x0000000000000000       0x10 build/at32f4xx_usart.o
 .text.USART_SmartCardCmd
                0x0000000000000000       0x1a build/at32f4xx_usart.o
 .text.USART_SmartCardNACKCmd
                0x0000000000000000       0x1a build/at32f4xx_usart.o
 .text.USART_HalfDuplexCmd
                0x0000000000000000       0x1a build/at32f4xx_usart.o
 .text.USART_OverSampling8Cmd
                0x0000000000000000       0x16 build/at32f4xx_usart.o
 .text.USART_OneBitMethodCmd
                0x0000000000000000       0x1a build/at32f4xx_usart.o
 .text.USART_IrDAConfig
                0x0000000000000000       0x14 build/at32f4xx_usart.o
 .text.USART_IrDACmd
                0x0000000000000000       0x1a build/at32f4xx_usart.o
 .text.USART_ClearITPendingBit
                0x0000000000000000       0x10 build/at32f4xx_usart.o
 .text          0x0000000000000000        0x0 build/misc.o
 .data          0x0000000000000000        0x0 build/misc.o
 .bss           0x0000000000000000        0x0 build/misc.o
 .text.NVIC_SetVectorTable
                0x0000000000000000       0x14 build/misc.o
 .text.NVIC_SystemLPConfig
                0x0000000000000000       0x1c build/misc.o
 .text.SysTick_CLKSourceConfig
                0x0000000000000000       0x20 build/misc.o
 .text          0x0000000000000000        0x0 build/list.o
 .data          0x0000000000000000        0x0 build/list.o
 .bss           0x0000000000000000        0x0 build/list.o
 .text          0x0000000000000000        0x0 build/port.o
 .data          0x0000000000000000        0x0 build/port.o
 .bss           0x0000000000000000        0x0 build/port.o
 .text.vPortEndScheduler
                0x0000000000000000       0x24 build/port.o
 .text          0x0000000000000000        0x0 build/heap_4.o
 .data          0x0000000000000000        0x0 build/heap_4.o
 .bss           0x0000000000000000        0x0 build/heap_4.o
 .text.xPortGetFreeHeapSize
                0x0000000000000000        0xc build/heap_4.o
 .text.xPortGetMinimumEverFreeHeapSize
                0x0000000000000000        0xc build/heap_4.o
 .text.vPortInitialiseBlocks
                0x0000000000000000        0x2 build/heap_4.o
 .text          0x0000000000000000        0x0 build/queue.o
 .data          0x0000000000000000        0x0 build/queue.o
 .bss           0x0000000000000000        0x0 build/queue.o
 .text.xQueueCreateCountingSemaphore
                0x0000000000000000       0x40 build/queue.o
 .text.xQueueGiveMutexRecursive
                0x0000000000000000       0x40 build/queue.o
 .text.xQueueGiveFromISR
                0x0000000000000000       0xb2 build/queue.o
 .text.xQueueTakeMutexRecursive
                0x0000000000000000       0x48 build/queue.o
 .text.xQueueReceiveFromISR
                0x0000000000000000       0xaa build/queue.o
 .text.xQueuePeekFromISR
                0x0000000000000000       0x7c build/queue.o
 .text.uxQueueMessagesWaiting
                0x0000000000000000       0x26 build/queue.o
 .text.uxQueueSpacesAvailable
                0x0000000000000000       0x2a build/queue.o
 .text.uxQueueMessagesWaitingFromISR
                0x0000000000000000       0x18 build/queue.o
 .text.uxQueueGetQueueNumber
                0x0000000000000000        0x4 build/queue.o
 .text.vQueueSetQueueNumber
                0x0000000000000000        0x4 build/queue.o
 .text.ucQueueGetQueueType
                0x0000000000000000        0x6 build/queue.o
 .text.xQueueIsQueueEmptyFromISR
                0x0000000000000000       0x20 build/queue.o
 .text.xQueueIsQueueFullFromISR
                0x0000000000000000       0x24 build/queue.o
 .text.pcQueueGetName
                0x0000000000000000       0x28 build/queue.o
 .text.vQueueUnregisterQueue
                0x0000000000000000       0x2c build/queue.o
 .text.vQueueDelete
                0x0000000000000000       0x24 build/queue.o
 .text          0x0000000000000000        0x0 build/cmsis_os.o
 .data          0x0000000000000000        0x0 build/cmsis_os.o
 .bss           0x0000000000000000        0x0 build/cmsis_os.o
 .text.makeCmsisPriority
                0x0000000000000000        0xe build/cmsis_os.o
 .text.inHandlerMode
                0x0000000000000000        0xc build/cmsis_os.o
 .text.osKernelStart
                0x0000000000000000        0xa build/cmsis_os.o
 .text.osKernelRunning
                0x0000000000000000       0x12 build/cmsis_os.o
 .text.osKernelSysTick
                0x0000000000000000       0x14 build/cmsis_os.o
 .text.osThreadGetId
                0x0000000000000000        0x8 build/cmsis_os.o
 .text.osThreadTerminate
                0x0000000000000000        0xa build/cmsis_os.o
 .text.osThreadYield
                0x0000000000000000       0x18 build/cmsis_os.o
 .text.osThreadSetPriority
                0x0000000000000000       0x16 build/cmsis_os.o
 .text.osThreadGetPriority
                0x0000000000000000       0x22 build/cmsis_os.o
 .text.osTimerCreate
                0x0000000000000000       0x28 build/cmsis_os.o
 .text.osTimerStart
                0x0000000000000000       0x6c build/cmsis_os.o
 .text.osTimerStop
                0x0000000000000000       0x64 build/cmsis_os.o
 .text.osTimerDelete
                0x0000000000000000       0x30 build/cmsis_os.o
 .text.osSignalSet
                0x0000000000000000       0x64 build/cmsis_os.o
 .text.osSignalWait
                0x0000000000000000       0x68 build/cmsis_os.o
 .text.osMutexCreate
                0x0000000000000000        0xa build/cmsis_os.o
 .text.osMutexWait
                0x0000000000000000       0x74 build/cmsis_os.o
 .text.osMutexRelease
                0x0000000000000000       0x5c build/cmsis_os.o
 .text.osMutexDelete
                0x0000000000000000       0x18 build/cmsis_os.o
 .text.osSemaphoreCreate
                0x0000000000000000       0x2c build/cmsis_os.o
 .text.osSemaphoreWait
                0x0000000000000000       0x74 build/cmsis_os.o
 .text.osSemaphoreRelease
                0x0000000000000000       0x5c build/cmsis_os.o
 .text.osSemaphoreDelete
                0x0000000000000000       0x18 build/cmsis_os.o
 .text.osPoolCreate
                0x0000000000000000       0x68 build/cmsis_os.o
 .text.osPoolAlloc
                0x0000000000000000       0x6c build/cmsis_os.o
 .text.osPoolCAlloc
                0x0000000000000000       0x12 build/cmsis_os.o
 .text.osPoolFree
                0x0000000000000000       0x40 build/cmsis_os.o
 .text.osMessageCreate
                0x0000000000000000        0xe build/cmsis_os.o
 .text.osMessagePut
                0x0000000000000000       0x68 build/cmsis_os.o
 .text.osMessageGet
                0x0000000000000000       0xa0 build/cmsis_os.o
 .text.osMailCreate
                0x0000000000000000       0x66 build/cmsis_os.o
 .text.osMailAlloc
                0x0000000000000000       0x10 build/cmsis_os.o
 .text.osMailCAlloc
                0x0000000000000000       0x22 build/cmsis_os.o
 .text.osMailPut
                0x0000000000000000       0x68 build/cmsis_os.o
 .text.osMailGet
                0x0000000000000000       0x9c build/cmsis_os.o
 .text.osMailFree
                0x0000000000000000       0x10 build/cmsis_os.o
 .text.osSystickHandler
                0x0000000000000000        0x8 build/cmsis_os.o
 .text.osThreadSuspend
                0x0000000000000000        0xa build/cmsis_os.o
 .text.osThreadResume
                0x0000000000000000       0x34 build/cmsis_os.o
 .text.osThreadSuspendAll
                0x0000000000000000        0xa build/cmsis_os.o
 .text.osThreadResumeAll
                0x0000000000000000       0x12 build/cmsis_os.o
 .text.osDelayUntil
                0x0000000000000000       0x12 build/cmsis_os.o
 .text.osAbortDelay
                0x0000000000000000        0x4 build/cmsis_os.o
 .text.osThreadList
                0x0000000000000000        0xa build/cmsis_os.o
 .text.osMessagePeek
                0x0000000000000000       0x5a build/cmsis_os.o
 .text.osMessageWaiting
                0x0000000000000000       0x1a build/cmsis_os.o
 .text.osMessageAvailableSpace
                0x0000000000000000        0x8 build/cmsis_os.o
 .text.osMessageDelete
                0x0000000000000000       0x18 build/cmsis_os.o
 .text.osRecursiveMutexCreate
                0x0000000000000000        0xa build/cmsis_os.o
 .text.osRecursiveMutexRelease
                0x0000000000000000       0x12 build/cmsis_os.o
 .text.osRecursiveMutexWait
                0x0000000000000000       0x28 build/cmsis_os.o
 .text.osSemaphoreGetCount
                0x0000000000000000        0x8 build/cmsis_os.o
 .rodata.osTimerCreate.str1.4
                0x0000000000000000        0x1 build/cmsis_os.o
 .text          0x0000000000000000        0x0 build/timers.o
 .data          0x0000000000000000        0x0 build/timers.o
 .bss           0x0000000000000000        0x0 build/timers.o
 .text.prvInitialiseNewTimer
                0x0000000000000000       0x40 build/timers.o
 .text.xTimerCreate
                0x0000000000000000       0x32 build/timers.o
 .text.xTimerGetTimerDaemonTaskHandle
                0x0000000000000000       0x20 build/timers.o
 .text.xTimerGetPeriod
                0x0000000000000000       0x18 build/timers.o
 .text.xTimerGetExpiryTime
                0x0000000000000000       0x18 build/timers.o
 .text.pcTimerGetName
                0x0000000000000000       0x18 build/timers.o
 .text.xTimerIsTimerActive
                0x0000000000000000       0x2c build/timers.o
 .text.pvTimerGetTimerID
                0x0000000000000000       0x26 build/timers.o
 .text.vTimerSetTimerID
                0x0000000000000000       0x26 build/timers.o
 .text          0x0000000000000000        0x0 build/tasks.o
 .data          0x0000000000000000        0x0 build/tasks.o
 .bss           0x0000000000000000        0x0 build/tasks.o
 .text.prvTaskIsTaskSuspended
                0x0000000000000000       0x40 build/tasks.o
 .text.prvTaskCheckFreeStackSpace
                0x0000000000000000       0x14 build/tasks.o
 .text.prvWriteNameToBuffer
                0x0000000000000000       0x22 build/tasks.o
 .text.vTaskDelete
                0x0000000000000000       0xe0 build/tasks.o
 .text.eTaskGetState
                0x0000000000000000       0x80 build/tasks.o
 .text.uxTaskPriorityGet
                0x0000000000000000       0x20 build/tasks.o
 .text.uxTaskPriorityGetFromISR
                0x0000000000000000       0x30 build/tasks.o
 .text.vTaskPrioritySet
                0x0000000000000000       0xdc build/tasks.o
 .text.vTaskResume
                0x0000000000000000       0x84 build/tasks.o
 .text.xTaskResumeFromISR
                0x0000000000000000       0xa4 build/tasks.o
 .text.vTaskEndScheduler
                0x0000000000000000       0x24 build/tasks.o
 .text.xTaskGetTickCountFromISR
                0x0000000000000000       0x10 build/tasks.o
 .text.uxTaskGetNumberOfTasks
                0x0000000000000000        0xc build/tasks.o
 .text.pcTaskGetName
                0x0000000000000000       0x28 build/tasks.o
 .text.vTaskDelayUntil
                0x0000000000000000       0xa4 build/tasks.o
 .text.vTaskSuspend
                0x0000000000000000       0xd8 build/tasks.o
 .text.vTaskPlaceOnUnorderedEventList
                0x0000000000000000       0x5c build/tasks.o
 .text.xTaskRemoveFromUnorderedEventList
                0x0000000000000000       0x8c build/tasks.o
 .text.uxTaskGetTaskNumber
                0x0000000000000000        0xa build/tasks.o
 .text.vTaskSetTaskNumber
                0x0000000000000000        0x6 build/tasks.o
 .text.vTaskGetInfo
                0x0000000000000000       0x74 build/tasks.o
 .text.prvListTasksWithinSingleList
                0x0000000000000000       0x5e build/tasks.o
 .text.uxTaskGetSystemState
                0x0000000000000000       0xb4 build/tasks.o
 .text.xTaskGetCurrentTaskHandle
                0x0000000000000000        0xc build/tasks.o
 .text.vTaskList
                0x0000000000000000       0xdc build/tasks.o
 .text.vTaskGetRunTimeStats
                0x0000000000000000       0xc4 build/tasks.o
 .text.uxTaskResetEventItemValue
                0x0000000000000000       0x18 build/tasks.o
 .text.ulTaskNotifyTake
                0x0000000000000000       0x78 build/tasks.o
 .text.xTaskNotifyWait
                0x0000000000000000       0x98 build/tasks.o
 .text.xTaskGenericNotify
                0x0000000000000000       0xe0 build/tasks.o
 .text.xTaskGenericNotifyFromISR
                0x0000000000000000      0x120 build/tasks.o
 .text.vTaskNotifyGiveFromISR
                0x0000000000000000       0xd0 build/tasks.o
 .text.xTaskNotifyStateClear
                0x0000000000000000       0x34 build/tasks.o
 .rodata.vTaskGetRunTimeStats.str1.4
                0x0000000000000000       0x18 build/tasks.o
 .rodata.vTaskList.str1.4
                0x0000000000000000        0xf build/tasks.o
 .text          0x0000000000000000        0x0 build/event_groups.o
 .data          0x0000000000000000        0x0 build/event_groups.o
 .bss           0x0000000000000000        0x0 build/event_groups.o
 .text.prvTestWaitCondition
                0x0000000000000000       0x1c build/event_groups.o
 .text.xEventGroupCreate
                0x0000000000000000       0x1a build/event_groups.o
 .text.xEventGroupWaitBits
                0x0000000000000000      0x10c build/event_groups.o
 .text.xEventGroupClearBits
                0x0000000000000000       0x46 build/event_groups.o
 .text.xEventGroupGetBitsFromISR
                0x0000000000000000       0x1c build/event_groups.o
 .text.xEventGroupSetBits
                0x0000000000000000       0x8c build/event_groups.o
 .text.xEventGroupSync
                0x0000000000000000       0xd4 build/event_groups.o
 .text.vEventGroupDelete
                0x0000000000000000       0x3e build/event_groups.o
 .text.vEventGroupSetBitsCallback
                0x0000000000000000        0x8 build/event_groups.o
 .text.vEventGroupClearBitsCallback
                0x0000000000000000        0x8 build/event_groups.o
 .text.uxEventGroupGetNumber
                0x0000000000000000        0xa build/event_groups.o
 .debug_info    0x0000000000000000     0x14bb build/event_groups.o
 .debug_abbrev  0x0000000000000000      0x36b build/event_groups.o
 .debug_loc     0x0000000000000000      0x84f build/event_groups.o
 .debug_aranges
                0x0000000000000000       0x70 build/event_groups.o
 .debug_ranges  0x0000000000000000       0x80 build/event_groups.o
 .debug_line    0x0000000000000000      0x4f0 build/event_groups.o
 .debug_str     0x0000000000000000      0xad4 build/event_groups.o
 .comment       0x0000000000000000       0x80 build/event_groups.o
 .debug_frame   0x0000000000000000      0x14c build/event_groups.o
 .ARM.attributes
                0x0000000000000000       0x37 build/event_groups.o
 .text          0x0000000000000000        0x0 build/croutine.o
 .data          0x0000000000000000        0x0 build/croutine.o
 .bss           0x0000000000000000        0x0 build/croutine.o
 .debug_info    0x0000000000000000       0xd0 build/croutine.o
 .debug_abbrev  0x0000000000000000       0x5c build/croutine.o
 .debug_aranges
                0x0000000000000000       0x18 build/croutine.o
 .debug_line    0x0000000000000000      0x153 build/croutine.o
 .debug_str     0x0000000000000000      0x221 build/croutine.o
 .comment       0x0000000000000000       0x80 build/croutine.o
 .ARM.attributes
                0x0000000000000000       0x37 build/croutine.o
 .text          0x0000000000000000        0x0 build/bsp_key.o
 .data          0x0000000000000000        0x0 build/bsp_key.o
 .bss           0x0000000000000000        0x0 build/bsp_key.o
 .text.bsp_PutKey
                0x0000000000000000       0x1c build/bsp_key.o
 .text.bsp_DetectKey
                0x0000000000000000      0x118 build/bsp_key.o
 .text.bsp_GetKey
                0x0000000000000000       0x28 build/bsp_key.o
 .text.bsp_GetKeyState
                0x0000000000000000       0x10 build/bsp_key.o
 .text.bsp_SetKeyParam
                0x0000000000000000       0x14 build/bsp_key.o
 .text.bsp_ClearKey
                0x0000000000000000        0xc build/bsp_key.o
 .text.bsp_KeyScan
                0x0000000000000000       0x14 build/bsp_key.o
 .text          0x0000000000000000        0x0 build/bsp_led.o
 .data          0x0000000000000000        0x0 build/bsp_led.o
 .bss           0x0000000000000000        0x0 build/bsp_led.o
 .text.bsp_LedOn
                0x0000000000000000       0x30 build/bsp_led.o
 .text          0x0000000000000000        0x0 build/bsp_tim_pwm.o
 .data          0x0000000000000000        0x0 build/bsp_tim_pwm.o
 .bss           0x0000000000000000        0x0 build/bsp_tim_pwm.o
 .text.bsp_GetRCCofGPIO
                0x0000000000000000       0x5c build/bsp_tim_pwm.o
 .text.bsp_GetRCCofTMR
                0x0000000000000000       0xb8 build/bsp_tim_pwm.o
 .text.bsp_ConfigTMRGpio
                0x0000000000000000       0x5c build/bsp_tim_pwm.o
 .text.bsp_ConfigGpioOut
                0x0000000000000000       0x2e build/bsp_tim_pwm.o
 .text.bsp_SetTMROutPWM
                0x0000000000000000      0x194 build/bsp_tim_pwm.o
 .text.bsp_SetTIMOutPWM_N
                0x0000000000000000      0x194 build/bsp_tim_pwm.o
 .text.bsp_SetTMRforInt
                0x0000000000000000      0x1c4 build/bsp_tim_pwm.o
 .debug_info    0x0000000000000000     0x1b0e build/bsp_tim_pwm.o
 .debug_abbrev  0x0000000000000000      0x2f4 build/bsp_tim_pwm.o
 .debug_loc     0x0000000000000000      0xb33 build/bsp_tim_pwm.o
 .debug_aranges
                0x0000000000000000       0x50 build/bsp_tim_pwm.o
 .debug_ranges  0x0000000000000000       0x60 build/bsp_tim_pwm.o
 .debug_line    0x0000000000000000      0x462 build/bsp_tim_pwm.o
 .debug_str     0x0000000000000000     0x1054 build/bsp_tim_pwm.o
 .comment       0x0000000000000000       0x80 build/bsp_tim_pwm.o
 .debug_frame   0x0000000000000000      0x114 build/bsp_tim_pwm.o
 .ARM.attributes
                0x0000000000000000       0x37 build/bsp_tim_pwm.o
 .text          0x0000000000000000        0x0 build/bsp_timer.o
 .data          0x0000000000000000        0x0 build/bsp_timer.o
 .bss           0x0000000000000000        0x0 build/bsp_timer.o
 .text.bsp_StartHardTimer
                0x0000000000000000       0xbc build/bsp_timer.o
 .text          0x0000000000000000        0x0 build/bsp_uart_fifo.o
 .data          0x0000000000000000        0x0 build/bsp_uart_fifo.o
 .bss           0x0000000000000000        0x0 build/bsp_uart_fifo.o
 .text.comSendChar
                0x0000000000000000       0x18 build/bsp_uart_fifo.o
 .text.comClearTxFifo
                0x0000000000000000       0x12 build/bsp_uart_fifo.o
 .text.comClearRxFifo
                0x0000000000000000       0x12 build/bsp_uart_fifo.o
 .text.bsp_SetUart1Baud
                0x0000000000000000       0x30 build/bsp_uart_fifo.o
 .text.fgetc    0x0000000000000000       0x1c build/bsp_uart_fifo.o
 .text          0x0000000000000000        0x0 build/bsp.o
 .data          0x0000000000000000        0x0 build/bsp.o
 .bss           0x0000000000000000        0x0 build/bsp.o
 .text          0x0000000000000000        0x0 build/at32f4xx_it.o
 .data          0x0000000000000000        0x0 build/at32f4xx_it.o
 .bss           0x0000000000000000        0x0 build/at32f4xx_it.o
 .text          0x0000000000000000        0x0 build/at32f4xx_assert.o
 .data          0x0000000000000000        0x0 build/at32f4xx_assert.o
 .bss           0x0000000000000000        0x0 build/at32f4xx_assert.o
 .debug_info    0x0000000000000000      0x9b9 build/at32f4xx_assert.o
 .debug_abbrev  0x0000000000000000      0x174 build/at32f4xx_assert.o
 .debug_aranges
                0x0000000000000000       0x18 build/at32f4xx_assert.o
 .debug_line    0x0000000000000000      0x1b9 build/at32f4xx_assert.o
 .debug_str     0x0000000000000000      0x5ce build/at32f4xx_assert.o
 .comment       0x0000000000000000       0x80 build/at32f4xx_assert.o
 .ARM.attributes
                0x0000000000000000       0x37 build/at32f4xx_assert.o
 .text          0x0000000000000000        0x0 build/TimerForRunTimeState.o
 .data          0x0000000000000000        0x0 build/TimerForRunTimeState.o
 .bss           0x0000000000000000        0x0 build/TimerForRunTimeState.o
 .text.vTimerInitForRunTimeState
                0x0000000000000000       0x18 build/TimerForRunTimeState.o
 .group         0x0000000000000000       0x14 build/main.o
 .group         0x0000000000000000       0x14 build/main.o
 .group         0x0000000000000000       0x18 build/main.o
 .group         0x0000000000000000       0x18 build/main.o
 .group         0x0000000000000000       0x14 build/main.o
 .group         0x0000000000000000       0x18 build/main.o
 .group         0x0000000000000000       0x18 build/main.o
 .group         0x0000000000000000       0x14 build/main.o
 .group         0x0000000000000000       0x18 build/main.o
 .group         0x0000000000000000       0x18 build/main.o
 .group         0x0000000000000000       0x18 build/main.o
 .group         0x0000000000000000       0x18 build/main.o
 .group         0x0000000000000000       0x14 build/main.o
 .group         0x0000000000000000       0x18 build/main.o
 .group         0x0000000000000000       0x18 build/main.o
 .group         0x0000000000000000       0x18 build/main.o
 .group         0x0000000000000000       0x18 build/main.o
 .group         0x0000000000000000       0x18 build/main.o
 .group         0x0000000000000000       0x18 build/main.o
 .group         0x0000000000000000       0x18 build/main.o
 .group         0x0000000000000000        0xc build/main.o
 .group         0x0000000000000000        0xc build/main.o
 .group         0x0000000000000000        0xc build/main.o
 .group         0x0000000000000000        0xc build/main.o
 .group         0x0000000000000000        0xc build/main.o
 .text          0x0000000000000000        0x0 build/main.o
 .data          0x0000000000000000        0x0 build/main.o
 .bss           0x0000000000000000        0x0 build/main.o
 .ARM.extab.text._Z41__static_initialization_and_destruction_0ii
                0x0000000000000000        0x0 build/main.o
 .ARM.extab.text.main
                0x0000000000000000        0x0 build/main.o
 .text._Z10App_PrintfPKcz
                0x0000000000000000       0x4c build/main.o
 .ARM.extab.text._Z10App_PrintfPKcz
                0x0000000000000000        0xc build/main.o
 .ARM.exidx.text._Z10App_PrintfPKcz
                0x0000000000000000        0x8 build/main.o
 .ARM.extab.text.vApplicationMallocFailedHook
                0x0000000000000000        0x0 build/main.o
 .ARM.extab.text._GLOBAL__sub_I_nh
                0x0000000000000000        0x0 build/main.o
 .rodata._Z10App_PrintfPKcz.str1.4
                0x0000000000000000        0x3 build/main.o
 .group         0x0000000000000000       0x14 build/spin_task.o
 .group         0x0000000000000000       0x14 build/spin_task.o
 .group         0x0000000000000000       0x18 build/spin_task.o
 .group         0x0000000000000000       0x18 build/spin_task.o
 .group         0x0000000000000000       0x14 build/spin_task.o
 .group         0x0000000000000000       0x18 build/spin_task.o
 .group         0x0000000000000000       0x18 build/spin_task.o
 .group         0x0000000000000000       0x18 build/spin_task.o
 .group         0x0000000000000000        0xc build/spin_task.o
 .group         0x0000000000000000        0xc build/spin_task.o
 .text          0x0000000000000000        0x0 build/spin_task.o
 .data          0x0000000000000000        0x0 build/spin_task.o
 .bss           0x0000000000000000        0x0 build/spin_task.o
 .text._ZNK8std_msgs4Time9serializeEPh
                0x0000000000000000       0x28 build/spin_task.o
 .ARM.extab.text._ZNK8std_msgs4Time9serializeEPh
                0x0000000000000000        0x0 build/spin_task.o
 .ARM.exidx.text._ZNK8std_msgs4Time9serializeEPh
                0x0000000000000000        0x8 build/spin_task.o
 .text._ZN8std_msgs4Time11deserializeEPh
                0x0000000000000000       0x3c build/spin_task.o
 .ARM.extab.text._ZN8std_msgs4Time11deserializeEPh
                0x0000000000000000        0x0 build/spin_task.o
 .ARM.exidx.text._ZN8std_msgs4Time11deserializeEPh
                0x0000000000000000        0x8 build/spin_task.o
 .text._ZN8std_msgs4Time7getTypeEv
                0x0000000000000000        0x8 build/spin_task.o
 .ARM.extab.text._ZN8std_msgs4Time7getTypeEv
                0x0000000000000000        0x0 build/spin_task.o
 .ARM.exidx.text._ZN8std_msgs4Time7getTypeEv
                0x0000000000000000        0x8 build/spin_task.o
 .text._ZN8std_msgs4Time6getMD5Ev
                0x0000000000000000        0x8 build/spin_task.o
 .ARM.extab.text._ZN8std_msgs4Time6getMD5Ev
                0x0000000000000000        0x0 build/spin_task.o
 .ARM.exidx.text._ZN8std_msgs4Time6getMD5Ev
                0x0000000000000000        0x8 build/spin_task.o
 .text._ZN14rosserial_msgs9TopicInfo11deserializeEPh
                0x0000000000000000       0x94 build/spin_task.o
 .ARM.extab.text._ZN14rosserial_msgs9TopicInfo11deserializeEPh
                0x0000000000000000        0x0 build/spin_task.o
 .ARM.exidx.text._ZN14rosserial_msgs9TopicInfo11deserializeEPh
                0x0000000000000000        0x8 build/spin_task.o
 .text._ZN14rosserial_msgs9TopicInfo7getTypeEv
                0x0000000000000000        0x8 build/spin_task.o
 .ARM.extab.text._ZN14rosserial_msgs9TopicInfo7getTypeEv
                0x0000000000000000        0x0 build/spin_task.o
 .ARM.exidx.text._ZN14rosserial_msgs9TopicInfo7getTypeEv
                0x0000000000000000        0x8 build/spin_task.o
 .text._ZN14rosserial_msgs9TopicInfo6getMD5Ev
                0x0000000000000000        0x8 build/spin_task.o
 .ARM.extab.text._ZN14rosserial_msgs9TopicInfo6getMD5Ev
                0x0000000000000000        0x0 build/spin_task.o
 .ARM.exidx.text._ZN14rosserial_msgs9TopicInfo6getMD5Ev
                0x0000000000000000        0x8 build/spin_task.o
 .text._ZNK14rosserial_msgs9TopicInfo9serializeEPh
                0x0000000000000000       0x7a build/spin_task.o
 .ARM.extab.text._ZNK14rosserial_msgs9TopicInfo9serializeEPh
                0x0000000000000000        0x0 build/spin_task.o
 .ARM.exidx.text._ZNK14rosserial_msgs9TopicInfo9serializeEPh
                0x0000000000000000        0x8 build/spin_task.o
 .ARM.extab.text._Z19ROS_SpinTaskHandlerPKv
                0x0000000000000000        0x0 build/spin_task.o
 .ARM.extab.text._Z15rosSpinTaskInitPN3ros11NodeHandle_I13STM32HardwareLi5ELi5ELi512ELi512EEE
                0x0000000000000000        0x0 build/spin_task.o
 .rodata._ZTVN8std_msgs4TimeE
                0x0000000000000000       0x18 build/spin_task.o
 .rodata._ZTVN14rosserial_msgs9TopicInfoE
                0x0000000000000000       0x18 build/spin_task.o
 .rodata._ZN14rosserial_msgs9TopicInfo6getMD5Ev.str1.4
                0x0000000000000000       0x21 build/spin_task.o
 .rodata._ZN14rosserial_msgs9TopicInfo7getTypeEv.str1.4
                0x0000000000000000       0x19 build/spin_task.o
 .rodata._ZN8std_msgs4Time6getMD5Ev.str1.4
                0x0000000000000000       0x21 build/spin_task.o
 .rodata._ZN8std_msgs4Time7getTypeEv.str1.4
                0x0000000000000000        0xe build/spin_task.o
 .group         0x0000000000000000       0x14 build/subscribe_task.o
 .group         0x0000000000000000       0x14 build/subscribe_task.o
 .group         0x0000000000000000       0x18 build/subscribe_task.o
 .group         0x0000000000000000       0x18 build/subscribe_task.o
 .group         0x0000000000000000       0x14 build/subscribe_task.o
 .group         0x0000000000000000       0x14 build/subscribe_task.o
 .group         0x0000000000000000       0x18 build/subscribe_task.o
 .group         0x0000000000000000       0x18 build/subscribe_task.o
 .group         0x0000000000000000        0xc build/subscribe_task.o
 .group         0x0000000000000000        0xc build/subscribe_task.o
 .text          0x0000000000000000        0x0 build/subscribe_task.o
 .data          0x0000000000000000        0x0 build/subscribe_task.o
 .bss           0x0000000000000000        0x0 build/subscribe_task.o
 .ARM.extab.text._Z41__static_initialization_and_destruction_0ii
                0x0000000000000000        0x0 build/subscribe_task.o
 .text._Z24ROS_SubscribeTaskHandlerPKv
                0x0000000000000000       0x3c build/subscribe_task.o
 .ARM.extab.text._Z24ROS_SubscribeTaskHandlerPKv
                0x0000000000000000        0xc build/subscribe_task.o
 .ARM.exidx.text._Z24ROS_SubscribeTaskHandlerPKv
                0x0000000000000000        0x8 build/subscribe_task.o
 .text._Z20rosSubscribeInitTaskPN3ros11NodeHandle_I13STM32HardwareLi5ELi5ELi512ELi512EEE
                0x0000000000000000       0x70 build/subscribe_task.o
 .ARM.extab.text._Z20rosSubscribeInitTaskPN3ros11NodeHandle_I13STM32HardwareLi5ELi5ELi512ELi512EEE
                0x0000000000000000        0x0 build/subscribe_task.o
 .ARM.exidx.text._Z20rosSubscribeInitTaskPN3ros11NodeHandle_I13STM32HardwareLi5ELi5ELi512ELi512EEE
                0x0000000000000000        0x8 build/subscribe_task.o
 .ARM.extab.text._GLOBAL__sub_I_sub_led
                0x0000000000000000        0x0 build/subscribe_task.o
 .rodata        0x0000000000000000       0x14 build/subscribe_task.o
 .bss._ZZ24ROS_SubscribeTaskHandlerPKvE8ledState
                0x0000000000000000        0x2 build/subscribe_task.o
 .rodata.str1.4
                0x0000000000000000       0x12 build/subscribe_task.o
 .text          0x0000000000000000        0x0 build/heartbeat_task.o
 .data          0x0000000000000000        0x0 build/heartbeat_task.o
 .bss           0x0000000000000000        0x0 build/heartbeat_task.o
 .text._Z21Heartbeat_TaskHandlerPKv
                0x0000000000000000        0xc build/heartbeat_task.o
 .ARM.extab.text._Z21Heartbeat_TaskHandlerPKv
                0x0000000000000000        0xc build/heartbeat_task.o
 .ARM.exidx.text._Z21Heartbeat_TaskHandlerPKv
                0x0000000000000000        0x8 build/heartbeat_task.o
 .text._Z17heartbeatInitTaskv
                0x0000000000000000       0x28 build/heartbeat_task.o
 .ARM.extab.text._Z17heartbeatInitTaskv
                0x0000000000000000        0x0 build/heartbeat_task.o
 .ARM.exidx.text._Z17heartbeatInitTaskv
                0x0000000000000000        0x8 build/heartbeat_task.o
 .rodata        0x0000000000000000       0x14 build/heartbeat_task.o
 .rodata.str1.4
                0x0000000000000000        0xf build/heartbeat_task.o
 .debug_info    0x0000000000000000      0xb79 build/heartbeat_task.o
 .debug_abbrev  0x0000000000000000      0x237 build/heartbeat_task.o
 .debug_loc     0x0000000000000000       0xa3 build/heartbeat_task.o
 .debug_aranges
                0x0000000000000000       0x28 build/heartbeat_task.o
 .debug_ranges  0x0000000000000000       0x18 build/heartbeat_task.o
 .debug_line    0x0000000000000000      0x28a build/heartbeat_task.o
 .debug_str     0x0000000000000000      0x7e6 build/heartbeat_task.o
 .comment       0x0000000000000000       0x80 build/heartbeat_task.o
 .debug_frame   0x0000000000000000       0x54 build/heartbeat_task.o
 .ARM.attributes
                0x0000000000000000       0x37 build/heartbeat_task.o
 .text          0x0000000000000000        0x0 build/duration.o
 .data          0x0000000000000000        0x0 build/duration.o
 .bss           0x0000000000000000        0x0 build/duration.o
 .text._ZN3ros22normalizeSecNSecSignedERlS0_
                0x0000000000000000       0x40 build/duration.o
 .ARM.extab.text._ZN3ros22normalizeSecNSecSignedERlS0_
                0x0000000000000000        0x0 build/duration.o
 .ARM.exidx.text._ZN3ros22normalizeSecNSecSignedERlS0_
                0x0000000000000000        0x8 build/duration.o
 .text._ZN3ros8DurationpLERKS0_
                0x0000000000000000       0x20 build/duration.o
 .ARM.extab.text._ZN3ros8DurationpLERKS0_
                0x0000000000000000        0x0 build/duration.o
 .ARM.exidx.text._ZN3ros8DurationpLERKS0_
                0x0000000000000000        0x8 build/duration.o
 .text._ZN3ros8DurationmIERKS0_
                0x0000000000000000       0x20 build/duration.o
 .ARM.extab.text._ZN3ros8DurationmIERKS0_
                0x0000000000000000        0x0 build/duration.o
 .ARM.exidx.text._ZN3ros8DurationmIERKS0_
                0x0000000000000000        0x8 build/duration.o
 .text._ZN3ros8DurationmLEd
                0x0000000000000000       0x3e build/duration.o
 .ARM.extab.text._ZN3ros8DurationmLEd
                0x0000000000000000        0x0 build/duration.o
 .ARM.exidx.text._ZN3ros8DurationmLEd
                0x0000000000000000        0x8 build/duration.o
 .debug_info    0x0000000000000000     0x1431 build/duration.o
 .debug_abbrev  0x0000000000000000      0x37d build/duration.o
 .debug_loc     0x0000000000000000      0x1bd build/duration.o
 .debug_aranges
                0x0000000000000000       0x38 build/duration.o
 .debug_ranges  0x0000000000000000       0x28 build/duration.o
 .debug_line    0x0000000000000000      0x346 build/duration.o
 .debug_str     0x0000000000000000      0x8e1 build/duration.o
 .comment       0x0000000000000000       0x80 build/duration.o
 .debug_frame   0x0000000000000000       0x84 build/duration.o
 .ARM.attributes
                0x0000000000000000       0x37 build/duration.o
 .text          0x0000000000000000        0x0 build/time.o
 .data          0x0000000000000000        0x0 build/time.o
 .bss           0x0000000000000000        0x0 build/time.o
 .ARM.extab.text._ZN3ros16normalizeSecNSecERmS0_
                0x0000000000000000        0x0 build/time.o
 .text._ZN3ros4Time8fromNSecEl
                0x0000000000000000       0x30 build/time.o
 .ARM.extab.text._ZN3ros4Time8fromNSecEl
                0x0000000000000000        0x0 build/time.o
 .ARM.exidx.text._ZN3ros4Time8fromNSecEl
                0x0000000000000000        0x8 build/time.o
 .text._ZN3ros4TimepLERKNS_8DurationE
                0x0000000000000000       0x20 build/time.o
 .ARM.extab.text._ZN3ros4TimepLERKNS_8DurationE
                0x0000000000000000        0x0 build/time.o
 .ARM.exidx.text._ZN3ros4TimepLERKNS_8DurationE
                0x0000000000000000        0x8 build/time.o
 .text._ZN3ros4TimemIERKNS_8DurationE
                0x0000000000000000       0x20 build/time.o
 .ARM.extab.text._ZN3ros4TimemIERKNS_8DurationE
                0x0000000000000000        0x0 build/time.o
 .ARM.exidx.text._ZN3ros4TimemIERKNS_8DurationE
                0x0000000000000000        0x8 build/time.o
 .text          0x0000000000000000       0x14 build/startup_at32f403xe.o
 .data          0x0000000000000000        0x0 build/startup_at32f403xe.o
 .bss           0x0000000000000000        0x0 build/startup_at32f403xe.o
 .text          0x0000000000000000        0x0 /usr/local/Cellar/gcc-arm-none-eabi/20180627/bin/../lib/gcc/arm-none-eabi/7.3.1/../../../../arm-none-eabi/lib/thumb/v7e-m/fpv4-sp/softfp/libc_nano.a(lib_a-exit.o)
 .data          0x0000000000000000        0x0 /usr/local/Cellar/gcc-arm-none-eabi/20180627/bin/../lib/gcc/arm-none-eabi/7.3.1/../../../../arm-none-eabi/lib/thumb/v7e-m/fpv4-sp/softfp/libc_nano.a(lib_a-exit.o)
 .bss           0x0000000000000000        0x0 /usr/local/Cellar/gcc-arm-none-eabi/20180627/bin/../lib/gcc/arm-none-eabi/7.3.1/../../../../arm-none-eabi/lib/thumb/v7e-m/fpv4-sp/softfp/libc_nano.a(lib_a-exit.o)
 .text.exit     0x0000000000000000       0x28 /usr/local/Cellar/gcc-arm-none-eabi/20180627/bin/../lib/gcc/arm-none-eabi/7.3.1/../../../../arm-none-eabi/lib/thumb/v7e-m/fpv4-sp/softfp/libc_nano.a(lib_a-exit.o)
 .debug_frame   0x0000000000000000       0x28 /usr/local/Cellar/gcc-arm-none-eabi/20180627/bin/../lib/gcc/arm-none-eabi/7.3.1/../../../../arm-none-eabi/lib/thumb/v7e-m/fpv4-sp/softfp/libc_nano.a(lib_a-exit.o)
 .ARM.attributes
                0x0000000000000000       0x32 /usr/local/Cellar/gcc-arm-none-eabi/20180627/bin/../lib/gcc/arm-none-eabi/7.3.1/../../../../arm-none-eabi/lib/thumb/v7e-m/fpv4-sp/softfp/libc_nano.a(lib_a-exit.o)
 .text          0x0000000000000000        0x0 /usr/local/Cellar/gcc-arm-none-eabi/20180627/bin/../lib/gcc/arm-none-eabi/7.3.1/../../../../arm-none-eabi/lib/thumb/v7e-m/fpv4-sp/softfp/libc_nano.a(lib_a-impure.o)
 .data          0x0000000000000000        0x0 /usr/local/Cellar/gcc-arm-none-eabi/20180627/bin/../lib/gcc/arm-none-eabi/7.3.1/../../../../arm-none-eabi/lib/thumb/v7e-m/fpv4-sp/softfp/libc_nano.a(lib_a-impure.o)
 .bss           0x0000000000000000        0x0 /usr/local/Cellar/gcc-arm-none-eabi/20180627/bin/../lib/gcc/arm-none-eabi/7.3.1/../../../../arm-none-eabi/lib/thumb/v7e-m/fpv4-sp/softfp/libc_nano.a(lib_a-impure.o)
 .text          0x0000000000000000        0x0 /usr/local/Cellar/gcc-arm-none-eabi/20180627/bin/../lib/gcc/arm-none-eabi/7.3.1/../../../../arm-none-eabi/lib/thumb/v7e-m/fpv4-sp/softfp/libc_nano.a(lib_a-init.o)
 .data          0x0000000000000000        0x0 /usr/local/Cellar/gcc-arm-none-eabi/20180627/bin/../lib/gcc/arm-none-eabi/7.3.1/../../../../arm-none-eabi/lib/thumb/v7e-m/fpv4-sp/softfp/libc_nano.a(lib_a-init.o)
 .bss           0x0000000000000000        0x0 /usr/local/Cellar/gcc-arm-none-eabi/20180627/bin/../lib/gcc/arm-none-eabi/7.3.1/../../../../arm-none-eabi/lib/thumb/v7e-m/fpv4-sp/softfp/libc_nano.a(lib_a-init.o)
 .text.__libc_init_array
                0x0000000000000000       0x48 /usr/local/Cellar/gcc-arm-none-eabi/20180627/bin/../lib/gcc/arm-none-eabi/7.3.1/../../../../arm-none-eabi/lib/thumb/v7e-m/fpv4-sp/softfp/libc_nano.a(lib_a-init.o)
 .debug_frame   0x0000000000000000       0x2c /usr/local/Cellar/gcc-arm-none-eabi/20180627/bin/../lib/gcc/arm-none-eabi/7.3.1/../../../../arm-none-eabi/lib/thumb/v7e-m/fpv4-sp/softfp/libc_nano.a(lib_a-init.o)
 .ARM.attributes
                0x0000000000000000       0x32 /usr/local/Cellar/gcc-arm-none-eabi/20180627/bin/../lib/gcc/arm-none-eabi/7.3.1/../../../../arm-none-eabi/lib/thumb/v7e-m/fpv4-sp/softfp/libc_nano.a(lib_a-init.o)
 .text          0x0000000000000000        0x0 /usr/local/Cellar/gcc-arm-none-eabi/20180627/bin/../lib/gcc/arm-none-eabi/7.3.1/../../../../arm-none-eabi/lib/thumb/v7e-m/fpv4-sp/softfp/libc_nano.a(lib_a-memcpy-stub.o)
 .data          0x0000000000000000        0x0 /usr/local/Cellar/gcc-arm-none-eabi/20180627/bin/../lib/gcc/arm-none-eabi/7.3.1/../../../../arm-none-eabi/lib/thumb/v7e-m/fpv4-sp/softfp/libc_nano.a(lib_a-memcpy-stub.o)
 .bss           0x0000000000000000        0x0 /usr/local/Cellar/gcc-arm-none-eabi/20180627/bin/../lib/gcc/arm-none-eabi/7.3.1/../../../../arm-none-eabi/lib/thumb/v7e-m/fpv4-sp/softfp/libc_nano.a(lib_a-memcpy-stub.o)
 .text          0x0000000000000000        0x0 /usr/local/Cellar/gcc-arm-none-eabi/20180627/bin/../lib/gcc/arm-none-eabi/7.3.1/../../../../arm-none-eabi/lib/thumb/v7e-m/fpv4-sp/softfp/libc_nano.a(lib_a-memset.o)
 .data          0x0000000000000000        0x0 /usr/local/Cellar/gcc-arm-none-eabi/20180627/bin/../lib/gcc/arm-none-eabi/7.3.1/../../../../arm-none-eabi/lib/thumb/v7e-m/fpv4-sp/softfp/libc_nano.a(lib_a-memset.o)
 .bss           0x0000000000000000        0x0 /usr/local/Cellar/gcc-arm-none-eabi/20180627/bin/../lib/gcc/arm-none-eabi/7.3.1/../../../../arm-none-eabi/lib/thumb/v7e-m/fpv4-sp/softfp/libc_nano.a(lib_a-memset.o)
 .text          0x0000000000000000        0x0 /usr/local/Cellar/gcc-arm-none-eabi/20180627/bin/../lib/gcc/arm-none-eabi/7.3.1/../../../../arm-none-eabi/lib/thumb/v7e-m/fpv4-sp/softfp/libc_nano.a(lib_a-printf.o)
 .data          0x0000000000000000        0x0 /usr/local/Cellar/gcc-arm-none-eabi/20180627/bin/../lib/gcc/arm-none-eabi/7.3.1/../../../../arm-none-eabi/lib/thumb/v7e-m/fpv4-sp/softfp/libc_nano.a(lib_a-printf.o)
 .bss           0x0000000000000000        0x0 /usr/local/Cellar/gcc-arm-none-eabi/20180627/bin/../lib/gcc/arm-none-eabi/7.3.1/../../../../arm-none-eabi/lib/thumb/v7e-m/fpv4-sp/softfp/libc_nano.a(lib_a-printf.o)
 .text._printf_r
                0x0000000000000000       0x28 /usr/local/Cellar/gcc-arm-none-eabi/20180627/bin/../lib/gcc/arm-none-eabi/7.3.1/../../../../arm-none-eabi/lib/thumb/v7e-m/fpv4-sp/softfp/libc_nano.a(lib_a-printf.o)
 .text          0x0000000000000000        0x0 /usr/local/Cellar/gcc-arm-none-eabi/20180627/bin/../lib/gcc/arm-none-eabi/7.3.1/../../../../arm-none-eabi/lib/thumb/v7e-m/fpv4-sp/softfp/libc_nano.a(lib_a-puts.o)
 .data          0x0000000000000000        0x0 /usr/local/Cellar/gcc-arm-none-eabi/20180627/bin/../lib/gcc/arm-none-eabi/7.3.1/../../../../arm-none-eabi/lib/thumb/v7e-m/fpv4-sp/softfp/libc_nano.a(lib_a-puts.o)
 .bss           0x0000000000000000        0x0 /usr/local/Cellar/gcc-arm-none-eabi/20180627/bin/../lib/gcc/arm-none-eabi/7.3.1/../../../../arm-none-eabi/lib/thumb/v7e-m/fpv4-sp/softfp/libc_nano.a(lib_a-puts.o)
 .text          0x0000000000000000        0x0 /usr/local/Cellar/gcc-arm-none-eabi/20180627/bin/../lib/gcc/arm-none-eabi/7.3.1/../../../../arm-none-eabi/lib/thumb/v7e-m/fpv4-sp/softfp/libc_nano.a(lib_a-realloc.o)
 .data          0x0000000000000000        0x0 /usr/local/Cellar/gcc-arm-none-eabi/20180627/bin/../lib/gcc/arm-none-eabi/7.3.1/../../../../arm-none-eabi/lib/thumb/v7e-m/fpv4-sp/softfp/libc_nano.a(lib_a-realloc.o)
 .bss           0x0000000000000000        0x0 /usr/local/Cellar/gcc-arm-none-eabi/20180627/bin/../lib/gcc/arm-none-eabi/7.3.1/../../../../arm-none-eabi/lib/thumb/v7e-m/fpv4-sp/softfp/libc_nano.a(lib_a-realloc.o)
 .text          0x0000000000000000        0x0 /usr/local/Cellar/gcc-arm-none-eabi/20180627/bin/../lib/gcc/arm-none-eabi/7.3.1/../../../../arm-none-eabi/lib/thumb/v7e-m/fpv4-sp/softfp/libc_nano.a(lib_a-sprintf.o)
 .data          0x0000000000000000        0x0 /usr/local/Cellar/gcc-arm-none-eabi/20180627/bin/../lib/gcc/arm-none-eabi/7.3.1/../../../../arm-none-eabi/lib/thumb/v7e-m/fpv4-sp/softfp/libc_nano.a(lib_a-sprintf.o)
 .bss           0x0000000000000000        0x0 /usr/local/Cellar/gcc-arm-none-eabi/20180627/bin/../lib/gcc/arm-none-eabi/7.3.1/../../../../arm-none-eabi/lib/thumb/v7e-m/fpv4-sp/softfp/libc_nano.a(lib_a-sprintf.o)
 .text._sprintf_r
                0x0000000000000000       0x38 /usr/local/Cellar/gcc-arm-none-eabi/20180627/bin/../lib/gcc/arm-none-eabi/7.3.1/../../../../arm-none-eabi/lib/thumb/v7e-m/fpv4-sp/softfp/libc_nano.a(lib_a-sprintf.o)
 .text.sprintf  0x0000000000000000       0x40 /usr/local/Cellar/gcc-arm-none-eabi/20180627/bin/../lib/gcc/arm-none-eabi/7.3.1/../../../../arm-none-eabi/lib/thumb/v7e-m/fpv4-sp/softfp/libc_nano.a(lib_a-sprintf.o)
 .debug_frame   0x0000000000000000       0x6c /usr/local/Cellar/gcc-arm-none-eabi/20180627/bin/../lib/gcc/arm-none-eabi/7.3.1/../../../../arm-none-eabi/lib/thumb/v7e-m/fpv4-sp/softfp/libc_nano.a(lib_a-sprintf.o)
 .ARM.attributes
                0x0000000000000000       0x32 /usr/local/Cellar/gcc-arm-none-eabi/20180627/bin/../lib/gcc/arm-none-eabi/7.3.1/../../../../arm-none-eabi/lib/thumb/v7e-m/fpv4-sp/softfp/libc_nano.a(lib_a-sprintf.o)
 .text          0x0000000000000000        0x0 /usr/local/Cellar/gcc-arm-none-eabi/20180627/bin/../lib/gcc/arm-none-eabi/7.3.1/../../../../arm-none-eabi/lib/thumb/v7e-m/fpv4-sp/softfp/libc_nano.a(lib_a-strcpy.o)
 .data          0x0000000000000000        0x0 /usr/local/Cellar/gcc-arm-none-eabi/20180627/bin/../lib/gcc/arm-none-eabi/7.3.1/../../../../arm-none-eabi/lib/thumb/v7e-m/fpv4-sp/softfp/libc_nano.a(lib_a-strcpy.o)
 .bss           0x0000000000000000        0x0 /usr/local/Cellar/gcc-arm-none-eabi/20180627/bin/../lib/gcc/arm-none-eabi/7.3.1/../../../../arm-none-eabi/lib/thumb/v7e-m/fpv4-sp/softfp/libc_nano.a(lib_a-strcpy.o)
 .text.strcpy   0x0000000000000000       0x10 /usr/local/Cellar/gcc-arm-none-eabi/20180627/bin/../lib/gcc/arm-none-eabi/7.3.1/../../../../arm-none-eabi/lib/thumb/v7e-m/fpv4-sp/softfp/libc_nano.a(lib_a-strcpy.o)
 .debug_frame   0x0000000000000000       0x20 /usr/local/Cellar/gcc-arm-none-eabi/20180627/bin/../lib/gcc/arm-none-eabi/7.3.1/../../../../arm-none-eabi/lib/thumb/v7e-m/fpv4-sp/softfp/libc_nano.a(lib_a-strcpy.o)
 .ARM.attributes
                0x0000000000000000       0x32 /usr/local/Cellar/gcc-arm-none-eabi/20180627/bin/../lib/gcc/arm-none-eabi/7.3.1/../../../../arm-none-eabi/lib/thumb/v7e-m/fpv4-sp/softfp/libc_nano.a(lib_a-strcpy.o)
 .data          0x0000000000000000        0x0 /usr/local/Cellar/gcc-arm-none-eabi/20180627/bin/../lib/gcc/arm-none-eabi/7.3.1/../../../../arm-none-eabi/lib/thumb/v7e-m/fpv4-sp/softfp/libc_nano.a(lib_a-strlen.o)
 .bss           0x0000000000000000        0x0 /usr/local/Cellar/gcc-arm-none-eabi/20180627/bin/../lib/gcc/arm-none-eabi/7.3.1/../../../../arm-none-eabi/lib/thumb/v7e-m/fpv4-sp/softfp/libc_nano.a(lib_a-strlen.o)
 .text          0x0000000000000000        0x0 /usr/local/Cellar/gcc-arm-none-eabi/20180627/bin/../lib/gcc/arm-none-eabi/7.3.1/../../../../arm-none-eabi/lib/thumb/v7e-m/fpv4-sp/softfp/libc_nano.a(lib_a-vsnprintf.o)
 .data          0x0000000000000000        0x0 /usr/local/Cellar/gcc-arm-none-eabi/20180627/bin/../lib/gcc/arm-none-eabi/7.3.1/../../../../arm-none-eabi/lib/thumb/v7e-m/fpv4-sp/softfp/libc_nano.a(lib_a-vsnprintf.o)
 .bss           0x0000000000000000        0x0 /usr/local/Cellar/gcc-arm-none-eabi/20180627/bin/../lib/gcc/arm-none-eabi/7.3.1/../../../../arm-none-eabi/lib/thumb/v7e-m/fpv4-sp/softfp/libc_nano.a(lib_a-vsnprintf.o)
 .text._vsnprintf_r
                0x0000000000000000       0x58 /usr/local/Cellar/gcc-arm-none-eabi/20180627/bin/../lib/gcc/arm-none-eabi/7.3.1/../../../../arm-none-eabi/lib/thumb/v7e-m/fpv4-sp/softfp/libc_nano.a(lib_a-vsnprintf.o)
 .text.vsnprintf
                0x0000000000000000       0x1c /usr/local/Cellar/gcc-arm-none-eabi/20180627/bin/../lib/gcc/arm-none-eabi/7.3.1/../../../../arm-none-eabi/lib/thumb/v7e-m/fpv4-sp/softfp/libc_nano.a(lib_a-vsnprintf.o)
 .debug_frame   0x0000000000000000       0x4c /usr/local/Cellar/gcc-arm-none-eabi/20180627/bin/../lib/gcc/arm-none-eabi/7.3.1/../../../../arm-none-eabi/lib/thumb/v7e-m/fpv4-sp/softfp/libc_nano.a(lib_a-vsnprintf.o)
 .ARM.attributes
                0x0000000000000000       0x32 /usr/local/Cellar/gcc-arm-none-eabi/20180627/bin/../lib/gcc/arm-none-eabi/7.3.1/../../../../arm-none-eabi/lib/thumb/v7e-m/fpv4-sp/softfp/libc_nano.a(lib_a-vsnprintf.o)
 .text          0x0000000000000000        0x0 /usr/local/Cellar/gcc-arm-none-eabi/20180627/bin/../lib/gcc/arm-none-eabi/7.3.1/../../../../arm-none-eabi/lib/thumb/v7e-m/fpv4-sp/softfp/libc_nano.a(lib_a-wbuf.o)
 .data          0x0000000000000000        0x0 /usr/local/Cellar/gcc-arm-none-eabi/20180627/bin/../lib/gcc/arm-none-eabi/7.3.1/../../../../arm-none-eabi/lib/thumb/v7e-m/fpv4-sp/softfp/libc_nano.a(lib_a-wbuf.o)
 .bss           0x0000000000000000        0x0 /usr/local/Cellar/gcc-arm-none-eabi/20180627/bin/../lib/gcc/arm-none-eabi/7.3.1/../../../../arm-none-eabi/lib/thumb/v7e-m/fpv4-sp/softfp/libc_nano.a(lib_a-wbuf.o)
 .text.__swbuf  0x0000000000000000       0x10 /usr/local/Cellar/gcc-arm-none-eabi/20180627/bin/../lib/gcc/arm-none-eabi/7.3.1/../../../../arm-none-eabi/lib/thumb/v7e-m/fpv4-sp/softfp/libc_nano.a(lib_a-wbuf.o)
 .text          0x0000000000000000        0x0 /usr/local/Cellar/gcc-arm-none-eabi/20180627/bin/../lib/gcc/arm-none-eabi/7.3.1/../../../../arm-none-eabi/lib/thumb/v7e-m/fpv4-sp/softfp/libc_nano.a(lib_a-wsetup.o)
 .data          0x0000000000000000        0x0 /usr/local/Cellar/gcc-arm-none-eabi/20180627/bin/../lib/gcc/arm-none-eabi/7.3.1/../../../../arm-none-eabi/lib/thumb/v7e-m/fpv4-sp/softfp/libc_nano.a(lib_a-wsetup.o)
 .bss           0x0000000000000000        0x0 /usr/local/Cellar/gcc-arm-none-eabi/20180627/bin/../lib/gcc/arm-none-eabi/7.3.1/../../../../arm-none-eabi/lib/thumb/v7e-m/fpv4-sp/softfp/libc_nano.a(lib_a-wsetup.o)
 .text          0x0000000000000000        0x0 /usr/local/Cellar/gcc-arm-none-eabi/20180627/bin/../lib/gcc/arm-none-eabi/7.3.1/../../../../arm-none-eabi/lib/thumb/v7e-m/fpv4-sp/softfp/libc_nano.a(lib_a-fflush.o)
 .data          0x0000000000000000        0x0 /usr/local/Cellar/gcc-arm-none-eabi/20180627/bin/../lib/gcc/arm-none-eabi/7.3.1/../../../../arm-none-eabi/lib/thumb/v7e-m/fpv4-sp/softfp/libc_nano.a(lib_a-fflush.o)
 .bss           0x0000000000000000        0x0 /usr/local/Cellar/gcc-arm-none-eabi/20180627/bin/../lib/gcc/arm-none-eabi/7.3.1/../../../../arm-none-eabi/lib/thumb/v7e-m/fpv4-sp/softfp/libc_nano.a(lib_a-fflush.o)
 .text.fflush   0x0000000000000000       0x24 /usr/local/Cellar/gcc-arm-none-eabi/20180627/bin/../lib/gcc/arm-none-eabi/7.3.1/../../../../arm-none-eabi/lib/thumb/v7e-m/fpv4-sp/softfp/libc_nano.a(lib_a-fflush.o)
 .text          0x0000000000000000        0x0 /usr/local/Cellar/gcc-arm-none-eabi/20180627/bin/../lib/gcc/arm-none-eabi/7.3.1/../../../../arm-none-eabi/lib/thumb/v7e-m/fpv4-sp/softfp/libc_nano.a(lib_a-findfp.o)
 .data          0x0000000000000000        0x0 /usr/local/Cellar/gcc-arm-none-eabi/20180627/bin/../lib/gcc/arm-none-eabi/7.3.1/../../../../arm-none-eabi/lib/thumb/v7e-m/fpv4-sp/softfp/libc_nano.a(lib_a-findfp.o)
 .bss           0x0000000000000000        0x0 /usr/local/Cellar/gcc-arm-none-eabi/20180627/bin/../lib/gcc/arm-none-eabi/7.3.1/../../../../arm-none-eabi/lib/thumb/v7e-m/fpv4-sp/softfp/libc_nano.a(lib_a-findfp.o)
 .text.__fp_lock
                0x0000000000000000        0x4 /usr/local/Cellar/gcc-arm-none-eabi/20180627/bin/../lib/gcc/arm-none-eabi/7.3.1/../../../../arm-none-eabi/lib/thumb/v7e-m/fpv4-sp/softfp/libc_nano.a(lib_a-findfp.o)
 .text.__fp_unlock
                0x0000000000000000        0x4 /usr/local/Cellar/gcc-arm-none-eabi/20180627/bin/../lib/gcc/arm-none-eabi/7.3.1/../../../../arm-none-eabi/lib/thumb/v7e-m/fpv4-sp/softfp/libc_nano.a(lib_a-findfp.o)
 .text._cleanup
                0x0000000000000000        0xc /usr/local/Cellar/gcc-arm-none-eabi/20180627/bin/../lib/gcc/arm-none-eabi/7.3.1/../../../../arm-none-eabi/lib/thumb/v7e-m/fpv4-sp/softfp/libc_nano.a(lib_a-findfp.o)
 .text.__sfp_lock_acquire
                0x0000000000000000        0x2 /usr/local/Cellar/gcc-arm-none-eabi/20180627/bin/../lib/gcc/arm-none-eabi/7.3.1/../../../../arm-none-eabi/lib/thumb/v7e-m/fpv4-sp/softfp/libc_nano.a(lib_a-findfp.o)
 .text.__sfp_lock_release
                0x0000000000000000        0x2 /usr/local/Cellar/gcc-arm-none-eabi/20180627/bin/../lib/gcc/arm-none-eabi/7.3.1/../../../../arm-none-eabi/lib/thumb/v7e-m/fpv4-sp/softfp/libc_nano.a(lib_a-findfp.o)
 .text.__sinit_lock_acquire
                0x0000000000000000        0x2 /usr/local/Cellar/gcc-arm-none-eabi/20180627/bin/../lib/gcc/arm-none-eabi/7.3.1/../../../../arm-none-eabi/lib/thumb/v7e-m/fpv4-sp/softfp/libc_nano.a(lib_a-findfp.o)
 .text.__sinit_lock_release
                0x0000000000000000        0x2 /usr/local/Cellar/gcc-arm-none-eabi/20180627/bin/../lib/gcc/arm-none-eabi/7.3.1/../../../../arm-none-eabi/lib/thumb/v7e-m/fpv4-sp/softfp/libc_nano.a(lib_a-findfp.o)
 .text.__fp_lock_all
                0x0000000000000000       0x14 /usr/local/Cellar/gcc-arm-none-eabi/20180627/bin/../lib/gcc/arm-none-eabi/7.3.1/../../../../arm-none-eabi/lib/thumb/v7e-m/fpv4-sp/softfp/libc_nano.a(lib_a-findfp.o)
 .text.__fp_unlock_all
                0x0000000000000000       0x14 /usr/local/Cellar/gcc-arm-none-eabi/20180627/bin/../lib/gcc/arm-none-eabi/7.3.1/../../../../arm-none-eabi/lib/thumb/v7e-m/fpv4-sp/softfp/libc_nano.a(lib_a-findfp.o)
 .text          0x0000000000000000        0x0 /usr/local/Cellar/gcc-arm-none-eabi/20180627/bin/../lib/gcc/arm-none-eabi/7.3.1/../../../../arm-none-eabi/lib/thumb/v7e-m/fpv4-sp/softfp/libc_nano.a(lib_a-fwalk.o)
 .data          0x0000000000000000        0x0 /usr/local/Cellar/gcc-arm-none-eabi/20180627/bin/../lib/gcc/arm-none-eabi/7.3.1/../../../../arm-none-eabi/lib/thumb/v7e-m/fpv4-sp/softfp/libc_nano.a(lib_a-fwalk.o)
 .bss           0x0000000000000000        0x0 /usr/local/Cellar/gcc-arm-none-eabi/20180627/bin/../lib/gcc/arm-none-eabi/7.3.1/../../../../arm-none-eabi/lib/thumb/v7e-m/fpv4-sp/softfp/libc_nano.a(lib_a-fwalk.o)
 .text._fwalk   0x0000000000000000       0x38 /usr/local/Cellar/gcc-arm-none-eabi/20180627/bin/../lib/gcc/arm-none-eabi/7.3.1/../../../../arm-none-eabi/lib/thumb/v7e-m/fpv4-sp/softfp/libc_nano.a(lib_a-fwalk.o)
 .text          0x0000000000000000        0x0 /usr/local/Cellar/gcc-arm-none-eabi/20180627/bin/../lib/gcc/arm-none-eabi/7.3.1/../../../../arm-none-eabi/lib/thumb/v7e-m/fpv4-sp/softfp/libc_nano.a(lib_a-makebuf.o)
 .data          0x0000000000000000        0x0 /usr/local/Cellar/gcc-arm-none-eabi/20180627/bin/../lib/gcc/arm-none-eabi/7.3.1/../../../../arm-none-eabi/lib/thumb/v7e-m/fpv4-sp/softfp/libc_nano.a(lib_a-makebuf.o)
 .bss           0x0000000000000000        0x0 /usr/local/Cellar/gcc-arm-none-eabi/20180627/bin/../lib/gcc/arm-none-eabi/7.3.1/../../../../arm-none-eabi/lib/thumb/v7e-m/fpv4-sp/softfp/libc_nano.a(lib_a-makebuf.o)
 .text          0x0000000000000000        0x0 /usr/local/Cellar/gcc-arm-none-eabi/20180627/bin/../lib/gcc/arm-none-eabi/7.3.1/../../../../arm-none-eabi/lib/thumb/v7e-m/fpv4-sp/softfp/libc_nano.a(lib_a-nano-freer.o)
 .data          0x0000000000000000        0x0 /usr/local/Cellar/gcc-arm-none-eabi/20180627/bin/../lib/gcc/arm-none-eabi/7.3.1/../../../../arm-none-eabi/lib/thumb/v7e-m/fpv4-sp/softfp/libc_nano.a(lib_a-nano-freer.o)
 .bss           0x0000000000000000        0x0 /usr/local/Cellar/gcc-arm-none-eabi/20180627/bin/../lib/gcc/arm-none-eabi/7.3.1/../../../../arm-none-eabi/lib/thumb/v7e-m/fpv4-sp/softfp/libc_nano.a(lib_a-nano-freer.o)
 .text          0x0000000000000000        0x0 /usr/local/Cellar/gcc-arm-none-eabi/20180627/bin/../lib/gcc/arm-none-eabi/7.3.1/../../../../arm-none-eabi/lib/thumb/v7e-m/fpv4-sp/softfp/libc_nano.a(lib_a-nano-mallocr.o)
 .data          0x0000000000000000        0x0 /usr/local/Cellar/gcc-arm-none-eabi/20180627/bin/../lib/gcc/arm-none-eabi/7.3.1/../../../../arm-none-eabi/lib/thumb/v7e-m/fpv4-sp/softfp/libc_nano.a(lib_a-nano-mallocr.o)
 .bss           0x0000000000000000        0x0 /usr/local/Cellar/gcc-arm-none-eabi/20180627/bin/../lib/gcc/arm-none-eabi/7.3.1/../../../../arm-none-eabi/lib/thumb/v7e-m/fpv4-sp/softfp/libc_nano.a(lib_a-nano-mallocr.o)
 .text          0x0000000000000000        0x0 /usr/local/Cellar/gcc-arm-none-eabi/20180627/bin/../lib/gcc/arm-none-eabi/7.3.1/../../../../arm-none-eabi/lib/thumb/v7e-m/fpv4-sp/softfp/libc_nano.a(lib_a-nano-reallocr.o)
 .data          0x0000000000000000        0x0 /usr/local/Cellar/gcc-arm-none-eabi/20180627/bin/../lib/gcc/arm-none-eabi/7.3.1/../../../../arm-none-eabi/lib/thumb/v7e-m/fpv4-sp/softfp/libc_nano.a(lib_a-nano-reallocr.o)
 .bss           0x0000000000000000        0x0 /usr/local/Cellar/gcc-arm-none-eabi/20180627/bin/../lib/gcc/arm-none-eabi/7.3.1/../../../../arm-none-eabi/lib/thumb/v7e-m/fpv4-sp/softfp/libc_nano.a(lib_a-nano-reallocr.o)
 .text          0x0000000000000000        0x0 /usr/local/Cellar/gcc-arm-none-eabi/20180627/bin/../lib/gcc/arm-none-eabi/7.3.1/../../../../arm-none-eabi/lib/thumb/v7e-m/fpv4-sp/softfp/libc_nano.a(lib_a-nano-svfprintf.o)
 .data          0x0000000000000000        0x0 /usr/local/Cellar/gcc-arm-none-eabi/20180627/bin/../lib/gcc/arm-none-eabi/7.3.1/../../../../arm-none-eabi/lib/thumb/v7e-m/fpv4-sp/softfp/libc_nano.a(lib_a-nano-svfprintf.o)
 .bss           0x0000000000000000        0x0 /usr/local/Cellar/gcc-arm-none-eabi/20180627/bin/../lib/gcc/arm-none-eabi/7.3.1/../../../../arm-none-eabi/lib/thumb/v7e-m/fpv4-sp/softfp/libc_nano.a(lib_a-nano-svfprintf.o)
 .text.__ssputs_r
                0x0000000000000000       0xb4 /usr/local/Cellar/gcc-arm-none-eabi/20180627/bin/../lib/gcc/arm-none-eabi/7.3.1/../../../../arm-none-eabi/lib/thumb/v7e-m/fpv4-sp/softfp/libc_nano.a(lib_a-nano-svfprintf.o)
 .text.__ssprint_r
                0x0000000000000000       0xf0 /usr/local/Cellar/gcc-arm-none-eabi/20180627/bin/../lib/gcc/arm-none-eabi/7.3.1/../../../../arm-none-eabi/lib/thumb/v7e-m/fpv4-sp/softfp/libc_nano.a(lib_a-nano-svfprintf.o)
 .text._svfprintf_r
                0x0000000000000000      0x1f0 /usr/local/Cellar/gcc-arm-none-eabi/20180627/bin/../lib/gcc/arm-none-eabi/7.3.1/../../../../arm-none-eabi/lib/thumb/v7e-m/fpv4-sp/softfp/libc_nano.a(lib_a-nano-svfprintf.o)
 .rodata._svfprintf_r.str1.1
                0x0000000000000000       0x11 /usr/local/Cellar/gcc-arm-none-eabi/20180627/bin/../lib/gcc/arm-none-eabi/7.3.1/../../../../arm-none-eabi/lib/thumb/v7e-m/fpv4-sp/softfp/libc_nano.a(lib_a-nano-svfprintf.o)
 .debug_frame   0x0000000000000000       0x90 /usr/local/Cellar/gcc-arm-none-eabi/20180627/bin/../lib/gcc/arm-none-eabi/7.3.1/../../../../arm-none-eabi/lib/thumb/v7e-m/fpv4-sp/softfp/libc_nano.a(lib_a-nano-svfprintf.o)
 .ARM.attributes
                0x0000000000000000       0x32 /usr/local/Cellar/gcc-arm-none-eabi/20180627/bin/../lib/gcc/arm-none-eabi/7.3.1/../../../../arm-none-eabi/lib/thumb/v7e-m/fpv4-sp/softfp/libc_nano.a(lib_a-nano-svfprintf.o)
 .text          0x0000000000000000        0x0 /usr/local/Cellar/gcc-arm-none-eabi/20180627/bin/../lib/gcc/arm-none-eabi/7.3.1/../../../../arm-none-eabi/lib/thumb/v7e-m/fpv4-sp/softfp/libc_nano.a(lib_a-nano-vfprintf.o)
 .data          0x0000000000000000        0x0 /usr/local/Cellar/gcc-arm-none-eabi/20180627/bin/../lib/gcc/arm-none-eabi/7.3.1/../../../../arm-none-eabi/lib/thumb/v7e-m/fpv4-sp/softfp/libc_nano.a(lib_a-nano-vfprintf.o)
 .bss           0x0000000000000000        0x0 /usr/local/Cellar/gcc-arm-none-eabi/20180627/bin/../lib/gcc/arm-none-eabi/7.3.1/../../../../arm-none-eabi/lib/thumb/v7e-m/fpv4-sp/softfp/libc_nano.a(lib_a-nano-vfprintf.o)
 .text.__sprint_r
                0x0000000000000000       0x1a /usr/local/Cellar/gcc-arm-none-eabi/20180627/bin/../lib/gcc/arm-none-eabi/7.3.1/../../../../arm-none-eabi/lib/thumb/v7e-m/fpv4-sp/softfp/libc_nano.a(lib_a-nano-vfprintf.o)
 .text.vfprintf
                0x0000000000000000       0x14 /usr/local/Cellar/gcc-arm-none-eabi/20180627/bin/../lib/gcc/arm-none-eabi/7.3.1/../../../../arm-none-eabi/lib/thumb/v7e-m/fpv4-sp/softfp/libc_nano.a(lib_a-nano-vfprintf.o)
 .text          0x0000000000000000        0x0 /usr/local/Cellar/gcc-arm-none-eabi/20180627/bin/../lib/gcc/arm-none-eabi/7.3.1/../../../../arm-none-eabi/lib/thumb/v7e-m/fpv4-sp/softfp/libc_nano.a(lib_a-nano-vfprintf_i.o)
 .data          0x0000000000000000        0x0 /usr/local/Cellar/gcc-arm-none-eabi/20180627/bin/../lib/gcc/arm-none-eabi/7.3.1/../../../../arm-none-eabi/lib/thumb/v7e-m/fpv4-sp/softfp/libc_nano.a(lib_a-nano-vfprintf_i.o)
 .bss           0x0000000000000000        0x0 /usr/local/Cellar/gcc-arm-none-eabi/20180627/bin/../lib/gcc/arm-none-eabi/7.3.1/../../../../arm-none-eabi/lib/thumb/v7e-m/fpv4-sp/softfp/libc_nano.a(lib_a-nano-vfprintf_i.o)
 .text          0x0000000000000000        0x0 /usr/local/Cellar/gcc-arm-none-eabi/20180627/bin/../lib/gcc/arm-none-eabi/7.3.1/../../../../arm-none-eabi/lib/thumb/v7e-m/fpv4-sp/softfp/libc_nano.a(lib_a-sbrkr.o)
 .data          0x0000000000000000        0x0 /usr/local/Cellar/gcc-arm-none-eabi/20180627/bin/../lib/gcc/arm-none-eabi/7.3.1/../../../../arm-none-eabi/lib/thumb/v7e-m/fpv4-sp/softfp/libc_nano.a(lib_a-sbrkr.o)
 .bss           0x0000000000000000        0x0 /usr/local/Cellar/gcc-arm-none-eabi/20180627/bin/../lib/gcc/arm-none-eabi/7.3.1/../../../../arm-none-eabi/lib/thumb/v7e-m/fpv4-sp/softfp/libc_nano.a(lib_a-sbrkr.o)
 .text          0x0000000000000000        0x0 /usr/local/Cellar/gcc-arm-none-eabi/20180627/bin/../lib/gcc/arm-none-eabi/7.3.1/../../../../arm-none-eabi/lib/thumb/v7e-m/fpv4-sp/softfp/libc_nano.a(lib_a-stdio.o)
 .data          0x0000000000000000        0x0 /usr/local/Cellar/gcc-arm-none-eabi/20180627/bin/../lib/gcc/arm-none-eabi/7.3.1/../../../../arm-none-eabi/lib/thumb/v7e-m/fpv4-sp/softfp/libc_nano.a(lib_a-stdio.o)
 .bss           0x0000000000000000        0x0 /usr/local/Cellar/gcc-arm-none-eabi/20180627/bin/../lib/gcc/arm-none-eabi/7.3.1/../../../../arm-none-eabi/lib/thumb/v7e-m/fpv4-sp/softfp/libc_nano.a(lib_a-stdio.o)
 .text.__seofread
                0x0000000000000000        0x4 /usr/local/Cellar/gcc-arm-none-eabi/20180627/bin/../lib/gcc/arm-none-eabi/7.3.1/../../../../arm-none-eabi/lib/thumb/v7e-m/fpv4-sp/softfp/libc_nano.a(lib_a-stdio.o)
 .text          0x0000000000000000        0x0 /usr/local/Cellar/gcc-arm-none-eabi/20180627/bin/../lib/gcc/arm-none-eabi/7.3.1/../../../../arm-none-eabi/lib/thumb/v7e-m/fpv4-sp/softfp/libc_nano.a(lib_a-writer.o)
 .data          0x0000000000000000        0x0 /usr/local/Cellar/gcc-arm-none-eabi/20180627/bin/../lib/gcc/arm-none-eabi/7.3.1/../../../../arm-none-eabi/lib/thumb/v7e-m/fpv4-sp/softfp/libc_nano.a(lib_a-writer.o)
 .bss           0x0000000000000000        0x0 /usr/local/Cellar/gcc-arm-none-eabi/20180627/bin/../lib/gcc/arm-none-eabi/7.3.1/../../../../arm-none-eabi/lib/thumb/v7e-m/fpv4-sp/softfp/libc_nano.a(lib_a-writer.o)
 .text          0x0000000000000000        0x0 /usr/local/Cellar/gcc-arm-none-eabi/20180627/bin/../lib/gcc/arm-none-eabi/7.3.1/../../../../arm-none-eabi/lib/thumb/v7e-m/fpv4-sp/softfp/libc_nano.a(lib_a-closer.o)
 .data          0x0000000000000000        0x0 /usr/local/Cellar/gcc-arm-none-eabi/20180627/bin/../lib/gcc/arm-none-eabi/7.3.1/../../../../arm-none-eabi/lib/thumb/v7e-m/fpv4-sp/softfp/libc_nano.a(lib_a-closer.o)
 .bss           0x0000000000000000        0x0 /usr/local/Cellar/gcc-arm-none-eabi/20180627/bin/../lib/gcc/arm-none-eabi/7.3.1/../../../../arm-none-eabi/lib/thumb/v7e-m/fpv4-sp/softfp/libc_nano.a(lib_a-closer.o)
 .text          0x0000000000000000        0x0 /usr/local/Cellar/gcc-arm-none-eabi/20180627/bin/../lib/gcc/arm-none-eabi/7.3.1/../../../../arm-none-eabi/lib/thumb/v7e-m/fpv4-sp/softfp/libc_nano.a(lib_a-fstatr.o)
 .data          0x0000000000000000        0x0 /usr/local/Cellar/gcc-arm-none-eabi/20180627/bin/../lib/gcc/arm-none-eabi/7.3.1/../../../../arm-none-eabi/lib/thumb/v7e-m/fpv4-sp/softfp/libc_nano.a(lib_a-fstatr.o)
 .bss           0x0000000000000000        0x0 /usr/local/Cellar/gcc-arm-none-eabi/20180627/bin/../lib/gcc/arm-none-eabi/7.3.1/../../../../arm-none-eabi/lib/thumb/v7e-m/fpv4-sp/softfp/libc_nano.a(lib_a-fstatr.o)
 .text          0x0000000000000000        0x0 /usr/local/Cellar/gcc-arm-none-eabi/20180627/bin/../lib/gcc/arm-none-eabi/7.3.1/../../../../arm-none-eabi/lib/thumb/v7e-m/fpv4-sp/softfp/libc_nano.a(lib_a-fvwrite.o)
 .data          0x0000000000000000        0x0 /usr/local/Cellar/gcc-arm-none-eabi/20180627/bin/../lib/gcc/arm-none-eabi/7.3.1/../../../../arm-none-eabi/lib/thumb/v7e-m/fpv4-sp/softfp/libc_nano.a(lib_a-fvwrite.o)
 .bss           0x0000000000000000        0x0 /usr/local/Cellar/gcc-arm-none-eabi/20180627/bin/../lib/gcc/arm-none-eabi/7.3.1/../../../../arm-none-eabi/lib/thumb/v7e-m/fpv4-sp/softfp/libc_nano.a(lib_a-fvwrite.o)
 .text.__sfvwrite_r
                0x0000000000000000      0x29c /usr/local/Cellar/gcc-arm-none-eabi/20180627/bin/../lib/gcc/arm-none-eabi/7.3.1/../../../../arm-none-eabi/lib/thumb/v7e-m/fpv4-sp/softfp/libc_nano.a(lib_a-fvwrite.o)
 .debug_frame   0x0000000000000000       0x3c /usr/local/Cellar/gcc-arm-none-eabi/20180627/bin/../lib/gcc/arm-none-eabi/7.3.1/../../../../arm-none-eabi/lib/thumb/v7e-m/fpv4-sp/softfp/libc_nano.a(lib_a-fvwrite.o)
 .ARM.attributes
                0x0000000000000000       0x32 /usr/local/Cellar/gcc-arm-none-eabi/20180627/bin/../lib/gcc/arm-none-eabi/7.3.1/../../../../arm-none-eabi/lib/thumb/v7e-m/fpv4-sp/softfp/libc_nano.a(lib_a-fvwrite.o)
 .text          0x0000000000000000        0x0 /usr/local/Cellar/gcc-arm-none-eabi/20180627/bin/../lib/gcc/arm-none-eabi/7.3.1/../../../../arm-none-eabi/lib/thumb/v7e-m/fpv4-sp/softfp/libc_nano.a(lib_a-isattyr.o)
 .data          0x0000000000000000        0x0 /usr/local/Cellar/gcc-arm-none-eabi/20180627/bin/../lib/gcc/arm-none-eabi/7.3.1/../../../../arm-none-eabi/lib/thumb/v7e-m/fpv4-sp/softfp/libc_nano.a(lib_a-isattyr.o)
 .bss           0x0000000000000000        0x0 /usr/local/Cellar/gcc-arm-none-eabi/20180627/bin/../lib/gcc/arm-none-eabi/7.3.1/../../../../arm-none-eabi/lib/thumb/v7e-m/fpv4-sp/softfp/libc_nano.a(lib_a-isattyr.o)
 .text          0x0000000000000000        0x0 /usr/local/Cellar/gcc-arm-none-eabi/20180627/bin/../lib/gcc/arm-none-eabi/7.3.1/../../../../arm-none-eabi/lib/thumb/v7e-m/fpv4-sp/softfp/libc_nano.a(lib_a-lseekr.o)
 .data          0x0000000000000000        0x0 /usr/local/Cellar/gcc-arm-none-eabi/20180627/bin/../lib/gcc/arm-none-eabi/7.3.1/../../../../arm-none-eabi/lib/thumb/v7e-m/fpv4-sp/softfp/libc_nano.a(lib_a-lseekr.o)
 .bss           0x0000000000000000        0x0 /usr/local/Cellar/gcc-arm-none-eabi/20180627/bin/../lib/gcc/arm-none-eabi/7.3.1/../../../../arm-none-eabi/lib/thumb/v7e-m/fpv4-sp/softfp/libc_nano.a(lib_a-lseekr.o)
 .data          0x0000000000000000        0x0 /usr/local/Cellar/gcc-arm-none-eabi/20180627/bin/../lib/gcc/arm-none-eabi/7.3.1/../../../../arm-none-eabi/lib/thumb/v7e-m/fpv4-sp/softfp/libc_nano.a(lib_a-memchr.o)
 .bss           0x0000000000000000        0x0 /usr/local/Cellar/gcc-arm-none-eabi/20180627/bin/../lib/gcc/arm-none-eabi/7.3.1/../../../../arm-none-eabi/lib/thumb/v7e-m/fpv4-sp/softfp/libc_nano.a(lib_a-memchr.o)
 .text          0x0000000000000000        0x0 /usr/local/Cellar/gcc-arm-none-eabi/20180627/bin/../lib/gcc/arm-none-eabi/7.3.1/../../../../arm-none-eabi/lib/thumb/v7e-m/fpv4-sp/softfp/libc_nano.a(lib_a-memmove.o)
 .data          0x0000000000000000        0x0 /usr/local/Cellar/gcc-arm-none-eabi/20180627/bin/../lib/gcc/arm-none-eabi/7.3.1/../../../../arm-none-eabi/lib/thumb/v7e-m/fpv4-sp/softfp/libc_nano.a(lib_a-memmove.o)
 .bss           0x0000000000000000        0x0 /usr/local/Cellar/gcc-arm-none-eabi/20180627/bin/../lib/gcc/arm-none-eabi/7.3.1/../../../../arm-none-eabi/lib/thumb/v7e-m/fpv4-sp/softfp/libc_nano.a(lib_a-memmove.o)
 .text.memmove  0x0000000000000000       0x32 /usr/local/Cellar/gcc-arm-none-eabi/20180627/bin/../lib/gcc/arm-none-eabi/7.3.1/../../../../arm-none-eabi/lib/thumb/v7e-m/fpv4-sp/softfp/libc_nano.a(lib_a-memmove.o)
 .debug_frame   0x0000000000000000       0x28 /usr/local/Cellar/gcc-arm-none-eabi/20180627/bin/../lib/gcc/arm-none-eabi/7.3.1/../../../../arm-none-eabi/lib/thumb/v7e-m/fpv4-sp/softfp/libc_nano.a(lib_a-memmove.o)
 .ARM.attributes
                0x0000000000000000       0x32 /usr/local/Cellar/gcc-arm-none-eabi/20180627/bin/../lib/gcc/arm-none-eabi/7.3.1/../../../../arm-none-eabi/lib/thumb/v7e-m/fpv4-sp/softfp/libc_nano.a(lib_a-memmove.o)
 .text          0x0000000000000000        0x0 /usr/local/Cellar/gcc-arm-none-eabi/20180627/bin/../lib/gcc/arm-none-eabi/7.3.1/../../../../arm-none-eabi/lib/thumb/v7e-m/fpv4-sp/softfp/libc_nano.a(lib_a-mlock.o)
 .data          0x0000000000000000        0x0 /usr/local/Cellar/gcc-arm-none-eabi/20180627/bin/../lib/gcc/arm-none-eabi/7.3.1/../../../../arm-none-eabi/lib/thumb/v7e-m/fpv4-sp/softfp/libc_nano.a(lib_a-mlock.o)
 .bss           0x0000000000000000        0x0 /usr/local/Cellar/gcc-arm-none-eabi/20180627/bin/../lib/gcc/arm-none-eabi/7.3.1/../../../../arm-none-eabi/lib/thumb/v7e-m/fpv4-sp/softfp/libc_nano.a(lib_a-mlock.o)
 .text          0x0000000000000000        0x0 /usr/local/Cellar/gcc-arm-none-eabi/20180627/bin/../lib/gcc/arm-none-eabi/7.3.1/../../../../arm-none-eabi/lib/thumb/v7e-m/fpv4-sp/softfp/libc_nano.a(lib_a-nano-msizer.o)
 .data          0x0000000000000000        0x0 /usr/local/Cellar/gcc-arm-none-eabi/20180627/bin/../lib/gcc/arm-none-eabi/7.3.1/../../../../arm-none-eabi/lib/thumb/v7e-m/fpv4-sp/softfp/libc_nano.a(lib_a-nano-msizer.o)
 .bss           0x0000000000000000        0x0 /usr/local/Cellar/gcc-arm-none-eabi/20180627/bin/../lib/gcc/arm-none-eabi/7.3.1/../../../../arm-none-eabi/lib/thumb/v7e-m/fpv4-sp/softfp/libc_nano.a(lib_a-nano-msizer.o)
 .text          0x0000000000000000        0x0 /usr/local/Cellar/gcc-arm-none-eabi/20180627/bin/../lib/gcc/arm-none-eabi/7.3.1/../../../../arm-none-eabi/lib/thumb/v7e-m/fpv4-sp/softfp/libc_nano.a(lib_a-readr.o)
 .data          0x0000000000000000        0x0 /usr/local/Cellar/gcc-arm-none-eabi/20180627/bin/../lib/gcc/arm-none-eabi/7.3.1/../../../../arm-none-eabi/lib/thumb/v7e-m/fpv4-sp/softfp/libc_nano.a(lib_a-readr.o)
 .bss           0x0000000000000000        0x0 /usr/local/Cellar/gcc-arm-none-eabi/20180627/bin/../lib/gcc/arm-none-eabi/7.3.1/../../../../arm-none-eabi/lib/thumb/v7e-m/fpv4-sp/softfp/libc_nano.a(lib_a-readr.o)
 .text          0x0000000000000000        0x0 /usr/local/Cellar/gcc-arm-none-eabi/20180627/bin/../lib/gcc/arm-none-eabi/7.3.1/../../../../arm-none-eabi/lib/thumb/v7e-m/fpv4-sp/softfp/libc_nano.a(lib_a-reent.o)
 .data          0x0000000000000000        0x0 /usr/local/Cellar/gcc-arm-none-eabi/20180627/bin/../lib/gcc/arm-none-eabi/7.3.1/../../../../arm-none-eabi/lib/thumb/v7e-m/fpv4-sp/softfp/libc_nano.a(lib_a-reent.o)
 .bss           0x0000000000000000        0x0 /usr/local/Cellar/gcc-arm-none-eabi/20180627/bin/../lib/gcc/arm-none-eabi/7.3.1/../../../../arm-none-eabi/lib/thumb/v7e-m/fpv4-sp/softfp/libc_nano.a(lib_a-reent.o)
 .text.cleanup_glue
                0x0000000000000000       0x1a /usr/local/Cellar/gcc-arm-none-eabi/20180627/bin/../lib/gcc/arm-none-eabi/7.3.1/../../../../arm-none-eabi/lib/thumb/v7e-m/fpv4-sp/softfp/libc_nano.a(lib_a-reent.o)
 .text._reclaim_reent
                0x0000000000000000       0xb8 /usr/local/Cellar/gcc-arm-none-eabi/20180627/bin/../lib/gcc/arm-none-eabi/7.3.1/../../../../arm-none-eabi/lib/thumb/v7e-m/fpv4-sp/softfp/libc_nano.a(lib_a-reent.o)
 .text          0x0000000000000000        0x0 /usr/local/Cellar/gcc-arm-none-eabi/20180627/bin/../lib/gcc/arm-none-eabi/7.3.1/../../../../arm-none-eabi/lib/thumb/v7e-m/fpv4-sp/softfp/libnosys.a(close.o)
 .data          0x0000000000000000        0x0 /usr/local/Cellar/gcc-arm-none-eabi/20180627/bin/../lib/gcc/arm-none-eabi/7.3.1/../../../../arm-none-eabi/lib/thumb/v7e-m/fpv4-sp/softfp/libnosys.a(close.o)
 .bss           0x0000000000000000        0x0 /usr/local/Cellar/gcc-arm-none-eabi/20180627/bin/../lib/gcc/arm-none-eabi/7.3.1/../../../../arm-none-eabi/lib/thumb/v7e-m/fpv4-sp/softfp/libnosys.a(close.o)
 .text          0x0000000000000000        0x0 /usr/local/Cellar/gcc-arm-none-eabi/20180627/bin/../lib/gcc/arm-none-eabi/7.3.1/../../../../arm-none-eabi/lib/thumb/v7e-m/fpv4-sp/softfp/libnosys.a(fstat.o)
 .data          0x0000000000000000        0x0 /usr/local/Cellar/gcc-arm-none-eabi/20180627/bin/../lib/gcc/arm-none-eabi/7.3.1/../../../../arm-none-eabi/lib/thumb/v7e-m/fpv4-sp/softfp/libnosys.a(fstat.o)
 .bss           0x0000000000000000        0x0 /usr/local/Cellar/gcc-arm-none-eabi/20180627/bin/../lib/gcc/arm-none-eabi/7.3.1/../../../../arm-none-eabi/lib/thumb/v7e-m/fpv4-sp/softfp/libnosys.a(fstat.o)
 .text          0x0000000000000000        0x0 /usr/local/Cellar/gcc-arm-none-eabi/20180627/bin/../lib/gcc/arm-none-eabi/7.3.1/../../../../arm-none-eabi/lib/thumb/v7e-m/fpv4-sp/softfp/libnosys.a(isatty.o)
 .data          0x0000000000000000        0x0 /usr/local/Cellar/gcc-arm-none-eabi/20180627/bin/../lib/gcc/arm-none-eabi/7.3.1/../../../../arm-none-eabi/lib/thumb/v7e-m/fpv4-sp/softfp/libnosys.a(isatty.o)
 .bss           0x0000000000000000        0x0 /usr/local/Cellar/gcc-arm-none-eabi/20180627/bin/../lib/gcc/arm-none-eabi/7.3.1/../../../../arm-none-eabi/lib/thumb/v7e-m/fpv4-sp/softfp/libnosys.a(isatty.o)
 .text          0x0000000000000000        0x0 /usr/local/Cellar/gcc-arm-none-eabi/20180627/bin/../lib/gcc/arm-none-eabi/7.3.1/../../../../arm-none-eabi/lib/thumb/v7e-m/fpv4-sp/softfp/libnosys.a(lseek.o)
 .data          0x0000000000000000        0x0 /usr/local/Cellar/gcc-arm-none-eabi/20180627/bin/../lib/gcc/arm-none-eabi/7.3.1/../../../../arm-none-eabi/lib/thumb/v7e-m/fpv4-sp/softfp/libnosys.a(lseek.o)
 .bss           0x0000000000000000        0x0 /usr/local/Cellar/gcc-arm-none-eabi/20180627/bin/../lib/gcc/arm-none-eabi/7.3.1/../../../../arm-none-eabi/lib/thumb/v7e-m/fpv4-sp/softfp/libnosys.a(lseek.o)
 .text          0x0000000000000000        0x0 /usr/local/Cellar/gcc-arm-none-eabi/20180627/bin/../lib/gcc/arm-none-eabi/7.3.1/../../../../arm-none-eabi/lib/thumb/v7e-m/fpv4-sp/softfp/libnosys.a(read.o)
 .data          0x0000000000000000        0x0 /usr/local/Cellar/gcc-arm-none-eabi/20180627/bin/../lib/gcc/arm-none-eabi/7.3.1/../../../../arm-none-eabi/lib/thumb/v7e-m/fpv4-sp/softfp/libnosys.a(read.o)
 .bss           0x0000000000000000        0x0 /usr/local/Cellar/gcc-arm-none-eabi/20180627/bin/../lib/gcc/arm-none-eabi/7.3.1/../../../../arm-none-eabi/lib/thumb/v7e-m/fpv4-sp/softfp/libnosys.a(read.o)
 .text          0x0000000000000000        0x0 /usr/local/Cellar/gcc-arm-none-eabi/20180627/bin/../lib/gcc/arm-none-eabi/7.3.1/../../../../arm-none-eabi/lib/thumb/v7e-m/fpv4-sp/softfp/libnosys.a(sbrk.o)
 .data          0x0000000000000000        0x0 /usr/local/Cellar/gcc-arm-none-eabi/20180627/bin/../lib/gcc/arm-none-eabi/7.3.1/../../../../arm-none-eabi/lib/thumb/v7e-m/fpv4-sp/softfp/libnosys.a(sbrk.o)
 .bss           0x0000000000000000        0x0 /usr/local/Cellar/gcc-arm-none-eabi/20180627/bin/../lib/gcc/arm-none-eabi/7.3.1/../../../../arm-none-eabi/lib/thumb/v7e-m/fpv4-sp/softfp/libnosys.a(sbrk.o)
 .text          0x0000000000000000        0x0 /usr/local/Cellar/gcc-arm-none-eabi/20180627/bin/../lib/gcc/arm-none-eabi/7.3.1/../../../../arm-none-eabi/lib/thumb/v7e-m/fpv4-sp/softfp/libnosys.a(_exit.o)
 .data          0x0000000000000000        0x0 /usr/local/Cellar/gcc-arm-none-eabi/20180627/bin/../lib/gcc/arm-none-eabi/7.3.1/../../../../arm-none-eabi/lib/thumb/v7e-m/fpv4-sp/softfp/libnosys.a(_exit.o)
 .bss           0x0000000000000000        0x0 /usr/local/Cellar/gcc-arm-none-eabi/20180627/bin/../lib/gcc/arm-none-eabi/7.3.1/../../../../arm-none-eabi/lib/thumb/v7e-m/fpv4-sp/softfp/libnosys.a(_exit.o)
 .text          0x0000000000000000      0x378 /usr/local/Cellar/gcc-arm-none-eabi/20180627/bin/../lib/gcc/arm-none-eabi/7.3.1/thumb/v7e-m/fpv4-sp/softfp/libgcc.a(_arm_addsubdf3.o)
 .data          0x0000000000000000        0x0 /usr/local/Cellar/gcc-arm-none-eabi/20180627/bin/../lib/gcc/arm-none-eabi/7.3.1/thumb/v7e-m/fpv4-sp/softfp/libgcc.a(_arm_addsubdf3.o)
 .bss           0x0000000000000000        0x0 /usr/local/Cellar/gcc-arm-none-eabi/20180627/bin/../lib/gcc/arm-none-eabi/7.3.1/thumb/v7e-m/fpv4-sp/softfp/libgcc.a(_arm_addsubdf3.o)
 .debug_frame   0x0000000000000000       0xac /usr/local/Cellar/gcc-arm-none-eabi/20180627/bin/../lib/gcc/arm-none-eabi/7.3.1/thumb/v7e-m/fpv4-sp/softfp/libgcc.a(_arm_addsubdf3.o)
 .ARM.attributes
                0x0000000000000000       0x22 /usr/local/Cellar/gcc-arm-none-eabi/20180627/bin/../lib/gcc/arm-none-eabi/7.3.1/thumb/v7e-m/fpv4-sp/softfp/libgcc.a(_arm_addsubdf3.o)
 .text          0x0000000000000000      0x424 /usr/local/Cellar/gcc-arm-none-eabi/20180627/bin/../lib/gcc/arm-none-eabi/7.3.1/thumb/v7e-m/fpv4-sp/softfp/libgcc.a(_arm_muldivdf3.o)
 .data          0x0000000000000000        0x0 /usr/local/Cellar/gcc-arm-none-eabi/20180627/bin/../lib/gcc/arm-none-eabi/7.3.1/thumb/v7e-m/fpv4-sp/softfp/libgcc.a(_arm_muldivdf3.o)
 .bss           0x0000000000000000        0x0 /usr/local/Cellar/gcc-arm-none-eabi/20180627/bin/../lib/gcc/arm-none-eabi/7.3.1/thumb/v7e-m/fpv4-sp/softfp/libgcc.a(_arm_muldivdf3.o)
 .debug_frame   0x0000000000000000       0x50 /usr/local/Cellar/gcc-arm-none-eabi/20180627/bin/../lib/gcc/arm-none-eabi/7.3.1/thumb/v7e-m/fpv4-sp/softfp/libgcc.a(_arm_muldivdf3.o)
 .ARM.attributes
                0x0000000000000000       0x22 /usr/local/Cellar/gcc-arm-none-eabi/20180627/bin/../lib/gcc/arm-none-eabi/7.3.1/thumb/v7e-m/fpv4-sp/softfp/libgcc.a(_arm_muldivdf3.o)
 .text          0x0000000000000000       0x50 /usr/local/Cellar/gcc-arm-none-eabi/20180627/bin/../lib/gcc/arm-none-eabi/7.3.1/thumb/v7e-m/fpv4-sp/softfp/libgcc.a(_arm_fixdfsi.o)
 .data          0x0000000000000000        0x0 /usr/local/Cellar/gcc-arm-none-eabi/20180627/bin/../lib/gcc/arm-none-eabi/7.3.1/thumb/v7e-m/fpv4-sp/softfp/libgcc.a(_arm_fixdfsi.o)
 .bss           0x0000000000000000        0x0 /usr/local/Cellar/gcc-arm-none-eabi/20180627/bin/../lib/gcc/arm-none-eabi/7.3.1/thumb/v7e-m/fpv4-sp/softfp/libgcc.a(_arm_fixdfsi.o)
 .debug_frame   0x0000000000000000       0x24 /usr/local/Cellar/gcc-arm-none-eabi/20180627/bin/../lib/gcc/arm-none-eabi/7.3.1/thumb/v7e-m/fpv4-sp/softfp/libgcc.a(_arm_fixdfsi.o)
 .ARM.attributes
                0x0000000000000000       0x22 /usr/local/Cellar/gcc-arm-none-eabi/20180627/bin/../lib/gcc/arm-none-eabi/7.3.1/thumb/v7e-m/fpv4-sp/softfp/libgcc.a(_arm_fixdfsi.o)
 .data          0x0000000000000000        0x0 /usr/local/Cellar/gcc-arm-none-eabi/20180627/bin/../lib/gcc/arm-none-eabi/7.3.1/thumb/v7e-m/fpv4-sp/softfp/libgcc.a(unwind-arm.o)
 .bss           0x0000000000000000        0x0 /usr/local/Cellar/gcc-arm-none-eabi/20180627/bin/../lib/gcc/arm-none-eabi/7.3.1/thumb/v7e-m/fpv4-sp/softfp/libgcc.a(unwind-arm.o)
 .ARM.extab     0x0000000000000000        0x0 /usr/local/Cellar/gcc-arm-none-eabi/20180627/bin/../lib/gcc/arm-none-eabi/7.3.1/thumb/v7e-m/fpv4-sp/softfp/libgcc.a(unwind-arm.o)
 .data          0x0000000000000000        0x0 /usr/local/Cellar/gcc-arm-none-eabi/20180627/bin/../lib/gcc/arm-none-eabi/7.3.1/thumb/v7e-m/fpv4-sp/softfp/libgcc.a(libunwind.o)
 .bss           0x0000000000000000        0x0 /usr/local/Cellar/gcc-arm-none-eabi/20180627/bin/../lib/gcc/arm-none-eabi/7.3.1/thumb/v7e-m/fpv4-sp/softfp/libgcc.a(libunwind.o)
 .data          0x0000000000000000        0x0 /usr/local/Cellar/gcc-arm-none-eabi/20180627/bin/../lib/gcc/arm-none-eabi/7.3.1/thumb/v7e-m/fpv4-sp/softfp/libgcc.a(pr-support.o)
 .bss           0x0000000000000000        0x0 /usr/local/Cellar/gcc-arm-none-eabi/20180627/bin/../lib/gcc/arm-none-eabi/7.3.1/thumb/v7e-m/fpv4-sp/softfp/libgcc.a(pr-support.o)
 .text          0x0000000000000000        0x0 /usr/local/Cellar/gcc-arm-none-eabi/20180627/bin/../lib/gcc/arm-none-eabi/7.3.1/../../../../arm-none-eabi/lib/thumb/v7e-m/fpv4-sp/softfp/libc_nano.a(lib_a-abort.o)
 .data          0x0000000000000000        0x0 /usr/local/Cellar/gcc-arm-none-eabi/20180627/bin/../lib/gcc/arm-none-eabi/7.3.1/../../../../arm-none-eabi/lib/thumb/v7e-m/fpv4-sp/softfp/libc_nano.a(lib_a-abort.o)
 .bss           0x0000000000000000        0x0 /usr/local/Cellar/gcc-arm-none-eabi/20180627/bin/../lib/gcc/arm-none-eabi/7.3.1/../../../../arm-none-eabi/lib/thumb/v7e-m/fpv4-sp/softfp/libc_nano.a(lib_a-abort.o)
 .text          0x0000000000000000        0x0 /usr/local/Cellar/gcc-arm-none-eabi/20180627/bin/../lib/gcc/arm-none-eabi/7.3.1/../../../../arm-none-eabi/lib/thumb/v7e-m/fpv4-sp/softfp/libc_nano.a(lib_a-signal.o)
 .data          0x0000000000000000        0x0 /usr/local/Cellar/gcc-arm-none-eabi/20180627/bin/../lib/gcc/arm-none-eabi/7.3.1/../../../../arm-none-eabi/lib/thumb/v7e-m/fpv4-sp/softfp/libc_nano.a(lib_a-signal.o)
 .bss           0x0000000000000000        0x0 /usr/local/Cellar/gcc-arm-none-eabi/20180627/bin/../lib/gcc/arm-none-eabi/7.3.1/../../../../arm-none-eabi/lib/thumb/v7e-m/fpv4-sp/softfp/libc_nano.a(lib_a-signal.o)
 .text._init_signal_r
                0x0000000000000000       0x28 /usr/local/Cellar/gcc-arm-none-eabi/20180627/bin/../lib/gcc/arm-none-eabi/7.3.1/../../../../arm-none-eabi/lib/thumb/v7e-m/fpv4-sp/softfp/libc_nano.a(lib_a-signal.o)
 .text._signal_r
                0x0000000000000000       0x30 /usr/local/Cellar/gcc-arm-none-eabi/20180627/bin/../lib/gcc/arm-none-eabi/7.3.1/../../../../arm-none-eabi/lib/thumb/v7e-m/fpv4-sp/softfp/libc_nano.a(lib_a-signal.o)
 .text.__sigtramp_r
                0x0000000000000000       0x48 /usr/local/Cellar/gcc-arm-none-eabi/20180627/bin/../lib/gcc/arm-none-eabi/7.3.1/../../../../arm-none-eabi/lib/thumb/v7e-m/fpv4-sp/softfp/libc_nano.a(lib_a-signal.o)
 .text.signal   0x0000000000000000       0x10 /usr/local/Cellar/gcc-arm-none-eabi/20180627/bin/../lib/gcc/arm-none-eabi/7.3.1/../../../../arm-none-eabi/lib/thumb/v7e-m/fpv4-sp/softfp/libc_nano.a(lib_a-signal.o)
 .text._init_signal
                0x0000000000000000        0xc /usr/local/Cellar/gcc-arm-none-eabi/20180627/bin/../lib/gcc/arm-none-eabi/7.3.1/../../../../arm-none-eabi/lib/thumb/v7e-m/fpv4-sp/softfp/libc_nano.a(lib_a-signal.o)
 .text.__sigtramp
                0x0000000000000000       0x10 /usr/local/Cellar/gcc-arm-none-eabi/20180627/bin/../lib/gcc/arm-none-eabi/7.3.1/../../../../arm-none-eabi/lib/thumb/v7e-m/fpv4-sp/softfp/libc_nano.a(lib_a-signal.o)
 .text          0x0000000000000000        0x0 /usr/local/Cellar/gcc-arm-none-eabi/20180627/bin/../lib/gcc/arm-none-eabi/7.3.1/../../../../arm-none-eabi/lib/thumb/v7e-m/fpv4-sp/softfp/libc_nano.a(lib_a-signalr.o)
 .data          0x0000000000000000        0x0 /usr/local/Cellar/gcc-arm-none-eabi/20180627/bin/../lib/gcc/arm-none-eabi/7.3.1/../../../../arm-none-eabi/lib/thumb/v7e-m/fpv4-sp/softfp/libc_nano.a(lib_a-signalr.o)
 .bss           0x0000000000000000        0x0 /usr/local/Cellar/gcc-arm-none-eabi/20180627/bin/../lib/gcc/arm-none-eabi/7.3.1/../../../../arm-none-eabi/lib/thumb/v7e-m/fpv4-sp/softfp/libc_nano.a(lib_a-signalr.o)
 .text          0x0000000000000000        0x0 /usr/local/Cellar/gcc-arm-none-eabi/20180627/bin/../lib/gcc/arm-none-eabi/7.3.1/../../../../arm-none-eabi/lib/thumb/v7e-m/fpv4-sp/softfp/libnosys.a(getpid.o)
 .data          0x0000000000000000        0x0 /usr/local/Cellar/gcc-arm-none-eabi/20180627/bin/../lib/gcc/arm-none-eabi/7.3.1/../../../../arm-none-eabi/lib/thumb/v7e-m/fpv4-sp/softfp/libnosys.a(getpid.o)
 .bss           0x0000000000000000        0x0 /usr/local/Cellar/gcc-arm-none-eabi/20180627/bin/../lib/gcc/arm-none-eabi/7.3.1/../../../../arm-none-eabi/lib/thumb/v7e-m/fpv4-sp/softfp/libnosys.a(getpid.o)
 .text          0x0000000000000000        0x0 /usr/local/Cellar/gcc-arm-none-eabi/20180627/bin/../lib/gcc/arm-none-eabi/7.3.1/../../../../arm-none-eabi/lib/thumb/v7e-m/fpv4-sp/softfp/libnosys.a(kill.o)
 .data          0x0000000000000000        0x0 /usr/local/Cellar/gcc-arm-none-eabi/20180627/bin/../lib/gcc/arm-none-eabi/7.3.1/../../../../arm-none-eabi/lib/thumb/v7e-m/fpv4-sp/softfp/libnosys.a(kill.o)
 .bss           0x0000000000000000        0x0 /usr/local/Cellar/gcc-arm-none-eabi/20180627/bin/../lib/gcc/arm-none-eabi/7.3.1/../../../../arm-none-eabi/lib/thumb/v7e-m/fpv4-sp/softfp/libnosys.a(kill.o)
 .text          0x0000000000000000        0x0 /usr/local/Cellar/gcc-arm-none-eabi/20180627/bin/../lib/gcc/arm-none-eabi/7.3.1/thumb/v7e-m/fpv4-sp/softfp/crtend.o
 .data          0x0000000000000000        0x0 /usr/local/Cellar/gcc-arm-none-eabi/20180627/bin/../lib/gcc/arm-none-eabi/7.3.1/thumb/v7e-m/fpv4-sp/softfp/crtend.o
 .bss           0x0000000000000000        0x0 /usr/local/Cellar/gcc-arm-none-eabi/20180627/bin/../lib/gcc/arm-none-eabi/7.3.1/thumb/v7e-m/fpv4-sp/softfp/crtend.o
 .eh_frame      0x0000000000000000        0x4 /usr/local/Cellar/gcc-arm-none-eabi/20180627/bin/../lib/gcc/arm-none-eabi/7.3.1/thumb/v7e-m/fpv4-sp/softfp/crtend.o
 .ARM.attributes
                0x0000000000000000       0x32 /usr/local/Cellar/gcc-arm-none-eabi/20180627/bin/../lib/gcc/arm-none-eabi/7.3.1/thumb/v7e-m/fpv4-sp/softfp/crtend.o
 .text          0x0000000000000000        0x0 /usr/local/Cellar/gcc-arm-none-eabi/20180627/bin/../lib/gcc/arm-none-eabi/7.3.1/thumb/v7e-m/fpv4-sp/softfp/crtn.o
 .data          0x0000000000000000        0x0 /usr/local/Cellar/gcc-arm-none-eabi/20180627/bin/../lib/gcc/arm-none-eabi/7.3.1/thumb/v7e-m/fpv4-sp/softfp/crtn.o
 .bss           0x0000000000000000        0x0 /usr/local/Cellar/gcc-arm-none-eabi/20180627/bin/../lib/gcc/arm-none-eabi/7.3.1/thumb/v7e-m/fpv4-sp/softfp/crtn.o

Memory Configuration

Name             Origin             Length             Attributes
FLASH            0x0000000008000000 0x0000000000040000 xr
RAM              0x0000000020000000 0x0000000000010000 xrw
*default*        0x0000000000000000 0xffffffffffffffff

Linker script and memory map

LOAD /usr/local/Cellar/gcc-arm-none-eabi/20180627/bin/../lib/gcc/arm-none-eabi/7.3.1/thumb/v7e-m/fpv4-sp/softfp/crti.o
LOAD /usr/local/Cellar/gcc-arm-none-eabi/20180627/bin/../lib/gcc/arm-none-eabi/7.3.1/thumb/v7e-m/fpv4-sp/softfp/crtbegin.o
LOAD /usr/local/Cellar/gcc-arm-none-eabi/20180627/bin/../lib/gcc/arm-none-eabi/7.3.1/../../../../arm-none-eabi/lib/thumb/v7e-m/fpv4-sp/softfp/crt0.o
LOAD build/at32_hoverboard.o
LOAD build/system_at32f4xx.o
LOAD build/at32f4xx_gpio.o
LOAD build/at32f4xx_rcc.o
LOAD build/at32f4xx_tim.o
LOAD build/at32f4xx_usart.o
LOAD build/misc.o
LOAD build/list.o
LOAD build/port.o
LOAD build/heap_4.o
LOAD build/queue.o
LOAD build/cmsis_os.o
LOAD build/timers.o
LOAD build/tasks.o
LOAD build/event_groups.o
LOAD build/croutine.o
LOAD build/bsp_key.o
LOAD build/bsp_led.o
LOAD build/bsp_tim_pwm.o
LOAD build/bsp_timer.o
LOAD build/bsp_uart_fifo.o
LOAD build/bsp.o
LOAD build/at32f4xx_it.o
LOAD build/at32f4xx_assert.o
LOAD build/TimerForRunTimeState.o
LOAD build/main.o
LOAD build/spin_task.o
LOAD build/subscribe_task.o
LOAD build/heartbeat_task.o
LOAD build/duration.o
LOAD build/time.o
LOAD build/startup_at32f403xe.o
LOAD /usr/local/Cellar/gcc-arm-none-eabi/20180627/bin/../lib/gcc/arm-none-eabi/7.3.1/../../../../arm-none-eabi/lib/thumb/v7e-m/fpv4-sp/softfp/libc_nano.a
LOAD /usr/local/Cellar/gcc-arm-none-eabi/20180627/bin/../lib/gcc/arm-none-eabi/7.3.1/../../../../arm-none-eabi/lib/thumb/v7e-m/fpv4-sp/softfp/libm.a
LOAD /usr/local/Cellar/gcc-arm-none-eabi/20180627/bin/../lib/gcc/arm-none-eabi/7.3.1/../../../../arm-none-eabi/lib/thumb/v7e-m/fpv4-sp/softfp/libnosys.a
START GROUP
LOAD /usr/local/Cellar/gcc-arm-none-eabi/20180627/bin/../lib/gcc/arm-none-eabi/7.3.1/thumb/v7e-m/fpv4-sp/softfp/libgcc.a
LOAD /usr/local/Cellar/gcc-arm-none-eabi/20180627/bin/../lib/gcc/arm-none-eabi/7.3.1/../../../../arm-none-eabi/lib/thumb/v7e-m/fpv4-sp/softfp/libc_nano.a
END GROUP
START GROUP
LOAD /usr/local/Cellar/gcc-arm-none-eabi/20180627/bin/../lib/gcc/arm-none-eabi/7.3.1/thumb/v7e-m/fpv4-sp/softfp/libgcc.a
LOAD /usr/local/Cellar/gcc-arm-none-eabi/20180627/bin/../lib/gcc/arm-none-eabi/7.3.1/../../../../arm-none-eabi/lib/thumb/v7e-m/fpv4-sp/softfp/libc_nano.a
LOAD /usr/local/Cellar/gcc-arm-none-eabi/20180627/bin/../lib/gcc/arm-none-eabi/7.3.1/../../../../arm-none-eabi/lib/thumb/v7e-m/fpv4-sp/softfp/libnosys.a
END GROUP
START GROUP
LOAD /usr/local/Cellar/gcc-arm-none-eabi/20180627/bin/../lib/gcc/arm-none-eabi/7.3.1/thumb/v7e-m/fpv4-sp/softfp/libgcc.a
LOAD /usr/local/Cellar/gcc-arm-none-eabi/20180627/bin/../lib/gcc/arm-none-eabi/7.3.1/../../../../arm-none-eabi/lib/thumb/v7e-m/fpv4-sp/softfp/libc_nano.a
LOAD /usr/local/Cellar/gcc-arm-none-eabi/20180627/bin/../lib/gcc/arm-none-eabi/7.3.1/../../../../arm-none-eabi/lib/thumb/v7e-m/fpv4-sp/softfp/libnosys.a
END GROUP
LOAD /usr/local/Cellar/gcc-arm-none-eabi/20180627/bin/../lib/gcc/arm-none-eabi/7.3.1/thumb/v7e-m/fpv4-sp/softfp/crtend.o
LOAD /usr/local/Cellar/gcc-arm-none-eabi/20180627/bin/../lib/gcc/arm-none-eabi/7.3.1/thumb/v7e-m/fpv4-sp/softfp/crtn.o
                0x000000002000c000                _estack = 0x2000c000
                0x0000000000000000                _Min_Heap_Size = 0x0
                0x0000000000000400                _Min_Stack_Size = 0x400

.isr_vector     0x0000000008000000      0x150
                0x0000000008000000                . = ALIGN (0x4)
 *(.isr_vector)
 .isr_vector    0x0000000008000000      0x150 build/startup_at32f403xe.o
                0x0000000008000000                g_pfnVectors
                0x0000000008000150                . = ALIGN (0x4)

.text           0x0000000008000150     0x5db4
                0x0000000008000150                . = ALIGN (0x4)
 *(.text)
 .text          0x0000000008000150       0x40 /usr/local/Cellar/gcc-arm-none-eabi/20180627/bin/../lib/gcc/arm-none-eabi/7.3.1/thumb/v7e-m/fpv4-sp/softfp/crtbegin.o
 .text          0x0000000008000190       0x10 /usr/local/Cellar/gcc-arm-none-eabi/20180627/bin/../lib/gcc/arm-none-eabi/7.3.1/../../../../arm-none-eabi/lib/thumb/v7e-m/fpv4-sp/softfp/libc_nano.a(lib_a-strlen.o)
                0x0000000008000190                strlen
 .text          0x00000000080001a0       0xa0 /usr/local/Cellar/gcc-arm-none-eabi/20180627/bin/../lib/gcc/arm-none-eabi/7.3.1/../../../../arm-none-eabi/lib/thumb/v7e-m/fpv4-sp/softfp/libc_nano.a(lib_a-memchr.o)
                0x00000000080001a0                memchr
 .text          0x0000000008000240      0x9ec /usr/local/Cellar/gcc-arm-none-eabi/20180627/bin/../lib/gcc/arm-none-eabi/7.3.1/thumb/v7e-m/fpv4-sp/softfp/libgcc.a(unwind-arm.o)
                0x00000000080004f4                _Unwind_GetCFA
                0x00000000080004f8                __gnu_Unwind_RaiseException
                0x0000000008000558                __gnu_Unwind_ForcedUnwind
                0x000000000800056c                __gnu_Unwind_Resume
                0x00000000080005b0                __gnu_Unwind_Resume_or_Rethrow
                0x00000000080005c0                _Unwind_Complete
                0x00000000080005c4                _Unwind_DeleteException
                0x00000000080005d0                _Unwind_VRS_Get
                0x0000000008000614                _Unwind_VRS_Set
                0x000000000800065c                __gnu_Unwind_Backtrace
                0x00000000080009a0                __aeabi_unwind_cpp_pr0
                0x00000000080009a4                __aeabi_unwind_cpp_pr1
                0x00000000080009a8                __aeabi_unwind_cpp_pr2
                0x00000000080009ac                _Unwind_VRS_Pop
 .text          0x0000000008000c2c      0x1ac /usr/local/Cellar/gcc-arm-none-eabi/20180627/bin/../lib/gcc/arm-none-eabi/7.3.1/thumb/v7e-m/fpv4-sp/softfp/libgcc.a(libunwind.o)
                0x0000000008000c2c                __restore_core_regs
                0x0000000008000c2c                restore_core_regs
                0x0000000008000c44                __gnu_Unwind_Restore_VFP
                0x0000000008000c4c                __gnu_Unwind_Save_VFP
                0x0000000008000c54                __gnu_Unwind_Restore_VFP_D
                0x0000000008000c5c                __gnu_Unwind_Save_VFP_D
                0x0000000008000c64                __gnu_Unwind_Restore_VFP_D_16_to_31
                0x0000000008000c6c                __gnu_Unwind_Save_VFP_D_16_to_31
                0x0000000008000c74                __gnu_Unwind_Restore_WMMXD
                0x0000000008000cb8                __gnu_Unwind_Save_WMMXD
                0x0000000008000cfc                __gnu_Unwind_Restore_WMMXC
                0x0000000008000d10                __gnu_Unwind_Save_WMMXC
                0x0000000008000d24                _Unwind_RaiseException
                0x0000000008000d24                ___Unwind_RaiseException
                0x0000000008000d48                ___Unwind_Resume
                0x0000000008000d48                _Unwind_Resume
                0x0000000008000d6c                ___Unwind_Resume_or_Rethrow
                0x0000000008000d6c                _Unwind_Resume_or_Rethrow
                0x0000000008000d90                _Unwind_ForcedUnwind
                0x0000000008000d90                ___Unwind_ForcedUnwind
                0x0000000008000db4                _Unwind_Backtrace
                0x0000000008000db4                ___Unwind_Backtrace
 .text          0x0000000008000dd8      0x374 /usr/local/Cellar/gcc-arm-none-eabi/20180627/bin/../lib/gcc/arm-none-eabi/7.3.1/thumb/v7e-m/fpv4-sp/softfp/libgcc.a(pr-support.o)
                0x0000000008000e30                __gnu_unwind_execute
                0x00000000080010f4                __gnu_unwind_frame
                0x000000000800111c                _Unwind_GetRegionStart
                0x0000000008001128                _Unwind_GetLanguageSpecificData
                0x000000000800113c                _Unwind_GetDataRelBase
                0x0000000008001144                _Unwind_GetTextRelBase
 *(.text*)
 .text.__io_putchar
                0x000000000800114c       0x20 build/at32_hoverboard.o
                0x000000000800114c                __io_putchar
 .text._write   0x000000000800116c       0x28 build/at32_hoverboard.o
                0x000000000800116c                _write
 .text.UART_Print_Init
                0x0000000008001194       0xa4 build/at32_hoverboard.o
                0x0000000008001194                UART_Print_Init
 .text.SetSysClockTo192M
                0x0000000008001238       0xc0 build/system_at32f4xx.o
 .text.SetSysClock
                0x00000000080012f8        0x8 build/system_at32f4xx.o
 .text.SystemInit
                0x0000000008001300       0x6c build/system_at32f4xx.o
                0x0000000008001300                SystemInit
 .text.GPIO_Init
                0x000000000800136c       0x9e build/at32f4xx_gpio.o
                0x000000000800136c                GPIO_Init
 .text.GPIO_StructInit
                0x000000000800140a       0x10 build/at32f4xx_gpio.o
                0x000000000800140a                GPIO_StructInit
 *fill*         0x000000000800141a        0x2 
 .text.RCC_GetClocksFreq
                0x000000000800141c      0x134 build/at32f4xx_rcc.o
                0x000000000800141c                RCC_GetClocksFreq
 .text.RCC_APB2PeriphClockCmd
                0x0000000008001550       0x1c build/at32f4xx_rcc.o
                0x0000000008001550                RCC_APB2PeriphClockCmd
 .text.RCC_APB1PeriphClockCmd
                0x000000000800156c       0x1c build/at32f4xx_rcc.o
                0x000000000800156c                RCC_APB1PeriphClockCmd
 .text.TMR_TimeBaseInit
                0x0000000008001588       0x8c build/at32f4xx_tim.o
                0x0000000008001588                TMR_TimeBaseInit
 .text.TMR_Cmd  0x0000000008001614       0x1a build/at32f4xx_tim.o
                0x0000000008001614                TMR_Cmd
 .text.TMR_INTConfig
                0x000000000800162e       0x14 build/at32f4xx_tim.o
                0x000000000800162e                TMR_INTConfig
 .text.TMR_ARPreloadConfig
                0x0000000008001642       0x1a build/at32f4xx_tim.o
                0x0000000008001642                TMR_ARPreloadConfig
 .text.TMR_GetINTStatus
                0x000000000800165c       0x18 build/at32f4xx_tim.o
                0x000000000800165c                TMR_GetINTStatus
 .text.TMR_ClearITPendingBit
                0x0000000008001674        0x8 build/at32f4xx_tim.o
                0x0000000008001674                TMR_ClearITPendingBit
 .text.USART_Init
                0x000000000800167c       0xc8 build/at32f4xx_usart.o
                0x000000000800167c                USART_Init
 .text.USART_StructInit
                0x0000000008001744       0x16 build/at32f4xx_usart.o
                0x0000000008001744                USART_StructInit
 .text.USART_Cmd
                0x000000000800175a       0x1a build/at32f4xx_usart.o
                0x000000000800175a                USART_Cmd
 .text.USART_INTConfig
                0x0000000008001774       0x3a build/at32f4xx_usart.o
                0x0000000008001774                USART_INTConfig
 .text.USART_SendData
                0x00000000080017ae        0x8 build/at32f4xx_usart.o
                0x00000000080017ae                USART_SendData
 .text.USART_ReceiveData
                0x00000000080017b6        0x8 build/at32f4xx_usart.o
                0x00000000080017b6                USART_ReceiveData
 .text.USART_GetFlagStatus
                0x00000000080017be        0xe build/at32f4xx_usart.o
                0x00000000080017be                USART_GetFlagStatus
 .text.USART_ClearFlag
                0x00000000080017cc        0x8 build/at32f4xx_usart.o
                0x00000000080017cc                USART_ClearFlag
 .text.USART_GetITStatus
                0x00000000080017d4       0x46 build/at32f4xx_usart.o
                0x00000000080017d4                USART_GetITStatus
 *fill*         0x000000000800181a        0x2 
 .text.NVIC_PriorityGroupConfig
                0x000000000800181c       0x14 build/misc.o
                0x000000000800181c                NVIC_PriorityGroupConfig
 .text.NVIC_Init
                0x0000000008001830       0x68 build/misc.o
                0x0000000008001830                NVIC_Init
 .text.vListInitialise
                0x0000000008001898       0x16 build/list.o
                0x0000000008001898                vListInitialise
 .text.vListInitialiseItem
                0x00000000080018ae        0x6 build/list.o
                0x00000000080018ae                vListInitialiseItem
 .text.vListInsertEnd
                0x00000000080018b4       0x18 build/list.o
                0x00000000080018b4                vListInsertEnd
 .text.vListInsert
                0x00000000080018cc       0x34 build/list.o
                0x00000000080018cc                vListInsert
 .text.uxListRemove
                0x0000000008001900       0x26 build/list.o
                0x0000000008001900                uxListRemove
 *fill*         0x0000000008001926        0x2 
 .text.prvTaskExitError
                0x0000000008001928       0x34 build/port.o
 .text.prvPortStartFirstTask
                0x000000000800195c       0x20 build/port.o
 .text.vPortEnableVFP
                0x000000000800197c       0x14 build/port.o
 .text.pxPortInitialiseStack
                0x0000000008001990       0x2c build/port.o
                0x0000000008001990                pxPortInitialiseStack
 *fill*         0x00000000080019bc        0x4 
 .text.SVC_Handler
                0x00000000080019c0       0x24 build/port.o
                0x00000000080019c0                SVC_Handler
 .text.vPortEnterCritical
                0x00000000080019e4       0x44 build/port.o
                0x00000000080019e4                vPortEnterCritical
 .text.vPortExitCritical
                0x0000000008001a28       0x2c build/port.o
                0x0000000008001a28                vPortExitCritical
 *fill*         0x0000000008001a54        0xc 
 .text.PendSV_Handler
                0x0000000008001a60       0x64 build/port.o
                0x0000000008001a60                PendSV_Handler
 .text.SysTick_Handler
                0x0000000008001ac4       0x2c build/port.o
                0x0000000008001ac4                SysTick_Handler
 .text.vPortSetupTimerInterrupt
                0x0000000008001af0       0x14 build/port.o
                0x0000000008001af0                vPortSetupTimerInterrupt
 .text.xPortStartScheduler
                0x0000000008001b04       0xec build/port.o
                0x0000000008001b04                xPortStartScheduler
 .text.vPortValidateInterruptPriority
                0x0000000008001bf0       0x5c build/port.o
                0x0000000008001bf0                vPortValidateInterruptPriority
 .text.prvHeapInit
                0x0000000008001c4c       0x64 build/heap_4.o
 .text.prvInsertBlockIntoFreeList
                0x0000000008001cb0       0x58 build/heap_4.o
 .text.pvPortMalloc
                0x0000000008001d08      0x11c build/heap_4.o
                0x0000000008001d08                pvPortMalloc
 .text.vPortFree
                0x0000000008001e24       0x70 build/heap_4.o
                0x0000000008001e24                vPortFree
 .text.prvIsQueueFull
                0x0000000008001e94       0x1e build/queue.o
 .text.prvIsQueueEmpty
                0x0000000008001eb2       0x1a build/queue.o
 .text.prvCopyDataToQueue
                0x0000000008001ecc       0x76 build/queue.o
 .text.prvCopyDataFromQueue
                0x0000000008001f42       0x24 build/queue.o
 .text.prvUnlockQueue
                0x0000000008001f66       0x6e build/queue.o
 .text.xQueueGenericReset
                0x0000000008001fd4       0x84 build/queue.o
                0x0000000008001fd4                xQueueGenericReset
 .text.prvInitialiseNewQueue
                0x0000000008002058       0x22 build/queue.o
 .text.xQueueGenericCreate
                0x000000000800207a       0x48 build/queue.o
                0x000000000800207a                xQueueGenericCreate
 *fill*         0x00000000080020c2        0x2 
 .text.xQueueGenericSend
                0x00000000080020c4      0x17c build/queue.o
                0x00000000080020c4                xQueueGenericSend
 .text.prvInitialiseMutex
                0x0000000008002240       0x18 build/queue.o
 .text.xQueueCreateMutex
                0x0000000008002258       0x16 build/queue.o
                0x0000000008002258                xQueueCreateMutex
 .text.xQueueGenericSendFromISR
                0x000000000800226e       0xcc build/queue.o
                0x000000000800226e                xQueueGenericSendFromISR
 *fill*         0x000000000800233a        0x2 
 .text.xQueueGenericReceive
                0x000000000800233c      0x1a4 build/queue.o
                0x000000000800233c                xQueueGenericReceive
 .text.vQueueAddToRegistry
                0x00000000080024e0       0x28 build/queue.o
                0x00000000080024e0                vQueueAddToRegistry
 .text.vQueueWaitForMessageRestricted
                0x0000000008002508       0x52 build/queue.o
                0x0000000008002508                vQueueWaitForMessageRestricted
 .text.makeFreeRtosPriority
                0x000000000800255a        0xc build/cmsis_os.o
 .text.osThreadCreate
                0x0000000008002566       0x34 build/cmsis_os.o
                0x0000000008002566                osThreadCreate
 .text.osDelay  0x000000000800259a       0x12 build/cmsis_os.o
                0x000000000800259a                osDelay
 .text.prvGetNextExpireTime
                0x00000000080025ac       0x20 build/timers.o
 .text.prvInsertTimerInActiveList
                0x00000000080025cc       0x48 build/timers.o
 .text.prvCheckForValidListAndQueue
                0x0000000008002614       0x5c build/timers.o
 .text.xTimerCreateTimerTask
                0x0000000008002670       0x50 build/timers.o
                0x0000000008002670                xTimerCreateTimerTask
 .text.xTimerGenericCommand
                0x00000000080026c0       0x6c build/timers.o
                0x00000000080026c0                xTimerGenericCommand
 .text.prvSwitchTimerLists
                0x000000000800272c       0x78 build/timers.o
 .text.prvSampleTimeNow
                0x00000000080027a4       0x2c build/timers.o
 .text.prvProcessExpiredTimer
                0x00000000080027d0       0x60 build/timers.o
 .text.prvProcessTimerOrBlockTask
                0x0000000008002830       0x74 build/timers.o
 .text.prvProcessReceivedCommands
                0x00000000080028a4       0xe4 build/timers.o
 .text.prvTimerTask
                0x0000000008002988       0x16 build/timers.o
 *fill*         0x000000000800299e        0x2 
 .text.prvResetNextTaskUnblockTime
                0x00000000080029a0       0x2c build/tasks.o
 .text.prvDeleteTCB
                0x00000000080029cc       0x12 build/tasks.o
 .text.prvInitialiseNewTask
                0x00000000080029de       0x92 build/tasks.o
 .text.prvInitialiseTaskLists
                0x0000000008002a70       0x68 build/tasks.o
 .text.prvAddNewTaskToReadyList
                0x0000000008002ad8       0xac build/tasks.o
 .text.prvAddCurrentTaskToDelayedList
                0x0000000008002b84       0x98 build/tasks.o
 .text.xTaskCreate
                0x0000000008002c1c       0x62 build/tasks.o
                0x0000000008002c1c                xTaskCreate
 *fill*         0x0000000008002c7e        0x2 
 .text.vTaskStartScheduler
                0x0000000008002c80       0x8c build/tasks.o
                0x0000000008002c80                vTaskStartScheduler
 .text.vTaskSuspendAll
                0x0000000008002d0c       0x10 build/tasks.o
                0x0000000008002d0c                vTaskSuspendAll
 .text.xTaskGetTickCount
                0x0000000008002d1c        0xc build/tasks.o
                0x0000000008002d1c                xTaskGetTickCount
 .text.xTaskIncrementTick
                0x0000000008002d28      0x118 build/tasks.o
                0x0000000008002d28                xTaskIncrementTick
 .text.xTaskResumeAll
                0x0000000008002e40       0xf4 build/tasks.o
                0x0000000008002e40                xTaskResumeAll
 .text.vTaskDelay
                0x0000000008002f34       0x4c build/tasks.o
                0x0000000008002f34                vTaskDelay
 .text.prvCheckTasksWaitingTermination
                0x0000000008002f80       0x5c build/tasks.o
 .text.prvIdleTask
                0x0000000008002fdc       0x28 build/tasks.o
 .text.vTaskSwitchContext
                0x0000000008003004       0xec build/tasks.o
                0x0000000008003004                vTaskSwitchContext
 .text.vTaskPlaceOnEventList
                0x00000000080030f0       0x30 build/tasks.o
                0x00000000080030f0                vTaskPlaceOnEventList
 .text.vTaskPlaceOnEventListRestricted
                0x0000000008003120       0x38 build/tasks.o
                0x0000000008003120                vTaskPlaceOnEventListRestricted
 .text.xTaskRemoveFromEventList
                0x0000000008003158       0x8c build/tasks.o
                0x0000000008003158                xTaskRemoveFromEventList
 .text.vTaskSetTimeOutState
                0x00000000080031e4       0x2c build/tasks.o
                0x00000000080031e4                vTaskSetTimeOutState
 .text.xTaskCheckForTimeOut
                0x0000000008003210       0x80 build/tasks.o
                0x0000000008003210                xTaskCheckForTimeOut
 .text.vTaskMissedYield
                0x0000000008003290        0xc build/tasks.o
                0x0000000008003290                vTaskMissedYield
 .text.xTaskGetSchedulerState
                0x000000000800329c       0x20 build/tasks.o
                0x000000000800329c                xTaskGetSchedulerState
 .text.vTaskPriorityInherit
                0x00000000080032bc       0xa0 build/tasks.o
                0x00000000080032bc                vTaskPriorityInherit
 .text.xTaskPriorityDisinherit
                0x000000000800335c       0xb0 build/tasks.o
                0x000000000800335c                xTaskPriorityDisinherit
 .text.pvTaskIncrementMutexHeldCount
                0x000000000800340c       0x1c build/tasks.o
                0x000000000800340c                pvTaskIncrementMutexHeldCount
 .text.IsKeyDown1
                0x0000000008003428       0x18 build/bsp_key.o
 .text.bsp_InitKeyVar
                0x0000000008003440       0x3c build/bsp_key.o
 .text.bsp_InitKeyHard
                0x000000000800347c       0x30 build/bsp_key.o
 .text.bsp_InitKey
                0x00000000080034ac        0xc build/bsp_key.o
                0x00000000080034ac                bsp_InitKey
 .text.bsp_LedOff
                0x00000000080034b8       0x30 build/bsp_led.o
                0x00000000080034b8                bsp_LedOff
 .text.bsp_InitLed
                0x00000000080034e8       0x78 build/bsp_led.o
                0x00000000080034e8                bsp_InitLed
 .text.bsp_LedToggle
                0x0000000008003560       0x38 build/bsp_led.o
                0x0000000008003560                bsp_LedToggle
 .text.bsp_InitHardTimer
                0x0000000008003598       0x74 build/bsp_timer.o
                0x0000000008003598                bsp_InitHardTimer
 .text.TMR3_GLOBAL_IRQHandler
                0x000000000800360c       0xb0 build/bsp_timer.o
                0x000000000800360c                TMR3_GLOBAL_IRQHandler
 .text.UartVarInit
                0x00000000080036bc       0x3c build/bsp_uart_fifo.o
 .text.InitHardUart
                0x00000000080036f8       0x18 build/bsp_uart_fifo.o
 .text.ConfigUartNVIC
                0x0000000008003710       0x26 build/bsp_uart_fifo.o
 .text.UartGetChar
                0x0000000008003736       0x48 build/bsp_uart_fifo.o
 .text.UartSend
                0x000000000800377e       0x70 build/bsp_uart_fifo.o
 .text.UartIRQ  0x00000000080037ee       0xfa build/bsp_uart_fifo.o
 .text.bsp_InitUart
                0x00000000080038e8       0x10 build/bsp_uart_fifo.o
                0x00000000080038e8                bsp_InitUart
 .text.ComToUart
                0x00000000080038f8       0x10 build/bsp_uart_fifo.o
                0x00000000080038f8                ComToUart
 .text.comSendBuf
                0x0000000008003908       0x20 build/bsp_uart_fifo.o
                0x0000000008003908                comSendBuf
 .text.comGetChar
                0x0000000008003928       0x16 build/bsp_uart_fifo.o
                0x0000000008003928                comGetChar
 *fill*         0x000000000800393e        0x2 
 .text.USART2_IRQHandler
                0x0000000008003940       0x10 build/bsp_uart_fifo.o
                0x0000000008003940                USART2_IRQHandler
 .text.bsp_Init
                0x0000000008003950       0x1c build/bsp.o
                0x0000000008003950                bsp_Init
 .text.NMI_Handler
                0x000000000800396c        0x2 build/at32f4xx_it.o
                0x000000000800396c                NMI_Handler
 *fill*         0x000000000800396e        0x2 
 .text.HardFault_Handler
                0x0000000008003970       0x28 build/at32f4xx_it.o
                0x0000000008003970                HardFault_Handler
 .text.MemManage_Handler
                0x0000000008003998        0x2 build/at32f4xx_it.o
                0x0000000008003998                MemManage_Handler
 .text.BusFault_Handler
                0x000000000800399a        0x2 build/at32f4xx_it.o
                0x000000000800399a                BusFault_Handler
 .text.UsageFault_Handler
                0x000000000800399c        0x2 build/at32f4xx_it.o
                0x000000000800399c                UsageFault_Handler
 .text.DebugMon_Handler
                0x000000000800399e        0x2 build/at32f4xx_it.o
                0x000000000800399e                DebugMon_Handler
 .text.TMR6_GLOBAL_IRQHandler
                0x00000000080039a0       0x28 build/TimerForRunTimeState.o
                0x00000000080039a0                TMR6_GLOBAL_IRQHandler
 .text._ZNK8std_msgs4Time9serializeEPh
                0x00000000080039c8       0x28 build/main.o
                0x00000000080039c8                std_msgs::Time::serialize(unsigned char*) const
 .text._ZN8std_msgs4Time11deserializeEPh
                0x00000000080039f0       0x3c build/main.o
                0x00000000080039f0                std_msgs::Time::deserialize(unsigned char*)
 .text._ZN8std_msgs4Time7getTypeEv
                0x0000000008003a2c        0x8 build/main.o
                0x0000000008003a2c                std_msgs::Time::getType()
 .text._ZN8std_msgs4Time6getMD5Ev
                0x0000000008003a34        0x8 build/main.o
                0x0000000008003a34                std_msgs::Time::getMD5()
 .text._ZN14rosserial_msgs9TopicInfo11deserializeEPh
                0x0000000008003a3c       0x94 build/main.o
                0x0000000008003a3c                rosserial_msgs::TopicInfo::deserialize(unsigned char*)
 .text._ZN14rosserial_msgs9TopicInfo7getTypeEv
                0x0000000008003ad0        0x8 build/main.o
                0x0000000008003ad0                rosserial_msgs::TopicInfo::getType()
 .text._ZN14rosserial_msgs9TopicInfo6getMD5Ev
                0x0000000008003ad8        0x8 build/main.o
                0x0000000008003ad8                rosserial_msgs::TopicInfo::getMD5()
 .text._ZN14rosserial_msgs3Log11deserializeEPh
                0x0000000008003ae0       0x2c build/main.o
                0x0000000008003ae0                rosserial_msgs::Log::deserialize(unsigned char*)
 .text._ZN14rosserial_msgs3Log7getTypeEv
                0x0000000008003b0c        0x8 build/main.o
                0x0000000008003b0c                rosserial_msgs::Log::getType()
 .text._ZN14rosserial_msgs3Log6getMD5Ev
                0x0000000008003b14        0x8 build/main.o
                0x0000000008003b14                rosserial_msgs::Log::getMD5()
 .text._ZN14rosserial_msgs20RequestParamResponse7getTypeEv
                0x0000000008003b1c        0x8 build/main.o
                0x0000000008003b1c                rosserial_msgs::RequestParamResponse::getType()
 .text._ZN14rosserial_msgs20RequestParamResponse6getMD5Ev
                0x0000000008003b24        0x8 build/main.o
                0x0000000008003b24                rosserial_msgs::RequestParamResponse::getMD5()
 .text._Z41__static_initialization_and_destruction_0ii
                0x0000000008003b2c       0x9c build/main.o
 .text._ZN3ros11NodeHandle_I13STM32HardwareLi5ELi5ELi512ELi512EE9connectedEv
                0x0000000008003bc8        0x6 build/main.o
                0x0000000008003bc8                ros::NodeHandle_<STM32Hardware, 5, 5, 512, 512>::connected()
 *fill*         0x0000000008003bce        0x2 
 .text._ZL12AppObjCreatev
                0x0000000008003bd0       0x20 build/main.o
 .text._ZNK14rosserial_msgs9TopicInfo9serializeEPh
                0x0000000008003bf0       0x7a build/main.o
                0x0000000008003bf0                rosserial_msgs::TopicInfo::serialize(unsigned char*) const
 .text._ZNK14rosserial_msgs3Log9serializeEPh
                0x0000000008003c6a       0x24 build/main.o
                0x0000000008003c6a                rosserial_msgs::Log::serialize(unsigned char*) const
 .text._ZNK14rosserial_msgs20RequestParamResponse9serializeEPh
                0x0000000008003c8e       0xcc build/main.o
                0x0000000008003c8e                rosserial_msgs::RequestParamResponse::serialize(unsigned char*) const
 .text._ZN14rosserial_msgs20RequestParamResponse11deserializeEPh
                0x0000000008003d5a       0xf0 build/main.o
                0x0000000008003d5a                rosserial_msgs::RequestParamResponse::deserialize(unsigned char*)
 *fill*         0x0000000008003e4a        0x2 
 .text._ZN3ros11NodeHandle_I13STM32HardwareLi5ELi5ELi512ELi512EE7publishEiPKNS_3MsgE
                0x0000000008003e4c       0xc0 build/main.o
                0x0000000008003e4c                ros::NodeHandle_<STM32Hardware, 5, 5, 512, 512>::publish(int, ros::Msg const*)
 .text.main     0x0000000008003f0c       0x44 build/main.o
                0x0000000008003f0c                main
 .text.vApplicationMallocFailedHook
                0x0000000008003f50        0x2 build/main.o
                0x0000000008003f50                vApplicationMallocFailedHook
 *fill*         0x0000000008003f52        0x2 
 .text.vApplicationStackOverflowHook
                0x0000000008003f54       0x10 build/main.o
                0x0000000008003f54                vApplicationStackOverflowHook
 .text._ZN3ros11NodeHandle_I13STM32HardwareLi5ELi5ELi512ELi512EE15negotiateTopicsEv
                0x0000000008003f64       0xc4 build/main.o
                0x0000000008003f64                ros::NodeHandle_<STM32Hardware, 5, 5, 512, 512>::negotiateTopics()
 .text._ZN3ros11NodeHandle_I13STM32HardwareLi5ELi5ELi512ELi512EE8spinOnceEv
                0x0000000008004028      0x460 build/main.o
                0x0000000008004028                ros::NodeHandle_<STM32Hardware, 5, 5, 512, 512>::spinOnce()
 .text._GLOBAL__sub_I_nh
                0x0000000008004488        0xe build/main.o
 *fill*         0x0000000008004496        0x2 
 .text._Z19ROS_SpinTaskHandlerPKv
                0x0000000008004498      0x51c build/spin_task.o
                0x0000000008004498                ROS_SpinTaskHandler(void const*)
 .text._Z15rosSpinTaskInitPN3ros11NodeHandle_I13STM32HardwareLi5ELi5ELi512ELi512EEE
                0x00000000080049b4       0x30 build/spin_task.o
                0x00000000080049b4                rosSpinTaskInit(ros::NodeHandle_<STM32Hardware, 5, 5, 512, 512>*)
 .text._ZNK8std_msgs6UInt169serializeEPh
                0x00000000080049e4        0xe build/subscribe_task.o
                0x00000000080049e4                std_msgs::UInt16::serialize(unsigned char*) const
 .text._ZN8std_msgs6UInt1611deserializeEPh
                0x00000000080049f2       0x10 build/subscribe_task.o
                0x00000000080049f2                std_msgs::UInt16::deserialize(unsigned char*)
 *fill*         0x0000000008004a02        0x2 
 .text._ZN8std_msgs6UInt167getTypeEv
                0x0000000008004a04        0x8 build/subscribe_task.o
                0x0000000008004a04                std_msgs::UInt16::getType()
 .text._ZN8std_msgs6UInt166getMD5Ev
                0x0000000008004a0c        0x8 build/subscribe_task.o
                0x0000000008004a0c                std_msgs::UInt16::getMD5()
 .text._Z41__static_initialization_and_destruction_0ii
                0x0000000008004a14       0x3c build/subscribe_task.o
 .text._ZN3ros10SubscriberIN8std_msgs6UInt16EvE8callbackEPh
                0x0000000008004a50       0x16 build/subscribe_task.o
                0x0000000008004a50                ros::Subscriber<std_msgs::UInt16, void>::callback(unsigned char*)
 .text._ZN3ros10SubscriberIN8std_msgs6UInt16EvE15getEndpointTypeEv
                0x0000000008004a66        0x4 build/subscribe_task.o
                0x0000000008004a66                ros::Subscriber<std_msgs::UInt16, void>::getEndpointType()
 *fill*         0x0000000008004a6a        0x2 
 .text._ZN3ros10SubscriberIN8std_msgs6UInt16EvE10getMsgTypeEv
                0x0000000008004a6c        0x8 build/subscribe_task.o
                0x0000000008004a6c                ros::Subscriber<std_msgs::UInt16, void>::getMsgType()
 .text._ZN3ros10SubscriberIN8std_msgs6UInt16EvE9getMsgMD5Ev
                0x0000000008004a74        0x8 build/subscribe_task.o
                0x0000000008004a74                ros::Subscriber<std_msgs::UInt16, void>::getMsgMD5()
 .text._Z6led_cbRKN8std_msgs6UInt16E
                0x0000000008004a7c       0x18 build/subscribe_task.o
                0x0000000008004a7c                led_cb(std_msgs::UInt16 const&)
 .text._GLOBAL__sub_I_sub_led
                0x0000000008004a94        0xe build/subscribe_task.o
 *fill*         0x0000000008004aa2        0x2 
 .text._ZN3ros16normalizeSecNSecERmS0_
                0x0000000008004aa4       0x2c build/time.o
                0x0000000008004aa4                ros::normalizeSecNSec(unsigned long&, unsigned long&)
 .text.Reset_Handler
                0x0000000008004ad0       0x44 build/startup_at32f403xe.o
                0x0000000008004ad0                Reset_Handler
 .text.Default_Handler
                0x0000000008004b14        0x2 build/startup_at32f403xe.o
                0x0000000008004b14                DMA2_Channel3_IRQHandler
                0x0000000008004b14                SDIO1_IRQHandler
                0x0000000008004b14                EXTI2_IRQHandler
                0x0000000008004b14                XMC_IRQHandler
                0x0000000008004b14                SPI4_IRQHandler
                0x0000000008004b14                TMR8_TRG_HALL_TMR14_IRQHandler
                0x0000000008004b14                TMR15_CC_IRQHandler
                0x0000000008004b14                PVD_IRQHandler
                0x0000000008004b14                EXTI3_IRQHandler
                0x0000000008004b14                TMR5_GLOBAL_IRQHandler
                0x0000000008004b14                I2C3_ER_IRQHandler
                0x0000000008004b14                TMR8_OV_TMR13_IRQHandler
                0x0000000008004b14                EXTI0_IRQHandler
                0x0000000008004b14                I2C2_EV_IRQHandler
                0x0000000008004b14                TMR15_TRG_HALL_IRQHandler
                0x0000000008004b14                SDIO2_IRQHandler
                0x0000000008004b14                ADC1_2_IRQHandler
                0x0000000008004b14                SPI1_IRQHandler
                0x0000000008004b14                TAMPER_IRQHandler
                0x0000000008004b14                DMA2_Channel2_IRQHandler
                0x0000000008004b14                DMA1_Channel4_IRQHandler
                0x0000000008004b14                TMR1_OV_TMR10_IRQHandler
                0x0000000008004b14                USART3_IRQHandler
                0x0000000008004b14                RTC_IRQHandler
                0x0000000008004b14                DMA1_Channel7_IRQHandler
                0x0000000008004b14                CAN1_RX1_IRQHandler
                0x0000000008004b14                UART5_IRQHandler
                0x0000000008004b14                ADC3_IRQHandler
                0x0000000008004b14                DMA2_Channel1_IRQHandler
                0x0000000008004b14                I2C1_EV_IRQHandler
                0x0000000008004b14                DMA1_Channel6_IRQHandler
                0x0000000008004b14                UART4_IRQHandler
                0x0000000008004b14                RCC_IRQHandler
                0x0000000008004b14                DMA1_Channel1_IRQHandler
                0x0000000008004b14                Default_Handler
                0x0000000008004b14                EXTI15_10_IRQHandler
                0x0000000008004b14                TMR7_GLOBAL_IRQHandler
                0x0000000008004b14                TMR1_CC_IRQHandler
                0x0000000008004b14                TMR15_BRK_IRQHandler
                0x0000000008004b14                I2C3_EV_IRQHandler
                0x0000000008004b14                EXTI9_5_IRQHandler
                0x0000000008004b14                TMR1_BRK_TMR9_IRQHandler
                0x0000000008004b14                SPI2_IRQHandler
                0x0000000008004b14                TMR8_BRK_TMR12_IRQHandler
                0x0000000008004b14                TMR1_TRG_HALL_TMR11_IRQHandler
                0x0000000008004b14                TMR15_OV_IRQHandler
                0x0000000008004b14                DMA1_Channel5_IRQHandler
                0x0000000008004b14                EXTI4_IRQHandler
                0x0000000008004b14                USB_LP_CAN1_RX0_IRQHandler
                0x0000000008004b14                TMR4_GLOBAL_IRQHandler
                0x0000000008004b14                USB_HP_CAN1_TX_IRQHandler
                0x0000000008004b14                DMA1_Channel3_IRQHandler
                0x0000000008004b14                WWDG_IRQHandler
                0x0000000008004b14                TMR8_CC_IRQHandler
                0x0000000008004b14                EXTI1_IRQHandler
                0x0000000008004b14                RTCAlarm_IRQHandler
                0x0000000008004b14                DMA2_Channel4_5_IRQHandler
                0x0000000008004b14                I2C2_ER_IRQHandler
                0x0000000008004b14                DMA1_Channel2_IRQHandler
                0x0000000008004b14                TMR2_GLOBAL_IRQHandler
                0x0000000008004b14                CAN1_SCE_IRQHandler
                0x0000000008004b14                FLASH_IRQHandler
                0x0000000008004b14                USART1_IRQHandler
                0x0000000008004b14                SPI3_IRQHandler
                0x0000000008004b14                I2C1_ER_IRQHandler
                0x0000000008004b14                USBWakeUp_IRQHandler
                0x0000000008004b14                RTC_Alarm_IRQHandler
 .text.memcpy   0x0000000008004b16       0x16 /usr/local/Cellar/gcc-arm-none-eabi/20180627/bin/../lib/gcc/arm-none-eabi/7.3.1/../../../../arm-none-eabi/lib/thumb/v7e-m/fpv4-sp/softfp/libc_nano.a(lib_a-memcpy-stub.o)
                0x0000000008004b16                memcpy
 .text.memset   0x0000000008004b2c       0x10 /usr/local/Cellar/gcc-arm-none-eabi/20180627/bin/../lib/gcc/arm-none-eabi/7.3.1/../../../../arm-none-eabi/lib/thumb/v7e-m/fpv4-sp/softfp/libc_nano.a(lib_a-memset.o)
                0x0000000008004b2c                memset
 .text.printf   0x0000000008004b3c       0x30 /usr/local/Cellar/gcc-arm-none-eabi/20180627/bin/../lib/gcc/arm-none-eabi/7.3.1/../../../../arm-none-eabi/lib/thumb/v7e-m/fpv4-sp/softfp/libc_nano.a(lib_a-printf.o)
                0x0000000008004b3c                printf
                0x0000000008004b3c                iprintf
 .text._puts_r  0x0000000008004b6c       0xb8 /usr/local/Cellar/gcc-arm-none-eabi/20180627/bin/../lib/gcc/arm-none-eabi/7.3.1/../../../../arm-none-eabi/lib/thumb/v7e-m/fpv4-sp/softfp/libc_nano.a(lib_a-puts.o)
                0x0000000008004b6c                _puts_r
 .text.puts     0x0000000008004c24       0x10 /usr/local/Cellar/gcc-arm-none-eabi/20180627/bin/../lib/gcc/arm-none-eabi/7.3.1/../../../../arm-none-eabi/lib/thumb/v7e-m/fpv4-sp/softfp/libc_nano.a(lib_a-puts.o)
                0x0000000008004c24                puts
 .text.realloc  0x0000000008004c34       0x10 /usr/local/Cellar/gcc-arm-none-eabi/20180627/bin/../lib/gcc/arm-none-eabi/7.3.1/../../../../arm-none-eabi/lib/thumb/v7e-m/fpv4-sp/softfp/libc_nano.a(lib_a-realloc.o)
                0x0000000008004c34                realloc
 .text.__swbuf_r
                0x0000000008004c44       0xa4 /usr/local/Cellar/gcc-arm-none-eabi/20180627/bin/../lib/gcc/arm-none-eabi/7.3.1/../../../../arm-none-eabi/lib/thumb/v7e-m/fpv4-sp/softfp/libc_nano.a(lib_a-wbuf.o)
                0x0000000008004c44                __swbuf_r
 .text.__swsetup_r
                0x0000000008004ce8       0xdc /usr/local/Cellar/gcc-arm-none-eabi/20180627/bin/../lib/gcc/arm-none-eabi/7.3.1/../../../../arm-none-eabi/lib/thumb/v7e-m/fpv4-sp/softfp/libc_nano.a(lib_a-wsetup.o)
                0x0000000008004ce8                __swsetup_r
 .text.__sflush_r
                0x0000000008004dc4      0x10c /usr/local/Cellar/gcc-arm-none-eabi/20180627/bin/../lib/gcc/arm-none-eabi/7.3.1/../../../../arm-none-eabi/lib/thumb/v7e-m/fpv4-sp/softfp/libc_nano.a(lib_a-fflush.o)
                0x0000000008004dc4                __sflush_r
 .text._fflush_r
                0x0000000008004ed0       0x54 /usr/local/Cellar/gcc-arm-none-eabi/20180627/bin/../lib/gcc/arm-none-eabi/7.3.1/../../../../arm-none-eabi/lib/thumb/v7e-m/fpv4-sp/softfp/libc_nano.a(lib_a-fflush.o)
                0x0000000008004ed0                _fflush_r
 .text.std      0x0000000008004f24       0x48 /usr/local/Cellar/gcc-arm-none-eabi/20180627/bin/../lib/gcc/arm-none-eabi/7.3.1/../../../../arm-none-eabi/lib/thumb/v7e-m/fpv4-sp/softfp/libc_nano.a(lib_a-findfp.o)
 .text._cleanup_r
                0x0000000008004f6c        0xc /usr/local/Cellar/gcc-arm-none-eabi/20180627/bin/../lib/gcc/arm-none-eabi/7.3.1/../../../../arm-none-eabi/lib/thumb/v7e-m/fpv4-sp/softfp/libc_nano.a(lib_a-findfp.o)
                0x0000000008004f6c                _cleanup_r
 .text.__sfmoreglue
                0x0000000008004f78       0x2c /usr/local/Cellar/gcc-arm-none-eabi/20180627/bin/../lib/gcc/arm-none-eabi/7.3.1/../../../../arm-none-eabi/lib/thumb/v7e-m/fpv4-sp/softfp/libc_nano.a(lib_a-findfp.o)
                0x0000000008004f78                __sfmoreglue
 .text.__sinit  0x0000000008004fa4       0x60 /usr/local/Cellar/gcc-arm-none-eabi/20180627/bin/../lib/gcc/arm-none-eabi/7.3.1/../../../../arm-none-eabi/lib/thumb/v7e-m/fpv4-sp/softfp/libc_nano.a(lib_a-findfp.o)
                0x0000000008004fa4                __sinit
 .text.__sfp    0x0000000008005004       0x78 /usr/local/Cellar/gcc-arm-none-eabi/20180627/bin/../lib/gcc/arm-none-eabi/7.3.1/../../../../arm-none-eabi/lib/thumb/v7e-m/fpv4-sp/softfp/libc_nano.a(lib_a-findfp.o)
                0x0000000008005004                __sfp
 .text._fwalk_reent
                0x000000000800507c       0x3c /usr/local/Cellar/gcc-arm-none-eabi/20180627/bin/../lib/gcc/arm-none-eabi/7.3.1/../../../../arm-none-eabi/lib/thumb/v7e-m/fpv4-sp/softfp/libc_nano.a(lib_a-fwalk.o)
                0x000000000800507c                _fwalk_reent
 .text.__swhatbuf_r
                0x00000000080050b8       0x48 /usr/local/Cellar/gcc-arm-none-eabi/20180627/bin/../lib/gcc/arm-none-eabi/7.3.1/../../../../arm-none-eabi/lib/thumb/v7e-m/fpv4-sp/softfp/libc_nano.a(lib_a-makebuf.o)
                0x00000000080050b8                __swhatbuf_r
 .text.__smakebuf_r
                0x0000000008005100       0x80 /usr/local/Cellar/gcc-arm-none-eabi/20180627/bin/../lib/gcc/arm-none-eabi/7.3.1/../../../../arm-none-eabi/lib/thumb/v7e-m/fpv4-sp/softfp/libc_nano.a(lib_a-makebuf.o)
                0x0000000008005100                __smakebuf_r
 .text._free_r  0x0000000008005180       0x9c /usr/local/Cellar/gcc-arm-none-eabi/20180627/bin/../lib/gcc/arm-none-eabi/7.3.1/../../../../arm-none-eabi/lib/thumb/v7e-m/fpv4-sp/softfp/libc_nano.a(lib_a-nano-freer.o)
                0x0000000008005180                _free_r
 .text._malloc_r
                0x000000000800521c       0xb4 /usr/local/Cellar/gcc-arm-none-eabi/20180627/bin/../lib/gcc/arm-none-eabi/7.3.1/../../../../arm-none-eabi/lib/thumb/v7e-m/fpv4-sp/softfp/libc_nano.a(lib_a-nano-mallocr.o)
                0x000000000800521c                _malloc_r
 .text._realloc_r
                0x00000000080052d0       0x4c /usr/local/Cellar/gcc-arm-none-eabi/20180627/bin/../lib/gcc/arm-none-eabi/7.3.1/../../../../arm-none-eabi/lib/thumb/v7e-m/fpv4-sp/softfp/libc_nano.a(lib_a-nano-reallocr.o)
                0x00000000080052d0                _realloc_r
 .text.__sfputc_r
                0x000000000800531c       0x2e /usr/local/Cellar/gcc-arm-none-eabi/20180627/bin/../lib/gcc/arm-none-eabi/7.3.1/../../../../arm-none-eabi/lib/thumb/v7e-m/fpv4-sp/softfp/libc_nano.a(lib_a-nano-vfprintf.o)
 .text.__sfputs_r
                0x000000000800534a       0x24 /usr/local/Cellar/gcc-arm-none-eabi/20180627/bin/../lib/gcc/arm-none-eabi/7.3.1/../../../../arm-none-eabi/lib/thumb/v7e-m/fpv4-sp/softfp/libc_nano.a(lib_a-nano-vfprintf.o)
                0x000000000800534a                __sfputs_r
 *fill*         0x000000000800536e        0x2 
 .text._vfprintf_r
                0x0000000008005370      0x22c /usr/local/Cellar/gcc-arm-none-eabi/20180627/bin/../lib/gcc/arm-none-eabi/7.3.1/../../../../arm-none-eabi/lib/thumb/v7e-m/fpv4-sp/softfp/libc_nano.a(lib_a-nano-vfprintf.o)
                0x0000000008005370                _vfiprintf_r
                0x0000000008005370                _vfprintf_r
 .text._printf_common
                0x000000000800559c       0xea /usr/local/Cellar/gcc-arm-none-eabi/20180627/bin/../lib/gcc/arm-none-eabi/7.3.1/../../../../arm-none-eabi/lib/thumb/v7e-m/fpv4-sp/softfp/libc_nano.a(lib_a-nano-vfprintf_i.o)
                0x000000000800559c                _printf_common
 *fill*         0x0000000008005686        0x2 
 .text._printf_i
                0x0000000008005688      0x224 /usr/local/Cellar/gcc-arm-none-eabi/20180627/bin/../lib/gcc/arm-none-eabi/7.3.1/../../../../arm-none-eabi/lib/thumb/v7e-m/fpv4-sp/softfp/libc_nano.a(lib_a-nano-vfprintf_i.o)
                0x0000000008005688                _printf_i
 .text._sbrk_r  0x00000000080058ac       0x20 /usr/local/Cellar/gcc-arm-none-eabi/20180627/bin/../lib/gcc/arm-none-eabi/7.3.1/../../../../arm-none-eabi/lib/thumb/v7e-m/fpv4-sp/softfp/libc_nano.a(lib_a-sbrkr.o)
                0x00000000080058ac                _sbrk_r
 .text.__sread  0x00000000080058cc       0x22 /usr/local/Cellar/gcc-arm-none-eabi/20180627/bin/../lib/gcc/arm-none-eabi/7.3.1/../../../../arm-none-eabi/lib/thumb/v7e-m/fpv4-sp/softfp/libc_nano.a(lib_a-stdio.o)
                0x00000000080058cc                __sread
 .text.__swrite
                0x00000000080058ee       0x38 /usr/local/Cellar/gcc-arm-none-eabi/20180627/bin/../lib/gcc/arm-none-eabi/7.3.1/../../../../arm-none-eabi/lib/thumb/v7e-m/fpv4-sp/softfp/libc_nano.a(lib_a-stdio.o)
                0x00000000080058ee                __swrite
 .text.__sseek  0x0000000008005926       0x24 /usr/local/Cellar/gcc-arm-none-eabi/20180627/bin/../lib/gcc/arm-none-eabi/7.3.1/../../../../arm-none-eabi/lib/thumb/v7e-m/fpv4-sp/softfp/libc_nano.a(lib_a-stdio.o)
                0x0000000008005926                __sseek
 .text.__sclose
                0x000000000800594a        0x8 /usr/local/Cellar/gcc-arm-none-eabi/20180627/bin/../lib/gcc/arm-none-eabi/7.3.1/../../../../arm-none-eabi/lib/thumb/v7e-m/fpv4-sp/softfp/libc_nano.a(lib_a-stdio.o)
                0x000000000800594a                __sclose
 *fill*         0x0000000008005952        0x2 
 .text._write_r
                0x0000000008005954       0x24 /usr/local/Cellar/gcc-arm-none-eabi/20180627/bin/../lib/gcc/arm-none-eabi/7.3.1/../../../../arm-none-eabi/lib/thumb/v7e-m/fpv4-sp/softfp/libc_nano.a(lib_a-writer.o)
                0x0000000008005954                _write_r
 .text._close_r
                0x0000000008005978       0x20 /usr/local/Cellar/gcc-arm-none-eabi/20180627/bin/../lib/gcc/arm-none-eabi/7.3.1/../../../../arm-none-eabi/lib/thumb/v7e-m/fpv4-sp/softfp/libc_nano.a(lib_a-closer.o)
                0x0000000008005978                _close_r
 .text._fstat_r
                0x0000000008005998       0x24 /usr/local/Cellar/gcc-arm-none-eabi/20180627/bin/../lib/gcc/arm-none-eabi/7.3.1/../../../../arm-none-eabi/lib/thumb/v7e-m/fpv4-sp/softfp/libc_nano.a(lib_a-fstatr.o)
                0x0000000008005998                _fstat_r
 .text._isatty_r
                0x00000000080059bc       0x20 /usr/local/Cellar/gcc-arm-none-eabi/20180627/bin/../lib/gcc/arm-none-eabi/7.3.1/../../../../arm-none-eabi/lib/thumb/v7e-m/fpv4-sp/softfp/libc_nano.a(lib_a-isattyr.o)
                0x00000000080059bc                _isatty_r
 .text._lseek_r
                0x00000000080059dc       0x24 /usr/local/Cellar/gcc-arm-none-eabi/20180627/bin/../lib/gcc/arm-none-eabi/7.3.1/../../../../arm-none-eabi/lib/thumb/v7e-m/fpv4-sp/softfp/libc_nano.a(lib_a-lseekr.o)
                0x00000000080059dc                _lseek_r
 .text.__malloc_lock
                0x0000000008005a00        0x2 /usr/local/Cellar/gcc-arm-none-eabi/20180627/bin/../lib/gcc/arm-none-eabi/7.3.1/../../../../arm-none-eabi/lib/thumb/v7e-m/fpv4-sp/softfp/libc_nano.a(lib_a-mlock.o)
                0x0000000008005a00                __malloc_lock
 .text.__malloc_unlock
                0x0000000008005a02        0x2 /usr/local/Cellar/gcc-arm-none-eabi/20180627/bin/../lib/gcc/arm-none-eabi/7.3.1/../../../../arm-none-eabi/lib/thumb/v7e-m/fpv4-sp/softfp/libc_nano.a(lib_a-mlock.o)
                0x0000000008005a02                __malloc_unlock
 .text._malloc_usable_size_r
                0x0000000008005a04       0x10 /usr/local/Cellar/gcc-arm-none-eabi/20180627/bin/../lib/gcc/arm-none-eabi/7.3.1/../../../../arm-none-eabi/lib/thumb/v7e-m/fpv4-sp/softfp/libc_nano.a(lib_a-nano-msizer.o)
                0x0000000008005a04                _malloc_usable_size_r
 .text._read_r  0x0000000008005a14       0x24 /usr/local/Cellar/gcc-arm-none-eabi/20180627/bin/../lib/gcc/arm-none-eabi/7.3.1/../../../../arm-none-eabi/lib/thumb/v7e-m/fpv4-sp/softfp/libc_nano.a(lib_a-readr.o)
                0x0000000008005a14                _read_r
 .text._close   0x0000000008005a38       0x10 /usr/local/Cellar/gcc-arm-none-eabi/20180627/bin/../lib/gcc/arm-none-eabi/7.3.1/../../../../arm-none-eabi/lib/thumb/v7e-m/fpv4-sp/softfp/libnosys.a(close.o)
                0x0000000008005a38                _close
 .text._fstat   0x0000000008005a48       0x10 /usr/local/Cellar/gcc-arm-none-eabi/20180627/bin/../lib/gcc/arm-none-eabi/7.3.1/../../../../arm-none-eabi/lib/thumb/v7e-m/fpv4-sp/softfp/libnosys.a(fstat.o)
                0x0000000008005a48                _fstat
 .text._isatty  0x0000000008005a58       0x10 /usr/local/Cellar/gcc-arm-none-eabi/20180627/bin/../lib/gcc/arm-none-eabi/7.3.1/../../../../arm-none-eabi/lib/thumb/v7e-m/fpv4-sp/softfp/libnosys.a(isatty.o)
                0x0000000008005a58                _isatty
 .text._lseek   0x0000000008005a68       0x10 /usr/local/Cellar/gcc-arm-none-eabi/20180627/bin/../lib/gcc/arm-none-eabi/7.3.1/../../../../arm-none-eabi/lib/thumb/v7e-m/fpv4-sp/softfp/libnosys.a(lseek.o)
                0x0000000008005a68                _lseek
 .text._read    0x0000000008005a78       0x10 /usr/local/Cellar/gcc-arm-none-eabi/20180627/bin/../lib/gcc/arm-none-eabi/7.3.1/../../../../arm-none-eabi/lib/thumb/v7e-m/fpv4-sp/softfp/libnosys.a(read.o)
                0x0000000008005a78                _read
 .text._sbrk    0x0000000008005a88       0x1c /usr/local/Cellar/gcc-arm-none-eabi/20180627/bin/../lib/gcc/arm-none-eabi/7.3.1/../../../../arm-none-eabi/lib/thumb/v7e-m/fpv4-sp/softfp/libnosys.a(sbrk.o)
                0x0000000008005a88                _sbrk
 .text._exit    0x0000000008005aa4        0x4 /usr/local/Cellar/gcc-arm-none-eabi/20180627/bin/../lib/gcc/arm-none-eabi/7.3.1/../../../../arm-none-eabi/lib/thumb/v7e-m/fpv4-sp/softfp/libnosys.a(_exit.o)
                0x0000000008005aa4                _exit
 .text.abort    0x0000000008005aa8        0xe /usr/local/Cellar/gcc-arm-none-eabi/20180627/bin/../lib/gcc/arm-none-eabi/7.3.1/../../../../arm-none-eabi/lib/thumb/v7e-m/fpv4-sp/softfp/libc_nano.a(lib_a-abort.o)
                0x0000000008005aa8                abort
 .text._raise_r
                0x0000000008005ab6       0x50 /usr/local/Cellar/gcc-arm-none-eabi/20180627/bin/../lib/gcc/arm-none-eabi/7.3.1/../../../../arm-none-eabi/lib/thumb/v7e-m/fpv4-sp/softfp/libc_nano.a(lib_a-signal.o)
                0x0000000008005ab6                _raise_r
 *fill*         0x0000000008005b06        0x2 
 .text.raise    0x0000000008005b08       0x10 /usr/local/Cellar/gcc-arm-none-eabi/20180627/bin/../lib/gcc/arm-none-eabi/7.3.1/../../../../arm-none-eabi/lib/thumb/v7e-m/fpv4-sp/softfp/libc_nano.a(lib_a-signal.o)
                0x0000000008005b08                raise
 .text._kill_r  0x0000000008005b18       0x24 /usr/local/Cellar/gcc-arm-none-eabi/20180627/bin/../lib/gcc/arm-none-eabi/7.3.1/../../../../arm-none-eabi/lib/thumb/v7e-m/fpv4-sp/softfp/libc_nano.a(lib_a-signalr.o)
                0x0000000008005b18                _kill_r
 .text._getpid_r
                0x0000000008005b3c        0x4 /usr/local/Cellar/gcc-arm-none-eabi/20180627/bin/../lib/gcc/arm-none-eabi/7.3.1/../../../../arm-none-eabi/lib/thumb/v7e-m/fpv4-sp/softfp/libc_nano.a(lib_a-signalr.o)
                0x0000000008005b3c                _getpid_r
 .text._getpid  0x0000000008005b40       0x10 /usr/local/Cellar/gcc-arm-none-eabi/20180627/bin/../lib/gcc/arm-none-eabi/7.3.1/../../../../arm-none-eabi/lib/thumb/v7e-m/fpv4-sp/softfp/libnosys.a(getpid.o)
                0x0000000008005b40                _getpid
 .text._kill    0x0000000008005b50       0x10 /usr/local/Cellar/gcc-arm-none-eabi/20180627/bin/../lib/gcc/arm-none-eabi/7.3.1/../../../../arm-none-eabi/lib/thumb/v7e-m/fpv4-sp/softfp/libnosys.a(kill.o)
                0x0000000008005b50                _kill
 *(.rodata)
 .rodata        0x0000000008005b60       0x14 build/spin_task.o
 *(.rodata*)
 .rodata.prvCheckForValidListAndQueue.str1.4
                0x0000000008005b74        0x5 build/timers.o
 *fill*         0x0000000008005b79        0x3 
 .rodata.xTimerCreateTimerTask.str1.4
                0x0000000008005b7c        0x8 build/timers.o
 .rodata.vTaskStartScheduler.str1.4
                0x0000000008005b84        0x5 build/tasks.o
 *fill*         0x0000000008005b89        0x3 
 .rodata.HardFault_Handler.str1.4
                0x0000000008005b8c       0x2a build/at32f4xx_it.o
 *fill*         0x0000000008005bb6        0x2 
 .rodata._ZTVN8std_msgs4TimeE
                0x0000000008005bb8       0x18 build/main.o
                0x0000000008005bb8                vtable for std_msgs::Time
 .rodata._ZTVN14rosserial_msgs9TopicInfoE
                0x0000000008005bd0       0x18 build/main.o
                0x0000000008005bd0                vtable for rosserial_msgs::TopicInfo
 .rodata._ZTVN14rosserial_msgs3LogE
                0x0000000008005be8       0x18 build/main.o
                0x0000000008005be8                vtable for rosserial_msgs::Log
 .rodata._ZTVN14rosserial_msgs20RequestParamResponseE
                0x0000000008005c00       0x18 build/main.o
                0x0000000008005c00                vtable for rosserial_msgs::RequestParamResponse
 .rodata._ZTVN3ros11NodeHandle_I13STM32HardwareLi5ELi5ELi512ELi512EEE
                0x0000000008005c18       0x14 build/main.o
                0x0000000008005c18                vtable for ros::NodeHandle_<STM32Hardware, 5, 5, 512, 512>
 .rodata._ZL12AppObjCreatev.str1.4
                0x0000000008005c2c       0x23 build/main.o
 *fill*         0x0000000008005c4f        0x1 
 .rodata._ZN14rosserial_msgs20RequestParamResponse6getMD5Ev.str1.4
                0x0000000008005c50       0x21 build/main.o
 *fill*         0x0000000008005c71        0x3 
 .rodata._ZN14rosserial_msgs3Log6getMD5Ev.str1.4
                0x0000000008005c74       0x21 build/main.o
 *fill*         0x0000000008005c95        0x3 
 .rodata._ZN14rosserial_msgs3Log7getTypeEv.str1.4
                0x0000000008005c98       0x13 build/main.o
 *fill*         0x0000000008005cab        0x1 
 .rodata._ZN14rosserial_msgs9TopicInfo6getMD5Ev.str1.4
                0x0000000008005cac       0x21 build/main.o
 *fill*         0x0000000008005ccd        0x3 
 .rodata._ZN14rosserial_msgs9TopicInfo7getTypeEv.str1.4
                0x0000000008005cd0       0x19 build/main.o
 *fill*         0x0000000008005ce9        0x3 
 .rodata._ZN14rosserial_msgsL12REQUESTPARAME
                0x0000000008005cec       0x1c build/main.o
 .rodata._ZN3ros11NodeHandle_I13STM32HardwareLi5ELi5ELi512ELi512EE7publishEiPKNS_3MsgE.str1.4
                0x0000000008005d08       0x39 build/main.o
 *fill*         0x0000000008005d41        0x3 
 .rodata._ZN3ros11NodeHandle_I13STM32HardwareLi5ELi5ELi512ELi512EE8spinOnceEv.str1.4
                0x0000000008005d44       0x24 build/main.o
 .rodata._ZN8std_msgs4Time6getMD5Ev.str1.4
                0x0000000008005d68       0x21 build/main.o
 *fill*         0x0000000008005d89        0x3 
 .rodata._ZN8std_msgs4Time7getTypeEv.str1.4
                0x0000000008005d8c        0xe build/main.o
 *fill*         0x0000000008005d9a        0x2 
 .rodata.main.str1.4
                0x0000000008005d9c        0xa build/main.o
 *fill*         0x0000000008005da6        0x2 
 .rodata.vApplicationStackOverflowHook.str1.4
                0x0000000008005da8       0x1d build/main.o
 *fill*         0x0000000008005dc5        0x3 
 .rodata._Z19ROS_SpinTaskHandlerPKv.str1.4
                0x0000000008005dc8       0x13 build/spin_task.o
                                         0x38 (size before relaxing)
 *fill*         0x0000000008005ddb        0x1 
 .rodata.str1.4
                0x0000000008005ddc        0xd build/spin_task.o
 *fill*         0x0000000008005de9        0x3 
 .rodata._ZTVN8std_msgs6UInt16E
                0x0000000008005dec       0x18 build/subscribe_task.o
                0x0000000008005dec                vtable for std_msgs::UInt16
 .rodata._ZTVN3ros10SubscriberIN8std_msgs6UInt16EvEE
                0x0000000008005e04       0x18 build/subscribe_task.o
                0x0000000008005e04                vtable for ros::Subscriber<std_msgs::UInt16, void>
 .rodata._Z41__static_initialization_and_destruction_0ii.str1.4
                0x0000000008005e1c        0x4 build/subscribe_task.o
 .rodata._ZN8std_msgs6UInt166getMD5Ev.str1.4
                0x0000000008005e20       0x21 build/subscribe_task.o
 *fill*         0x0000000008005e41        0x3 
 .rodata._ZN8std_msgs6UInt167getTypeEv.str1.4
                0x0000000008005e44       0x10 build/subscribe_task.o
 .rodata._global_impure_ptr
                0x0000000008005e54        0x4 /usr/local/Cellar/gcc-arm-none-eabi/20180627/bin/../lib/gcc/arm-none-eabi/7.3.1/../../../../arm-none-eabi/lib/thumb/v7e-m/fpv4-sp/softfp/libc_nano.a(lib_a-impure.o)
                0x0000000008005e54                _global_impure_ptr
 .rodata.__sf_fake_stderr
                0x0000000008005e58       0x20 /usr/local/Cellar/gcc-arm-none-eabi/20180627/bin/../lib/gcc/arm-none-eabi/7.3.1/../../../../arm-none-eabi/lib/thumb/v7e-m/fpv4-sp/softfp/libc_nano.a(lib_a-findfp.o)
                0x0000000008005e58                __sf_fake_stderr
 .rodata.__sf_fake_stdin
                0x0000000008005e78       0x20 /usr/local/Cellar/gcc-arm-none-eabi/20180627/bin/../lib/gcc/arm-none-eabi/7.3.1/../../../../arm-none-eabi/lib/thumb/v7e-m/fpv4-sp/softfp/libc_nano.a(lib_a-findfp.o)
                0x0000000008005e78                __sf_fake_stdin
 .rodata.__sf_fake_stdout
                0x0000000008005e98       0x20 /usr/local/Cellar/gcc-arm-none-eabi/20180627/bin/../lib/gcc/arm-none-eabi/7.3.1/../../../../arm-none-eabi/lib/thumb/v7e-m/fpv4-sp/softfp/libc_nano.a(lib_a-findfp.o)
                0x0000000008005e98                __sf_fake_stdout
 .rodata._vfprintf_r.str1.1
                0x0000000008005eb8       0x11 /usr/local/Cellar/gcc-arm-none-eabi/20180627/bin/../lib/gcc/arm-none-eabi/7.3.1/../../../../arm-none-eabi/lib/thumb/v7e-m/fpv4-sp/softfp/libc_nano.a(lib_a-nano-vfprintf.o)
 .rodata._printf_i.str1.1
                0x0000000008005ec9       0x22 /usr/local/Cellar/gcc-arm-none-eabi/20180627/bin/../lib/gcc/arm-none-eabi/7.3.1/../../../../arm-none-eabi/lib/thumb/v7e-m/fpv4-sp/softfp/libc_nano.a(lib_a-nano-vfprintf_i.o)
 *(.glue_7)
 .glue_7        0x0000000008005eeb        0x0 linker stubs
 *(.glue_7t)
 .glue_7t       0x0000000008005eeb        0x0 linker stubs
 *(.eh_frame)
 *fill*         0x0000000008005eeb        0x1 
 .eh_frame      0x0000000008005eec        0x0 /usr/local/Cellar/gcc-arm-none-eabi/20180627/bin/../lib/gcc/arm-none-eabi/7.3.1/thumb/v7e-m/fpv4-sp/softfp/crtbegin.o
 *(.init)
 .init          0x0000000008005eec        0x4 /usr/local/Cellar/gcc-arm-none-eabi/20180627/bin/../lib/gcc/arm-none-eabi/7.3.1/thumb/v7e-m/fpv4-sp/softfp/crti.o
                0x0000000008005eec                _init
 .init          0x0000000008005ef0        0x8 /usr/local/Cellar/gcc-arm-none-eabi/20180627/bin/../lib/gcc/arm-none-eabi/7.3.1/thumb/v7e-m/fpv4-sp/softfp/crtn.o
 *(.fini)
 .fini          0x0000000008005ef8        0x4 /usr/local/Cellar/gcc-arm-none-eabi/20180627/bin/../lib/gcc/arm-none-eabi/7.3.1/thumb/v7e-m/fpv4-sp/softfp/crti.o
                0x0000000008005ef8                _fini
 .fini          0x0000000008005efc        0x8 /usr/local/Cellar/gcc-arm-none-eabi/20180627/bin/../lib/gcc/arm-none-eabi/7.3.1/thumb/v7e-m/fpv4-sp/softfp/crtn.o
                0x0000000008005f04                . = ALIGN (0x4)
                0x0000000008005f04                _etext = .

.vfp11_veneer   0x0000000008005f04        0x0
 .vfp11_veneer  0x0000000008005f04        0x0 linker stubs

.v4_bx          0x0000000008005f04        0x0
 .v4_bx         0x0000000008005f04        0x0 linker stubs

.iplt           0x0000000008005f04        0x0
 .iplt          0x0000000008005f04        0x0 /usr/local/Cellar/gcc-arm-none-eabi/20180627/bin/../lib/gcc/arm-none-eabi/7.3.1/thumb/v7e-m/fpv4-sp/softfp/crtbegin.o

.ARM.extab      0x0000000008005f04       0x48
 *(.ARM.extab* .gnu.linkonce.armextab.*)
 .ARM.extab.text._ZNK8std_msgs4Time9serializeEPh
                0x0000000008005f04        0x0 build/main.o
 .ARM.extab.text._ZN8std_msgs4Time11deserializeEPh
                0x0000000008005f04        0x0 build/main.o
 .ARM.extab.text._ZN8std_msgs4Time7getTypeEv
                0x0000000008005f04        0x0 build/main.o
 .ARM.extab.text._ZN8std_msgs4Time6getMD5Ev
                0x0000000008005f04        0x0 build/main.o
 .ARM.extab.text._ZN14rosserial_msgs9TopicInfo11deserializeEPh
                0x0000000008005f04        0x0 build/main.o
 .ARM.extab.text._ZN14rosserial_msgs9TopicInfo7getTypeEv
                0x0000000008005f04        0x0 build/main.o
 .ARM.extab.text._ZN14rosserial_msgs9TopicInfo6getMD5Ev
                0x0000000008005f04        0x0 build/main.o
 .ARM.extab.text._ZN14rosserial_msgs3Log11deserializeEPh
                0x0000000008005f04        0x0 build/main.o
 .ARM.extab.text._ZN14rosserial_msgs3Log7getTypeEv
                0x0000000008005f04        0x0 build/main.o
 .ARM.extab.text._ZN14rosserial_msgs3Log6getMD5Ev
                0x0000000008005f04        0x0 build/main.o
 .ARM.extab.text._ZN14rosserial_msgs20RequestParamResponse7getTypeEv
                0x0000000008005f04        0x0 build/main.o
 .ARM.extab.text._ZN14rosserial_msgs20RequestParamResponse6getMD5Ev
                0x0000000008005f04        0x0 build/main.o
 .ARM.extab.text._ZN3ros11NodeHandle_I13STM32HardwareLi5ELi5ELi512ELi512EE9connectedEv
                0x0000000008005f04        0x0 build/main.o
 .ARM.extab.text._ZL12AppObjCreatev
                0x0000000008005f04        0xc build/main.o
 .ARM.extab.text._ZNK14rosserial_msgs9TopicInfo9serializeEPh
                0x0000000008005f10        0x0 build/main.o
 .ARM.extab.text._ZNK14rosserial_msgs3Log9serializeEPh
                0x0000000008005f10        0x0 build/main.o
 .ARM.extab.text._ZNK14rosserial_msgs20RequestParamResponse9serializeEPh
                0x0000000008005f10        0x0 build/main.o
 .ARM.extab.text._ZN14rosserial_msgs20RequestParamResponse11deserializeEPh
                0x0000000008005f10        0x0 build/main.o
 .ARM.extab.text._ZN3ros11NodeHandle_I13STM32HardwareLi5ELi5ELi512ELi512EE7publishEiPKNS_3MsgE
                0x0000000008005f10        0x0 build/main.o
 .ARM.extab.text.vApplicationStackOverflowHook
                0x0000000008005f10        0xc build/main.o
 .ARM.extab.text._ZN3ros11NodeHandle_I13STM32HardwareLi5ELi5ELi512ELi512EE15negotiateTopicsEv
                0x0000000008005f1c        0x0 build/main.o
 .ARM.extab.text._ZN3ros11NodeHandle_I13STM32HardwareLi5ELi5ELi512ELi512EE8spinOnceEv
                0x0000000008005f1c        0x0 build/main.o
 .ARM.extab.text._ZNK8std_msgs6UInt169serializeEPh
                0x0000000008005f1c        0x0 build/subscribe_task.o
 .ARM.extab.text._ZN8std_msgs6UInt1611deserializeEPh
                0x0000000008005f1c        0x0 build/subscribe_task.o
 .ARM.extab.text._ZN8std_msgs6UInt167getTypeEv
                0x0000000008005f1c        0x0 build/subscribe_task.o
 .ARM.extab.text._ZN8std_msgs6UInt166getMD5Ev
                0x0000000008005f1c        0x0 build/subscribe_task.o
 .ARM.extab.text._ZN3ros10SubscriberIN8std_msgs6UInt16EvE8callbackEPh
                0x0000000008005f1c        0xc build/subscribe_task.o
 .ARM.extab.text._ZN3ros10SubscriberIN8std_msgs6UInt16EvE15getEndpointTypeEv
                0x0000000008005f28        0x0 build/subscribe_task.o
 .ARM.extab.text._ZN3ros10SubscriberIN8std_msgs6UInt16EvE10getMsgTypeEv
                0x0000000008005f28        0x0 build/subscribe_task.o
 .ARM.extab.text._ZN3ros10SubscriberIN8std_msgs6UInt16EvE9getMsgMD5Ev
                0x0000000008005f28        0x0 build/subscribe_task.o
 .ARM.extab.text._Z6led_cbRKN8std_msgs6UInt16E
                0x0000000008005f28        0xc build/subscribe_task.o
 .ARM.extab     0x0000000008005f34       0x18 /usr/local/Cellar/gcc-arm-none-eabi/20180627/bin/../lib/gcc/arm-none-eabi/7.3.1/thumb/v7e-m/fpv4-sp/softfp/libgcc.a(pr-support.o)

.ARM            0x0000000008005f4c      0x138
                0x0000000008005f4c                __exidx_start = .
 *(.ARM.exidx*)
 .ARM.exidx.text._ZNK8std_msgs4Time9serializeEPh
                0x0000000008006004        0x0 build/main.o
                                          0x8 (size before relaxing)
 .ARM.exidx.text._ZN8std_msgs4Time11deserializeEPh
                0x0000000008006004        0x0 build/main.o
                                          0x8 (size before relaxing)
 .ARM.exidx.text._ZN8std_msgs4Time7getTypeEv
                0x0000000008006004        0x0 build/main.o
                                          0x8 (size before relaxing)
 .ARM.exidx.text._ZN8std_msgs4Time6getMD5Ev
                0x0000000008006004        0x0 build/main.o
                                          0x8 (size before relaxing)
 .ARM.exidx.text._ZN14rosserial_msgs9TopicInfo11deserializeEPh
                0x0000000008006004        0x0 build/main.o
                                          0x8 (size before relaxing)
 .ARM.exidx.text._ZN14rosserial_msgs9TopicInfo7getTypeEv
                0x0000000008006004        0x0 build/main.o
                                          0x8 (size before relaxing)
 .ARM.exidx.text._ZN14rosserial_msgs9TopicInfo6getMD5Ev
                0x0000000008006004        0x0 build/main.o
                                          0x8 (size before relaxing)
 .ARM.exidx.text._ZN14rosserial_msgs3Log11deserializeEPh
                0x0000000008006004        0x0 build/main.o
                                          0x8 (size before relaxing)
 .ARM.exidx.text._ZN14rosserial_msgs3Log7getTypeEv
                0x0000000008006004        0x0 build/main.o
                                          0x8 (size before relaxing)
 .ARM.exidx.text._ZN14rosserial_msgs3Log6getMD5Ev
                0x0000000008006004        0x0 build/main.o
                                          0x8 (size before relaxing)
 .ARM.exidx.text._ZN14rosserial_msgs20RequestParamResponse7getTypeEv
                0x0000000008006004        0x0 build/main.o
                                          0x8 (size before relaxing)
 .ARM.exidx.text._ZN14rosserial_msgs20RequestParamResponse6getMD5Ev
                0x0000000008006004        0x0 build/main.o
                                          0x8 (size before relaxing)
 .ARM.exidx.text._Z41__static_initialization_and_destruction_0ii
                0x0000000008006004        0x0 build/main.o
                                          0x8 (size before relaxing)
 .ARM.exidx.text._ZN3ros11NodeHandle_I13STM32HardwareLi5ELi5ELi512ELi512EE9connectedEv
                0x0000000008006004        0x0 build/main.o
                                          0x8 (size before relaxing)
 .ARM.exidx.text._ZL12AppObjCreatev
                0x0000000008006004        0x8 build/main.o
 .ARM.exidx.text._ZNK14rosserial_msgs9TopicInfo9serializeEPh
                0x000000000800600c        0x8 build/main.o
 .ARM.exidx.text._ZNK14rosserial_msgs3Log9serializeEPh
                0x0000000008006014        0x0 build/main.o
                                          0x8 (size before relaxing)
 .ARM.exidx.text._ZNK14rosserial_msgs20RequestParamResponse9serializeEPh
                0x0000000008006014        0x0 build/main.o
                                          0x8 (size before relaxing)
 .ARM.exidx.text._ZN14rosserial_msgs20RequestParamResponse11deserializeEPh
                0x0000000008006014        0x0 build/main.o
                                          0x8 (size before relaxing)
 .ARM.exidx.text._ZN3ros11NodeHandle_I13STM32HardwareLi5ELi5ELi512ELi512EE7publishEiPKNS_3MsgE
                0x0000000008006014        0x8 build/main.o
 .ARM.exidx.text.main
                0x000000000800601c        0x8 build/main.o
 .ARM.exidx.text.vApplicationMallocFailedHook
                0x0000000008006024        0x8 build/main.o
 .ARM.exidx.text.vApplicationStackOverflowHook
                0x000000000800602c        0x8 build/main.o
 .ARM.exidx.text._ZN3ros11NodeHandle_I13STM32HardwareLi5ELi5ELi512ELi512EE15negotiateTopicsEv
                0x0000000008006034        0x8 build/main.o
 .ARM.exidx.text._ZN3ros11NodeHandle_I13STM32HardwareLi5ELi5ELi512ELi512EE8spinOnceEv
                0x000000000800603c        0x8 build/main.o
 .ARM.exidx.text._GLOBAL__sub_I_nh
                0x0000000008006044        0x8 build/main.o
 .ARM.exidx.text._Z19ROS_SpinTaskHandlerPKv
                0x000000000800604c        0x8 build/spin_task.o
 .ARM.exidx.text._Z15rosSpinTaskInitPN3ros11NodeHandle_I13STM32HardwareLi5ELi5ELi512ELi512EEE
                0x0000000008006054        0x8 build/spin_task.o
 .ARM.exidx.text._ZNK8std_msgs6UInt169serializeEPh
                0x000000000800605c        0x8 build/subscribe_task.o
 .ARM.exidx.text._ZN8std_msgs6UInt1611deserializeEPh
                0x0000000008006064        0x0 build/subscribe_task.o
                                          0x8 (size before relaxing)
 .ARM.exidx.text._ZN8std_msgs6UInt167getTypeEv
                0x0000000008006064        0x0 build/subscribe_task.o
                                          0x8 (size before relaxing)
 .ARM.exidx.text._ZN8std_msgs6UInt166getMD5Ev
                0x0000000008006064        0x0 build/subscribe_task.o
                                          0x8 (size before relaxing)
 .ARM.exidx.text._Z41__static_initialization_and_destruction_0ii
                0x0000000008006064        0x0 build/subscribe_task.o
                                          0x8 (size before relaxing)
 .ARM.exidx.text._ZN3ros10SubscriberIN8std_msgs6UInt16EvE8callbackEPh
                0x0000000008006064        0x8 build/subscribe_task.o
 .ARM.exidx.text._ZN3ros10SubscriberIN8std_msgs6UInt16EvE15getEndpointTypeEv
                0x000000000800606c        0x8 build/subscribe_task.o
 .ARM.exidx.text._ZN3ros10SubscriberIN8std_msgs6UInt16EvE10getMsgTypeEv
                0x0000000008006074        0x0 build/subscribe_task.o
                                          0x8 (size before relaxing)
 .ARM.exidx.text._ZN3ros10SubscriberIN8std_msgs6UInt16EvE9getMsgMD5Ev
                0x0000000008006074        0x0 build/subscribe_task.o
                                          0x8 (size before relaxing)
 .ARM.exidx.text._Z6led_cbRKN8std_msgs6UInt16E
                0x0000000008006074        0x8 build/subscribe_task.o
 .ARM.exidx.text._GLOBAL__sub_I_sub_led
                0x000000000800607c        0x8 build/subscribe_task.o
 .ARM.exidx.text._ZN3ros16normalizeSecNSecERmS0_
                0x0000000008006084        0x0 build/time.o
                                          0x8 (size before relaxing)
 .ARM.exidx     0x0000000008005f4c       0x80 /usr/local/Cellar/gcc-arm-none-eabi/20180627/bin/../lib/gcc/arm-none-eabi/7.3.1/thumb/v7e-m/fpv4-sp/softfp/libgcc.a(unwind-arm.o)
                                         0xd8 (size before relaxing)
 .ARM.exidx     0x0000000008005fcc       0x38 /usr/local/Cellar/gcc-arm-none-eabi/20180627/bin/../lib/gcc/arm-none-eabi/7.3.1/thumb/v7e-m/fpv4-sp/softfp/libgcc.a(pr-support.o)
                                         0x48 (size before relaxing)
                0x0000000008006084                __exidx_end = .

.rel.dyn        0x0000000008006084        0x0
 .rel.iplt      0x0000000008006084        0x0 /usr/local/Cellar/gcc-arm-none-eabi/20180627/bin/../lib/gcc/arm-none-eabi/7.3.1/thumb/v7e-m/fpv4-sp/softfp/crtbegin.o

.preinit_array  0x0000000008006084        0x0
                0x0000000008006084                PROVIDE (__preinit_array_start = .)
 *(.preinit_array*)
                0x0000000008006084                PROVIDE (__preinit_array_end = .)

.init_array     0x0000000008006084        0xc
                0x0000000008006084                PROVIDE (__init_array_start = .)
 *(SORT_BY_NAME(.init_array.*))
 *(.init_array*)
 .init_array    0x0000000008006084        0x4 /usr/local/Cellar/gcc-arm-none-eabi/20180627/bin/../lib/gcc/arm-none-eabi/7.3.1/thumb/v7e-m/fpv4-sp/softfp/crtbegin.o
 .init_array    0x0000000008006088        0x4 build/main.o
 .init_array    0x000000000800608c        0x4 build/subscribe_task.o
                0x0000000008006090                PROVIDE (__init_array_end = .)

.fini_array     0x0000000008006090        0x4
                [!provide]                        PROVIDE (__fini_array_start = .)
 *(.fini_array*)
 .fini_array    0x0000000008006090        0x4 /usr/local/Cellar/gcc-arm-none-eabi/20180627/bin/../lib/gcc/arm-none-eabi/7.3.1/thumb/v7e-m/fpv4-sp/softfp/crtbegin.o
 *(SORT_BY_NAME(.fini_array.*))
                [!provide]                        PROVIDE (__fini_array_end = .)
                0x0000000008006094                _sidata = .

.data           0x0000000020000000       0x7c load address 0x0000000008006094
                0x0000000020000000                . = ALIGN (0x4)
                0x0000000020000000                _sdata = .
 *(.data)
 *(.data*)
 .data.SystemCoreClock
                0x0000000020000000        0x4 build/system_at32f4xx.o
                0x0000000020000000                SystemCoreClock
 .data.ADCPscTable
                0x0000000020000004        0x8 build/at32f4xx_rcc.o
 .data.APBAHBPscTable
                0x000000002000000c        0x8 build/at32f4xx_rcc.o
 .data.uxCriticalNesting
                0x0000000020000014        0x4 build/port.o
 .data._impure_ptr
                0x0000000020000018        0x4 /usr/local/Cellar/gcc-arm-none-eabi/20180627/bin/../lib/gcc/arm-none-eabi/7.3.1/../../../../arm-none-eabi/lib/thumb/v7e-m/fpv4-sp/softfp/libc_nano.a(lib_a-impure.o)
                0x0000000020000018                _impure_ptr
 .data.impure_data
                0x000000002000001c       0x60 /usr/local/Cellar/gcc-arm-none-eabi/20180627/bin/../lib/gcc/arm-none-eabi/7.3.1/../../../../arm-none-eabi/lib/thumb/v7e-m/fpv4-sp/softfp/libc_nano.a(lib_a-impure.o)
                0x000000002000007c                . = ALIGN (0x4)
                0x000000002000007c                _edata = .

.igot.plt       0x000000002000007c        0x0 load address 0x0000000008006110
 .igot.plt      0x000000002000007c        0x0 /usr/local/Cellar/gcc-arm-none-eabi/20180627/bin/../lib/gcc/arm-none-eabi/7.3.1/thumb/v7e-m/fpv4-sp/softfp/crtbegin.o
                0x000000002000007c                . = ALIGN (0x4)

.bss            0x000000002000007c     0x6748 load address 0x0000000008006110
                0x000000002000007c                _sbss = .
                0x000000002000007c                __bss_start__ = _sbss
 *(.bss)
 .bss           0x000000002000007c       0x1c /usr/local/Cellar/gcc-arm-none-eabi/20180627/bin/../lib/gcc/arm-none-eabi/7.3.1/thumb/v7e-m/fpv4-sp/softfp/crtbegin.o
 *(.bss*)
 .bss.ucMaxSysCallPriority
                0x0000000020000098        0x1 build/port.o
 *fill*         0x0000000020000099        0x3 
 .bss.ulMaxPRIGROUPValue
                0x000000002000009c        0x4 build/port.o
 .bss.pxEnd     0x00000000200000a0        0x4 build/heap_4.o
 .bss.ucHeap    0x00000000200000a4     0x5000 build/heap_4.o
 .bss.xBlockAllocatedBit
                0x00000000200050a4        0x4 build/heap_4.o
 .bss.xFreeBytesRemaining
                0x00000000200050a8        0x4 build/heap_4.o
 .bss.xMinimumEverFreeBytesRemaining
                0x00000000200050ac        0x4 build/heap_4.o
 .bss.xStart    0x00000000200050b0        0x8 build/heap_4.o
 .bss.pxCurrentTimerList
                0x00000000200050b8        0x4 build/timers.o
 .bss.pxOverflowTimerList
                0x00000000200050bc        0x4 build/timers.o
 .bss.xActiveTimerList1
                0x00000000200050c0       0x14 build/timers.o
 .bss.xActiveTimerList2
                0x00000000200050d4       0x14 build/timers.o
 .bss.xLastTime.9537
                0x00000000200050e8        0x4 build/timers.o
 .bss.xTimerQueue
                0x00000000200050ec        0x4 build/timers.o
 .bss.xTimerTaskHandle
                0x00000000200050f0        0x4 build/timers.o
 .bss.pxCurrentTCB
                0x00000000200050f4        0x4 build/tasks.o
                0x00000000200050f4                pxCurrentTCB
 .bss.pxDelayedTaskList
                0x00000000200050f8        0x4 build/tasks.o
 .bss.pxOverflowDelayedTaskList
                0x00000000200050fc        0x4 build/tasks.o
 .bss.pxReadyTasksLists
                0x0000000020005100       0xc8 build/tasks.o
 .bss.ulTaskSwitchedInTime
                0x00000000200051c8        0x4 build/tasks.o
 .bss.uxCurrentNumberOfTasks
                0x00000000200051cc        0x4 build/tasks.o
 .bss.uxDeletedTasksWaitingCleanUp
                0x00000000200051d0        0x4 build/tasks.o
 .bss.uxPendedTicks
                0x00000000200051d4        0x4 build/tasks.o
 .bss.uxSchedulerSuspended
                0x00000000200051d8        0x4 build/tasks.o
 .bss.uxTaskNumber
                0x00000000200051dc        0x4 build/tasks.o
 .bss.uxTopReadyPriority
                0x00000000200051e0        0x4 build/tasks.o
 .bss.xDelayedTaskList1
                0x00000000200051e4       0x14 build/tasks.o
 .bss.xDelayedTaskList2
                0x00000000200051f8       0x14 build/tasks.o
 .bss.xIdleTaskHandle
                0x000000002000520c        0x4 build/tasks.o
 .bss.xNextTaskUnblockTime
                0x0000000020005210        0x4 build/tasks.o
 .bss.xNumOfOverflows
                0x0000000020005214        0x4 build/tasks.o
 .bss.xPendingReadyList
                0x0000000020005218       0x14 build/tasks.o
 .bss.xSchedulerRunning
                0x000000002000522c        0x4 build/tasks.o
 .bss.xSuspendedTaskList
                0x0000000020005230       0x14 build/tasks.o
 .bss.xTasksWaitingTermination
                0x0000000020005244       0x14 build/tasks.o
 .bss.xTickCount
                0x0000000020005258        0x4 build/tasks.o
 .bss.xYieldPending
                0x000000002000525c        0x4 build/tasks.o
 .bss.s_tBtn    0x0000000020005260       0x10 build/bsp_key.o
 .bss.s_tKey    0x0000000020005270        0xd build/bsp_key.o
 *fill*         0x000000002000527d        0x3 
 .bss.s_TMR_CallBack1
                0x0000000020005280        0x4 build/bsp_timer.o
 .bss.s_TMR_CallBack2
                0x0000000020005284        0x4 build/bsp_timer.o
 .bss.s_TMR_CallBack3
                0x0000000020005288        0x4 build/bsp_timer.o
 .bss.s_TMR_CallBack4
                0x000000002000528c        0x4 build/bsp_timer.o
 .bss.g_RxBuf1  0x0000000020005290      0x800 build/bsp_uart_fifo.o
 .bss.g_TxBuf1  0x0000000020005a90      0x800 build/bsp_uart_fifo.o
 .bss.g_tUart1  0x0000000020006290       0x28 build/bsp_uart_fifo.o
 .bss.ulHighFrequencyTimerTicks
                0x00000000200062b8        0x4 build/TimerForRunTimeState.o
                0x00000000200062b8                ulHighFrequencyTimerTicks
 .bss._ZL17xHandleMutexPrint
                0x00000000200062bc        0x4 build/main.o
 .bss.nh        0x00000000200062c0      0x490 build/main.o
                0x00000000200062c0                nh
 .bss._ZL3nh_   0x0000000020006750        0x4 build/spin_task.o
 .bss.sub_led   0x0000000020006754       0x1c build/subscribe_task.o
                0x0000000020006754                sub_led
 .bss.subscribeQueueHandle
                0x0000000020006770        0x4 build/subscribe_task.o
                0x0000000020006770                subscribeQueueHandle
 .bss.__malloc_free_list
                0x0000000020006774        0x4 /usr/local/Cellar/gcc-arm-none-eabi/20180627/bin/../lib/gcc/arm-none-eabi/7.3.1/../../../../arm-none-eabi/lib/thumb/v7e-m/fpv4-sp/softfp/libc_nano.a(lib_a-nano-mallocr.o)
                0x0000000020006774                __malloc_free_list
 .bss.__malloc_sbrk_start
                0x0000000020006778        0x4 /usr/local/Cellar/gcc-arm-none-eabi/20180627/bin/../lib/gcc/arm-none-eabi/7.3.1/../../../../arm-none-eabi/lib/thumb/v7e-m/fpv4-sp/softfp/libc_nano.a(lib_a-nano-mallocr.o)
                0x0000000020006778                __malloc_sbrk_start
 .bss.heap_end.5377
                0x000000002000677c        0x4 /usr/local/Cellar/gcc-arm-none-eabi/20180627/bin/../lib/gcc/arm-none-eabi/7.3.1/../../../../arm-none-eabi/lib/thumb/v7e-m/fpv4-sp/softfp/libnosys.a(sbrk.o)
 *(COMMON)
 COMMON         0x0000000020006780       0x40 build/queue.o
                0x0000000020006780                xQueueRegistry
 COMMON         0x00000000200067c0        0x4 /usr/local/Cellar/gcc-arm-none-eabi/20180627/bin/../lib/gcc/arm-none-eabi/7.3.1/../../../../arm-none-eabi/lib/thumb/v7e-m/fpv4-sp/softfp/libc_nano.a(lib_a-reent.o)
                0x00000000200067c0                errno
                0x00000000200067c4                . = ALIGN (0x4)
                0x00000000200067c4                _ebss = .
                0x00000000200067c4                __bss_end__ = _ebss

._user_heap_stack
                0x00000000200067c4      0x400 load address 0x000000000800c858
                0x00000000200067c4                . = ALIGN (0x4)
                0x00000000200067c4                PROVIDE (end = .)
                [!provide]                        PROVIDE (_end = .)
                0x00000000200067c4                . = (. + _Min_Heap_Size)
                0x0000000020006bc4                . = (. + _Min_Stack_Size)
 *fill*         0x00000000200067c4      0x400 
                0x0000000020006bc4                . = ALIGN (0x4)

/DISCARD/
 libc.a(*)
 libm.a(*)
 libgcc.a(*)

.ARM.attributes
                0x0000000000000000       0x2e
 *(.ARM.attributes)
 .ARM.attributes
                0x0000000000000000       0x22 /usr/local/Cellar/gcc-arm-none-eabi/20180627/bin/../lib/gcc/arm-none-eabi/7.3.1/thumb/v7e-m/fpv4-sp/softfp/crti.o
 .ARM.attributes
                0x0000000000000022       0x32 /usr/local/Cellar/gcc-arm-none-eabi/20180627/bin/../lib/gcc/arm-none-eabi/7.3.1/thumb/v7e-m/fpv4-sp/softfp/crtbegin.o
 .ARM.attributes
                0x0000000000000054       0x37 build/at32_hoverboard.o
 .ARM.attributes
                0x000000000000008b       0x37 build/system_at32f4xx.o
 .ARM.attributes
                0x00000000000000c2       0x37 build/at32f4xx_gpio.o
 .ARM.attributes
                0x00000000000000f9       0x37 build/at32f4xx_rcc.o
 .ARM.attributes
                0x0000000000000130       0x37 build/at32f4xx_tim.o
 .ARM.attributes
                0x0000000000000167       0x37 build/at32f4xx_usart.o
 .ARM.attributes
                0x000000000000019e       0x37 build/misc.o
 .ARM.attributes
                0x00000000000001d5       0x37 build/list.o
 .ARM.attributes
                0x000000000000020c       0x37 build/port.o
 .ARM.attributes
                0x0000000000000243       0x37 build/heap_4.o
 .ARM.attributes
                0x000000000000027a       0x37 build/queue.o
 .ARM.attributes
                0x00000000000002b1       0x37 build/cmsis_os.o
 .ARM.attributes
                0x00000000000002e8       0x37 build/timers.o
 .ARM.attributes
                0x000000000000031f       0x37 build/tasks.o
 .ARM.attributes
                0x0000000000000356       0x37 build/bsp_key.o
 .ARM.attributes
                0x000000000000038d       0x37 build/bsp_led.o
 .ARM.attributes
                0x00000000000003c4       0x37 build/bsp_timer.o
 .ARM.attributes
                0x00000000000003fb       0x37 build/bsp_uart_fifo.o
 .ARM.attributes
                0x0000000000000432       0x37 build/bsp.o
 .ARM.attributes
                0x0000000000000469       0x37 build/at32f4xx_it.o
 .ARM.attributes
                0x00000000000004a0       0x37 build/TimerForRunTimeState.o
 .ARM.attributes
                0x00000000000004d7       0x37 build/main.o
 .ARM.attributes
                0x000000000000050e       0x37 build/spin_task.o
 .ARM.attributes
                0x0000000000000545       0x37 build/subscribe_task.o
 .ARM.attributes
                0x000000000000057c       0x37 build/time.o
 .ARM.attributes
                0x00000000000005b3       0x25 build/startup_at32f403xe.o
 .ARM.attributes
                0x00000000000005d8       0x32 /usr/local/Cellar/gcc-arm-none-eabi/20180627/bin/../lib/gcc/arm-none-eabi/7.3.1/../../../../arm-none-eabi/lib/thumb/v7e-m/fpv4-sp/softfp/libc_nano.a(lib_a-impure.o)
 .ARM.attributes
                0x000000000000060a       0x32 /usr/local/Cellar/gcc-arm-none-eabi/20180627/bin/../lib/gcc/arm-none-eabi/7.3.1/../../../../arm-none-eabi/lib/thumb/v7e-m/fpv4-sp/softfp/libc_nano.a(lib_a-memcpy-stub.o)
 .ARM.attributes
                0x000000000000063c       0x32 /usr/local/Cellar/gcc-arm-none-eabi/20180627/bin/../lib/gcc/arm-none-eabi/7.3.1/../../../../arm-none-eabi/lib/thumb/v7e-m/fpv4-sp/softfp/libc_nano.a(lib_a-memset.o)
 .ARM.attributes
                0x000000000000066e       0x32 /usr/local/Cellar/gcc-arm-none-eabi/20180627/bin/../lib/gcc/arm-none-eabi/7.3.1/../../../../arm-none-eabi/lib/thumb/v7e-m/fpv4-sp/softfp/libc_nano.a(lib_a-printf.o)
 .ARM.attributes
                0x00000000000006a0       0x32 /usr/local/Cellar/gcc-arm-none-eabi/20180627/bin/../lib/gcc/arm-none-eabi/7.3.1/../../../../arm-none-eabi/lib/thumb/v7e-m/fpv4-sp/softfp/libc_nano.a(lib_a-puts.o)
 .ARM.attributes
                0x00000000000006d2       0x32 /usr/local/Cellar/gcc-arm-none-eabi/20180627/bin/../lib/gcc/arm-none-eabi/7.3.1/../../../../arm-none-eabi/lib/thumb/v7e-m/fpv4-sp/softfp/libc_nano.a(lib_a-realloc.o)
 .ARM.attributes
                0x0000000000000704       0x1b /usr/local/Cellar/gcc-arm-none-eabi/20180627/bin/../lib/gcc/arm-none-eabi/7.3.1/../../../../arm-none-eabi/lib/thumb/v7e-m/fpv4-sp/softfp/libc_nano.a(lib_a-strlen.o)
 .ARM.attributes
                0x000000000000071f       0x32 /usr/local/Cellar/gcc-arm-none-eabi/20180627/bin/../lib/gcc/arm-none-eabi/7.3.1/../../../../arm-none-eabi/lib/thumb/v7e-m/fpv4-sp/softfp/libc_nano.a(lib_a-wbuf.o)
 .ARM.attributes
                0x0000000000000751       0x32 /usr/local/Cellar/gcc-arm-none-eabi/20180627/bin/../lib/gcc/arm-none-eabi/7.3.1/../../../../arm-none-eabi/lib/thumb/v7e-m/fpv4-sp/softfp/libc_nano.a(lib_a-wsetup.o)
 .ARM.attributes
                0x0000000000000783       0x32 /usr/local/Cellar/gcc-arm-none-eabi/20180627/bin/../lib/gcc/arm-none-eabi/7.3.1/../../../../arm-none-eabi/lib/thumb/v7e-m/fpv4-sp/softfp/libc_nano.a(lib_a-fflush.o)
 .ARM.attributes
                0x00000000000007b5       0x32 /usr/local/Cellar/gcc-arm-none-eabi/20180627/bin/../lib/gcc/arm-none-eabi/7.3.1/../../../../arm-none-eabi/lib/thumb/v7e-m/fpv4-sp/softfp/libc_nano.a(lib_a-findfp.o)
 .ARM.attributes
                0x00000000000007e7       0x32 /usr/local/Cellar/gcc-arm-none-eabi/20180627/bin/../lib/gcc/arm-none-eabi/7.3.1/../../../../arm-none-eabi/lib/thumb/v7e-m/fpv4-sp/softfp/libc_nano.a(lib_a-fwalk.o)
 .ARM.attributes
                0x0000000000000819       0x32 /usr/local/Cellar/gcc-arm-none-eabi/20180627/bin/../lib/gcc/arm-none-eabi/7.3.1/../../../../arm-none-eabi/lib/thumb/v7e-m/fpv4-sp/softfp/libc_nano.a(lib_a-makebuf.o)
 .ARM.attributes
                0x000000000000084b       0x32 /usr/local/Cellar/gcc-arm-none-eabi/20180627/bin/../lib/gcc/arm-none-eabi/7.3.1/../../../../arm-none-eabi/lib/thumb/v7e-m/fpv4-sp/softfp/libc_nano.a(lib_a-nano-freer.o)
 .ARM.attributes
                0x000000000000087d       0x32 /usr/local/Cellar/gcc-arm-none-eabi/20180627/bin/../lib/gcc/arm-none-eabi/7.3.1/../../../../arm-none-eabi/lib/thumb/v7e-m/fpv4-sp/softfp/libc_nano.a(lib_a-nano-mallocr.o)
 .ARM.attributes
                0x00000000000008af       0x32 /usr/local/Cellar/gcc-arm-none-eabi/20180627/bin/../lib/gcc/arm-none-eabi/7.3.1/../../../../arm-none-eabi/lib/thumb/v7e-m/fpv4-sp/softfp/libc_nano.a(lib_a-nano-reallocr.o)
 .ARM.attributes
                0x00000000000008e1       0x32 /usr/local/Cellar/gcc-arm-none-eabi/20180627/bin/../lib/gcc/arm-none-eabi/7.3.1/../../../../arm-none-eabi/lib/thumb/v7e-m/fpv4-sp/softfp/libc_nano.a(lib_a-nano-vfprintf.o)
 .ARM.attributes
                0x0000000000000913       0x32 /usr/local/Cellar/gcc-arm-none-eabi/20180627/bin/../lib/gcc/arm-none-eabi/7.3.1/../../../../arm-none-eabi/lib/thumb/v7e-m/fpv4-sp/softfp/libc_nano.a(lib_a-nano-vfprintf_i.o)
 .ARM.attributes
                0x0000000000000945       0x32 /usr/local/Cellar/gcc-arm-none-eabi/20180627/bin/../lib/gcc/arm-none-eabi/7.3.1/../../../../arm-none-eabi/lib/thumb/v7e-m/fpv4-sp/softfp/libc_nano.a(lib_a-sbrkr.o)
 .ARM.attributes
                0x0000000000000977       0x32 /usr/local/Cellar/gcc-arm-none-eabi/20180627/bin/../lib/gcc/arm-none-eabi/7.3.1/../../../../arm-none-eabi/lib/thumb/v7e-m/fpv4-sp/softfp/libc_nano.a(lib_a-stdio.o)
 .ARM.attributes
                0x00000000000009a9       0x32 /usr/local/Cellar/gcc-arm-none-eabi/20180627/bin/../lib/gcc/arm-none-eabi/7.3.1/../../../../arm-none-eabi/lib/thumb/v7e-m/fpv4-sp/softfp/libc_nano.a(lib_a-writer.o)
 .ARM.attributes
                0x00000000000009db       0x32 /usr/local/Cellar/gcc-arm-none-eabi/20180627/bin/../lib/gcc/arm-none-eabi/7.3.1/../../../../arm-none-eabi/lib/thumb/v7e-m/fpv4-sp/softfp/libc_nano.a(lib_a-closer.o)
 .ARM.attributes
                0x0000000000000a0d       0x32 /usr/local/Cellar/gcc-arm-none-eabi/20180627/bin/../lib/gcc/arm-none-eabi/7.3.1/../../../../arm-none-eabi/lib/thumb/v7e-m/fpv4-sp/softfp/libc_nano.a(lib_a-fstatr.o)
 .ARM.attributes
                0x0000000000000a3f       0x32 /usr/local/Cellar/gcc-arm-none-eabi/20180627/bin/../lib/gcc/arm-none-eabi/7.3.1/../../../../arm-none-eabi/lib/thumb/v7e-m/fpv4-sp/softfp/libc_nano.a(lib_a-isattyr.o)
 .ARM.attributes
                0x0000000000000a71       0x32 /usr/local/Cellar/gcc-arm-none-eabi/20180627/bin/../lib/gcc/arm-none-eabi/7.3.1/../../../../arm-none-eabi/lib/thumb/v7e-m/fpv4-sp/softfp/libc_nano.a(lib_a-lseekr.o)
 .ARM.attributes
                0x0000000000000aa3       0x20 /usr/local/Cellar/gcc-arm-none-eabi/20180627/bin/../lib/gcc/arm-none-eabi/7.3.1/../../../../arm-none-eabi/lib/thumb/v7e-m/fpv4-sp/softfp/libc_nano.a(lib_a-memchr.o)
 .ARM.attributes
                0x0000000000000ac3       0x32 /usr/local/Cellar/gcc-arm-none-eabi/20180627/bin/../lib/gcc/arm-none-eabi/7.3.1/../../../../arm-none-eabi/lib/thumb/v7e-m/fpv4-sp/softfp/libc_nano.a(lib_a-mlock.o)
 .ARM.attributes
                0x0000000000000af5       0x32 /usr/local/Cellar/gcc-arm-none-eabi/20180627/bin/../lib/gcc/arm-none-eabi/7.3.1/../../../../arm-none-eabi/lib/thumb/v7e-m/fpv4-sp/softfp/libc_nano.a(lib_a-nano-msizer.o)
 .ARM.attributes
                0x0000000000000b27       0x32 /usr/local/Cellar/gcc-arm-none-eabi/20180627/bin/../lib/gcc/arm-none-eabi/7.3.1/../../../../arm-none-eabi/lib/thumb/v7e-m/fpv4-sp/softfp/libc_nano.a(lib_a-readr.o)
 .ARM.attributes
                0x0000000000000b59       0x32 /usr/local/Cellar/gcc-arm-none-eabi/20180627/bin/../lib/gcc/arm-none-eabi/7.3.1/../../../../arm-none-eabi/lib/thumb/v7e-m/fpv4-sp/softfp/libc_nano.a(lib_a-reent.o)
 .ARM.attributes
                0x0000000000000b8b       0x32 /usr/local/Cellar/gcc-arm-none-eabi/20180627/bin/../lib/gcc/arm-none-eabi/7.3.1/../../../../arm-none-eabi/lib/thumb/v7e-m/fpv4-sp/softfp/libnosys.a(close.o)
 .ARM.attributes
                0x0000000000000bbd       0x32 /usr/local/Cellar/gcc-arm-none-eabi/20180627/bin/../lib/gcc/arm-none-eabi/7.3.1/../../../../arm-none-eabi/lib/thumb/v7e-m/fpv4-sp/softfp/libnosys.a(fstat.o)
 .ARM.attributes
                0x0000000000000bef       0x32 /usr/local/Cellar/gcc-arm-none-eabi/20180627/bin/../lib/gcc/arm-none-eabi/7.3.1/../../../../arm-none-eabi/lib/thumb/v7e-m/fpv4-sp/softfp/libnosys.a(isatty.o)
 .ARM.attributes
                0x0000000000000c21       0x32 /usr/local/Cellar/gcc-arm-none-eabi/20180627/bin/../lib/gcc/arm-none-eabi/7.3.1/../../../../arm-none-eabi/lib/thumb/v7e-m/fpv4-sp/softfp/libnosys.a(lseek.o)
 .ARM.attributes
                0x0000000000000c53       0x32 /usr/local/Cellar/gcc-arm-none-eabi/20180627/bin/../lib/gcc/arm-none-eabi/7.3.1/../../../../arm-none-eabi/lib/thumb/v7e-m/fpv4-sp/softfp/libnosys.a(read.o)
 .ARM.attributes
                0x0000000000000c85       0x32 /usr/local/Cellar/gcc-arm-none-eabi/20180627/bin/../lib/gcc/arm-none-eabi/7.3.1/../../../../arm-none-eabi/lib/thumb/v7e-m/fpv4-sp/softfp/libnosys.a(sbrk.o)
 .ARM.attributes
                0x0000000000000cb7       0x32 /usr/local/Cellar/gcc-arm-none-eabi/20180627/bin/../lib/gcc/arm-none-eabi/7.3.1/../../../../arm-none-eabi/lib/thumb/v7e-m/fpv4-sp/softfp/libnosys.a(_exit.o)
 .ARM.attributes
                0x0000000000000ce9       0x32 /usr/local/Cellar/gcc-arm-none-eabi/20180627/bin/../lib/gcc/arm-none-eabi/7.3.1/thumb/v7e-m/fpv4-sp/softfp/libgcc.a(unwind-arm.o)
 .ARM.attributes
                0x0000000000000d1b       0x22 /usr/local/Cellar/gcc-arm-none-eabi/20180627/bin/../lib/gcc/arm-none-eabi/7.3.1/thumb/v7e-m/fpv4-sp/softfp/libgcc.a(libunwind.o)
 .ARM.attributes
                0x0000000000000d3d       0x32 /usr/local/Cellar/gcc-arm-none-eabi/20180627/bin/../lib/gcc/arm-none-eabi/7.3.1/thumb/v7e-m/fpv4-sp/softfp/libgcc.a(pr-support.o)
 .ARM.attributes
                0x0000000000000d6f       0x32 /usr/local/Cellar/gcc-arm-none-eabi/20180627/bin/../lib/gcc/arm-none-eabi/7.3.1/../../../../arm-none-eabi/lib/thumb/v7e-m/fpv4-sp/softfp/libc_nano.a(lib_a-abort.o)
 .ARM.attributes
                0x0000000000000da1       0x32 /usr/local/Cellar/gcc-arm-none-eabi/20180627/bin/../lib/gcc/arm-none-eabi/7.3.1/../../../../arm-none-eabi/lib/thumb/v7e-m/fpv4-sp/softfp/libc_nano.a(lib_a-signal.o)
 .ARM.attributes
                0x0000000000000dd3       0x32 /usr/local/Cellar/gcc-arm-none-eabi/20180627/bin/../lib/gcc/arm-none-eabi/7.3.1/../../../../arm-none-eabi/lib/thumb/v7e-m/fpv4-sp/softfp/libc_nano.a(lib_a-signalr.o)
 .ARM.attributes
                0x0000000000000e05       0x32 /usr/local/Cellar/gcc-arm-none-eabi/20180627/bin/../lib/gcc/arm-none-eabi/7.3.1/../../../../arm-none-eabi/lib/thumb/v7e-m/fpv4-sp/softfp/libnosys.a(getpid.o)
 .ARM.attributes
                0x0000000000000e37       0x32 /usr/local/Cellar/gcc-arm-none-eabi/20180627/bin/../lib/gcc/arm-none-eabi/7.3.1/../../../../arm-none-eabi/lib/thumb/v7e-m/fpv4-sp/softfp/libnosys.a(kill.o)
 .ARM.attributes
                0x0000000000000e69       0x22 /usr/local/Cellar/gcc-arm-none-eabi/20180627/bin/../lib/gcc/arm-none-eabi/7.3.1/thumb/v7e-m/fpv4-sp/softfp/crtn.o
OUTPUT(build/ROS_FreeRTOS_v2.elf elf32-littlearm)

.debug_info     0x0000000000000000    0x23ad4
 .debug_info    0x0000000000000000     0x1668 build/at32_hoverboard.o
 .debug_info    0x0000000000001668      0x4e6 build/system_at32f4xx.o
 .debug_info    0x0000000000001b4e      0x899 build/at32f4xx_gpio.o
 .debug_info    0x00000000000023e7      0xa35 build/at32f4xx_rcc.o
 .debug_info    0x0000000000002e1c     0x2328 build/at32f4xx_tim.o
 .debug_info    0x0000000000005144      0xbf0 build/at32f4xx_usart.o
 .debug_info    0x0000000000005d34      0x5bf build/misc.o
 .debug_info    0x00000000000062f3      0xc17 build/list.o
 .debug_info    0x0000000000006f0a      0x5a2 build/port.o
 .debug_info    0x00000000000074ac      0xe0a build/heap_4.o
 .debug_info    0x00000000000082b6     0x24ba build/queue.o
 .debug_info    0x000000000000a770     0x27d4 build/cmsis_os.o
 .debug_info    0x000000000000cf44     0x1a44 build/timers.o
 .debug_info    0x000000000000e988     0x35a8 build/tasks.o
 .debug_info    0x0000000000011f30     0x1006 build/bsp_key.o
 .debug_info    0x0000000000012f36      0xce1 build/bsp_led.o
 .debug_info    0x0000000000013c17     0x138d build/bsp_timer.o
 .debug_info    0x0000000000014fa4     0x161a build/bsp_uart_fifo.o
 .debug_info    0x00000000000165be      0xa79 build/bsp.o
 .debug_info    0x0000000000017037      0x2a3 build/at32f4xx_it.o
 .debug_info    0x00000000000172da      0xcf0 build/TimerForRunTimeState.o
 .debug_info    0x0000000000017fca     0x48cf build/main.o
 .debug_info    0x000000000001c899     0x3371 build/spin_task.o
 .debug_info    0x000000000001fc0a     0x28ba build/subscribe_task.o
 .debug_info    0x00000000000224c4     0x15ee build/time.o
 .debug_info    0x0000000000023ab2       0x22 build/startup_at32f403xe.o

.debug_abbrev   0x0000000000000000     0x51b4
 .debug_abbrev  0x0000000000000000      0x366 build/at32_hoverboard.o
 .debug_abbrev  0x0000000000000366      0x19f build/system_at32f4xx.o
 .debug_abbrev  0x0000000000000505      0x214 build/at32f4xx_gpio.o
 .debug_abbrev  0x0000000000000719      0x281 build/at32f4xx_rcc.o
 .debug_abbrev  0x000000000000099a      0x228 build/at32f4xx_tim.o
 .debug_abbrev  0x0000000000000bc2      0x214 build/at32f4xx_usart.o
 .debug_abbrev  0x0000000000000dd6      0x181 build/misc.o
 .debug_abbrev  0x0000000000000f57      0x21e build/list.o
 .debug_abbrev  0x0000000000001175      0x241 build/port.o
 .debug_abbrev  0x00000000000013b6      0x335 build/heap_4.o
 .debug_abbrev  0x00000000000016eb      0x3a0 build/queue.o
 .debug_abbrev  0x0000000000001a8b      0x3cb build/cmsis_os.o
 .debug_abbrev  0x0000000000001e56      0x30f build/timers.o
 .debug_abbrev  0x0000000000002165      0x438 build/tasks.o
 .debug_abbrev  0x000000000000259d      0x349 build/bsp_key.o
 .debug_abbrev  0x00000000000028e6      0x23c build/bsp_led.o
 .debug_abbrev  0x0000000000002b22      0x286 build/bsp_timer.o
 .debug_abbrev  0x0000000000002da8      0x39c build/bsp_uart_fifo.o
 .debug_abbrev  0x0000000000003144      0x1ca build/bsp.o
 .debug_abbrev  0x000000000000330e      0x11d build/at32f4xx_it.o
 .debug_abbrev  0x000000000000342b      0x21b build/TimerForRunTimeState.o
 .debug_abbrev  0x0000000000003646      0x98d build/main.o
 .debug_abbrev  0x0000000000003fd3      0x77e build/spin_task.o
 .debug_abbrev  0x0000000000004751      0x6da build/subscribe_task.o
 .debug_abbrev  0x0000000000004e2b      0x377 build/time.o
 .debug_abbrev  0x00000000000051a2       0x12 build/startup_at32f403xe.o

.debug_loc      0x0000000000000000     0xc209
 .debug_loc     0x0000000000000000      0x42f build/at32_hoverboard.o
 .debug_loc     0x000000000000042f      0x12f build/system_at32f4xx.o
 .debug_loc     0x000000000000055e      0x58b build/at32f4xx_gpio.o
 .debug_loc     0x0000000000000ae9      0x8bc build/at32f4xx_rcc.o
 .debug_loc     0x00000000000013a5     0x1d3f build/at32f4xx_tim.o
 .debug_loc     0x00000000000030e4      0x8d4 build/at32f4xx_usart.o
 .debug_loc     0x00000000000039b8      0x13c build/misc.o
 .debug_loc     0x0000000000003af4       0x9c build/list.o
 .debug_loc     0x0000000000003b90      0x128 build/port.o
 .debug_loc     0x0000000000003cb8      0x330 build/heap_4.o
 .debug_loc     0x0000000000003fe8     0x12ef build/queue.o
 .debug_loc     0x00000000000052d7     0x19a4 build/cmsis_os.o
 .debug_loc     0x0000000000006c7b      0xc38 build/timers.o
 .debug_loc     0x00000000000078b3     0x1fce build/tasks.o
 .debug_loc     0x0000000000009881      0x211 build/bsp_key.o
 .debug_loc     0x0000000000009a92       0x38 build/bsp_led.o
 .debug_loc     0x0000000000009aca      0x1b6 build/bsp_timer.o
 .debug_loc     0x0000000000009c80      0x511 build/bsp_uart_fifo.o
 .debug_loc     0x000000000000a191       0x20 build/bsp.o
 .debug_loc     0x000000000000a1b1       0x2a build/at32f4xx_it.o
 .debug_loc     0x000000000000a1db       0x40 build/TimerForRunTimeState.o
 .debug_loc     0x000000000000a21b     0x11ba build/main.o
 .debug_loc     0x000000000000b3d5      0x940 build/spin_task.o
 .debug_loc     0x000000000000bd15      0x362 build/subscribe_task.o
 .debug_loc     0x000000000000c077      0x192 build/time.o

.debug_aranges  0x0000000000000000     0x11b0
 .debug_aranges
                0x0000000000000000       0xa0 build/at32_hoverboard.o
 .debug_aranges
                0x00000000000000a0       0x38 build/system_at32f4xx.o
 .debug_aranges
                0x00000000000000d8       0xa0 build/at32f4xx_gpio.o
 .debug_aranges
                0x0000000000000178      0x120 build/at32f4xx_rcc.o
 .debug_aranges
                0x0000000000000298      0x2f8 build/at32f4xx_tim.o
 .debug_aranges
                0x0000000000000590      0x100 build/at32f4xx_usart.o
 .debug_aranges
                0x0000000000000690       0x40 build/misc.o
 .debug_aranges
                0x00000000000006d0       0x40 build/list.o
 .debug_aranges
                0x0000000000000710       0x80 build/port.o
 .debug_aranges
                0x0000000000000790       0x50 build/heap_4.o
 .debug_aranges
                0x00000000000007e0      0x118 build/queue.o
 .debug_aranges
                0x00000000000008f8      0x1d8 build/cmsis_os.o
 .debug_aranges
                0x0000000000000ad0       0xb8 build/timers.o
 .debug_aranges
                0x0000000000000b88      0x1f0 build/tasks.o
 .debug_aranges
                0x0000000000000d78       0x70 build/bsp_key.o
 .debug_aranges
                0x0000000000000de8       0x38 build/bsp_led.o
 .debug_aranges
                0x0000000000000e20       0x30 build/bsp_timer.o
 .debug_aranges
                0x0000000000000e50       0x98 build/bsp_uart_fifo.o
 .debug_aranges
                0x0000000000000ee8       0x20 build/bsp.o
 .debug_aranges
                0x0000000000000f08       0x48 build/at32f4xx_it.o
 .debug_aranges
                0x0000000000000f50       0x28 build/TimerForRunTimeState.o
 .debug_aranges
                0x0000000000000f78       0xf0 build/main.o
 .debug_aranges
                0x0000000000001068       0x68 build/spin_task.o
 .debug_aranges
                0x00000000000010d0       0x80 build/subscribe_task.o
 .debug_aranges
                0x0000000000001150       0x38 build/time.o
 .debug_aranges
                0x0000000000001188       0x28 build/startup_at32f403xe.o

.debug_ranges   0x0000000000000000     0x1318
 .debug_ranges  0x0000000000000000       0x90 build/at32_hoverboard.o
 .debug_ranges  0x0000000000000090       0x28 build/system_at32f4xx.o
 .debug_ranges  0x00000000000000b8       0x90 build/at32f4xx_gpio.o
 .debug_ranges  0x0000000000000148      0x110 build/at32f4xx_rcc.o
 .debug_ranges  0x0000000000000258      0x2e8 build/at32f4xx_tim.o
 .debug_ranges  0x0000000000000540       0xf0 build/at32f4xx_usart.o
 .debug_ranges  0x0000000000000630       0x30 build/misc.o
 .debug_ranges  0x0000000000000660       0x30 build/list.o
 .debug_ranges  0x0000000000000690       0x70 build/port.o
 .debug_ranges  0x0000000000000700       0x40 build/heap_4.o
 .debug_ranges  0x0000000000000740      0x1a8 build/queue.o
 .debug_ranges  0x00000000000008e8      0x1c8 build/cmsis_os.o
 .debug_ranges  0x0000000000000ab0       0xa8 build/timers.o
 .debug_ranges  0x0000000000000b58      0x2d0 build/tasks.o
 .debug_ranges  0x0000000000000e28       0x60 build/bsp_key.o
 .debug_ranges  0x0000000000000e88       0x28 build/bsp_led.o
 .debug_ranges  0x0000000000000eb0       0x20 build/bsp_timer.o
 .debug_ranges  0x0000000000000ed0       0x88 build/bsp_uart_fifo.o
 .debug_ranges  0x0000000000000f58       0x10 build/bsp.o
 .debug_ranges  0x0000000000000f68       0x38 build/at32f4xx_it.o
 .debug_ranges  0x0000000000000fa0       0x18 build/TimerForRunTimeState.o
 .debug_ranges  0x0000000000000fb8      0x1d8 build/main.o
 .debug_ranges  0x0000000000001190       0xd0 build/spin_task.o
 .debug_ranges  0x0000000000001260       0x70 build/subscribe_task.o
 .debug_ranges  0x00000000000012d0       0x28 build/time.o
 .debug_ranges  0x00000000000012f8       0x20 build/startup_at32f403xe.o

.debug_line     0x0000000000000000     0x8699
 .debug_line    0x0000000000000000      0x451 build/at32_hoverboard.o
 .debug_line    0x0000000000000451      0x214 build/system_at32f4xx.o
 .debug_line    0x0000000000000665      0x420 build/at32f4xx_gpio.o
 .debug_line    0x0000000000000a85      0x51b build/at32f4xx_rcc.o
 .debug_line    0x0000000000000fa0      0xb14 build/at32f4xx_tim.o
 .debug_line    0x0000000000001ab4      0x489 build/at32f4xx_usart.o
 .debug_line    0x0000000000001f3d      0x22d build/misc.o
 .debug_line    0x000000000000216a      0x34a build/list.o
 .debug_line    0x00000000000024b4      0x36b build/port.o
 .debug_line    0x000000000000281f      0x419 build/heap_4.o
 .debug_line    0x0000000000002c38      0x924 build/queue.o
 .debug_line    0x000000000000355c      0x99b build/cmsis_os.o
 .debug_line    0x0000000000003ef7      0x59f build/timers.o
 .debug_line    0x0000000000004496      0xe56 build/tasks.o
 .debug_line    0x00000000000052ec      0x3de build/bsp_key.o
 .debug_line    0x00000000000056ca      0x305 build/bsp_led.o
 .debug_line    0x00000000000059cf      0x311 build/bsp_timer.o
 .debug_line    0x0000000000005ce0      0x4d7 build/bsp_uart_fifo.o
 .debug_line    0x00000000000061b7      0x2bf build/bsp.o
 .debug_line    0x0000000000006476      0x1d0 build/at32f4xx_it.o
 .debug_line    0x0000000000006646      0x2c8 build/TimerForRunTimeState.o
 .debug_line    0x000000000000690e      0xbb0 build/main.o
 .debug_line    0x00000000000074be      0x7cd build/spin_task.o
 .debug_line    0x0000000000007c8b      0x65a build/subscribe_task.o
 .debug_line    0x00000000000082e5      0x341 build/time.o
 .debug_line    0x0000000000008626       0x73 build/startup_at32f403xe.o

.debug_str      0x0000000000000000     0x75be
 .debug_str     0x0000000000000000      0xabc build/at32_hoverboard.o
                                        0xb64 (size before relaxing)
 .debug_str     0x0000000000000abc      0x151 build/system_at32f4xx.o
                                        0x363 (size before relaxing)
 .debug_str     0x0000000000000c0d      0x1f5 build/at32f4xx_gpio.o
                                        0x5a3 (size before relaxing)
 .debug_str     0x0000000000000e02      0x3b8 build/at32f4xx_rcc.o
                                        0x6f0 (size before relaxing)
 .debug_str     0x00000000000011ba      0xb2e build/at32f4xx_tim.o
                                        0xe3e (size before relaxing)
 .debug_str     0x0000000000001ce8      0x347 build/at32f4xx_usart.o
                                        0x754 (size before relaxing)
 .debug_str     0x000000000000202f      0x18c build/misc.o
                                        0x44c (size before relaxing)
 .debug_str     0x00000000000021bb      0x17f build/list.o
                                        0x742 (size before relaxing)
 .debug_str     0x000000000000233a      0x283 build/port.o
                                        0x4ad (size before relaxing)
 .debug_str     0x00000000000025bd      0x230 build/heap_4.o
                                        0x848 (size before relaxing)
 .debug_str     0x00000000000027ed      0x6be build/queue.o
                                        0xe7d (size before relaxing)
 .debug_str     0x0000000000002eab      0x944 build/cmsis_os.o
                                       0x126b (size before relaxing)
 .debug_str     0x00000000000037ef      0x40e build/timers.o
                                        0xce2 (size before relaxing)
 .debug_str     0x0000000000003bfd      0x9c5 build/tasks.o
                                       0x15ba (size before relaxing)
 .debug_str     0x00000000000045c2      0x2af build/bsp_key.o
                                        0xa63 (size before relaxing)
 .debug_str     0x0000000000004871       0x41 build/bsp_led.o
                                        0x7c9 (size before relaxing)
 .debug_str     0x00000000000048b2      0x52c build/bsp_timer.o
                                        0xdb9 (size before relaxing)
 .debug_str     0x0000000000004dde      0x1dc build/bsp_uart_fifo.o
                                        0xf81 (size before relaxing)
 .debug_str     0x0000000000004fba       0x17 build/bsp.o
                                        0x643 (size before relaxing)
 .debug_str     0x0000000000004fd1       0x7e build/at32f4xx_it.o
                                        0x2e3 (size before relaxing)
 .debug_str     0x000000000000504f       0x5d build/TimerForRunTimeState.o
                                        0x740 (size before relaxing)
 .debug_str     0x00000000000050ac     0x1dac build/main.o
                                       0x2630 (size before relaxing)
 .debug_str     0x0000000000006e58       0x85 build/spin_task.o
                                       0x17b4 (size before relaxing)
 .debug_str     0x0000000000006edd      0x691 build/subscribe_task.o
                                       0x1597 (size before relaxing)
 .debug_str     0x000000000000756e       0x2a build/time.o
                                        0x9e3 (size before relaxing)
 .debug_str     0x0000000000007598       0x26 build/startup_at32f403xe.o
                                         0x6e (size before relaxing)

.comment        0x0000000000000000       0x7f
 .comment       0x0000000000000000       0x7f build/at32_hoverboard.o
                                         0x80 (size before relaxing)
 .comment       0x000000000000007f       0x80 build/system_at32f4xx.o
 .comment       0x000000000000007f       0x80 build/at32f4xx_gpio.o
 .comment       0x000000000000007f       0x80 build/at32f4xx_rcc.o
 .comment       0x000000000000007f       0x80 build/at32f4xx_tim.o
 .comment       0x000000000000007f       0x80 build/at32f4xx_usart.o
 .comment       0x000000000000007f       0x80 build/misc.o
 .comment       0x000000000000007f       0x80 build/list.o
 .comment       0x000000000000007f       0x80 build/port.o
 .comment       0x000000000000007f       0x80 build/heap_4.o
 .comment       0x000000000000007f       0x80 build/queue.o
 .comment       0x000000000000007f       0x80 build/cmsis_os.o
 .comment       0x000000000000007f       0x80 build/timers.o
 .comment       0x000000000000007f       0x80 build/tasks.o
 .comment       0x000000000000007f       0x80 build/bsp_key.o
 .comment       0x000000000000007f       0x80 build/bsp_led.o
 .comment       0x000000000000007f       0x80 build/bsp_timer.o
 .comment       0x000000000000007f       0x80 build/bsp_uart_fifo.o
 .comment       0x000000000000007f       0x80 build/bsp.o
 .comment       0x000000000000007f       0x80 build/at32f4xx_it.o
 .comment       0x000000000000007f       0x80 build/TimerForRunTimeState.o
 .comment       0x000000000000007f       0x80 build/main.o
 .comment       0x000000000000007f       0x80 build/spin_task.o
 .comment       0x000000000000007f       0x80 build/subscribe_task.o
 .comment       0x000000000000007f       0x80 build/time.o

.debug_frame    0x0000000000000000     0x3e24
 .debug_frame   0x0000000000000000      0x1d0 build/at32_hoverboard.o
 .debug_frame   0x00000000000001d0       0x74 build/system_at32f4xx.o
 .debug_frame   0x0000000000000244      0x164 build/at32f4xx_gpio.o
 .debug_frame   0x00000000000003a8      0x24c build/at32f4xx_rcc.o
 .debug_frame   0x00000000000005f4      0x730 build/at32f4xx_tim.o
 .debug_frame   0x0000000000000d24      0x23c build/at32f4xx_usart.o
 .debug_frame   0x0000000000000f60       0x6c build/misc.o
 .debug_frame   0x0000000000000fcc       0x70 build/list.o
 .debug_frame   0x000000000000103c       0xf8 build/port.o
 .debug_frame   0x0000000000001134       0xbc build/heap_4.o
 .debug_frame   0x00000000000011f0      0x3c8 build/queue.o
 .debug_frame   0x00000000000015b8      0x6bc build/cmsis_os.o
 .debug_frame   0x0000000000001c74      0x278 build/timers.o
 .debug_frame   0x0000000000001eec      0x700 build/tasks.o
 .debug_frame   0x00000000000025ec       0xf0 build/bsp_key.o
 .debug_frame   0x00000000000026dc       0x64 build/bsp_led.o
 .debug_frame   0x0000000000002740       0x70 build/bsp_timer.o
 .debug_frame   0x00000000000027b0      0x1cc build/bsp_uart_fifo.o
 .debug_frame   0x000000000000297c       0x2c build/bsp.o
 .debug_frame   0x00000000000029a8       0x70 build/at32f4xx_it.o
 .debug_frame   0x0000000000002a18       0x48 build/TimerForRunTimeState.o
 .debug_frame   0x0000000000002a60      0x2fc build/main.o
 .debug_frame   0x0000000000002d5c      0x114 build/spin_task.o
 .debug_frame   0x0000000000002e70      0x124 build/subscribe_task.o
 .debug_frame   0x0000000000002f94       0x84 build/time.o
 .debug_frame   0x0000000000003018       0x28 /usr/local/Cellar/gcc-arm-none-eabi/20180627/bin/../lib/gcc/arm-none-eabi/7.3.1/../../../../arm-none-eabi/lib/thumb/v7e-m/fpv4-sp/softfp/libc_nano.a(lib_a-memcpy-stub.o)
 .debug_frame   0x0000000000003040       0x20 /usr/local/Cellar/gcc-arm-none-eabi/20180627/bin/../lib/gcc/arm-none-eabi/7.3.1/../../../../arm-none-eabi/lib/thumb/v7e-m/fpv4-sp/softfp/libc_nano.a(lib_a-memset.o)
 .debug_frame   0x0000000000003060       0x74 /usr/local/Cellar/gcc-arm-none-eabi/20180627/bin/../lib/gcc/arm-none-eabi/7.3.1/../../../../arm-none-eabi/lib/thumb/v7e-m/fpv4-sp/softfp/libc_nano.a(lib_a-printf.o)
 .debug_frame   0x00000000000030d4       0x3c /usr/local/Cellar/gcc-arm-none-eabi/20180627/bin/../lib/gcc/arm-none-eabi/7.3.1/../../../../arm-none-eabi/lib/thumb/v7e-m/fpv4-sp/softfp/libc_nano.a(lib_a-puts.o)
 .debug_frame   0x0000000000003110       0x20 /usr/local/Cellar/gcc-arm-none-eabi/20180627/bin/../lib/gcc/arm-none-eabi/7.3.1/../../../../arm-none-eabi/lib/thumb/v7e-m/fpv4-sp/softfp/libc_nano.a(lib_a-realloc.o)
 .debug_frame   0x0000000000003130       0x40 /usr/local/Cellar/gcc-arm-none-eabi/20180627/bin/../lib/gcc/arm-none-eabi/7.3.1/../../../../arm-none-eabi/lib/thumb/v7e-m/fpv4-sp/softfp/libc_nano.a(lib_a-wbuf.o)
 .debug_frame   0x0000000000003170       0x2c /usr/local/Cellar/gcc-arm-none-eabi/20180627/bin/../lib/gcc/arm-none-eabi/7.3.1/../../../../arm-none-eabi/lib/thumb/v7e-m/fpv4-sp/softfp/libc_nano.a(lib_a-wsetup.o)
 .debug_frame   0x000000000000319c       0x68 /usr/local/Cellar/gcc-arm-none-eabi/20180627/bin/../lib/gcc/arm-none-eabi/7.3.1/../../../../arm-none-eabi/lib/thumb/v7e-m/fpv4-sp/softfp/libc_nano.a(lib_a-fflush.o)
 .debug_frame   0x0000000000003204      0x11c /usr/local/Cellar/gcc-arm-none-eabi/20180627/bin/../lib/gcc/arm-none-eabi/7.3.1/../../../../arm-none-eabi/lib/thumb/v7e-m/fpv4-sp/softfp/libc_nano.a(lib_a-findfp.o)
 .debug_frame   0x0000000000003320       0x54 /usr/local/Cellar/gcc-arm-none-eabi/20180627/bin/../lib/gcc/arm-none-eabi/7.3.1/../../../../arm-none-eabi/lib/thumb/v7e-m/fpv4-sp/softfp/libc_nano.a(lib_a-fwalk.o)
 .debug_frame   0x0000000000003374       0x58 /usr/local/Cellar/gcc-arm-none-eabi/20180627/bin/../lib/gcc/arm-none-eabi/7.3.1/../../../../arm-none-eabi/lib/thumb/v7e-m/fpv4-sp/softfp/libc_nano.a(lib_a-makebuf.o)
 .debug_frame   0x00000000000033cc       0x38 /usr/local/Cellar/gcc-arm-none-eabi/20180627/bin/../lib/gcc/arm-none-eabi/7.3.1/../../../../arm-none-eabi/lib/thumb/v7e-m/fpv4-sp/softfp/libc_nano.a(lib_a-nano-freer.o)
 .debug_frame   0x0000000000003404       0x2c /usr/local/Cellar/gcc-arm-none-eabi/20180627/bin/../lib/gcc/arm-none-eabi/7.3.1/../../../../arm-none-eabi/lib/thumb/v7e-m/fpv4-sp/softfp/libc_nano.a(lib_a-nano-mallocr.o)
 .debug_frame   0x0000000000003430       0x3c /usr/local/Cellar/gcc-arm-none-eabi/20180627/bin/../lib/gcc/arm-none-eabi/7.3.1/../../../../arm-none-eabi/lib/thumb/v7e-m/fpv4-sp/softfp/libc_nano.a(lib_a-nano-reallocr.o)
 .debug_frame   0x000000000000346c       0xac /usr/local/Cellar/gcc-arm-none-eabi/20180627/bin/../lib/gcc/arm-none-eabi/7.3.1/../../../../arm-none-eabi/lib/thumb/v7e-m/fpv4-sp/softfp/libc_nano.a(lib_a-nano-vfprintf.o)
 .debug_frame   0x0000000000003518       0x60 /usr/local/Cellar/gcc-arm-none-eabi/20180627/bin/../lib/gcc/arm-none-eabi/7.3.1/../../../../arm-none-eabi/lib/thumb/v7e-m/fpv4-sp/softfp/libc_nano.a(lib_a-nano-vfprintf_i.o)
 .debug_frame   0x0000000000003578       0x2c /usr/local/Cellar/gcc-arm-none-eabi/20180627/bin/../lib/gcc/arm-none-eabi/7.3.1/../../../../arm-none-eabi/lib/thumb/v7e-m/fpv4-sp/softfp/libc_nano.a(lib_a-sbrkr.o)
 .debug_frame   0x00000000000035a4       0x88 /usr/local/Cellar/gcc-arm-none-eabi/20180627/bin/../lib/gcc/arm-none-eabi/7.3.1/../../../../arm-none-eabi/lib/thumb/v7e-m/fpv4-sp/softfp/libc_nano.a(lib_a-stdio.o)
 .debug_frame   0x000000000000362c       0x2c /usr/local/Cellar/gcc-arm-none-eabi/20180627/bin/../lib/gcc/arm-none-eabi/7.3.1/../../../../arm-none-eabi/lib/thumb/v7e-m/fpv4-sp/softfp/libc_nano.a(lib_a-writer.o)
 .debug_frame   0x0000000000003658       0x2c /usr/local/Cellar/gcc-arm-none-eabi/20180627/bin/../lib/gcc/arm-none-eabi/7.3.1/../../../../arm-none-eabi/lib/thumb/v7e-m/fpv4-sp/softfp/libc_nano.a(lib_a-closer.o)
 .debug_frame   0x0000000000003684       0x2c /usr/local/Cellar/gcc-arm-none-eabi/20180627/bin/../lib/gcc/arm-none-eabi/7.3.1/../../../../arm-none-eabi/lib/thumb/v7e-m/fpv4-sp/softfp/libc_nano.a(lib_a-fstatr.o)
 .debug_frame   0x00000000000036b0       0x2c /usr/local/Cellar/gcc-arm-none-eabi/20180627/bin/../lib/gcc/arm-none-eabi/7.3.1/../../../../arm-none-eabi/lib/thumb/v7e-m/fpv4-sp/softfp/libc_nano.a(lib_a-isattyr.o)
 .debug_frame   0x00000000000036dc       0x2c /usr/local/Cellar/gcc-arm-none-eabi/20180627/bin/../lib/gcc/arm-none-eabi/7.3.1/../../../../arm-none-eabi/lib/thumb/v7e-m/fpv4-sp/softfp/libc_nano.a(lib_a-lseekr.o)
 .debug_frame   0x0000000000003708       0x30 /usr/local/Cellar/gcc-arm-none-eabi/20180627/bin/../lib/gcc/arm-none-eabi/7.3.1/../../../../arm-none-eabi/lib/thumb/v7e-m/fpv4-sp/softfp/libc_nano.a(lib_a-mlock.o)
 .debug_frame   0x0000000000003738       0x20 /usr/local/Cellar/gcc-arm-none-eabi/20180627/bin/../lib/gcc/arm-none-eabi/7.3.1/../../../../arm-none-eabi/lib/thumb/v7e-m/fpv4-sp/softfp/libc_nano.a(lib_a-nano-msizer.o)
 .debug_frame   0x0000000000003758       0x2c /usr/local/Cellar/gcc-arm-none-eabi/20180627/bin/../lib/gcc/arm-none-eabi/7.3.1/../../../../arm-none-eabi/lib/thumb/v7e-m/fpv4-sp/softfp/libc_nano.a(lib_a-readr.o)
 .debug_frame   0x0000000000003784       0x5c /usr/local/Cellar/gcc-arm-none-eabi/20180627/bin/../lib/gcc/arm-none-eabi/7.3.1/../../../../arm-none-eabi/lib/thumb/v7e-m/fpv4-sp/softfp/libc_nano.a(lib_a-reent.o)
 .debug_frame   0x00000000000037e0       0x20 /usr/local/Cellar/gcc-arm-none-eabi/20180627/bin/../lib/gcc/arm-none-eabi/7.3.1/../../../../arm-none-eabi/lib/thumb/v7e-m/fpv4-sp/softfp/libnosys.a(close.o)
 .debug_frame   0x0000000000003800       0x20 /usr/local/Cellar/gcc-arm-none-eabi/20180627/bin/../lib/gcc/arm-none-eabi/7.3.1/../../../../arm-none-eabi/lib/thumb/v7e-m/fpv4-sp/softfp/libnosys.a(fstat.o)
 .debug_frame   0x0000000000003820       0x20 /usr/local/Cellar/gcc-arm-none-eabi/20180627/bin/../lib/gcc/arm-none-eabi/7.3.1/../../../../arm-none-eabi/lib/thumb/v7e-m/fpv4-sp/softfp/libnosys.a(isatty.o)
 .debug_frame   0x0000000000003840       0x20 /usr/local/Cellar/gcc-arm-none-eabi/20180627/bin/../lib/gcc/arm-none-eabi/7.3.1/../../../../arm-none-eabi/lib/thumb/v7e-m/fpv4-sp/softfp/libnosys.a(lseek.o)
 .debug_frame   0x0000000000003860       0x20 /usr/local/Cellar/gcc-arm-none-eabi/20180627/bin/../lib/gcc/arm-none-eabi/7.3.1/../../../../arm-none-eabi/lib/thumb/v7e-m/fpv4-sp/softfp/libnosys.a(read.o)
 .debug_frame   0x0000000000003880       0x20 /usr/local/Cellar/gcc-arm-none-eabi/20180627/bin/../lib/gcc/arm-none-eabi/7.3.1/../../../../arm-none-eabi/lib/thumb/v7e-m/fpv4-sp/softfp/libnosys.a(sbrk.o)
 .debug_frame   0x00000000000038a0       0x20 /usr/local/Cellar/gcc-arm-none-eabi/20180627/bin/../lib/gcc/arm-none-eabi/7.3.1/../../../../arm-none-eabi/lib/thumb/v7e-m/fpv4-sp/softfp/libnosys.a(_exit.o)
 .debug_frame   0x00000000000038c0      0x2f0 /usr/local/Cellar/gcc-arm-none-eabi/20180627/bin/../lib/gcc/arm-none-eabi/7.3.1/thumb/v7e-m/fpv4-sp/softfp/libgcc.a(unwind-arm.o)
 .debug_frame   0x0000000000003bb0      0x104 /usr/local/Cellar/gcc-arm-none-eabi/20180627/bin/../lib/gcc/arm-none-eabi/7.3.1/thumb/v7e-m/fpv4-sp/softfp/libgcc.a(pr-support.o)
 .debug_frame   0x0000000000003cb4       0x28 /usr/local/Cellar/gcc-arm-none-eabi/20180627/bin/../lib/gcc/arm-none-eabi/7.3.1/../../../../arm-none-eabi/lib/thumb/v7e-m/fpv4-sp/softfp/libc_nano.a(lib_a-abort.o)
 .debug_frame   0x0000000000003cdc       0xcc /usr/local/Cellar/gcc-arm-none-eabi/20180627/bin/../lib/gcc/arm-none-eabi/7.3.1/../../../../arm-none-eabi/lib/thumb/v7e-m/fpv4-sp/softfp/libc_nano.a(lib_a-signal.o)
 .debug_frame   0x0000000000003da8       0x3c /usr/local/Cellar/gcc-arm-none-eabi/20180627/bin/../lib/gcc/arm-none-eabi/7.3.1/../../../../arm-none-eabi/lib/thumb/v7e-m/fpv4-sp/softfp/libc_nano.a(lib_a-signalr.o)
 .debug_frame   0x0000000000003de4       0x20 /usr/local/Cellar/gcc-arm-none-eabi/20180627/bin/../lib/gcc/arm-none-eabi/7.3.1/../../../../arm-none-eabi/lib/thumb/v7e-m/fpv4-sp/softfp/libnosys.a(getpid.o)
 .debug_frame   0x0000000000003e04       0x20 /usr/local/Cellar/gcc-arm-none-eabi/20180627/bin/../lib/gcc/arm-none-eabi/7.3.1/../../../../arm-none-eabi/lib/thumb/v7e-m/fpv4-sp/softfp/libnosys.a(kill.o)

.stab           0x0000000000000000       0xb4
 .stab          0x0000000000000000       0x24 /usr/local/Cellar/gcc-arm-none-eabi/20180627/bin/../lib/gcc/arm-none-eabi/7.3.1/../../../../arm-none-eabi/lib/thumb/v7e-m/fpv4-sp/softfp/libnosys.a(close.o)
 .stab          0x0000000000000024       0x18 /usr/local/Cellar/gcc-arm-none-eabi/20180627/bin/../lib/gcc/arm-none-eabi/7.3.1/../../../../arm-none-eabi/lib/thumb/v7e-m/fpv4-sp/softfp/libnosys.a(fstat.o)
                                         0x24 (size before relaxing)
 .stab          0x000000000000003c       0x18 /usr/local/Cellar/gcc-arm-none-eabi/20180627/bin/../lib/gcc/arm-none-eabi/7.3.1/../../../../arm-none-eabi/lib/thumb/v7e-m/fpv4-sp/softfp/libnosys.a(isatty.o)
                                         0x24 (size before relaxing)
 .stab          0x0000000000000054       0x18 /usr/local/Cellar/gcc-arm-none-eabi/20180627/bin/../lib/gcc/arm-none-eabi/7.3.1/../../../../arm-none-eabi/lib/thumb/v7e-m/fpv4-sp/softfp/libnosys.a(lseek.o)
                                         0x24 (size before relaxing)
 .stab          0x000000000000006c       0x18 /usr/local/Cellar/gcc-arm-none-eabi/20180627/bin/../lib/gcc/arm-none-eabi/7.3.1/../../../../arm-none-eabi/lib/thumb/v7e-m/fpv4-sp/softfp/libnosys.a(read.o)
                                         0x24 (size before relaxing)
 .stab          0x0000000000000084       0x18 /usr/local/Cellar/gcc-arm-none-eabi/20180627/bin/../lib/gcc/arm-none-eabi/7.3.1/../../../../arm-none-eabi/lib/thumb/v7e-m/fpv4-sp/softfp/libnosys.a(getpid.o)
                                         0x24 (size before relaxing)
 .stab          0x000000000000009c       0x18 /usr/local/Cellar/gcc-arm-none-eabi/20180627/bin/../lib/gcc/arm-none-eabi/7.3.1/../../../../arm-none-eabi/lib/thumb/v7e-m/fpv4-sp/softfp/libnosys.a(kill.o)
                                         0x24 (size before relaxing)

.stabstr        0x0000000000000000      0x183
 .stabstr       0x0000000000000000      0x183 /usr/local/Cellar/gcc-arm-none-eabi/20180627/bin/../lib/gcc/arm-none-eabi/7.3.1/../../../../arm-none-eabi/lib/thumb/v7e-m/fpv4-sp/softfp/libnosys.a(close.o)

Cross Reference Table

Symbol                                            File
ADC1_2_IRQHandler                                 build/startup_at32f403xe.o
ADC3_IRQHandler                                   build/startup_at32f403xe.o
AHBPscTable                                       build/system_at32f4xx.o
AT32_BUTTON_Init                                  build/at32_hoverboard.o
AT32_BUTTON_Press                                 build/at32_hoverboard.o
AT32_BUTTON_State                                 build/at32_hoverboard.o
AT32_Hoverboard_Init                              build/at32_hoverboard.o
AT32_LEDn_Init                                    build/at32_hoverboard.o
AT32_LEDn_OFF                                     build/at32_hoverboard.o
AT32_LEDn_ON                                      build/at32_hoverboard.o
AT32_LEDn_Toggle                                  build/at32_hoverboard.o
AT32_USB_GPIO_init                                build/at32_hoverboard.o
App_Printf(char const*, ...)                      build/main.o
BUTTON_GPIO_PIN                                   build/at32_hoverboard.o
BUTTON_GPIO_PORT                                  build/at32_hoverboard.o
BUTTON_GPIO_RCC_CLK                               build/at32_hoverboard.o
Board_Init                                        build/at32_hoverboard.o
BusFault_Handler                                  build/at32f4xx_it.o
CAN1_RX1_IRQHandler                               build/startup_at32f403xe.o
CAN1_SCE_IRQHandler                               build/startup_at32f403xe.o
ComToUart                                         build/bsp_uart_fifo.o
DMA1_Channel1_IRQHandler                          build/startup_at32f403xe.o
DMA1_Channel2_IRQHandler                          build/startup_at32f403xe.o
DMA1_Channel3_IRQHandler                          build/startup_at32f403xe.o
DMA1_Channel4_IRQHandler                          build/startup_at32f403xe.o
DMA1_Channel5_IRQHandler                          build/startup_at32f403xe.o
DMA1_Channel6_IRQHandler                          build/startup_at32f403xe.o
DMA1_Channel7_IRQHandler                          build/startup_at32f403xe.o
DMA2_Channel1_IRQHandler                          build/startup_at32f403xe.o
DMA2_Channel2_IRQHandler                          build/startup_at32f403xe.o
DMA2_Channel3_IRQHandler                          build/startup_at32f403xe.o
DMA2_Channel4_5_IRQHandler                        build/startup_at32f403xe.o
DebugMon_Handler                                  build/at32f4xx_it.o
Default_Handler                                   build/startup_at32f403xe.o
Delay_init                                        build/at32_hoverboard.o
Delay_ms                                          build/at32_hoverboard.o
Delay_sec                                         build/at32_hoverboard.o
Delay_us                                          build/at32_hoverboard.o
EXTI0_IRQHandler                                  build/startup_at32f403xe.o
EXTI15_10_IRQHandler                              build/startup_at32f403xe.o
EXTI1_IRQHandler                                  build/startup_at32f403xe.o
EXTI2_IRQHandler                                  build/startup_at32f403xe.o
EXTI3_IRQHandler                                  build/startup_at32f403xe.o
EXTI4_IRQHandler                                  build/startup_at32f403xe.o
EXTI9_5_IRQHandler                                build/startup_at32f403xe.o
FLASH_IRQHandler                                  build/startup_at32f403xe.o
GPIO_AFIOReset                                    build/at32f4xx_gpio.o
GPIO_EXTILineConfig                               build/at32f4xx_gpio.o
GPIO_EventOutputCmd                               build/at32f4xx_gpio.o
GPIO_EventOutputConfig                            build/at32f4xx_gpio.o
GPIO_Init                                         build/at32f4xx_gpio.o
                                                  build/bsp_tim_pwm.o
                                                  build/bsp_led.o
                                                  build/bsp_key.o
                                                  build/at32_hoverboard.o
GPIO_PinsLockConfig                               build/at32f4xx_gpio.o
GPIO_PinsRemapConfig                              build/at32f4xx_gpio.o
GPIO_ReadInputData                                build/at32f4xx_gpio.o
GPIO_ReadInputDataBit                             build/at32f4xx_gpio.o
                                                  build/at32_hoverboard.o
GPIO_ReadOutputData                               build/at32f4xx_gpio.o
GPIO_ReadOutputDataBit                            build/at32f4xx_gpio.o
GPIO_Reset                                        build/at32f4xx_gpio.o
GPIO_ResetBits                                    build/at32f4xx_gpio.o
                                                  build/at32_hoverboard.o
GPIO_SetBits                                      build/at32f4xx_gpio.o
GPIO_StructInit                                   build/at32f4xx_gpio.o
                                                  build/at32_hoverboard.o
GPIO_Write                                        build/at32f4xx_gpio.o
GPIO_WriteBit                                     build/at32f4xx_gpio.o
                                                  build/bsp_tim_pwm.o
HardFault_Handler                                 build/at32f4xx_it.o
Heartbeat_TaskHandler(void const*)                build/heartbeat_task.o
I2C1_ER_IRQHandler                                build/startup_at32f403xe.o
I2C1_EV_IRQHandler                                build/startup_at32f403xe.o
I2C2_ER_IRQHandler                                build/startup_at32f403xe.o
I2C2_EV_IRQHandler                                build/startup_at32f403xe.o
I2C3_ER_IRQHandler                                build/startup_at32f403xe.o
I2C3_EV_IRQHandler                                build/startup_at32f403xe.o
LED_GPIO_PIN                                      build/at32_hoverboard.o
LED_GPIO_PORT                                     build/at32_hoverboard.o
LED_GPIO_RCC_CLK                                  build/at32_hoverboard.o
MemManage_Handler                                 build/at32f4xx_it.o
NMI_Handler                                       build/at32f4xx_it.o
NVIC_Init                                         build/misc.o
                                                  build/bsp_uart_fifo.o
                                                  build/bsp_timer.o
                                                  build/bsp_tim_pwm.o
NVIC_PriorityGroupConfig                          build/misc.o
                                                  build/bsp.o
NVIC_SetVectorTable                               build/misc.o
NVIC_SystemLPConfig                               build/misc.o
PVD_IRQHandler                                    build/startup_at32f403xe.o
PendSV_Handler                                    build/port.o
RCC_ADCCLKConfig                                  build/at32f4xx_rcc.o
RCC_AHBCLKConfig                                  build/at32f4xx_rcc.o
RCC_AHBPeriphClockCmd                             build/at32f4xx_rcc.o
RCC_APB1CLKConfig                                 build/at32f4xx_rcc.o
RCC_APB1PeriphClockCmd                            build/at32f4xx_rcc.o
                                                  build/bsp_timer.o
                                                  build/bsp_tim_pwm.o
                                                  build/at32_hoverboard.o
RCC_APB1PeriphResetCmd                            build/at32f4xx_rcc.o
                                                  build/at32f4xx_usart.o
                                                  build/at32f4xx_tim.o
RCC_APB2CLKConfig                                 build/at32f4xx_rcc.o
RCC_APB2PeriphClockCmd                            build/at32f4xx_rcc.o
                                                  build/bsp_tim_pwm.o
                                                  build/bsp_led.o
                                                  build/bsp_key.o
                                                  build/at32_hoverboard.o
RCC_APB2PeriphResetCmd                            build/at32f4xx_rcc.o
                                                  build/at32f4xx_usart.o
                                                  build/at32f4xx_tim.o
                                                  build/at32f4xx_gpio.o
RCC_BackupResetCmd                                build/at32f4xx_rcc.o
RCC_CLKOUTConfig                                  build/at32f4xx_rcc.o
RCC_ClearFlag                                     build/at32f4xx_rcc.o
RCC_ClearINTPendingBit                            build/at32f4xx_rcc.o
RCC_GetClocksFreq                                 build/at32f4xx_rcc.o
                                                  build/at32f4xx_usart.o
RCC_GetFlagStatus                                 build/at32f4xx_rcc.o
RCC_GetINTStatus                                  build/at32f4xx_rcc.o
RCC_GetSYSCLKSelction                             build/at32f4xx_rcc.o
RCC_HSEClockFailureDetectorCmd                    build/at32f4xx_rcc.o
RCC_HSEConfig                                     build/at32f4xx_rcc.o
RCC_HSICmd                                        build/at32f4xx_rcc.o
RCC_INTConfig                                     build/at32f4xx_rcc.o
RCC_IRQHandler                                    build/startup_at32f403xe.o
RCC_LSEConfig                                     build/at32f4xx_rcc.o
RCC_LSICmd                                        build/at32f4xx_rcc.o
RCC_PLLCmd                                        build/at32f4xx_rcc.o
RCC_PLLConfig                                     build/at32f4xx_rcc.o
RCC_RTCCLKCmd                                     build/at32f4xx_rcc.o
RCC_RTCCLKConfig                                  build/at32f4xx_rcc.o
RCC_Reset                                         build/at32f4xx_rcc.o
RCC_SYSCLKConfig                                  build/at32f4xx_rcc.o
RCC_SetHSICalibValue                              build/at32f4xx_rcc.o
RCC_SetHSITweakValue                              build/at32f4xx_rcc.o
RCC_USBCLKConfig                                  build/at32f4xx_rcc.o
RCC_WaitForHSEStable                              build/at32f4xx_rcc.o
ROS_SpinTaskHandler(void const*)                  build/spin_task.o
ROS_SubscribeTaskHandler(void const*)             build/subscribe_task.o
RTCAlarm_IRQHandler                               build/startup_at32f403xe.o
RTC_Alarm_IRQHandler                              build/startup_at32f403xe.o
RTC_IRQHandler                                    build/startup_at32f403xe.o
Reset_Handler                                     build/startup_at32f403xe.o
SDIO1_IRQHandler                                  build/startup_at32f403xe.o
SDIO2_IRQHandler                                  build/startup_at32f403xe.o
SPI1_IRQHandler                                   build/startup_at32f403xe.o
SPI2_IRQHandler                                   build/startup_at32f403xe.o
SPI3_IRQHandler                                   build/startup_at32f403xe.o
SPI4_IRQHandler                                   build/startup_at32f403xe.o
SVC_Handler                                       build/port.o
SysTick_CLKSourceConfig                           build/misc.o
                                                  build/at32_hoverboard.o
SysTick_Handler                                   build/port.o
                                                  build/cmsis_os.o
SystemCoreClock                                   build/system_at32f4xx.o
                                                  build/bsp_timer.o
                                                  build/bsp_tim_pwm.o
                                                  build/at32_hoverboard.o
SystemCoreClockUpdate                             build/system_at32f4xx.o
SystemInit                                        build/system_at32f4xx.o
                                                  build/startup_at32f403xe.o
TAMPER_IRQHandler                                 build/startup_at32f403xe.o
TMR15_BRK_IRQHandler                              build/startup_at32f403xe.o
TMR15_CC_IRQHandler                               build/startup_at32f403xe.o
TMR15_OV_IRQHandler                               build/startup_at32f403xe.o
TMR15_TRG_HALL_IRQHandler                         build/startup_at32f403xe.o
TMR1_BRK_TMR9_IRQHandler                          build/startup_at32f403xe.o
TMR1_CC_IRQHandler                                build/startup_at32f403xe.o
TMR1_OV_TMR10_IRQHandler                          build/startup_at32f403xe.o
TMR1_TRG_HALL_TMR11_IRQHandler                    build/startup_at32f403xe.o
TMR2_GLOBAL_IRQHandler                            build/startup_at32f403xe.o
TMR3_GLOBAL_IRQHandler                            build/bsp_timer.o
TMR4_GLOBAL_IRQHandler                            build/startup_at32f403xe.o
TMR5_GLOBAL_IRQHandler                            build/startup_at32f403xe.o
TMR6_GLOBAL_IRQHandler                            build/TimerForRunTimeState.o
TMR7_GLOBAL_IRQHandler                            build/startup_at32f403xe.o
TMR8_BRK_TMR12_IRQHandler                         build/startup_at32f403xe.o
TMR8_CC_IRQHandler                                build/startup_at32f403xe.o
TMR8_OV_TMR13_IRQHandler                          build/startup_at32f403xe.o
TMR8_TRG_HALL_TMR14_IRQHandler                    build/startup_at32f403xe.o
TMR_ARPreloadConfig                               build/at32f4xx_tim.o
                                                  build/bsp_timer.o
                                                  build/bsp_tim_pwm.o
TMR_BRKDTConfig                                   build/at32f4xx_tim.o
TMR_BRKDTStructInit                               build/at32f4xx_tim.o
TMR_CCPreloadControl                              build/at32f4xx_tim.o
TMR_CCxCmd                                        build/at32f4xx_tim.o
TMR_CCxNCmd                                       build/at32f4xx_tim.o
TMR_ClearFlag                                     build/at32f4xx_tim.o
TMR_ClearITPendingBit                             build/at32f4xx_tim.o
                                                  build/TimerForRunTimeState.o
                                                  build/bsp_timer.o
TMR_ClearOC1Ref                                   build/at32f4xx_tim.o
TMR_ClearOC2Ref                                   build/at32f4xx_tim.o
TMR_ClearOC3Ref                                   build/at32f4xx_tim.o
TMR_ClearOC4Ref                                   build/at32f4xx_tim.o
TMR_Cmd                                           build/at32f4xx_tim.o
                                                  build/bsp_timer.o
                                                  build/bsp_tim_pwm.o
TMR_CounterModeConfig                             build/at32f4xx_tim.o
TMR_CtrlPWMOutputs                                build/at32f4xx_tim.o
                                                  build/bsp_tim_pwm.o
TMR_DIVConfig                                     build/at32f4xx_tim.o
TMR_DMACmd                                        build/at32f4xx_tim.o
TMR_DMAConfig                                     build/at32f4xx_tim.o
TMR_ETRClockMode1Config                           build/at32f4xx_tim.o
TMR_ETRClockMode2Config                           build/at32f4xx_tim.o
TMR_ETRConfig                                     build/at32f4xx_tim.o
TMR_EncoderInterfaceConfig                        build/at32f4xx_tim.o
TMR_ForcedOC1Config                               build/at32f4xx_tim.o
TMR_ForcedOC2Config                               build/at32f4xx_tim.o
TMR_ForcedOC3Config                               build/at32f4xx_tim.o
TMR_ForcedOC4Config                               build/at32f4xx_tim.o
TMR_GenerateEvent                                 build/at32f4xx_tim.o
TMR_GetCapture1                                   build/at32f4xx_tim.o
TMR_GetCapture2                                   build/at32f4xx_tim.o
TMR_GetCapture3                                   build/at32f4xx_tim.o
TMR_GetCapture4                                   build/at32f4xx_tim.o
TMR_GetCounter                                    build/at32f4xx_tim.o
                                                  build/bsp_timer.o
TMR_GetDIV                                        build/at32f4xx_tim.o
TMR_GetFlagStatus                                 build/at32f4xx_tim.o
TMR_GetINTStatus                                  build/at32f4xx_tim.o
                                                  build/TimerForRunTimeState.o
                                                  build/bsp_timer.o
TMR_ICInit                                        build/at32f4xx_tim.o
TMR_ICStructInit                                  build/at32f4xx_tim.o
TMR_INTConfig                                     build/at32f4xx_tim.o
                                                  build/bsp_timer.o
                                                  build/bsp_tim_pwm.o
TMR_ITRxExternalClockConfig                       build/at32f4xx_tim.o
TMR_InternalClockConfig                           build/at32f4xx_tim.o
TMR_OC1FastConfig                                 build/at32f4xx_tim.o
TMR_OC1Init                                       build/at32f4xx_tim.o
                                                  build/bsp_tim_pwm.o
TMR_OC1NPolarityConfig                            build/at32f4xx_tim.o
TMR_OC1PolarityConfig                             build/at32f4xx_tim.o
TMR_OC1PreloadConfig                              build/at32f4xx_tim.o
                                                  build/bsp_tim_pwm.o
TMR_OC2FastConfig                                 build/at32f4xx_tim.o
TMR_OC2Init                                       build/at32f4xx_tim.o
                                                  build/bsp_tim_pwm.o
TMR_OC2NPolarityConfig                            build/at32f4xx_tim.o
TMR_OC2PolarityConfig                             build/at32f4xx_tim.o
TMR_OC2PreloadConfig                              build/at32f4xx_tim.o
                                                  build/bsp_tim_pwm.o
TMR_OC3FastConfig                                 build/at32f4xx_tim.o
TMR_OC3Init                                       build/at32f4xx_tim.o
                                                  build/bsp_tim_pwm.o
TMR_OC3NPolarityConfig                            build/at32f4xx_tim.o
TMR_OC3PolarityConfig                             build/at32f4xx_tim.o
TMR_OC3PreloadConfig                              build/at32f4xx_tim.o
                                                  build/bsp_tim_pwm.o
TMR_OC4FastConfig                                 build/at32f4xx_tim.o
TMR_OC4Init                                       build/at32f4xx_tim.o
                                                  build/bsp_tim_pwm.o
TMR_OC4PolarityConfig                             build/at32f4xx_tim.o
TMR_OC4PreloadConfig                              build/at32f4xx_tim.o
                                                  build/bsp_tim_pwm.o
TMR_OCStructInit                                  build/at32f4xx_tim.o
                                                  build/bsp_tim_pwm.o
TMR_PWMIConfig                                    build/at32f4xx_tim.o
TMR_Reset                                         build/at32f4xx_tim.o
TMR_SelectCCDMA                                   build/at32f4xx_tim.o
TMR_SelectHALL                                    build/at32f4xx_tim.o
TMR_SelectHallSensor                              build/at32f4xx_tim.o
TMR_SelectInputTrigger                            build/at32f4xx_tim.o
TMR_SelectMasterSlaveMode                         build/at32f4xx_tim.o
TMR_SelectOCxM                                    build/at32f4xx_tim.o
TMR_SelectOnePulseMode                            build/at32f4xx_tim.o
TMR_SelectOutputTrigger                           build/at32f4xx_tim.o
TMR_SelectPlusMode                                build/at32f4xx_tim.o
TMR_SelectSlaveMode                               build/at32f4xx_tim.o
TMR_SetAutoreload                                 build/at32f4xx_tim.o
TMR_SetClockDivision                              build/at32f4xx_tim.o
TMR_SetCompare1                                   build/at32f4xx_tim.o
                                                  build/bsp_timer.o
TMR_SetCompare2                                   build/at32f4xx_tim.o
                                                  build/bsp_timer.o
TMR_SetCompare3                                   build/at32f4xx_tim.o
                                                  build/bsp_timer.o
TMR_SetCompare4                                   build/at32f4xx_tim.o
                                                  build/bsp_timer.o
TMR_SetCounter                                    build/at32f4xx_tim.o
TMR_SetIC1DIV                                     build/at32f4xx_tim.o
TMR_SetIC2DIV                                     build/at32f4xx_tim.o
TMR_SetIC3DIV                                     build/at32f4xx_tim.o
TMR_SetIC4DIV                                     build/at32f4xx_tim.o
TMR_TIxExternalClockConfig                        build/at32f4xx_tim.o
TMR_TimeBaseInit                                  build/at32f4xx_tim.o
                                                  build/bsp_timer.o
                                                  build/bsp_tim_pwm.o
TMR_TimeBaseStructInit                            build/at32f4xx_tim.o
TMR_UpdateDisableConfig                           build/at32f4xx_tim.o
TMR_UpdateRequestConfig                           build/at32f4xx_tim.o
UART4_IRQHandler                                  build/startup_at32f403xe.o
UART5_IRQHandler                                  build/startup_at32f403xe.o
UART_Print_Init                                   build/at32_hoverboard.o
                                                  build/bsp_uart_fifo.o
USART1_IRQHandler                                 build/startup_at32f403xe.o
USART2_IRQHandler                                 build/bsp_uart_fifo.o
USART3_IRQHandler                                 build/startup_at32f403xe.o
USART_ClearFlag                                   build/at32f4xx_usart.o
                                                  build/bsp_uart_fifo.o
USART_ClearITPendingBit                           build/at32f4xx_usart.o
USART_ClockInit                                   build/at32f4xx_usart.o
USART_ClockStructInit                             build/at32f4xx_usart.o
USART_Cmd                                         build/at32f4xx_usart.o
                                                  build/at32_hoverboard.o
USART_DMACmd                                      build/at32f4xx_usart.o
USART_GetFlagStatus                               build/at32f4xx_usart.o
                                                  build/at32_hoverboard.o
USART_GetITStatus                                 build/at32f4xx_usart.o
                                                  build/bsp_uart_fifo.o
USART_HalfDuplexCmd                               build/at32f4xx_usart.o
USART_INTConfig                                   build/at32f4xx_usart.o
                                                  build/bsp_uart_fifo.o
                                                  build/at32_hoverboard.o
USART_Init                                        build/at32f4xx_usart.o
                                                  build/bsp_uart_fifo.o
                                                  build/at32_hoverboard.o
USART_IrDACmd                                     build/at32f4xx_usart.o
USART_IrDAConfig                                  build/at32f4xx_usart.o
USART_LINBreakDetectLengthConfig                  build/at32f4xx_usart.o
USART_LINCmd                                      build/at32f4xx_usart.o
USART_OneBitMethodCmd                             build/at32f4xx_usart.o
USART_OverSampling8Cmd                            build/at32f4xx_usart.o
USART_ReceiveData                                 build/at32f4xx_usart.o
                                                  build/bsp_uart_fifo.o
USART_ReceiverWakeUpCmd                           build/at32f4xx_usart.o
USART_Reset                                       build/at32f4xx_usart.o
USART_SendBreak                                   build/at32f4xx_usart.o
USART_SendData                                    build/at32f4xx_usart.o
                                                  build/bsp_uart_fifo.o
                                                  build/at32_hoverboard.o
USART_SetAddress                                  build/at32f4xx_usart.o
USART_SetGuardTime                                build/at32f4xx_usart.o
USART_SetPrescaler                                build/at32f4xx_usart.o
USART_SmartCardCmd                                build/at32f4xx_usart.o
USART_SmartCardNACKCmd                            build/at32f4xx_usart.o
USART_StructInit                                  build/at32f4xx_usart.o
                                                  build/at32_hoverboard.o
USART_WakeUpConfig                                build/at32f4xx_usart.o
USBWakeUp_IRQHandler                              build/startup_at32f403xe.o
USB_HP_CAN1_TX_IRQHandler                         build/startup_at32f403xe.o
USB_LP_CAN1_RX0_IRQHandler                        build/startup_at32f403xe.o
UsageFault_Handler                                build/at32f4xx_it.o
WWDG_IRQHandler                                   build/startup_at32f403xe.o
XMC_IRQHandler                                    build/startup_at32f403xe.o
_Unwind_Backtrace                                 /usr/local/Cellar/gcc-arm-none-eabi/20180627/bin/../lib/gcc/arm-none-eabi/7.3.1/thumb/v7e-m/fpv4-sp/softfp/libgcc.a(libunwind.o)
_Unwind_Complete                                  /usr/local/Cellar/gcc-arm-none-eabi/20180627/bin/../lib/gcc/arm-none-eabi/7.3.1/thumb/v7e-m/fpv4-sp/softfp/libgcc.a(unwind-arm.o)
_Unwind_DeleteException                           /usr/local/Cellar/gcc-arm-none-eabi/20180627/bin/../lib/gcc/arm-none-eabi/7.3.1/thumb/v7e-m/fpv4-sp/softfp/libgcc.a(unwind-arm.o)
_Unwind_ForcedUnwind                              /usr/local/Cellar/gcc-arm-none-eabi/20180627/bin/../lib/gcc/arm-none-eabi/7.3.1/thumb/v7e-m/fpv4-sp/softfp/libgcc.a(libunwind.o)
_Unwind_GetCFA                                    /usr/local/Cellar/gcc-arm-none-eabi/20180627/bin/../lib/gcc/arm-none-eabi/7.3.1/thumb/v7e-m/fpv4-sp/softfp/libgcc.a(unwind-arm.o)
_Unwind_GetDataRelBase                            /usr/local/Cellar/gcc-arm-none-eabi/20180627/bin/../lib/gcc/arm-none-eabi/7.3.1/thumb/v7e-m/fpv4-sp/softfp/libgcc.a(pr-support.o)
_Unwind_GetLanguageSpecificData                   /usr/local/Cellar/gcc-arm-none-eabi/20180627/bin/../lib/gcc/arm-none-eabi/7.3.1/thumb/v7e-m/fpv4-sp/softfp/libgcc.a(pr-support.o)
_Unwind_GetRegionStart                            /usr/local/Cellar/gcc-arm-none-eabi/20180627/bin/../lib/gcc/arm-none-eabi/7.3.1/thumb/v7e-m/fpv4-sp/softfp/libgcc.a(pr-support.o)
_Unwind_GetTextRelBase                            /usr/local/Cellar/gcc-arm-none-eabi/20180627/bin/../lib/gcc/arm-none-eabi/7.3.1/thumb/v7e-m/fpv4-sp/softfp/libgcc.a(pr-support.o)
_Unwind_RaiseException                            /usr/local/Cellar/gcc-arm-none-eabi/20180627/bin/../lib/gcc/arm-none-eabi/7.3.1/thumb/v7e-m/fpv4-sp/softfp/libgcc.a(libunwind.o)
_Unwind_Resume                                    /usr/local/Cellar/gcc-arm-none-eabi/20180627/bin/../lib/gcc/arm-none-eabi/7.3.1/thumb/v7e-m/fpv4-sp/softfp/libgcc.a(libunwind.o)
_Unwind_Resume_or_Rethrow                         /usr/local/Cellar/gcc-arm-none-eabi/20180627/bin/../lib/gcc/arm-none-eabi/7.3.1/thumb/v7e-m/fpv4-sp/softfp/libgcc.a(libunwind.o)
_Unwind_VRS_Get                                   /usr/local/Cellar/gcc-arm-none-eabi/20180627/bin/../lib/gcc/arm-none-eabi/7.3.1/thumb/v7e-m/fpv4-sp/softfp/libgcc.a(unwind-arm.o)
                                                  /usr/local/Cellar/gcc-arm-none-eabi/20180627/bin/../lib/gcc/arm-none-eabi/7.3.1/thumb/v7e-m/fpv4-sp/softfp/libgcc.a(pr-support.o)
_Unwind_VRS_Pop                                   /usr/local/Cellar/gcc-arm-none-eabi/20180627/bin/../lib/gcc/arm-none-eabi/7.3.1/thumb/v7e-m/fpv4-sp/softfp/libgcc.a(unwind-arm.o)
                                                  /usr/local/Cellar/gcc-arm-none-eabi/20180627/bin/../lib/gcc/arm-none-eabi/7.3.1/thumb/v7e-m/fpv4-sp/softfp/libgcc.a(pr-support.o)
_Unwind_VRS_Set                                   /usr/local/Cellar/gcc-arm-none-eabi/20180627/bin/../lib/gcc/arm-none-eabi/7.3.1/thumb/v7e-m/fpv4-sp/softfp/libgcc.a(unwind-arm.o)
                                                  /usr/local/Cellar/gcc-arm-none-eabi/20180627/bin/../lib/gcc/arm-none-eabi/7.3.1/thumb/v7e-m/fpv4-sp/softfp/libgcc.a(pr-support.o)
___Unwind_Backtrace                               /usr/local/Cellar/gcc-arm-none-eabi/20180627/bin/../lib/gcc/arm-none-eabi/7.3.1/thumb/v7e-m/fpv4-sp/softfp/libgcc.a(libunwind.o)
___Unwind_ForcedUnwind                            /usr/local/Cellar/gcc-arm-none-eabi/20180627/bin/../lib/gcc/arm-none-eabi/7.3.1/thumb/v7e-m/fpv4-sp/softfp/libgcc.a(libunwind.o)
___Unwind_RaiseException                          /usr/local/Cellar/gcc-arm-none-eabi/20180627/bin/../lib/gcc/arm-none-eabi/7.3.1/thumb/v7e-m/fpv4-sp/softfp/libgcc.a(libunwind.o)
___Unwind_Resume                                  /usr/local/Cellar/gcc-arm-none-eabi/20180627/bin/../lib/gcc/arm-none-eabi/7.3.1/thumb/v7e-m/fpv4-sp/softfp/libgcc.a(libunwind.o)
___Unwind_Resume_or_Rethrow                       /usr/local/Cellar/gcc-arm-none-eabi/20180627/bin/../lib/gcc/arm-none-eabi/7.3.1/thumb/v7e-m/fpv4-sp/softfp/libgcc.a(libunwind.o)
__adddf3                                          /usr/local/Cellar/gcc-arm-none-eabi/20180627/bin/../lib/gcc/arm-none-eabi/7.3.1/thumb/v7e-m/fpv4-sp/softfp/libgcc.a(_arm_addsubdf3.o)
__aeabi_d2iz                                      /usr/local/Cellar/gcc-arm-none-eabi/20180627/bin/../lib/gcc/arm-none-eabi/7.3.1/thumb/v7e-m/fpv4-sp/softfp/libgcc.a(_arm_fixdfsi.o)
                                                  build/duration.o
__aeabi_dadd                                      /usr/local/Cellar/gcc-arm-none-eabi/20180627/bin/../lib/gcc/arm-none-eabi/7.3.1/thumb/v7e-m/fpv4-sp/softfp/libgcc.a(_arm_addsubdf3.o)
__aeabi_ddiv                                      /usr/local/Cellar/gcc-arm-none-eabi/20180627/bin/../lib/gcc/arm-none-eabi/7.3.1/thumb/v7e-m/fpv4-sp/softfp/libgcc.a(_arm_muldivdf3.o)
__aeabi_dmul                                      /usr/local/Cellar/gcc-arm-none-eabi/20180627/bin/../lib/gcc/arm-none-eabi/7.3.1/thumb/v7e-m/fpv4-sp/softfp/libgcc.a(_arm_muldivdf3.o)
                                                  build/duration.o
__aeabi_drsub                                     /usr/local/Cellar/gcc-arm-none-eabi/20180627/bin/../lib/gcc/arm-none-eabi/7.3.1/thumb/v7e-m/fpv4-sp/softfp/libgcc.a(_arm_addsubdf3.o)
__aeabi_dsub                                      /usr/local/Cellar/gcc-arm-none-eabi/20180627/bin/../lib/gcc/arm-none-eabi/7.3.1/thumb/v7e-m/fpv4-sp/softfp/libgcc.a(_arm_addsubdf3.o)
__aeabi_f2d                                       /usr/local/Cellar/gcc-arm-none-eabi/20180627/bin/../lib/gcc/arm-none-eabi/7.3.1/thumb/v7e-m/fpv4-sp/softfp/libgcc.a(_arm_addsubdf3.o)
__aeabi_i2d                                       /usr/local/Cellar/gcc-arm-none-eabi/20180627/bin/../lib/gcc/arm-none-eabi/7.3.1/thumb/v7e-m/fpv4-sp/softfp/libgcc.a(_arm_addsubdf3.o)
                                                  build/duration.o
__aeabi_l2d                                       /usr/local/Cellar/gcc-arm-none-eabi/20180627/bin/../lib/gcc/arm-none-eabi/7.3.1/thumb/v7e-m/fpv4-sp/softfp/libgcc.a(_arm_addsubdf3.o)
__aeabi_ui2d                                      /usr/local/Cellar/gcc-arm-none-eabi/20180627/bin/../lib/gcc/arm-none-eabi/7.3.1/thumb/v7e-m/fpv4-sp/softfp/libgcc.a(_arm_addsubdf3.o)
__aeabi_ul2d                                      /usr/local/Cellar/gcc-arm-none-eabi/20180627/bin/../lib/gcc/arm-none-eabi/7.3.1/thumb/v7e-m/fpv4-sp/softfp/libgcc.a(_arm_addsubdf3.o)
__aeabi_unwind_cpp_pr0                            /usr/local/Cellar/gcc-arm-none-eabi/20180627/bin/../lib/gcc/arm-none-eabi/7.3.1/thumb/v7e-m/fpv4-sp/softfp/libgcc.a(unwind-arm.o)
                                                  /usr/local/Cellar/gcc-arm-none-eabi/20180627/bin/../lib/gcc/arm-none-eabi/7.3.1/thumb/v7e-m/fpv4-sp/softfp/libgcc.a(pr-support.o)
                                                  build/heartbeat_task.o
                                                  build/subscribe_task.o
                                                  build/spin_task.o
                                                  build/main.o
__aeabi_unwind_cpp_pr1                            /usr/local/Cellar/gcc-arm-none-eabi/20180627/bin/../lib/gcc/arm-none-eabi/7.3.1/thumb/v7e-m/fpv4-sp/softfp/libgcc.a(unwind-arm.o)
                                                  /usr/local/Cellar/gcc-arm-none-eabi/20180627/bin/../lib/gcc/arm-none-eabi/7.3.1/thumb/v7e-m/fpv4-sp/softfp/libgcc.a(pr-support.o)
                                                  build/heartbeat_task.o
                                                  build/subscribe_task.o
                                                  build/main.o
__aeabi_unwind_cpp_pr2                            /usr/local/Cellar/gcc-arm-none-eabi/20180627/bin/../lib/gcc/arm-none-eabi/7.3.1/thumb/v7e-m/fpv4-sp/softfp/libgcc.a(unwind-arm.o)
__bss_end__                                       /usr/local/Cellar/gcc-arm-none-eabi/20180627/bin/../lib/gcc/arm-none-eabi/7.3.1/../../../../arm-none-eabi/lib/thumb/v7e-m/fpv4-sp/softfp/crt0.o
__bss_start__                                     /usr/local/Cellar/gcc-arm-none-eabi/20180627/bin/../lib/gcc/arm-none-eabi/7.3.1/../../../../arm-none-eabi/lib/thumb/v7e-m/fpv4-sp/softfp/crt0.o
__call_exitprocs                                  /usr/local/Cellar/gcc-arm-none-eabi/20180627/bin/../lib/gcc/arm-none-eabi/7.3.1/../../../../arm-none-eabi/lib/thumb/v7e-m/fpv4-sp/softfp/libc_nano.a(lib_a-exit.o)
__cxa_begin_cleanup                               /usr/local/Cellar/gcc-arm-none-eabi/20180627/bin/../lib/gcc/arm-none-eabi/7.3.1/thumb/v7e-m/fpv4-sp/softfp/libgcc.a(unwind-arm.o)
__cxa_call_unexpected                             /usr/local/Cellar/gcc-arm-none-eabi/20180627/bin/../lib/gcc/arm-none-eabi/7.3.1/thumb/v7e-m/fpv4-sp/softfp/libgcc.a(unwind-arm.o)
__cxa_type_match                                  /usr/local/Cellar/gcc-arm-none-eabi/20180627/bin/../lib/gcc/arm-none-eabi/7.3.1/thumb/v7e-m/fpv4-sp/softfp/libgcc.a(unwind-arm.o)
__deregister_frame_info                           /usr/local/Cellar/gcc-arm-none-eabi/20180627/bin/../lib/gcc/arm-none-eabi/7.3.1/thumb/v7e-m/fpv4-sp/softfp/crtbegin.o
__divdf3                                          /usr/local/Cellar/gcc-arm-none-eabi/20180627/bin/../lib/gcc/arm-none-eabi/7.3.1/thumb/v7e-m/fpv4-sp/softfp/libgcc.a(_arm_muldivdf3.o)
__dso_handle                                      /usr/local/Cellar/gcc-arm-none-eabi/20180627/bin/../lib/gcc/arm-none-eabi/7.3.1/thumb/v7e-m/fpv4-sp/softfp/crtbegin.o
__exidx_end                                       /usr/local/Cellar/gcc-arm-none-eabi/20180627/bin/../lib/gcc/arm-none-eabi/7.3.1/thumb/v7e-m/fpv4-sp/softfp/libgcc.a(unwind-arm.o)
__exidx_start                                     /usr/local/Cellar/gcc-arm-none-eabi/20180627/bin/../lib/gcc/arm-none-eabi/7.3.1/thumb/v7e-m/fpv4-sp/softfp/libgcc.a(unwind-arm.o)
__extendsfdf2                                     /usr/local/Cellar/gcc-arm-none-eabi/20180627/bin/../lib/gcc/arm-none-eabi/7.3.1/thumb/v7e-m/fpv4-sp/softfp/libgcc.a(_arm_addsubdf3.o)
__fixdfsi                                         /usr/local/Cellar/gcc-arm-none-eabi/20180627/bin/../lib/gcc/arm-none-eabi/7.3.1/thumb/v7e-m/fpv4-sp/softfp/libgcc.a(_arm_fixdfsi.o)
__floatdidf                                       /usr/local/Cellar/gcc-arm-none-eabi/20180627/bin/../lib/gcc/arm-none-eabi/7.3.1/thumb/v7e-m/fpv4-sp/softfp/libgcc.a(_arm_addsubdf3.o)
__floatsidf                                       /usr/local/Cellar/gcc-arm-none-eabi/20180627/bin/../lib/gcc/arm-none-eabi/7.3.1/thumb/v7e-m/fpv4-sp/softfp/libgcc.a(_arm_addsubdf3.o)
__floatundidf                                     /usr/local/Cellar/gcc-arm-none-eabi/20180627/bin/../lib/gcc/arm-none-eabi/7.3.1/thumb/v7e-m/fpv4-sp/softfp/libgcc.a(_arm_addsubdf3.o)
__floatunsidf                                     /usr/local/Cellar/gcc-arm-none-eabi/20180627/bin/../lib/gcc/arm-none-eabi/7.3.1/thumb/v7e-m/fpv4-sp/softfp/libgcc.a(_arm_addsubdf3.o)
__fp_lock_all                                     /usr/local/Cellar/gcc-arm-none-eabi/20180627/bin/../lib/gcc/arm-none-eabi/7.3.1/../../../../arm-none-eabi/lib/thumb/v7e-m/fpv4-sp/softfp/libc_nano.a(lib_a-findfp.o)
__fp_unlock_all                                   /usr/local/Cellar/gcc-arm-none-eabi/20180627/bin/../lib/gcc/arm-none-eabi/7.3.1/../../../../arm-none-eabi/lib/thumb/v7e-m/fpv4-sp/softfp/libc_nano.a(lib_a-findfp.o)
__gnu_Unwind_Backtrace                            /usr/local/Cellar/gcc-arm-none-eabi/20180627/bin/../lib/gcc/arm-none-eabi/7.3.1/thumb/v7e-m/fpv4-sp/softfp/libgcc.a(unwind-arm.o)
                                                  /usr/local/Cellar/gcc-arm-none-eabi/20180627/bin/../lib/gcc/arm-none-eabi/7.3.1/thumb/v7e-m/fpv4-sp/softfp/libgcc.a(libunwind.o)
__gnu_Unwind_Find_exidx                           /usr/local/Cellar/gcc-arm-none-eabi/20180627/bin/../lib/gcc/arm-none-eabi/7.3.1/thumb/v7e-m/fpv4-sp/softfp/libgcc.a(unwind-arm.o)
__gnu_Unwind_ForcedUnwind                         /usr/local/Cellar/gcc-arm-none-eabi/20180627/bin/../lib/gcc/arm-none-eabi/7.3.1/thumb/v7e-m/fpv4-sp/softfp/libgcc.a(unwind-arm.o)
                                                  /usr/local/Cellar/gcc-arm-none-eabi/20180627/bin/../lib/gcc/arm-none-eabi/7.3.1/thumb/v7e-m/fpv4-sp/softfp/libgcc.a(libunwind.o)
__gnu_Unwind_RaiseException                       /usr/local/Cellar/gcc-arm-none-eabi/20180627/bin/../lib/gcc/arm-none-eabi/7.3.1/thumb/v7e-m/fpv4-sp/softfp/libgcc.a(unwind-arm.o)
                                                  /usr/local/Cellar/gcc-arm-none-eabi/20180627/bin/../lib/gcc/arm-none-eabi/7.3.1/thumb/v7e-m/fpv4-sp/softfp/libgcc.a(libunwind.o)
__gnu_Unwind_Restore_VFP                          /usr/local/Cellar/gcc-arm-none-eabi/20180627/bin/../lib/gcc/arm-none-eabi/7.3.1/thumb/v7e-m/fpv4-sp/softfp/libgcc.a(libunwind.o)
                                                  /usr/local/Cellar/gcc-arm-none-eabi/20180627/bin/../lib/gcc/arm-none-eabi/7.3.1/thumb/v7e-m/fpv4-sp/softfp/libgcc.a(unwind-arm.o)
__gnu_Unwind_Restore_VFP_D                        /usr/local/Cellar/gcc-arm-none-eabi/20180627/bin/../lib/gcc/arm-none-eabi/7.3.1/thumb/v7e-m/fpv4-sp/softfp/libgcc.a(libunwind.o)
                                                  /usr/local/Cellar/gcc-arm-none-eabi/20180627/bin/../lib/gcc/arm-none-eabi/7.3.1/thumb/v7e-m/fpv4-sp/softfp/libgcc.a(unwind-arm.o)
__gnu_Unwind_Restore_VFP_D_16_to_31               /usr/local/Cellar/gcc-arm-none-eabi/20180627/bin/../lib/gcc/arm-none-eabi/7.3.1/thumb/v7e-m/fpv4-sp/softfp/libgcc.a(libunwind.o)
                                                  /usr/local/Cellar/gcc-arm-none-eabi/20180627/bin/../lib/gcc/arm-none-eabi/7.3.1/thumb/v7e-m/fpv4-sp/softfp/libgcc.a(unwind-arm.o)
__gnu_Unwind_Restore_WMMXC                        /usr/local/Cellar/gcc-arm-none-eabi/20180627/bin/../lib/gcc/arm-none-eabi/7.3.1/thumb/v7e-m/fpv4-sp/softfp/libgcc.a(libunwind.o)
                                                  /usr/local/Cellar/gcc-arm-none-eabi/20180627/bin/../lib/gcc/arm-none-eabi/7.3.1/thumb/v7e-m/fpv4-sp/softfp/libgcc.a(unwind-arm.o)
__gnu_Unwind_Restore_WMMXD                        /usr/local/Cellar/gcc-arm-none-eabi/20180627/bin/../lib/gcc/arm-none-eabi/7.3.1/thumb/v7e-m/fpv4-sp/softfp/libgcc.a(libunwind.o)
                                                  /usr/local/Cellar/gcc-arm-none-eabi/20180627/bin/../lib/gcc/arm-none-eabi/7.3.1/thumb/v7e-m/fpv4-sp/softfp/libgcc.a(unwind-arm.o)
__gnu_Unwind_Resume                               /usr/local/Cellar/gcc-arm-none-eabi/20180627/bin/../lib/gcc/arm-none-eabi/7.3.1/thumb/v7e-m/fpv4-sp/softfp/libgcc.a(unwind-arm.o)
                                                  /usr/local/Cellar/gcc-arm-none-eabi/20180627/bin/../lib/gcc/arm-none-eabi/7.3.1/thumb/v7e-m/fpv4-sp/softfp/libgcc.a(libunwind.o)
__gnu_Unwind_Resume_or_Rethrow                    /usr/local/Cellar/gcc-arm-none-eabi/20180627/bin/../lib/gcc/arm-none-eabi/7.3.1/thumb/v7e-m/fpv4-sp/softfp/libgcc.a(unwind-arm.o)
                                                  /usr/local/Cellar/gcc-arm-none-eabi/20180627/bin/../lib/gcc/arm-none-eabi/7.3.1/thumb/v7e-m/fpv4-sp/softfp/libgcc.a(libunwind.o)
__gnu_Unwind_Save_VFP                             /usr/local/Cellar/gcc-arm-none-eabi/20180627/bin/../lib/gcc/arm-none-eabi/7.3.1/thumb/v7e-m/fpv4-sp/softfp/libgcc.a(libunwind.o)
                                                  /usr/local/Cellar/gcc-arm-none-eabi/20180627/bin/../lib/gcc/arm-none-eabi/7.3.1/thumb/v7e-m/fpv4-sp/softfp/libgcc.a(unwind-arm.o)
__gnu_Unwind_Save_VFP_D                           /usr/local/Cellar/gcc-arm-none-eabi/20180627/bin/../lib/gcc/arm-none-eabi/7.3.1/thumb/v7e-m/fpv4-sp/softfp/libgcc.a(libunwind.o)
                                                  /usr/local/Cellar/gcc-arm-none-eabi/20180627/bin/../lib/gcc/arm-none-eabi/7.3.1/thumb/v7e-m/fpv4-sp/softfp/libgcc.a(unwind-arm.o)
__gnu_Unwind_Save_VFP_D_16_to_31                  /usr/local/Cellar/gcc-arm-none-eabi/20180627/bin/../lib/gcc/arm-none-eabi/7.3.1/thumb/v7e-m/fpv4-sp/softfp/libgcc.a(libunwind.o)
                                                  /usr/local/Cellar/gcc-arm-none-eabi/20180627/bin/../lib/gcc/arm-none-eabi/7.3.1/thumb/v7e-m/fpv4-sp/softfp/libgcc.a(unwind-arm.o)
__gnu_Unwind_Save_WMMXC                           /usr/local/Cellar/gcc-arm-none-eabi/20180627/bin/../lib/gcc/arm-none-eabi/7.3.1/thumb/v7e-m/fpv4-sp/softfp/libgcc.a(libunwind.o)
                                                  /usr/local/Cellar/gcc-arm-none-eabi/20180627/bin/../lib/gcc/arm-none-eabi/7.3.1/thumb/v7e-m/fpv4-sp/softfp/libgcc.a(unwind-arm.o)
__gnu_Unwind_Save_WMMXD                           /usr/local/Cellar/gcc-arm-none-eabi/20180627/bin/../lib/gcc/arm-none-eabi/7.3.1/thumb/v7e-m/fpv4-sp/softfp/libgcc.a(libunwind.o)
                                                  /usr/local/Cellar/gcc-arm-none-eabi/20180627/bin/../lib/gcc/arm-none-eabi/7.3.1/thumb/v7e-m/fpv4-sp/softfp/libgcc.a(unwind-arm.o)
__gnu_unwind_execute                              /usr/local/Cellar/gcc-arm-none-eabi/20180627/bin/../lib/gcc/arm-none-eabi/7.3.1/thumb/v7e-m/fpv4-sp/softfp/libgcc.a(pr-support.o)
                                                  /usr/local/Cellar/gcc-arm-none-eabi/20180627/bin/../lib/gcc/arm-none-eabi/7.3.1/thumb/v7e-m/fpv4-sp/softfp/libgcc.a(unwind-arm.o)
__gnu_unwind_frame                                /usr/local/Cellar/gcc-arm-none-eabi/20180627/bin/../lib/gcc/arm-none-eabi/7.3.1/thumb/v7e-m/fpv4-sp/softfp/libgcc.a(pr-support.o)
__init_array_end                                  /usr/local/Cellar/gcc-arm-none-eabi/20180627/bin/../lib/gcc/arm-none-eabi/7.3.1/../../../../arm-none-eabi/lib/thumb/v7e-m/fpv4-sp/softfp/libc_nano.a(lib_a-init.o)
__init_array_start                                /usr/local/Cellar/gcc-arm-none-eabi/20180627/bin/../lib/gcc/arm-none-eabi/7.3.1/../../../../arm-none-eabi/lib/thumb/v7e-m/fpv4-sp/softfp/libc_nano.a(lib_a-init.o)
__io_putchar                                      build/at32_hoverboard.o
__libc_fini_array                                 /usr/local/Cellar/gcc-arm-none-eabi/20180627/bin/../lib/gcc/arm-none-eabi/7.3.1/../../../../arm-none-eabi/lib/thumb/v7e-m/fpv4-sp/softfp/crt0.o
__libc_init_array                                 /usr/local/Cellar/gcc-arm-none-eabi/20180627/bin/../lib/gcc/arm-none-eabi/7.3.1/../../../../arm-none-eabi/lib/thumb/v7e-m/fpv4-sp/softfp/libc_nano.a(lib_a-init.o)
                                                  /usr/local/Cellar/gcc-arm-none-eabi/20180627/bin/../lib/gcc/arm-none-eabi/7.3.1/../../../../arm-none-eabi/lib/thumb/v7e-m/fpv4-sp/softfp/crt0.o
__malloc_free_list                                /usr/local/Cellar/gcc-arm-none-eabi/20180627/bin/../lib/gcc/arm-none-eabi/7.3.1/../../../../arm-none-eabi/lib/thumb/v7e-m/fpv4-sp/softfp/libc_nano.a(lib_a-nano-mallocr.o)
                                                  /usr/local/Cellar/gcc-arm-none-eabi/20180627/bin/../lib/gcc/arm-none-eabi/7.3.1/../../../../arm-none-eabi/lib/thumb/v7e-m/fpv4-sp/softfp/libc_nano.a(lib_a-nano-freer.o)
__malloc_lock                                     /usr/local/Cellar/gcc-arm-none-eabi/20180627/bin/../lib/gcc/arm-none-eabi/7.3.1/../../../../arm-none-eabi/lib/thumb/v7e-m/fpv4-sp/softfp/libc_nano.a(lib_a-mlock.o)
                                                  /usr/local/Cellar/gcc-arm-none-eabi/20180627/bin/../lib/gcc/arm-none-eabi/7.3.1/../../../../arm-none-eabi/lib/thumb/v7e-m/fpv4-sp/softfp/libc_nano.a(lib_a-nano-mallocr.o)
                                                  /usr/local/Cellar/gcc-arm-none-eabi/20180627/bin/../lib/gcc/arm-none-eabi/7.3.1/../../../../arm-none-eabi/lib/thumb/v7e-m/fpv4-sp/softfp/libc_nano.a(lib_a-nano-freer.o)
__malloc_sbrk_start                               /usr/local/Cellar/gcc-arm-none-eabi/20180627/bin/../lib/gcc/arm-none-eabi/7.3.1/../../../../arm-none-eabi/lib/thumb/v7e-m/fpv4-sp/softfp/libc_nano.a(lib_a-nano-mallocr.o)
__malloc_unlock                                   /usr/local/Cellar/gcc-arm-none-eabi/20180627/bin/../lib/gcc/arm-none-eabi/7.3.1/../../../../arm-none-eabi/lib/thumb/v7e-m/fpv4-sp/softfp/libc_nano.a(lib_a-mlock.o)
                                                  /usr/local/Cellar/gcc-arm-none-eabi/20180627/bin/../lib/gcc/arm-none-eabi/7.3.1/../../../../arm-none-eabi/lib/thumb/v7e-m/fpv4-sp/softfp/libc_nano.a(lib_a-nano-mallocr.o)
                                                  /usr/local/Cellar/gcc-arm-none-eabi/20180627/bin/../lib/gcc/arm-none-eabi/7.3.1/../../../../arm-none-eabi/lib/thumb/v7e-m/fpv4-sp/softfp/libc_nano.a(lib_a-nano-freer.o)
__muldf3                                          /usr/local/Cellar/gcc-arm-none-eabi/20180627/bin/../lib/gcc/arm-none-eabi/7.3.1/thumb/v7e-m/fpv4-sp/softfp/libgcc.a(_arm_muldivdf3.o)
__preinit_array_end                               /usr/local/Cellar/gcc-arm-none-eabi/20180627/bin/../lib/gcc/arm-none-eabi/7.3.1/../../../../arm-none-eabi/lib/thumb/v7e-m/fpv4-sp/softfp/libc_nano.a(lib_a-init.o)
__preinit_array_start                             /usr/local/Cellar/gcc-arm-none-eabi/20180627/bin/../lib/gcc/arm-none-eabi/7.3.1/../../../../arm-none-eabi/lib/thumb/v7e-m/fpv4-sp/softfp/libc_nano.a(lib_a-init.o)
__register_frame_info                             /usr/local/Cellar/gcc-arm-none-eabi/20180627/bin/../lib/gcc/arm-none-eabi/7.3.1/thumb/v7e-m/fpv4-sp/softfp/crtbegin.o
__restore_core_regs                               /usr/local/Cellar/gcc-arm-none-eabi/20180627/bin/../lib/gcc/arm-none-eabi/7.3.1/thumb/v7e-m/fpv4-sp/softfp/libgcc.a(libunwind.o)
__sclose                                          /usr/local/Cellar/gcc-arm-none-eabi/20180627/bin/../lib/gcc/arm-none-eabi/7.3.1/../../../../arm-none-eabi/lib/thumb/v7e-m/fpv4-sp/softfp/libc_nano.a(lib_a-stdio.o)
                                                  /usr/local/Cellar/gcc-arm-none-eabi/20180627/bin/../lib/gcc/arm-none-eabi/7.3.1/../../../../arm-none-eabi/lib/thumb/v7e-m/fpv4-sp/softfp/libc_nano.a(lib_a-findfp.o)
__seofread                                        /usr/local/Cellar/gcc-arm-none-eabi/20180627/bin/../lib/gcc/arm-none-eabi/7.3.1/../../../../arm-none-eabi/lib/thumb/v7e-m/fpv4-sp/softfp/libc_nano.a(lib_a-stdio.o)
__sf_fake_stderr                                  /usr/local/Cellar/gcc-arm-none-eabi/20180627/bin/../lib/gcc/arm-none-eabi/7.3.1/../../../../arm-none-eabi/lib/thumb/v7e-m/fpv4-sp/softfp/libc_nano.a(lib_a-findfp.o)
                                                  /usr/local/Cellar/gcc-arm-none-eabi/20180627/bin/../lib/gcc/arm-none-eabi/7.3.1/../../../../arm-none-eabi/lib/thumb/v7e-m/fpv4-sp/softfp/libc_nano.a(lib_a-nano-vfprintf.o)
                                                  /usr/local/Cellar/gcc-arm-none-eabi/20180627/bin/../lib/gcc/arm-none-eabi/7.3.1/../../../../arm-none-eabi/lib/thumb/v7e-m/fpv4-sp/softfp/libc_nano.a(lib_a-fflush.o)
                                                  /usr/local/Cellar/gcc-arm-none-eabi/20180627/bin/../lib/gcc/arm-none-eabi/7.3.1/../../../../arm-none-eabi/lib/thumb/v7e-m/fpv4-sp/softfp/libc_nano.a(lib_a-wsetup.o)
                                                  /usr/local/Cellar/gcc-arm-none-eabi/20180627/bin/../lib/gcc/arm-none-eabi/7.3.1/../../../../arm-none-eabi/lib/thumb/v7e-m/fpv4-sp/softfp/libc_nano.a(lib_a-wbuf.o)
                                                  /usr/local/Cellar/gcc-arm-none-eabi/20180627/bin/../lib/gcc/arm-none-eabi/7.3.1/../../../../arm-none-eabi/lib/thumb/v7e-m/fpv4-sp/softfp/libc_nano.a(lib_a-puts.o)
                                                  /usr/local/Cellar/gcc-arm-none-eabi/20180627/bin/../lib/gcc/arm-none-eabi/7.3.1/../../../../arm-none-eabi/lib/thumb/v7e-m/fpv4-sp/softfp/libc_nano.a(lib_a-impure.o)
__sf_fake_stdin                                   /usr/local/Cellar/gcc-arm-none-eabi/20180627/bin/../lib/gcc/arm-none-eabi/7.3.1/../../../../arm-none-eabi/lib/thumb/v7e-m/fpv4-sp/softfp/libc_nano.a(lib_a-findfp.o)
                                                  /usr/local/Cellar/gcc-arm-none-eabi/20180627/bin/../lib/gcc/arm-none-eabi/7.3.1/../../../../arm-none-eabi/lib/thumb/v7e-m/fpv4-sp/softfp/libc_nano.a(lib_a-nano-vfprintf.o)
                                                  /usr/local/Cellar/gcc-arm-none-eabi/20180627/bin/../lib/gcc/arm-none-eabi/7.3.1/../../../../arm-none-eabi/lib/thumb/v7e-m/fpv4-sp/softfp/libc_nano.a(lib_a-fflush.o)
                                                  /usr/local/Cellar/gcc-arm-none-eabi/20180627/bin/../lib/gcc/arm-none-eabi/7.3.1/../../../../arm-none-eabi/lib/thumb/v7e-m/fpv4-sp/softfp/libc_nano.a(lib_a-wsetup.o)
                                                  /usr/local/Cellar/gcc-arm-none-eabi/20180627/bin/../lib/gcc/arm-none-eabi/7.3.1/../../../../arm-none-eabi/lib/thumb/v7e-m/fpv4-sp/softfp/libc_nano.a(lib_a-wbuf.o)
                                                  /usr/local/Cellar/gcc-arm-none-eabi/20180627/bin/../lib/gcc/arm-none-eabi/7.3.1/../../../../arm-none-eabi/lib/thumb/v7e-m/fpv4-sp/softfp/libc_nano.a(lib_a-puts.o)
                                                  /usr/local/Cellar/gcc-arm-none-eabi/20180627/bin/../lib/gcc/arm-none-eabi/7.3.1/../../../../arm-none-eabi/lib/thumb/v7e-m/fpv4-sp/softfp/libc_nano.a(lib_a-impure.o)
__sf_fake_stdout                                  /usr/local/Cellar/gcc-arm-none-eabi/20180627/bin/../lib/gcc/arm-none-eabi/7.3.1/../../../../arm-none-eabi/lib/thumb/v7e-m/fpv4-sp/softfp/libc_nano.a(lib_a-findfp.o)
                                                  /usr/local/Cellar/gcc-arm-none-eabi/20180627/bin/../lib/gcc/arm-none-eabi/7.3.1/../../../../arm-none-eabi/lib/thumb/v7e-m/fpv4-sp/softfp/libc_nano.a(lib_a-nano-vfprintf.o)
                                                  /usr/local/Cellar/gcc-arm-none-eabi/20180627/bin/../lib/gcc/arm-none-eabi/7.3.1/../../../../arm-none-eabi/lib/thumb/v7e-m/fpv4-sp/softfp/libc_nano.a(lib_a-fflush.o)
                                                  /usr/local/Cellar/gcc-arm-none-eabi/20180627/bin/../lib/gcc/arm-none-eabi/7.3.1/../../../../arm-none-eabi/lib/thumb/v7e-m/fpv4-sp/softfp/libc_nano.a(lib_a-wsetup.o)
                                                  /usr/local/Cellar/gcc-arm-none-eabi/20180627/bin/../lib/gcc/arm-none-eabi/7.3.1/../../../../arm-none-eabi/lib/thumb/v7e-m/fpv4-sp/softfp/libc_nano.a(lib_a-wbuf.o)
                                                  /usr/local/Cellar/gcc-arm-none-eabi/20180627/bin/../lib/gcc/arm-none-eabi/7.3.1/../../../../arm-none-eabi/lib/thumb/v7e-m/fpv4-sp/softfp/libc_nano.a(lib_a-puts.o)
                                                  /usr/local/Cellar/gcc-arm-none-eabi/20180627/bin/../lib/gcc/arm-none-eabi/7.3.1/../../../../arm-none-eabi/lib/thumb/v7e-m/fpv4-sp/softfp/libc_nano.a(lib_a-impure.o)
__sflush_r                                        /usr/local/Cellar/gcc-arm-none-eabi/20180627/bin/../lib/gcc/arm-none-eabi/7.3.1/../../../../arm-none-eabi/lib/thumb/v7e-m/fpv4-sp/softfp/libc_nano.a(lib_a-fflush.o)
__sfmoreglue                                      /usr/local/Cellar/gcc-arm-none-eabi/20180627/bin/../lib/gcc/arm-none-eabi/7.3.1/../../../../arm-none-eabi/lib/thumb/v7e-m/fpv4-sp/softfp/libc_nano.a(lib_a-findfp.o)
__sfp                                             /usr/local/Cellar/gcc-arm-none-eabi/20180627/bin/../lib/gcc/arm-none-eabi/7.3.1/../../../../arm-none-eabi/lib/thumb/v7e-m/fpv4-sp/softfp/libc_nano.a(lib_a-findfp.o)
__sfp_lock_acquire                                /usr/local/Cellar/gcc-arm-none-eabi/20180627/bin/../lib/gcc/arm-none-eabi/7.3.1/../../../../arm-none-eabi/lib/thumb/v7e-m/fpv4-sp/softfp/libc_nano.a(lib_a-findfp.o)
__sfp_lock_release                                /usr/local/Cellar/gcc-arm-none-eabi/20180627/bin/../lib/gcc/arm-none-eabi/7.3.1/../../../../arm-none-eabi/lib/thumb/v7e-m/fpv4-sp/softfp/libc_nano.a(lib_a-findfp.o)
__sfputs_r                                        /usr/local/Cellar/gcc-arm-none-eabi/20180627/bin/../lib/gcc/arm-none-eabi/7.3.1/../../../../arm-none-eabi/lib/thumb/v7e-m/fpv4-sp/softfp/libc_nano.a(lib_a-nano-vfprintf.o)
__sfvwrite_r                                      /usr/local/Cellar/gcc-arm-none-eabi/20180627/bin/../lib/gcc/arm-none-eabi/7.3.1/../../../../arm-none-eabi/lib/thumb/v7e-m/fpv4-sp/softfp/libc_nano.a(lib_a-fvwrite.o)
                                                  /usr/local/Cellar/gcc-arm-none-eabi/20180627/bin/../lib/gcc/arm-none-eabi/7.3.1/../../../../arm-none-eabi/lib/thumb/v7e-m/fpv4-sp/softfp/libc_nano.a(lib_a-nano-vfprintf.o)
__sigtramp                                        /usr/local/Cellar/gcc-arm-none-eabi/20180627/bin/../lib/gcc/arm-none-eabi/7.3.1/../../../../arm-none-eabi/lib/thumb/v7e-m/fpv4-sp/softfp/libc_nano.a(lib_a-signal.o)
__sigtramp_r                                      /usr/local/Cellar/gcc-arm-none-eabi/20180627/bin/../lib/gcc/arm-none-eabi/7.3.1/../../../../arm-none-eabi/lib/thumb/v7e-m/fpv4-sp/softfp/libc_nano.a(lib_a-signal.o)
__sinit                                           /usr/local/Cellar/gcc-arm-none-eabi/20180627/bin/../lib/gcc/arm-none-eabi/7.3.1/../../../../arm-none-eabi/lib/thumb/v7e-m/fpv4-sp/softfp/libc_nano.a(lib_a-findfp.o)
                                                  /usr/local/Cellar/gcc-arm-none-eabi/20180627/bin/../lib/gcc/arm-none-eabi/7.3.1/../../../../arm-none-eabi/lib/thumb/v7e-m/fpv4-sp/softfp/libc_nano.a(lib_a-nano-vfprintf.o)
                                                  /usr/local/Cellar/gcc-arm-none-eabi/20180627/bin/../lib/gcc/arm-none-eabi/7.3.1/../../../../arm-none-eabi/lib/thumb/v7e-m/fpv4-sp/softfp/libc_nano.a(lib_a-fflush.o)
                                                  /usr/local/Cellar/gcc-arm-none-eabi/20180627/bin/../lib/gcc/arm-none-eabi/7.3.1/../../../../arm-none-eabi/lib/thumb/v7e-m/fpv4-sp/softfp/libc_nano.a(lib_a-wsetup.o)
                                                  /usr/local/Cellar/gcc-arm-none-eabi/20180627/bin/../lib/gcc/arm-none-eabi/7.3.1/../../../../arm-none-eabi/lib/thumb/v7e-m/fpv4-sp/softfp/libc_nano.a(lib_a-wbuf.o)
                                                  /usr/local/Cellar/gcc-arm-none-eabi/20180627/bin/../lib/gcc/arm-none-eabi/7.3.1/../../../../arm-none-eabi/lib/thumb/v7e-m/fpv4-sp/softfp/libc_nano.a(lib_a-puts.o)
                                                  /usr/local/Cellar/gcc-arm-none-eabi/20180627/bin/../lib/gcc/arm-none-eabi/7.3.1/../../../../arm-none-eabi/lib/thumb/v7e-m/fpv4-sp/softfp/libc_nano.a(lib_a-printf.o)
__sinit_lock_acquire                              /usr/local/Cellar/gcc-arm-none-eabi/20180627/bin/../lib/gcc/arm-none-eabi/7.3.1/../../../../arm-none-eabi/lib/thumb/v7e-m/fpv4-sp/softfp/libc_nano.a(lib_a-findfp.o)
__sinit_lock_release                              /usr/local/Cellar/gcc-arm-none-eabi/20180627/bin/../lib/gcc/arm-none-eabi/7.3.1/../../../../arm-none-eabi/lib/thumb/v7e-m/fpv4-sp/softfp/libc_nano.a(lib_a-findfp.o)
__smakebuf_r                                      /usr/local/Cellar/gcc-arm-none-eabi/20180627/bin/../lib/gcc/arm-none-eabi/7.3.1/../../../../arm-none-eabi/lib/thumb/v7e-m/fpv4-sp/softfp/libc_nano.a(lib_a-makebuf.o)
                                                  /usr/local/Cellar/gcc-arm-none-eabi/20180627/bin/../lib/gcc/arm-none-eabi/7.3.1/../../../../arm-none-eabi/lib/thumb/v7e-m/fpv4-sp/softfp/libc_nano.a(lib_a-wsetup.o)
__sprint_r                                        /usr/local/Cellar/gcc-arm-none-eabi/20180627/bin/../lib/gcc/arm-none-eabi/7.3.1/../../../../arm-none-eabi/lib/thumb/v7e-m/fpv4-sp/softfp/libc_nano.a(lib_a-nano-vfprintf.o)
__sread                                           /usr/local/Cellar/gcc-arm-none-eabi/20180627/bin/../lib/gcc/arm-none-eabi/7.3.1/../../../../arm-none-eabi/lib/thumb/v7e-m/fpv4-sp/softfp/libc_nano.a(lib_a-stdio.o)
                                                  /usr/local/Cellar/gcc-arm-none-eabi/20180627/bin/../lib/gcc/arm-none-eabi/7.3.1/../../../../arm-none-eabi/lib/thumb/v7e-m/fpv4-sp/softfp/libc_nano.a(lib_a-findfp.o)
__sseek                                           /usr/local/Cellar/gcc-arm-none-eabi/20180627/bin/../lib/gcc/arm-none-eabi/7.3.1/../../../../arm-none-eabi/lib/thumb/v7e-m/fpv4-sp/softfp/libc_nano.a(lib_a-stdio.o)
                                                  /usr/local/Cellar/gcc-arm-none-eabi/20180627/bin/../lib/gcc/arm-none-eabi/7.3.1/../../../../arm-none-eabi/lib/thumb/v7e-m/fpv4-sp/softfp/libc_nano.a(lib_a-findfp.o)
__ssprint_r                                       /usr/local/Cellar/gcc-arm-none-eabi/20180627/bin/../lib/gcc/arm-none-eabi/7.3.1/../../../../arm-none-eabi/lib/thumb/v7e-m/fpv4-sp/softfp/libc_nano.a(lib_a-nano-svfprintf.o)
__ssputs_r                                        /usr/local/Cellar/gcc-arm-none-eabi/20180627/bin/../lib/gcc/arm-none-eabi/7.3.1/../../../../arm-none-eabi/lib/thumb/v7e-m/fpv4-sp/softfp/libc_nano.a(lib_a-nano-svfprintf.o)
__stack                                           /usr/local/Cellar/gcc-arm-none-eabi/20180627/bin/../lib/gcc/arm-none-eabi/7.3.1/../../../../arm-none-eabi/lib/thumb/v7e-m/fpv4-sp/softfp/crt0.o
__subdf3                                          /usr/local/Cellar/gcc-arm-none-eabi/20180627/bin/../lib/gcc/arm-none-eabi/7.3.1/thumb/v7e-m/fpv4-sp/softfp/libgcc.a(_arm_addsubdf3.o)
__swbuf                                           /usr/local/Cellar/gcc-arm-none-eabi/20180627/bin/../lib/gcc/arm-none-eabi/7.3.1/../../../../arm-none-eabi/lib/thumb/v7e-m/fpv4-sp/softfp/libc_nano.a(lib_a-wbuf.o)
__swbuf_r                                         /usr/local/Cellar/gcc-arm-none-eabi/20180627/bin/../lib/gcc/arm-none-eabi/7.3.1/../../../../arm-none-eabi/lib/thumb/v7e-m/fpv4-sp/softfp/libc_nano.a(lib_a-wbuf.o)
                                                  /usr/local/Cellar/gcc-arm-none-eabi/20180627/bin/../lib/gcc/arm-none-eabi/7.3.1/../../../../arm-none-eabi/lib/thumb/v7e-m/fpv4-sp/softfp/libc_nano.a(lib_a-nano-vfprintf.o)
                                                  /usr/local/Cellar/gcc-arm-none-eabi/20180627/bin/../lib/gcc/arm-none-eabi/7.3.1/../../../../arm-none-eabi/lib/thumb/v7e-m/fpv4-sp/softfp/libc_nano.a(lib_a-puts.o)
__swhatbuf_r                                      /usr/local/Cellar/gcc-arm-none-eabi/20180627/bin/../lib/gcc/arm-none-eabi/7.3.1/../../../../arm-none-eabi/lib/thumb/v7e-m/fpv4-sp/softfp/libc_nano.a(lib_a-makebuf.o)
__swrite                                          /usr/local/Cellar/gcc-arm-none-eabi/20180627/bin/../lib/gcc/arm-none-eabi/7.3.1/../../../../arm-none-eabi/lib/thumb/v7e-m/fpv4-sp/softfp/libc_nano.a(lib_a-stdio.o)
                                                  /usr/local/Cellar/gcc-arm-none-eabi/20180627/bin/../lib/gcc/arm-none-eabi/7.3.1/../../../../arm-none-eabi/lib/thumb/v7e-m/fpv4-sp/softfp/libc_nano.a(lib_a-findfp.o)
__swsetup_r                                       /usr/local/Cellar/gcc-arm-none-eabi/20180627/bin/../lib/gcc/arm-none-eabi/7.3.1/../../../../arm-none-eabi/lib/thumb/v7e-m/fpv4-sp/softfp/libc_nano.a(lib_a-wsetup.o)
                                                  /usr/local/Cellar/gcc-arm-none-eabi/20180627/bin/../lib/gcc/arm-none-eabi/7.3.1/../../../../arm-none-eabi/lib/thumb/v7e-m/fpv4-sp/softfp/libc_nano.a(lib_a-fvwrite.o)
                                                  /usr/local/Cellar/gcc-arm-none-eabi/20180627/bin/../lib/gcc/arm-none-eabi/7.3.1/../../../../arm-none-eabi/lib/thumb/v7e-m/fpv4-sp/softfp/libc_nano.a(lib_a-nano-vfprintf.o)
                                                  /usr/local/Cellar/gcc-arm-none-eabi/20180627/bin/../lib/gcc/arm-none-eabi/7.3.1/../../../../arm-none-eabi/lib/thumb/v7e-m/fpv4-sp/softfp/libc_nano.a(lib_a-wbuf.o)
                                                  /usr/local/Cellar/gcc-arm-none-eabi/20180627/bin/../lib/gcc/arm-none-eabi/7.3.1/../../../../arm-none-eabi/lib/thumb/v7e-m/fpv4-sp/softfp/libc_nano.a(lib_a-puts.o)
_cleanup                                          /usr/local/Cellar/gcc-arm-none-eabi/20180627/bin/../lib/gcc/arm-none-eabi/7.3.1/../../../../arm-none-eabi/lib/thumb/v7e-m/fpv4-sp/softfp/libc_nano.a(lib_a-findfp.o)
_cleanup_r                                        /usr/local/Cellar/gcc-arm-none-eabi/20180627/bin/../lib/gcc/arm-none-eabi/7.3.1/../../../../arm-none-eabi/lib/thumb/v7e-m/fpv4-sp/softfp/libc_nano.a(lib_a-findfp.o)
                                                  /usr/local/Cellar/gcc-arm-none-eabi/20180627/bin/../lib/gcc/arm-none-eabi/7.3.1/../../../../arm-none-eabi/lib/thumb/v7e-m/fpv4-sp/softfp/libc_nano.a(lib_a-makebuf.o)
_close                                            /usr/local/Cellar/gcc-arm-none-eabi/20180627/bin/../lib/gcc/arm-none-eabi/7.3.1/../../../../arm-none-eabi/lib/thumb/v7e-m/fpv4-sp/softfp/libnosys.a(close.o)
                                                  /usr/local/Cellar/gcc-arm-none-eabi/20180627/bin/../lib/gcc/arm-none-eabi/7.3.1/../../../../arm-none-eabi/lib/thumb/v7e-m/fpv4-sp/softfp/libc_nano.a(lib_a-closer.o)
_close_r                                          /usr/local/Cellar/gcc-arm-none-eabi/20180627/bin/../lib/gcc/arm-none-eabi/7.3.1/../../../../arm-none-eabi/lib/thumb/v7e-m/fpv4-sp/softfp/libc_nano.a(lib_a-closer.o)
                                                  /usr/local/Cellar/gcc-arm-none-eabi/20180627/bin/../lib/gcc/arm-none-eabi/7.3.1/../../../../arm-none-eabi/lib/thumb/v7e-m/fpv4-sp/softfp/libc_nano.a(lib_a-stdio.o)
_ebss                                             build/startup_at32f403xe.o
_edata                                            build/startup_at32f403xe.o
_estack                                           build/startup_at32f403xe.o
_exit                                             /usr/local/Cellar/gcc-arm-none-eabi/20180627/bin/../lib/gcc/arm-none-eabi/7.3.1/../../../../arm-none-eabi/lib/thumb/v7e-m/fpv4-sp/softfp/libnosys.a(_exit.o)
                                                  /usr/local/Cellar/gcc-arm-none-eabi/20180627/bin/../lib/gcc/arm-none-eabi/7.3.1/../../../../arm-none-eabi/lib/thumb/v7e-m/fpv4-sp/softfp/libc_nano.a(lib_a-abort.o)
                                                  /usr/local/Cellar/gcc-arm-none-eabi/20180627/bin/../lib/gcc/arm-none-eabi/7.3.1/../../../../arm-none-eabi/lib/thumb/v7e-m/fpv4-sp/softfp/libc_nano.a(lib_a-exit.o)
_fflush_r                                         /usr/local/Cellar/gcc-arm-none-eabi/20180627/bin/../lib/gcc/arm-none-eabi/7.3.1/../../../../arm-none-eabi/lib/thumb/v7e-m/fpv4-sp/softfp/libc_nano.a(lib_a-fflush.o)
                                                  /usr/local/Cellar/gcc-arm-none-eabi/20180627/bin/../lib/gcc/arm-none-eabi/7.3.1/../../../../arm-none-eabi/lib/thumb/v7e-m/fpv4-sp/softfp/libc_nano.a(lib_a-fvwrite.o)
                                                  /usr/local/Cellar/gcc-arm-none-eabi/20180627/bin/../lib/gcc/arm-none-eabi/7.3.1/../../../../arm-none-eabi/lib/thumb/v7e-m/fpv4-sp/softfp/libc_nano.a(lib_a-findfp.o)
                                                  /usr/local/Cellar/gcc-arm-none-eabi/20180627/bin/../lib/gcc/arm-none-eabi/7.3.1/../../../../arm-none-eabi/lib/thumb/v7e-m/fpv4-sp/softfp/libc_nano.a(lib_a-wbuf.o)
_fini                                             /usr/local/Cellar/gcc-arm-none-eabi/20180627/bin/../lib/gcc/arm-none-eabi/7.3.1/thumb/v7e-m/fpv4-sp/softfp/crti.o
_free_r                                           /usr/local/Cellar/gcc-arm-none-eabi/20180627/bin/../lib/gcc/arm-none-eabi/7.3.1/../../../../arm-none-eabi/lib/thumb/v7e-m/fpv4-sp/softfp/libc_nano.a(lib_a-nano-freer.o)
                                                  /usr/local/Cellar/gcc-arm-none-eabi/20180627/bin/../lib/gcc/arm-none-eabi/7.3.1/../../../../arm-none-eabi/lib/thumb/v7e-m/fpv4-sp/softfp/libc_nano.a(lib_a-reent.o)
                                                  /usr/local/Cellar/gcc-arm-none-eabi/20180627/bin/../lib/gcc/arm-none-eabi/7.3.1/../../../../arm-none-eabi/lib/thumb/v7e-m/fpv4-sp/softfp/libc_nano.a(lib_a-fvwrite.o)
                                                  /usr/local/Cellar/gcc-arm-none-eabi/20180627/bin/../lib/gcc/arm-none-eabi/7.3.1/../../../../arm-none-eabi/lib/thumb/v7e-m/fpv4-sp/softfp/libc_nano.a(lib_a-nano-svfprintf.o)
                                                  /usr/local/Cellar/gcc-arm-none-eabi/20180627/bin/../lib/gcc/arm-none-eabi/7.3.1/../../../../arm-none-eabi/lib/thumb/v7e-m/fpv4-sp/softfp/libc_nano.a(lib_a-nano-reallocr.o)
                                                  /usr/local/Cellar/gcc-arm-none-eabi/20180627/bin/../lib/gcc/arm-none-eabi/7.3.1/../../../../arm-none-eabi/lib/thumb/v7e-m/fpv4-sp/softfp/libc_nano.a(lib_a-fflush.o)
                                                  /usr/local/Cellar/gcc-arm-none-eabi/20180627/bin/../lib/gcc/arm-none-eabi/7.3.1/../../../../arm-none-eabi/lib/thumb/v7e-m/fpv4-sp/softfp/libc_nano.a(lib_a-wsetup.o)
_fstat                                            /usr/local/Cellar/gcc-arm-none-eabi/20180627/bin/../lib/gcc/arm-none-eabi/7.3.1/../../../../arm-none-eabi/lib/thumb/v7e-m/fpv4-sp/softfp/libnosys.a(fstat.o)
                                                  /usr/local/Cellar/gcc-arm-none-eabi/20180627/bin/../lib/gcc/arm-none-eabi/7.3.1/../../../../arm-none-eabi/lib/thumb/v7e-m/fpv4-sp/softfp/libc_nano.a(lib_a-fstatr.o)
_fstat_r                                          /usr/local/Cellar/gcc-arm-none-eabi/20180627/bin/../lib/gcc/arm-none-eabi/7.3.1/../../../../arm-none-eabi/lib/thumb/v7e-m/fpv4-sp/softfp/libc_nano.a(lib_a-fstatr.o)
                                                  /usr/local/Cellar/gcc-arm-none-eabi/20180627/bin/../lib/gcc/arm-none-eabi/7.3.1/../../../../arm-none-eabi/lib/thumb/v7e-m/fpv4-sp/softfp/libc_nano.a(lib_a-makebuf.o)
_fwalk                                            /usr/local/Cellar/gcc-arm-none-eabi/20180627/bin/../lib/gcc/arm-none-eabi/7.3.1/../../../../arm-none-eabi/lib/thumb/v7e-m/fpv4-sp/softfp/libc_nano.a(lib_a-fwalk.o)
                                                  /usr/local/Cellar/gcc-arm-none-eabi/20180627/bin/../lib/gcc/arm-none-eabi/7.3.1/../../../../arm-none-eabi/lib/thumb/v7e-m/fpv4-sp/softfp/libc_nano.a(lib_a-findfp.o)
_fwalk_reent                                      /usr/local/Cellar/gcc-arm-none-eabi/20180627/bin/../lib/gcc/arm-none-eabi/7.3.1/../../../../arm-none-eabi/lib/thumb/v7e-m/fpv4-sp/softfp/libc_nano.a(lib_a-fwalk.o)
                                                  /usr/local/Cellar/gcc-arm-none-eabi/20180627/bin/../lib/gcc/arm-none-eabi/7.3.1/../../../../arm-none-eabi/lib/thumb/v7e-m/fpv4-sp/softfp/libc_nano.a(lib_a-findfp.o)
                                                  /usr/local/Cellar/gcc-arm-none-eabi/20180627/bin/../lib/gcc/arm-none-eabi/7.3.1/../../../../arm-none-eabi/lib/thumb/v7e-m/fpv4-sp/softfp/libc_nano.a(lib_a-fflush.o)
_getpid                                           /usr/local/Cellar/gcc-arm-none-eabi/20180627/bin/../lib/gcc/arm-none-eabi/7.3.1/../../../../arm-none-eabi/lib/thumb/v7e-m/fpv4-sp/softfp/libnosys.a(getpid.o)
                                                  /usr/local/Cellar/gcc-arm-none-eabi/20180627/bin/../lib/gcc/arm-none-eabi/7.3.1/../../../../arm-none-eabi/lib/thumb/v7e-m/fpv4-sp/softfp/libc_nano.a(lib_a-signalr.o)
_getpid_r                                         /usr/local/Cellar/gcc-arm-none-eabi/20180627/bin/../lib/gcc/arm-none-eabi/7.3.1/../../../../arm-none-eabi/lib/thumb/v7e-m/fpv4-sp/softfp/libc_nano.a(lib_a-signalr.o)
                                                  /usr/local/Cellar/gcc-arm-none-eabi/20180627/bin/../lib/gcc/arm-none-eabi/7.3.1/../../../../arm-none-eabi/lib/thumb/v7e-m/fpv4-sp/softfp/libc_nano.a(lib_a-signal.o)
_global_impure_ptr                                /usr/local/Cellar/gcc-arm-none-eabi/20180627/bin/../lib/gcc/arm-none-eabi/7.3.1/../../../../arm-none-eabi/lib/thumb/v7e-m/fpv4-sp/softfp/libc_nano.a(lib_a-impure.o)
                                                  /usr/local/Cellar/gcc-arm-none-eabi/20180627/bin/../lib/gcc/arm-none-eabi/7.3.1/../../../../arm-none-eabi/lib/thumb/v7e-m/fpv4-sp/softfp/libc_nano.a(lib_a-findfp.o)
                                                  /usr/local/Cellar/gcc-arm-none-eabi/20180627/bin/../lib/gcc/arm-none-eabi/7.3.1/../../../../arm-none-eabi/lib/thumb/v7e-m/fpv4-sp/softfp/libc_nano.a(lib_a-fflush.o)
                                                  /usr/local/Cellar/gcc-arm-none-eabi/20180627/bin/../lib/gcc/arm-none-eabi/7.3.1/../../../../arm-none-eabi/lib/thumb/v7e-m/fpv4-sp/softfp/libc_nano.a(lib_a-exit.o)
_impure_ptr                                       /usr/local/Cellar/gcc-arm-none-eabi/20180627/bin/../lib/gcc/arm-none-eabi/7.3.1/../../../../arm-none-eabi/lib/thumb/v7e-m/fpv4-sp/softfp/libc_nano.a(lib_a-impure.o)
                                                  /usr/local/Cellar/gcc-arm-none-eabi/20180627/bin/../lib/gcc/arm-none-eabi/7.3.1/../../../../arm-none-eabi/lib/thumb/v7e-m/fpv4-sp/softfp/libc_nano.a(lib_a-signal.o)
                                                  /usr/local/Cellar/gcc-arm-none-eabi/20180627/bin/../lib/gcc/arm-none-eabi/7.3.1/../../../../arm-none-eabi/lib/thumb/v7e-m/fpv4-sp/softfp/libc_nano.a(lib_a-reent.o)
                                                  /usr/local/Cellar/gcc-arm-none-eabi/20180627/bin/../lib/gcc/arm-none-eabi/7.3.1/../../../../arm-none-eabi/lib/thumb/v7e-m/fpv4-sp/softfp/libc_nano.a(lib_a-nano-vfprintf.o)
                                                  /usr/local/Cellar/gcc-arm-none-eabi/20180627/bin/../lib/gcc/arm-none-eabi/7.3.1/../../../../arm-none-eabi/lib/thumb/v7e-m/fpv4-sp/softfp/libc_nano.a(lib_a-findfp.o)
                                                  /usr/local/Cellar/gcc-arm-none-eabi/20180627/bin/../lib/gcc/arm-none-eabi/7.3.1/../../../../arm-none-eabi/lib/thumb/v7e-m/fpv4-sp/softfp/libc_nano.a(lib_a-fflush.o)
                                                  /usr/local/Cellar/gcc-arm-none-eabi/20180627/bin/../lib/gcc/arm-none-eabi/7.3.1/../../../../arm-none-eabi/lib/thumb/v7e-m/fpv4-sp/softfp/libc_nano.a(lib_a-wsetup.o)
                                                  /usr/local/Cellar/gcc-arm-none-eabi/20180627/bin/../lib/gcc/arm-none-eabi/7.3.1/../../../../arm-none-eabi/lib/thumb/v7e-m/fpv4-sp/softfp/libc_nano.a(lib_a-wbuf.o)
                                                  /usr/local/Cellar/gcc-arm-none-eabi/20180627/bin/../lib/gcc/arm-none-eabi/7.3.1/../../../../arm-none-eabi/lib/thumb/v7e-m/fpv4-sp/softfp/libc_nano.a(lib_a-vsnprintf.o)
                                                  /usr/local/Cellar/gcc-arm-none-eabi/20180627/bin/../lib/gcc/arm-none-eabi/7.3.1/../../../../arm-none-eabi/lib/thumb/v7e-m/fpv4-sp/softfp/libc_nano.a(lib_a-sprintf.o)
                                                  /usr/local/Cellar/gcc-arm-none-eabi/20180627/bin/../lib/gcc/arm-none-eabi/7.3.1/../../../../arm-none-eabi/lib/thumb/v7e-m/fpv4-sp/softfp/libc_nano.a(lib_a-realloc.o)
                                                  /usr/local/Cellar/gcc-arm-none-eabi/20180627/bin/../lib/gcc/arm-none-eabi/7.3.1/../../../../arm-none-eabi/lib/thumb/v7e-m/fpv4-sp/softfp/libc_nano.a(lib_a-puts.o)
                                                  /usr/local/Cellar/gcc-arm-none-eabi/20180627/bin/../lib/gcc/arm-none-eabi/7.3.1/../../../../arm-none-eabi/lib/thumb/v7e-m/fpv4-sp/softfp/libc_nano.a(lib_a-printf.o)
_init                                             /usr/local/Cellar/gcc-arm-none-eabi/20180627/bin/../lib/gcc/arm-none-eabi/7.3.1/thumb/v7e-m/fpv4-sp/softfp/crti.o
                                                  /usr/local/Cellar/gcc-arm-none-eabi/20180627/bin/../lib/gcc/arm-none-eabi/7.3.1/../../../../arm-none-eabi/lib/thumb/v7e-m/fpv4-sp/softfp/libc_nano.a(lib_a-init.o)
_init_signal                                      /usr/local/Cellar/gcc-arm-none-eabi/20180627/bin/../lib/gcc/arm-none-eabi/7.3.1/../../../../arm-none-eabi/lib/thumb/v7e-m/fpv4-sp/softfp/libc_nano.a(lib_a-signal.o)
_init_signal_r                                    /usr/local/Cellar/gcc-arm-none-eabi/20180627/bin/../lib/gcc/arm-none-eabi/7.3.1/../../../../arm-none-eabi/lib/thumb/v7e-m/fpv4-sp/softfp/libc_nano.a(lib_a-signal.o)
_iprintf_r                                        /usr/local/Cellar/gcc-arm-none-eabi/20180627/bin/../lib/gcc/arm-none-eabi/7.3.1/../../../../arm-none-eabi/lib/thumb/v7e-m/fpv4-sp/softfp/libc_nano.a(lib_a-printf.o)
_isatty                                           /usr/local/Cellar/gcc-arm-none-eabi/20180627/bin/../lib/gcc/arm-none-eabi/7.3.1/../../../../arm-none-eabi/lib/thumb/v7e-m/fpv4-sp/softfp/libnosys.a(isatty.o)
                                                  /usr/local/Cellar/gcc-arm-none-eabi/20180627/bin/../lib/gcc/arm-none-eabi/7.3.1/../../../../arm-none-eabi/lib/thumb/v7e-m/fpv4-sp/softfp/libc_nano.a(lib_a-isattyr.o)
_isatty_r                                         /usr/local/Cellar/gcc-arm-none-eabi/20180627/bin/../lib/gcc/arm-none-eabi/7.3.1/../../../../arm-none-eabi/lib/thumb/v7e-m/fpv4-sp/softfp/libc_nano.a(lib_a-isattyr.o)
                                                  /usr/local/Cellar/gcc-arm-none-eabi/20180627/bin/../lib/gcc/arm-none-eabi/7.3.1/../../../../arm-none-eabi/lib/thumb/v7e-m/fpv4-sp/softfp/libc_nano.a(lib_a-makebuf.o)
_kill                                             /usr/local/Cellar/gcc-arm-none-eabi/20180627/bin/../lib/gcc/arm-none-eabi/7.3.1/../../../../arm-none-eabi/lib/thumb/v7e-m/fpv4-sp/softfp/libnosys.a(kill.o)
                                                  /usr/local/Cellar/gcc-arm-none-eabi/20180627/bin/../lib/gcc/arm-none-eabi/7.3.1/../../../../arm-none-eabi/lib/thumb/v7e-m/fpv4-sp/softfp/libc_nano.a(lib_a-signalr.o)
_kill_r                                           /usr/local/Cellar/gcc-arm-none-eabi/20180627/bin/../lib/gcc/arm-none-eabi/7.3.1/../../../../arm-none-eabi/lib/thumb/v7e-m/fpv4-sp/softfp/libc_nano.a(lib_a-signalr.o)
                                                  /usr/local/Cellar/gcc-arm-none-eabi/20180627/bin/../lib/gcc/arm-none-eabi/7.3.1/../../../../arm-none-eabi/lib/thumb/v7e-m/fpv4-sp/softfp/libc_nano.a(lib_a-signal.o)
_lseek                                            /usr/local/Cellar/gcc-arm-none-eabi/20180627/bin/../lib/gcc/arm-none-eabi/7.3.1/../../../../arm-none-eabi/lib/thumb/v7e-m/fpv4-sp/softfp/libnosys.a(lseek.o)
                                                  /usr/local/Cellar/gcc-arm-none-eabi/20180627/bin/../lib/gcc/arm-none-eabi/7.3.1/../../../../arm-none-eabi/lib/thumb/v7e-m/fpv4-sp/softfp/libc_nano.a(lib_a-lseekr.o)
_lseek_r                                          /usr/local/Cellar/gcc-arm-none-eabi/20180627/bin/../lib/gcc/arm-none-eabi/7.3.1/../../../../arm-none-eabi/lib/thumb/v7e-m/fpv4-sp/softfp/libc_nano.a(lib_a-lseekr.o)
                                                  /usr/local/Cellar/gcc-arm-none-eabi/20180627/bin/../lib/gcc/arm-none-eabi/7.3.1/../../../../arm-none-eabi/lib/thumb/v7e-m/fpv4-sp/softfp/libc_nano.a(lib_a-stdio.o)
_mainCRTStartup                                   /usr/local/Cellar/gcc-arm-none-eabi/20180627/bin/../lib/gcc/arm-none-eabi/7.3.1/../../../../arm-none-eabi/lib/thumb/v7e-m/fpv4-sp/softfp/crt0.o
_malloc_r                                         /usr/local/Cellar/gcc-arm-none-eabi/20180627/bin/../lib/gcc/arm-none-eabi/7.3.1/../../../../arm-none-eabi/lib/thumb/v7e-m/fpv4-sp/softfp/libc_nano.a(lib_a-nano-mallocr.o)
                                                  /usr/local/Cellar/gcc-arm-none-eabi/20180627/bin/../lib/gcc/arm-none-eabi/7.3.1/../../../../arm-none-eabi/lib/thumb/v7e-m/fpv4-sp/softfp/libc_nano.a(lib_a-signal.o)
                                                  /usr/local/Cellar/gcc-arm-none-eabi/20180627/bin/../lib/gcc/arm-none-eabi/7.3.1/../../../../arm-none-eabi/lib/thumb/v7e-m/fpv4-sp/softfp/libc_nano.a(lib_a-fvwrite.o)
                                                  /usr/local/Cellar/gcc-arm-none-eabi/20180627/bin/../lib/gcc/arm-none-eabi/7.3.1/../../../../arm-none-eabi/lib/thumb/v7e-m/fpv4-sp/softfp/libc_nano.a(lib_a-nano-svfprintf.o)
                                                  /usr/local/Cellar/gcc-arm-none-eabi/20180627/bin/../lib/gcc/arm-none-eabi/7.3.1/../../../../arm-none-eabi/lib/thumb/v7e-m/fpv4-sp/softfp/libc_nano.a(lib_a-nano-reallocr.o)
                                                  /usr/local/Cellar/gcc-arm-none-eabi/20180627/bin/../lib/gcc/arm-none-eabi/7.3.1/../../../../arm-none-eabi/lib/thumb/v7e-m/fpv4-sp/softfp/libc_nano.a(lib_a-makebuf.o)
                                                  /usr/local/Cellar/gcc-arm-none-eabi/20180627/bin/../lib/gcc/arm-none-eabi/7.3.1/../../../../arm-none-eabi/lib/thumb/v7e-m/fpv4-sp/softfp/libc_nano.a(lib_a-findfp.o)
_malloc_usable_size_r                             /usr/local/Cellar/gcc-arm-none-eabi/20180627/bin/../lib/gcc/arm-none-eabi/7.3.1/../../../../arm-none-eabi/lib/thumb/v7e-m/fpv4-sp/softfp/libc_nano.a(lib_a-nano-msizer.o)
                                                  /usr/local/Cellar/gcc-arm-none-eabi/20180627/bin/../lib/gcc/arm-none-eabi/7.3.1/../../../../arm-none-eabi/lib/thumb/v7e-m/fpv4-sp/softfp/libc_nano.a(lib_a-nano-reallocr.o)
_printf_common                                    /usr/local/Cellar/gcc-arm-none-eabi/20180627/bin/../lib/gcc/arm-none-eabi/7.3.1/../../../../arm-none-eabi/lib/thumb/v7e-m/fpv4-sp/softfp/libc_nano.a(lib_a-nano-vfprintf_i.o)
_printf_float                                     /usr/local/Cellar/gcc-arm-none-eabi/20180627/bin/../lib/gcc/arm-none-eabi/7.3.1/../../../../arm-none-eabi/lib/thumb/v7e-m/fpv4-sp/softfp/libc_nano.a(lib_a-nano-vfprintf.o)
                                                  /usr/local/Cellar/gcc-arm-none-eabi/20180627/bin/../lib/gcc/arm-none-eabi/7.3.1/../../../../arm-none-eabi/lib/thumb/v7e-m/fpv4-sp/softfp/libc_nano.a(lib_a-nano-svfprintf.o)
_printf_i                                         /usr/local/Cellar/gcc-arm-none-eabi/20180627/bin/../lib/gcc/arm-none-eabi/7.3.1/../../../../arm-none-eabi/lib/thumb/v7e-m/fpv4-sp/softfp/libc_nano.a(lib_a-nano-vfprintf_i.o)
                                                  /usr/local/Cellar/gcc-arm-none-eabi/20180627/bin/../lib/gcc/arm-none-eabi/7.3.1/../../../../arm-none-eabi/lib/thumb/v7e-m/fpv4-sp/softfp/libc_nano.a(lib_a-nano-vfprintf.o)
                                                  /usr/local/Cellar/gcc-arm-none-eabi/20180627/bin/../lib/gcc/arm-none-eabi/7.3.1/../../../../arm-none-eabi/lib/thumb/v7e-m/fpv4-sp/softfp/libc_nano.a(lib_a-nano-svfprintf.o)
_printf_r                                         /usr/local/Cellar/gcc-arm-none-eabi/20180627/bin/../lib/gcc/arm-none-eabi/7.3.1/../../../../arm-none-eabi/lib/thumb/v7e-m/fpv4-sp/softfp/libc_nano.a(lib_a-printf.o)
_puts_r                                           /usr/local/Cellar/gcc-arm-none-eabi/20180627/bin/../lib/gcc/arm-none-eabi/7.3.1/../../../../arm-none-eabi/lib/thumb/v7e-m/fpv4-sp/softfp/libc_nano.a(lib_a-puts.o)
_raise_r                                          /usr/local/Cellar/gcc-arm-none-eabi/20180627/bin/../lib/gcc/arm-none-eabi/7.3.1/../../../../arm-none-eabi/lib/thumb/v7e-m/fpv4-sp/softfp/libc_nano.a(lib_a-signal.o)
_read                                             /usr/local/Cellar/gcc-arm-none-eabi/20180627/bin/../lib/gcc/arm-none-eabi/7.3.1/../../../../arm-none-eabi/lib/thumb/v7e-m/fpv4-sp/softfp/libnosys.a(read.o)
                                                  /usr/local/Cellar/gcc-arm-none-eabi/20180627/bin/../lib/gcc/arm-none-eabi/7.3.1/../../../../arm-none-eabi/lib/thumb/v7e-m/fpv4-sp/softfp/libc_nano.a(lib_a-readr.o)
_read_r                                           /usr/local/Cellar/gcc-arm-none-eabi/20180627/bin/../lib/gcc/arm-none-eabi/7.3.1/../../../../arm-none-eabi/lib/thumb/v7e-m/fpv4-sp/softfp/libc_nano.a(lib_a-readr.o)
                                                  /usr/local/Cellar/gcc-arm-none-eabi/20180627/bin/../lib/gcc/arm-none-eabi/7.3.1/../../../../arm-none-eabi/lib/thumb/v7e-m/fpv4-sp/softfp/libc_nano.a(lib_a-stdio.o)
_realloc_r                                        /usr/local/Cellar/gcc-arm-none-eabi/20180627/bin/../lib/gcc/arm-none-eabi/7.3.1/../../../../arm-none-eabi/lib/thumb/v7e-m/fpv4-sp/softfp/libc_nano.a(lib_a-nano-reallocr.o)
                                                  /usr/local/Cellar/gcc-arm-none-eabi/20180627/bin/../lib/gcc/arm-none-eabi/7.3.1/../../../../arm-none-eabi/lib/thumb/v7e-m/fpv4-sp/softfp/libc_nano.a(lib_a-fvwrite.o)
                                                  /usr/local/Cellar/gcc-arm-none-eabi/20180627/bin/../lib/gcc/arm-none-eabi/7.3.1/../../../../arm-none-eabi/lib/thumb/v7e-m/fpv4-sp/softfp/libc_nano.a(lib_a-nano-svfprintf.o)
                                                  /usr/local/Cellar/gcc-arm-none-eabi/20180627/bin/../lib/gcc/arm-none-eabi/7.3.1/../../../../arm-none-eabi/lib/thumb/v7e-m/fpv4-sp/softfp/libc_nano.a(lib_a-realloc.o)
_reclaim_reent                                    /usr/local/Cellar/gcc-arm-none-eabi/20180627/bin/../lib/gcc/arm-none-eabi/7.3.1/../../../../arm-none-eabi/lib/thumb/v7e-m/fpv4-sp/softfp/libc_nano.a(lib_a-reent.o)
_sbrk                                             /usr/local/Cellar/gcc-arm-none-eabi/20180627/bin/../lib/gcc/arm-none-eabi/7.3.1/../../../../arm-none-eabi/lib/thumb/v7e-m/fpv4-sp/softfp/libnosys.a(sbrk.o)
                                                  /usr/local/Cellar/gcc-arm-none-eabi/20180627/bin/../lib/gcc/arm-none-eabi/7.3.1/../../../../arm-none-eabi/lib/thumb/v7e-m/fpv4-sp/softfp/libc_nano.a(lib_a-sbrkr.o)
_sbrk_r                                           /usr/local/Cellar/gcc-arm-none-eabi/20180627/bin/../lib/gcc/arm-none-eabi/7.3.1/../../../../arm-none-eabi/lib/thumb/v7e-m/fpv4-sp/softfp/libc_nano.a(lib_a-sbrkr.o)
                                                  /usr/local/Cellar/gcc-arm-none-eabi/20180627/bin/../lib/gcc/arm-none-eabi/7.3.1/../../../../arm-none-eabi/lib/thumb/v7e-m/fpv4-sp/softfp/libc_nano.a(lib_a-nano-mallocr.o)
_sbss                                             build/startup_at32f403xe.o
_sdata                                            build/startup_at32f403xe.o
_sidata                                           build/startup_at32f403xe.o
_signal_r                                         /usr/local/Cellar/gcc-arm-none-eabi/20180627/bin/../lib/gcc/arm-none-eabi/7.3.1/../../../../arm-none-eabi/lib/thumb/v7e-m/fpv4-sp/softfp/libc_nano.a(lib_a-signal.o)
_siprintf_r                                       /usr/local/Cellar/gcc-arm-none-eabi/20180627/bin/../lib/gcc/arm-none-eabi/7.3.1/../../../../arm-none-eabi/lib/thumb/v7e-m/fpv4-sp/softfp/libc_nano.a(lib_a-sprintf.o)
_sprintf_r                                        /usr/local/Cellar/gcc-arm-none-eabi/20180627/bin/../lib/gcc/arm-none-eabi/7.3.1/../../../../arm-none-eabi/lib/thumb/v7e-m/fpv4-sp/softfp/libc_nano.a(lib_a-sprintf.o)
_start                                            /usr/local/Cellar/gcc-arm-none-eabi/20180627/bin/../lib/gcc/arm-none-eabi/7.3.1/../../../../arm-none-eabi/lib/thumb/v7e-m/fpv4-sp/softfp/crt0.o
_svfiprintf_r                                     /usr/local/Cellar/gcc-arm-none-eabi/20180627/bin/../lib/gcc/arm-none-eabi/7.3.1/../../../../arm-none-eabi/lib/thumb/v7e-m/fpv4-sp/softfp/libc_nano.a(lib_a-nano-svfprintf.o)
_svfprintf_r                                      /usr/local/Cellar/gcc-arm-none-eabi/20180627/bin/../lib/gcc/arm-none-eabi/7.3.1/../../../../arm-none-eabi/lib/thumb/v7e-m/fpv4-sp/softfp/libc_nano.a(lib_a-nano-svfprintf.o)
                                                  /usr/local/Cellar/gcc-arm-none-eabi/20180627/bin/../lib/gcc/arm-none-eabi/7.3.1/../../../../arm-none-eabi/lib/thumb/v7e-m/fpv4-sp/softfp/libc_nano.a(lib_a-vsnprintf.o)
                                                  /usr/local/Cellar/gcc-arm-none-eabi/20180627/bin/../lib/gcc/arm-none-eabi/7.3.1/../../../../arm-none-eabi/lib/thumb/v7e-m/fpv4-sp/softfp/libc_nano.a(lib_a-sprintf.o)
_vfiprintf_r                                      /usr/local/Cellar/gcc-arm-none-eabi/20180627/bin/../lib/gcc/arm-none-eabi/7.3.1/../../../../arm-none-eabi/lib/thumb/v7e-m/fpv4-sp/softfp/libc_nano.a(lib_a-nano-vfprintf.o)
_vfprintf_r                                       /usr/local/Cellar/gcc-arm-none-eabi/20180627/bin/../lib/gcc/arm-none-eabi/7.3.1/../../../../arm-none-eabi/lib/thumb/v7e-m/fpv4-sp/softfp/libc_nano.a(lib_a-nano-vfprintf.o)
                                                  /usr/local/Cellar/gcc-arm-none-eabi/20180627/bin/../lib/gcc/arm-none-eabi/7.3.1/../../../../arm-none-eabi/lib/thumb/v7e-m/fpv4-sp/softfp/libc_nano.a(lib_a-printf.o)
_vsniprintf_r                                     /usr/local/Cellar/gcc-arm-none-eabi/20180627/bin/../lib/gcc/arm-none-eabi/7.3.1/../../../../arm-none-eabi/lib/thumb/v7e-m/fpv4-sp/softfp/libc_nano.a(lib_a-vsnprintf.o)
_vsnprintf_r                                      /usr/local/Cellar/gcc-arm-none-eabi/20180627/bin/../lib/gcc/arm-none-eabi/7.3.1/../../../../arm-none-eabi/lib/thumb/v7e-m/fpv4-sp/softfp/libc_nano.a(lib_a-vsnprintf.o)
_write                                            build/at32_hoverboard.o
                                                  /usr/local/Cellar/gcc-arm-none-eabi/20180627/bin/../lib/gcc/arm-none-eabi/7.3.1/../../../../arm-none-eabi/lib/thumb/v7e-m/fpv4-sp/softfp/libc_nano.a(lib_a-writer.o)
_write_r                                          /usr/local/Cellar/gcc-arm-none-eabi/20180627/bin/../lib/gcc/arm-none-eabi/7.3.1/../../../../arm-none-eabi/lib/thumb/v7e-m/fpv4-sp/softfp/libc_nano.a(lib_a-writer.o)
                                                  /usr/local/Cellar/gcc-arm-none-eabi/20180627/bin/../lib/gcc/arm-none-eabi/7.3.1/../../../../arm-none-eabi/lib/thumb/v7e-m/fpv4-sp/softfp/libc_nano.a(lib_a-stdio.o)
abort                                             /usr/local/Cellar/gcc-arm-none-eabi/20180627/bin/../lib/gcc/arm-none-eabi/7.3.1/../../../../arm-none-eabi/lib/thumb/v7e-m/fpv4-sp/softfp/libc_nano.a(lib_a-abort.o)
                                                  /usr/local/Cellar/gcc-arm-none-eabi/20180627/bin/../lib/gcc/arm-none-eabi/7.3.1/thumb/v7e-m/fpv4-sp/softfp/libgcc.a(pr-support.o)
                                                  /usr/local/Cellar/gcc-arm-none-eabi/20180627/bin/../lib/gcc/arm-none-eabi/7.3.1/thumb/v7e-m/fpv4-sp/softfp/libgcc.a(unwind-arm.o)
atexit                                            /usr/local/Cellar/gcc-arm-none-eabi/20180627/bin/../lib/gcc/arm-none-eabi/7.3.1/../../../../arm-none-eabi/lib/thumb/v7e-m/fpv4-sp/softfp/crt0.o
bsp_ClearKey                                      build/bsp_key.o
bsp_ConfigGpioOut                                 build/bsp_tim_pwm.o
bsp_ConfigTMRGpio                                 build/bsp_tim_pwm.o
bsp_GetKey                                        build/bsp_key.o
bsp_GetKeyState                                   build/bsp_key.o
bsp_GetRCCofGPIO                                  build/bsp_tim_pwm.o
bsp_GetRCCofTMR                                   build/bsp_tim_pwm.o
bsp_Init                                          build/bsp.o
                                                  build/main.o
bsp_InitHardTimer                                 build/bsp_timer.o
                                                  build/bsp.o
bsp_InitKey                                       build/bsp_key.o
                                                  build/bsp.o
bsp_InitLed                                       build/bsp_led.o
                                                  build/bsp.o
bsp_InitUart                                      build/bsp_uart_fifo.o
                                                  build/bsp.o
bsp_KeyScan                                       build/bsp_key.o
bsp_LedOff                                        build/bsp_led.o
                                                  build/subscribe_task.o
bsp_LedOn                                         build/bsp_led.o
                                                  build/subscribe_task.o
bsp_LedToggle                                     build/bsp_led.o
                                                  build/spin_task.o
bsp_PutKey                                        build/bsp_key.o
bsp_SetKeyParam                                   build/bsp_key.o
bsp_SetTIMOutPWM_N                                build/bsp_tim_pwm.o
bsp_SetTMROutPWM                                  build/bsp_tim_pwm.o
bsp_SetTMRforInt                                  build/bsp_tim_pwm.o
                                                  build/TimerForRunTimeState.o
bsp_SetUart1Baud                                  build/bsp_uart_fifo.o
bsp_StartHardTimer                                build/bsp_timer.o
cleanup_glue                                      /usr/local/Cellar/gcc-arm-none-eabi/20180627/bin/../lib/gcc/arm-none-eabi/7.3.1/../../../../arm-none-eabi/lib/thumb/v7e-m/fpv4-sp/softfp/libc_nano.a(lib_a-reent.o)
comClearRxFifo                                    build/bsp_uart_fifo.o
comClearTxFifo                                    build/bsp_uart_fifo.o
comGetChar                                        build/bsp_uart_fifo.o
                                                  build/spin_task.o
                                                  build/main.o
comSendBuf                                        build/bsp_uart_fifo.o
                                                  build/main.o
comSendChar                                       build/bsp_uart_fifo.o
eTaskGetState                                     build/tasks.o
end                                               /usr/local/Cellar/gcc-arm-none-eabi/20180627/bin/../lib/gcc/arm-none-eabi/7.3.1/../../../../arm-none-eabi/lib/thumb/v7e-m/fpv4-sp/softfp/libnosys.a(sbrk.o)
errno                                             /usr/local/Cellar/gcc-arm-none-eabi/20180627/bin/../lib/gcc/arm-none-eabi/7.3.1/../../../../arm-none-eabi/lib/thumb/v7e-m/fpv4-sp/softfp/libc_nano.a(lib_a-reent.o)
                                                  /usr/local/Cellar/gcc-arm-none-eabi/20180627/bin/../lib/gcc/arm-none-eabi/7.3.1/../../../../arm-none-eabi/lib/thumb/v7e-m/fpv4-sp/softfp/libnosys.a(kill.o)
                                                  /usr/local/Cellar/gcc-arm-none-eabi/20180627/bin/../lib/gcc/arm-none-eabi/7.3.1/../../../../arm-none-eabi/lib/thumb/v7e-m/fpv4-sp/softfp/libnosys.a(getpid.o)
                                                  /usr/local/Cellar/gcc-arm-none-eabi/20180627/bin/../lib/gcc/arm-none-eabi/7.3.1/../../../../arm-none-eabi/lib/thumb/v7e-m/fpv4-sp/softfp/libc_nano.a(lib_a-signalr.o)
                                                  /usr/local/Cellar/gcc-arm-none-eabi/20180627/bin/../lib/gcc/arm-none-eabi/7.3.1/../../../../arm-none-eabi/lib/thumb/v7e-m/fpv4-sp/softfp/libnosys.a(read.o)
                                                  /usr/local/Cellar/gcc-arm-none-eabi/20180627/bin/../lib/gcc/arm-none-eabi/7.3.1/../../../../arm-none-eabi/lib/thumb/v7e-m/fpv4-sp/softfp/libnosys.a(lseek.o)
                                                  /usr/local/Cellar/gcc-arm-none-eabi/20180627/bin/../lib/gcc/arm-none-eabi/7.3.1/../../../../arm-none-eabi/lib/thumb/v7e-m/fpv4-sp/softfp/libnosys.a(isatty.o)
                                                  /usr/local/Cellar/gcc-arm-none-eabi/20180627/bin/../lib/gcc/arm-none-eabi/7.3.1/../../../../arm-none-eabi/lib/thumb/v7e-m/fpv4-sp/softfp/libnosys.a(fstat.o)
                                                  /usr/local/Cellar/gcc-arm-none-eabi/20180627/bin/../lib/gcc/arm-none-eabi/7.3.1/../../../../arm-none-eabi/lib/thumb/v7e-m/fpv4-sp/softfp/libnosys.a(close.o)
                                                  /usr/local/Cellar/gcc-arm-none-eabi/20180627/bin/../lib/gcc/arm-none-eabi/7.3.1/../../../../arm-none-eabi/lib/thumb/v7e-m/fpv4-sp/softfp/libc_nano.a(lib_a-readr.o)
                                                  /usr/local/Cellar/gcc-arm-none-eabi/20180627/bin/../lib/gcc/arm-none-eabi/7.3.1/../../../../arm-none-eabi/lib/thumb/v7e-m/fpv4-sp/softfp/libc_nano.a(lib_a-lseekr.o)
                                                  /usr/local/Cellar/gcc-arm-none-eabi/20180627/bin/../lib/gcc/arm-none-eabi/7.3.1/../../../../arm-none-eabi/lib/thumb/v7e-m/fpv4-sp/softfp/libc_nano.a(lib_a-isattyr.o)
                                                  /usr/local/Cellar/gcc-arm-none-eabi/20180627/bin/../lib/gcc/arm-none-eabi/7.3.1/../../../../arm-none-eabi/lib/thumb/v7e-m/fpv4-sp/softfp/libc_nano.a(lib_a-fstatr.o)
                                                  /usr/local/Cellar/gcc-arm-none-eabi/20180627/bin/../lib/gcc/arm-none-eabi/7.3.1/../../../../arm-none-eabi/lib/thumb/v7e-m/fpv4-sp/softfp/libc_nano.a(lib_a-closer.o)
                                                  /usr/local/Cellar/gcc-arm-none-eabi/20180627/bin/../lib/gcc/arm-none-eabi/7.3.1/../../../../arm-none-eabi/lib/thumb/v7e-m/fpv4-sp/softfp/libc_nano.a(lib_a-writer.o)
                                                  /usr/local/Cellar/gcc-arm-none-eabi/20180627/bin/../lib/gcc/arm-none-eabi/7.3.1/../../../../arm-none-eabi/lib/thumb/v7e-m/fpv4-sp/softfp/libc_nano.a(lib_a-sbrkr.o)
exit                                              /usr/local/Cellar/gcc-arm-none-eabi/20180627/bin/../lib/gcc/arm-none-eabi/7.3.1/../../../../arm-none-eabi/lib/thumb/v7e-m/fpv4-sp/softfp/libc_nano.a(lib_a-exit.o)
                                                  /usr/local/Cellar/gcc-arm-none-eabi/20180627/bin/../lib/gcc/arm-none-eabi/7.3.1/../../../../arm-none-eabi/lib/thumb/v7e-m/fpv4-sp/softfp/crt0.o
fflush                                            /usr/local/Cellar/gcc-arm-none-eabi/20180627/bin/../lib/gcc/arm-none-eabi/7.3.1/../../../../arm-none-eabi/lib/thumb/v7e-m/fpv4-sp/softfp/libc_nano.a(lib_a-fflush.o)
fgetc                                             build/bsp_uart_fifo.o
g_pfnVectors                                      build/startup_at32f403xe.o
hardware_init_hook                                /usr/local/Cellar/gcc-arm-none-eabi/20180627/bin/../lib/gcc/arm-none-eabi/7.3.1/../../../../arm-none-eabi/lib/thumb/v7e-m/fpv4-sp/softfp/crt0.o
heartbeatInitTask()                               build/heartbeat_task.o
iprintf                                           /usr/local/Cellar/gcc-arm-none-eabi/20180627/bin/../lib/gcc/arm-none-eabi/7.3.1/../../../../arm-none-eabi/lib/thumb/v7e-m/fpv4-sp/softfp/libc_nano.a(lib_a-printf.o)
led_cb(std_msgs::UInt16 const&)                   build/subscribe_task.o
main                                              build/main.o
                                                  build/startup_at32f403xe.o
                                                  /usr/local/Cellar/gcc-arm-none-eabi/20180627/bin/../lib/gcc/arm-none-eabi/7.3.1/../../../../arm-none-eabi/lib/thumb/v7e-m/fpv4-sp/softfp/crt0.o
memchr                                            /usr/local/Cellar/gcc-arm-none-eabi/20180627/bin/../lib/gcc/arm-none-eabi/7.3.1/../../../../arm-none-eabi/lib/thumb/v7e-m/fpv4-sp/softfp/libc_nano.a(lib_a-memchr.o)
                                                  /usr/local/Cellar/gcc-arm-none-eabi/20180627/bin/../lib/gcc/arm-none-eabi/7.3.1/../../../../arm-none-eabi/lib/thumb/v7e-m/fpv4-sp/softfp/libc_nano.a(lib_a-fvwrite.o)
                                                  /usr/local/Cellar/gcc-arm-none-eabi/20180627/bin/../lib/gcc/arm-none-eabi/7.3.1/../../../../arm-none-eabi/lib/thumb/v7e-m/fpv4-sp/softfp/libc_nano.a(lib_a-nano-vfprintf_i.o)
                                                  /usr/local/Cellar/gcc-arm-none-eabi/20180627/bin/../lib/gcc/arm-none-eabi/7.3.1/../../../../arm-none-eabi/lib/thumb/v7e-m/fpv4-sp/softfp/libc_nano.a(lib_a-nano-vfprintf.o)
                                                  /usr/local/Cellar/gcc-arm-none-eabi/20180627/bin/../lib/gcc/arm-none-eabi/7.3.1/../../../../arm-none-eabi/lib/thumb/v7e-m/fpv4-sp/softfp/libc_nano.a(lib_a-nano-svfprintf.o)
memcpy                                            /usr/local/Cellar/gcc-arm-none-eabi/20180627/bin/../lib/gcc/arm-none-eabi/7.3.1/../../../../arm-none-eabi/lib/thumb/v7e-m/fpv4-sp/softfp/libc_nano.a(lib_a-memcpy-stub.o)
                                                  /usr/local/Cellar/gcc-arm-none-eabi/20180627/bin/../lib/gcc/arm-none-eabi/7.3.1/thumb/v7e-m/fpv4-sp/softfp/libgcc.a(unwind-arm.o)
                                                  /usr/local/Cellar/gcc-arm-none-eabi/20180627/bin/../lib/gcc/arm-none-eabi/7.3.1/../../../../arm-none-eabi/lib/thumb/v7e-m/fpv4-sp/softfp/libc_nano.a(lib_a-fvwrite.o)
                                                  /usr/local/Cellar/gcc-arm-none-eabi/20180627/bin/../lib/gcc/arm-none-eabi/7.3.1/../../../../arm-none-eabi/lib/thumb/v7e-m/fpv4-sp/softfp/libc_nano.a(lib_a-nano-svfprintf.o)
                                                  /usr/local/Cellar/gcc-arm-none-eabi/20180627/bin/../lib/gcc/arm-none-eabi/7.3.1/../../../../arm-none-eabi/lib/thumb/v7e-m/fpv4-sp/softfp/libc_nano.a(lib_a-nano-reallocr.o)
                                                  build/spin_task.o
                                                  build/main.o
                                                  build/queue.o
memmove                                           /usr/local/Cellar/gcc-arm-none-eabi/20180627/bin/../lib/gcc/arm-none-eabi/7.3.1/../../../../arm-none-eabi/lib/thumb/v7e-m/fpv4-sp/softfp/libc_nano.a(lib_a-memmove.o)
                                                  /usr/local/Cellar/gcc-arm-none-eabi/20180627/bin/../lib/gcc/arm-none-eabi/7.3.1/../../../../arm-none-eabi/lib/thumb/v7e-m/fpv4-sp/softfp/libc_nano.a(lib_a-fvwrite.o)
                                                  /usr/local/Cellar/gcc-arm-none-eabi/20180627/bin/../lib/gcc/arm-none-eabi/7.3.1/../../../../arm-none-eabi/lib/thumb/v7e-m/fpv4-sp/softfp/libc_nano.a(lib_a-nano-svfprintf.o)
memset                                            /usr/local/Cellar/gcc-arm-none-eabi/20180627/bin/../lib/gcc/arm-none-eabi/7.3.1/../../../../arm-none-eabi/lib/thumb/v7e-m/fpv4-sp/softfp/libc_nano.a(lib_a-memset.o)
                                                  /usr/local/Cellar/gcc-arm-none-eabi/20180627/bin/../lib/gcc/arm-none-eabi/7.3.1/../../../../arm-none-eabi/lib/thumb/v7e-m/fpv4-sp/softfp/libc_nano.a(lib_a-findfp.o)
                                                  build/tasks.o
                                                  /usr/local/Cellar/gcc-arm-none-eabi/20180627/bin/../lib/gcc/arm-none-eabi/7.3.1/../../../../arm-none-eabi/lib/thumb/v7e-m/fpv4-sp/softfp/crt0.o
nh                                                build/main.o
osAbortDelay                                      build/cmsis_os.o
osDelay                                           build/cmsis_os.o
                                                  build/heartbeat_task.o
                                                  build/subscribe_task.o
                                                  build/spin_task.o
osDelayUntil                                      build/cmsis_os.o
osKernelRunning                                   build/cmsis_os.o
osKernelStart                                     build/cmsis_os.o
osKernelSysTick                                   build/cmsis_os.o
osMailAlloc                                       build/cmsis_os.o
osMailCAlloc                                      build/cmsis_os.o
osMailCreate                                      build/cmsis_os.o
osMailFree                                        build/cmsis_os.o
osMailGet                                         build/cmsis_os.o
osMailPut                                         build/cmsis_os.o
osMessageAvailableSpace                           build/cmsis_os.o
osMessageCreate                                   build/cmsis_os.o
osMessageDelete                                   build/cmsis_os.o
osMessageGet                                      build/cmsis_os.o
osMessagePeek                                     build/cmsis_os.o
osMessagePut                                      build/cmsis_os.o
osMessageWaiting                                  build/cmsis_os.o
osMutexCreate                                     build/cmsis_os.o
osMutexDelete                                     build/cmsis_os.o
osMutexRelease                                    build/cmsis_os.o
osMutexWait                                       build/cmsis_os.o
osPoolAlloc                                       build/cmsis_os.o
osPoolCAlloc                                      build/cmsis_os.o
osPoolCreate                                      build/cmsis_os.o
osPoolFree                                        build/cmsis_os.o
osRecursiveMutexCreate                            build/cmsis_os.o
osRecursiveMutexRelease                           build/cmsis_os.o
osRecursiveMutexWait                              build/cmsis_os.o
osSemaphoreCreate                                 build/cmsis_os.o
osSemaphoreDelete                                 build/cmsis_os.o
osSemaphoreGetCount                               build/cmsis_os.o
osSemaphoreRelease                                build/cmsis_os.o
osSemaphoreWait                                   build/cmsis_os.o
osSignalSet                                       build/cmsis_os.o
osSignalWait                                      build/cmsis_os.o
osSystickHandler                                  build/cmsis_os.o
osThreadCreate                                    build/cmsis_os.o
                                                  build/heartbeat_task.o
                                                  build/subscribe_task.o
                                                  build/spin_task.o
osThreadGetId                                     build/cmsis_os.o
osThreadGetPriority                               build/cmsis_os.o
osThreadList                                      build/cmsis_os.o
osThreadResume                                    build/cmsis_os.o
osThreadResumeAll                                 build/cmsis_os.o
osThreadSetPriority                               build/cmsis_os.o
osThreadSuspend                                   build/cmsis_os.o
osThreadSuspendAll                                build/cmsis_os.o
osThreadTerminate                                 build/cmsis_os.o
osThreadYield                                     build/cmsis_os.o
osTimerCreate                                     build/cmsis_os.o
osTimerDelete                                     build/cmsis_os.o
osTimerStart                                      build/cmsis_os.o
osTimerStop                                       build/cmsis_os.o
pcQueueGetName                                    build/queue.o
pcTaskGetName                                     build/tasks.o
pcTimerGetName                                    build/timers.o
printf                                            /usr/local/Cellar/gcc-arm-none-eabi/20180627/bin/../lib/gcc/arm-none-eabi/7.3.1/../../../../arm-none-eabi/lib/thumb/v7e-m/fpv4-sp/softfp/libc_nano.a(lib_a-printf.o)
                                                  build/spin_task.o
                                                  build/main.o
puts                                              /usr/local/Cellar/gcc-arm-none-eabi/20180627/bin/../lib/gcc/arm-none-eabi/7.3.1/../../../../arm-none-eabi/lib/thumb/v7e-m/fpv4-sp/softfp/libc_nano.a(lib_a-puts.o)
                                                  build/spin_task.o
                                                  build/main.o
pvPortMalloc                                      build/heap_4.o
                                                  build/event_groups.o
                                                  build/tasks.o
                                                  build/timers.o
                                                  build/cmsis_os.o
                                                  build/queue.o
pvTaskIncrementMutexHeldCount                     build/tasks.o
                                                  build/queue.o
pvTimerGetTimerID                                 build/timers.o
pxCurrentTCB                                      build/tasks.o
                                                  build/port.o
pxPortInitialiseStack                             build/port.o
                                                  build/tasks.o
raise                                             /usr/local/Cellar/gcc-arm-none-eabi/20180627/bin/../lib/gcc/arm-none-eabi/7.3.1/../../../../arm-none-eabi/lib/thumb/v7e-m/fpv4-sp/softfp/libc_nano.a(lib_a-signal.o)
                                                  /usr/local/Cellar/gcc-arm-none-eabi/20180627/bin/../lib/gcc/arm-none-eabi/7.3.1/../../../../arm-none-eabi/lib/thumb/v7e-m/fpv4-sp/softfp/libc_nano.a(lib_a-abort.o)
realloc                                           /usr/local/Cellar/gcc-arm-none-eabi/20180627/bin/../lib/gcc/arm-none-eabi/7.3.1/../../../../arm-none-eabi/lib/thumb/v7e-m/fpv4-sp/softfp/libc_nano.a(lib_a-realloc.o)
                                                  build/spin_task.o
                                                  build/main.o
restore_core_regs                                 /usr/local/Cellar/gcc-arm-none-eabi/20180627/bin/../lib/gcc/arm-none-eabi/7.3.1/thumb/v7e-m/fpv4-sp/softfp/libgcc.a(libunwind.o)
                                                  /usr/local/Cellar/gcc-arm-none-eabi/20180627/bin/../lib/gcc/arm-none-eabi/7.3.1/thumb/v7e-m/fpv4-sp/softfp/libgcc.a(unwind-arm.o)
ros::Duration::operator*=(double)                 build/duration.o
ros::Duration::operator+=(ros::Duration const&)   build/duration.o
ros::Duration::operator-=(ros::Duration const&)   build/duration.o
ros::NodeHandle_<STM32Hardware, 5, 5, 512, 512>::connected() build/main.o
ros::NodeHandle_<STM32Hardware, 5, 5, 512, 512>::negotiateTopics() build/main.o
ros::NodeHandle_<STM32Hardware, 5, 5, 512, 512>::publish(int, ros::Msg const*) build/main.o
ros::NodeHandle_<STM32Hardware, 5, 5, 512, 512>::spinOnce() build/main.o
ros::Subscriber<std_msgs::UInt16, void>::callback(unsigned char*) build/subscribe_task.o
ros::Subscriber<std_msgs::UInt16, void>::getEndpointType() build/subscribe_task.o
ros::Subscriber<std_msgs::UInt16, void>::getMsgMD5() build/subscribe_task.o
ros::Subscriber<std_msgs::UInt16, void>::getMsgType() build/subscribe_task.o
ros::Time::fromNSec(long)                         build/time.o
ros::Time::operator+=(ros::Duration const&)       build/time.o
ros::Time::operator-=(ros::Duration const&)       build/time.o
ros::normalizeSecNSec(unsigned long&, unsigned long&) build/time.o
                                                  build/spin_task.o
                                                  build/main.o
ros::normalizeSecNSecSigned(long&, long&)         build/duration.o
rosSpinTaskInit(ros::NodeHandle_<STM32Hardware, 5, 5, 512, 512>*) build/spin_task.o
                                                  build/main.o
rosSubscribeInitTask(ros::NodeHandle_<STM32Hardware, 5, 5, 512, 512>*) build/subscribe_task.o
rosserial_msgs::Log::deserialize(unsigned char*)  build/main.o
rosserial_msgs::Log::getMD5()                     build/main.o
rosserial_msgs::Log::getType()                    build/main.o
rosserial_msgs::Log::serialize(unsigned char*) const build/main.o
rosserial_msgs::RequestParamResponse::deserialize(unsigned char*) build/main.o
rosserial_msgs::RequestParamResponse::getMD5()    build/main.o
rosserial_msgs::RequestParamResponse::getType()   build/main.o
rosserial_msgs::RequestParamResponse::serialize(unsigned char*) const build/main.o
rosserial_msgs::TopicInfo::deserialize(unsigned char*) build/main.o
                                                  build/spin_task.o
rosserial_msgs::TopicInfo::getMD5()               build/main.o
                                                  build/spin_task.o
rosserial_msgs::TopicInfo::getType()              build/main.o
                                                  build/spin_task.o
rosserial_msgs::TopicInfo::serialize(unsigned char*) const build/main.o
                                                  build/spin_task.o
signal                                            /usr/local/Cellar/gcc-arm-none-eabi/20180627/bin/../lib/gcc/arm-none-eabi/7.3.1/../../../../arm-none-eabi/lib/thumb/v7e-m/fpv4-sp/softfp/libc_nano.a(lib_a-signal.o)
siprintf                                          /usr/local/Cellar/gcc-arm-none-eabi/20180627/bin/../lib/gcc/arm-none-eabi/7.3.1/../../../../arm-none-eabi/lib/thumb/v7e-m/fpv4-sp/softfp/libc_nano.a(lib_a-sprintf.o)
software_init_hook                                /usr/local/Cellar/gcc-arm-none-eabi/20180627/bin/../lib/gcc/arm-none-eabi/7.3.1/../../../../arm-none-eabi/lib/thumb/v7e-m/fpv4-sp/softfp/crt0.o
sprintf                                           /usr/local/Cellar/gcc-arm-none-eabi/20180627/bin/../lib/gcc/arm-none-eabi/7.3.1/../../../../arm-none-eabi/lib/thumb/v7e-m/fpv4-sp/softfp/libc_nano.a(lib_a-sprintf.o)
                                                  build/tasks.o
std_msgs::Time::deserialize(unsigned char*)       build/main.o
                                                  build/spin_task.o
std_msgs::Time::getMD5()                          build/main.o
                                                  build/spin_task.o
std_msgs::Time::getType()                         build/main.o
                                                  build/spin_task.o
std_msgs::Time::serialize(unsigned char*) const   build/main.o
                                                  build/spin_task.o
std_msgs::UInt16::deserialize(unsigned char*)     build/subscribe_task.o
std_msgs::UInt16::getMD5()                        build/subscribe_task.o
std_msgs::UInt16::getType()                       build/subscribe_task.o
std_msgs::UInt16::serialize(unsigned char*) const build/subscribe_task.o
strcpy                                            /usr/local/Cellar/gcc-arm-none-eabi/20180627/bin/../lib/gcc/arm-none-eabi/7.3.1/../../../../arm-none-eabi/lib/thumb/v7e-m/fpv4-sp/softfp/libc_nano.a(lib_a-strcpy.o)
                                                  build/tasks.o
strlen                                            /usr/local/Cellar/gcc-arm-none-eabi/20180627/bin/../lib/gcc/arm-none-eabi/7.3.1/../../../../arm-none-eabi/lib/thumb/v7e-m/fpv4-sp/softfp/libc_nano.a(lib_a-strlen.o)
                                                  build/spin_task.o
                                                  build/main.o
                                                  build/tasks.o
sub_led                                           build/subscribe_task.o
subscribeQueueHandle                              build/subscribe_task.o
ucQueueGetQueueType                               build/queue.o
ulHighFrequencyTimerTicks                         build/TimerForRunTimeState.o
                                                  build/tasks.o
ulTaskNotifyTake                                  build/tasks.o
uxEventGroupGetNumber                             build/event_groups.o
uxListRemove                                      build/list.o
                                                  build/tasks.o
                                                  build/timers.o
uxQueueGetQueueNumber                             build/queue.o
uxQueueMessagesWaiting                            build/queue.o
                                                  build/cmsis_os.o
uxQueueMessagesWaitingFromISR                     build/queue.o
                                                  build/cmsis_os.o
uxQueueSpacesAvailable                            build/queue.o
                                                  build/cmsis_os.o
uxTaskGetNumberOfTasks                            build/tasks.o
uxTaskGetSystemState                              build/tasks.o
uxTaskGetTaskNumber                               build/tasks.o
uxTaskPriorityGet                                 build/tasks.o
                                                  build/cmsis_os.o
uxTaskPriorityGetFromISR                          build/tasks.o
                                                  build/cmsis_os.o
uxTaskResetEventItemValue                         build/tasks.o
                                                  build/event_groups.o
vApplicationMallocFailedHook                      build/main.o
                                                  build/heap_4.o
vApplicationStackOverflowHook                     build/main.o
                                                  build/tasks.o
vEventGroupClearBitsCallback                      build/event_groups.o
vEventGroupDelete                                 build/event_groups.o
vEventGroupSetBitsCallback                        build/event_groups.o
vListInitialise                                   build/list.o
                                                  build/event_groups.o
                                                  build/tasks.o
                                                  build/timers.o
                                                  build/queue.o
vListInitialiseItem                               build/list.o
                                                  build/tasks.o
                                                  build/timers.o
vListInsert                                       build/list.o
                                                  build/tasks.o
                                                  build/timers.o
vListInsertEnd                                    build/list.o
                                                  build/tasks.o
vPortEndScheduler                                 build/port.o
                                                  build/tasks.o
vPortEnterCritical                                build/port.o
                                                  build/bsp_uart_fifo.o
                                                  build/event_groups.o
                                                  build/tasks.o
                                                  build/timers.o
                                                  build/cmsis_os.o
                                                  build/queue.o
vPortExitCritical                                 build/port.o
                                                  build/bsp_uart_fifo.o
                                                  build/event_groups.o
                                                  build/tasks.o
                                                  build/timers.o
                                                  build/cmsis_os.o
                                                  build/queue.o
vPortFree                                         build/heap_4.o
                                                  build/event_groups.o
                                                  build/tasks.o
                                                  build/timers.o
                                                  build/cmsis_os.o
                                                  build/queue.o
vPortInitialiseBlocks                             build/heap_4.o
vPortSetupTimerInterrupt                          build/port.o
vPortValidateInterruptPriority                    build/port.o
                                                  build/tasks.o
                                                  build/queue.o
vQueueAddToRegistry                               build/queue.o
                                                  build/timers.o
vQueueDelete                                      build/queue.o
                                                  build/cmsis_os.o
vQueueSetQueueNumber                              build/queue.o
vQueueUnregisterQueue                             build/queue.o
vQueueWaitForMessageRestricted                    build/queue.o
                                                  build/timers.o
vTaskDelay                                        build/tasks.o
                                                  build/cmsis_os.o
vTaskDelayUntil                                   build/tasks.o
                                                  build/cmsis_os.o
vTaskDelete                                       build/tasks.o
                                                  build/cmsis_os.o
vTaskEndScheduler                                 build/tasks.o
vTaskGetInfo                                      build/tasks.o
vTaskGetRunTimeStats                              build/tasks.o
vTaskList                                         build/tasks.o
                                                  build/cmsis_os.o
vTaskMissedYield                                  build/tasks.o
                                                  build/queue.o
vTaskNotifyGiveFromISR                            build/tasks.o
vTaskPlaceOnEventList                             build/tasks.o
                                                  build/queue.o
vTaskPlaceOnEventListRestricted                   build/tasks.o
                                                  build/queue.o
vTaskPlaceOnUnorderedEventList                    build/tasks.o
                                                  build/event_groups.o
vTaskPriorityInherit                              build/tasks.o
                                                  build/queue.o
vTaskPrioritySet                                  build/tasks.o
                                                  build/cmsis_os.o
vTaskResume                                       build/tasks.o
                                                  build/cmsis_os.o
vTaskSetTaskNumber                                build/tasks.o
vTaskSetTimeOutState                              build/tasks.o
                                                  build/queue.o
vTaskStartScheduler                               build/tasks.o
                                                  build/main.o
                                                  build/cmsis_os.o
vTaskSuspend                                      build/tasks.o
                                                  build/cmsis_os.o
vTaskSuspendAll                                   build/tasks.o
                                                  build/event_groups.o
                                                  build/timers.o
                                                  build/cmsis_os.o
                                                  build/queue.o
                                                  build/heap_4.o
vTaskSwitchContext                                build/tasks.o
                                                  build/port.o
vTimerInitForRunTimeState                         build/TimerForRunTimeState.o
vTimerSetTimerID                                  build/timers.o
vfiprintf                                         /usr/local/Cellar/gcc-arm-none-eabi/20180627/bin/../lib/gcc/arm-none-eabi/7.3.1/../../../../arm-none-eabi/lib/thumb/v7e-m/fpv4-sp/softfp/libc_nano.a(lib_a-nano-vfprintf.o)
vfprintf                                          /usr/local/Cellar/gcc-arm-none-eabi/20180627/bin/../lib/gcc/arm-none-eabi/7.3.1/../../../../arm-none-eabi/lib/thumb/v7e-m/fpv4-sp/softfp/libc_nano.a(lib_a-nano-vfprintf.o)
vsniprintf                                        /usr/local/Cellar/gcc-arm-none-eabi/20180627/bin/../lib/gcc/arm-none-eabi/7.3.1/../../../../arm-none-eabi/lib/thumb/v7e-m/fpv4-sp/softfp/libc_nano.a(lib_a-vsnprintf.o)
vsnprintf                                         /usr/local/Cellar/gcc-arm-none-eabi/20180627/bin/../lib/gcc/arm-none-eabi/7.3.1/../../../../arm-none-eabi/lib/thumb/v7e-m/fpv4-sp/softfp/libc_nano.a(lib_a-vsnprintf.o)
                                                  build/main.o
vtable for ros::NodeHandle_<STM32Hardware, 5, 5, 512, 512> build/main.o
vtable for ros::Subscriber<std_msgs::UInt16, void> build/subscribe_task.o
vtable for rosserial_msgs::Log                    build/main.o
vtable for rosserial_msgs::RequestParamResponse   build/main.o
vtable for rosserial_msgs::TopicInfo              build/main.o
                                                  build/spin_task.o
vtable for std_msgs::Time                         build/main.o
                                                  build/spin_task.o
vtable for std_msgs::UInt16                       build/subscribe_task.o
xEventGroupClearBits                              build/event_groups.o
xEventGroupCreate                                 build/event_groups.o
xEventGroupGetBitsFromISR                         build/event_groups.o
xEventGroupSetBits                                build/event_groups.o
xEventGroupSync                                   build/event_groups.o
xEventGroupWaitBits                               build/event_groups.o
xPortGetFreeHeapSize                              build/heap_4.o
xPortGetMinimumEverFreeHeapSize                   build/heap_4.o
xPortStartScheduler                               build/port.o
                                                  build/tasks.o
xQueueCreateCountingSemaphore                     build/queue.o
                                                  build/cmsis_os.o
xQueueCreateMutex                                 build/queue.o
                                                  build/main.o
                                                  build/cmsis_os.o
xQueueGenericCreate                               build/queue.o
                                                  build/subscribe_task.o
                                                  build/timers.o
                                                  build/cmsis_os.o
xQueueGenericReceive                              build/queue.o
                                                  build/subscribe_task.o
                                                  build/main.o
                                                  build/timers.o
                                                  build/cmsis_os.o
xQueueGenericReset                                build/queue.o
xQueueGenericSend                                 build/queue.o
                                                  build/subscribe_task.o
                                                  build/main.o
                                                  build/timers.o
                                                  build/cmsis_os.o
xQueueGenericSendFromISR                          build/queue.o
                                                  build/timers.o
                                                  build/cmsis_os.o
xQueueGiveFromISR                                 build/queue.o
                                                  build/cmsis_os.o
xQueueGiveMutexRecursive                          build/queue.o
                                                  build/cmsis_os.o
xQueueIsQueueEmptyFromISR                         build/queue.o
xQueueIsQueueFullFromISR                          build/queue.o
xQueuePeekFromISR                                 build/queue.o
xQueueReceiveFromISR                              build/queue.o
                                                  build/cmsis_os.o
xQueueRegistry                                    build/queue.o
xQueueTakeMutexRecursive                          build/queue.o
                                                  build/cmsis_os.o
xTaskCheckForTimeOut                              build/tasks.o
                                                  build/queue.o
xTaskCreate                                       build/tasks.o
                                                  build/timers.o
                                                  build/cmsis_os.o
xTaskGenericNotify                                build/tasks.o
                                                  build/cmsis_os.o
xTaskGenericNotifyFromISR                         build/tasks.o
                                                  build/cmsis_os.o
xTaskGetCurrentTaskHandle                         build/tasks.o
                                                  build/cmsis_os.o
                                                  build/queue.o
xTaskGetSchedulerState                            build/tasks.o
                                                  build/event_groups.o
                                                  build/timers.o
                                                  build/cmsis_os.o
                                                  build/queue.o
xTaskGetTickCount                                 build/tasks.o
                                                  build/spin_task.o
                                                  build/main.o
                                                  build/timers.o
                                                  build/cmsis_os.o
xTaskGetTickCountFromISR                          build/tasks.o
                                                  build/cmsis_os.o
xTaskIncrementTick                                build/tasks.o
                                                  build/port.o
xTaskNotifyStateClear                             build/tasks.o
xTaskNotifyWait                                   build/tasks.o
                                                  build/cmsis_os.o
xTaskPriorityDisinherit                           build/tasks.o
                                                  build/queue.o
xTaskRemoveFromEventList                          build/tasks.o
                                                  build/queue.o
xTaskRemoveFromUnorderedEventList                 build/tasks.o
                                                  build/event_groups.o
xTaskResumeAll                                    build/tasks.o
                                                  build/event_groups.o
                                                  build/timers.o
                                                  build/cmsis_os.o
                                                  build/queue.o
                                                  build/heap_4.o
xTaskResumeFromISR                                build/tasks.o
                                                  build/cmsis_os.o
xTimerCreate                                      build/timers.o
                                                  build/cmsis_os.o
xTimerCreateTimerTask                             build/timers.o
                                                  build/tasks.o
xTimerGenericCommand                              build/timers.o
                                                  build/cmsis_os.o
xTimerGetExpiryTime                               build/timers.o
xTimerGetPeriod                                   build/timers.o
xTimerGetTimerDaemonTaskHandle                    build/timers.o
xTimerIsTimerActive                               build/timers.o
