ARM GAS  /var/folders/l3/4y5292px21b4835bsnjwqc7w009kq1/T//ccOhtKWi.s 			page 1


   1              		.cpu cortex-m4
   2              		.eabi_attribute 27, 1
   3              		.eabi_attribute 20, 1
   4              		.eabi_attribute 21, 1
   5              		.eabi_attribute 23, 3
   6              		.eabi_attribute 24, 1
   7              		.eabi_attribute 25, 1
   8              		.eabi_attribute 26, 1
   9              		.eabi_attribute 30, 1
  10              		.eabi_attribute 34, 1
  11              		.eabi_attribute 18, 4
  12              		.file	"spin_task.cpp"
  13              		.text
  14              	.Ltext0:
  15              		.cfi_sections	.debug_frame
  16              		.section	.text._ZNK8std_msgs4Time9serializeEPh,"axG",%progbits,_ZNK8std_msgs4Time9serializeEPh,com
  17              		.align	1
  18              		.weak	_ZNK8std_msgs4Time9serializeEPh
  19              		.syntax unified
  20              		.thumb
  21              		.thumb_func
  22              		.fpu fpv4-sp-d16
  24              	_ZNK8std_msgs4Time9serializeEPh:
  25              		.fnstart
  26              	.LFB383:
  27              		.file 1 "../Libraries/ROSSerial/std_msgs/Time.h"
   1:../Libraries/ROSSerial/std_msgs/Time.h **** #ifndef _ROS_std_msgs_Time_h
   2:../Libraries/ROSSerial/std_msgs/Time.h **** #define _ROS_std_msgs_Time_h
   3:../Libraries/ROSSerial/std_msgs/Time.h **** 
   4:../Libraries/ROSSerial/std_msgs/Time.h **** #include <stdint.h>
   5:../Libraries/ROSSerial/std_msgs/Time.h **** #include <string.h>
   6:../Libraries/ROSSerial/std_msgs/Time.h **** #include <stdlib.h>
   7:../Libraries/ROSSerial/std_msgs/Time.h **** #include "ros/msg.h"
   8:../Libraries/ROSSerial/std_msgs/Time.h **** #include "ros/time.h"
   9:../Libraries/ROSSerial/std_msgs/Time.h **** 
  10:../Libraries/ROSSerial/std_msgs/Time.h **** 
  11:../Libraries/ROSSerial/std_msgs/Time.h **** namespace std_msgs
  12:../Libraries/ROSSerial/std_msgs/Time.h **** {
  13:../Libraries/ROSSerial/std_msgs/Time.h **** 
  14:../Libraries/ROSSerial/std_msgs/Time.h ****   class Time : public ros::Msg
  15:../Libraries/ROSSerial/std_msgs/Time.h ****   {
  16:../Libraries/ROSSerial/std_msgs/Time.h ****     public:
  17:../Libraries/ROSSerial/std_msgs/Time.h ****       ros::Time data;
  18:../Libraries/ROSSerial/std_msgs/Time.h **** 
  19:../Libraries/ROSSerial/std_msgs/Time.h ****     virtual int serialize(unsigned char *outbuffer) const
  28              		.loc 1 19 0
  29              		.cfi_startproc
  30              		@ args = 0, pretend = 0, frame = 0
  31              		@ frame_needed = 0, uses_anonymous_args = 0
  32              		@ link register save eliminated.
  33              	.LVL0:
  20:../Libraries/ROSSerial/std_msgs/Time.h ****     {
  21:../Libraries/ROSSerial/std_msgs/Time.h ****       int offset = 0;
  22:../Libraries/ROSSerial/std_msgs/Time.h ****       *(outbuffer + offset + 0) = (this->data.sec >> (8 * 0)) & 0xFF;
  34              		.loc 1 22 0
  35 0000 4368     		ldr	r3, [r0, #4]
  36 0002 0B70     		strb	r3, [r1]
ARM GAS  /var/folders/l3/4y5292px21b4835bsnjwqc7w009kq1/T//ccOhtKWi.s 			page 2


  23:../Libraries/ROSSerial/std_msgs/Time.h ****       *(outbuffer + offset + 1) = (this->data.sec >> (8 * 1)) & 0xFF;
  37              		.loc 1 23 0
  38 0004 4368     		ldr	r3, [r0, #4]
  39 0006 1B0A     		lsrs	r3, r3, #8
  40 0008 4B70     		strb	r3, [r1, #1]
  24:../Libraries/ROSSerial/std_msgs/Time.h ****       *(outbuffer + offset + 2) = (this->data.sec >> (8 * 2)) & 0xFF;
  41              		.loc 1 24 0
  42 000a C388     		ldrh	r3, [r0, #6]
  43 000c 8B70     		strb	r3, [r1, #2]
  25:../Libraries/ROSSerial/std_msgs/Time.h ****       *(outbuffer + offset + 3) = (this->data.sec >> (8 * 3)) & 0xFF;
  44              		.loc 1 25 0
  45 000e C379     		ldrb	r3, [r0, #7]	@ zero_extendqisi2
  46 0010 CB70     		strb	r3, [r1, #3]
  47              	.LVL1:
  26:../Libraries/ROSSerial/std_msgs/Time.h ****       offset += sizeof(this->data.sec);
  27:../Libraries/ROSSerial/std_msgs/Time.h ****       *(outbuffer + offset + 0) = (this->data.nsec >> (8 * 0)) & 0xFF;
  48              		.loc 1 27 0
  49 0012 8368     		ldr	r3, [r0, #8]
  50 0014 0B71     		strb	r3, [r1, #4]
  28:../Libraries/ROSSerial/std_msgs/Time.h ****       *(outbuffer + offset + 1) = (this->data.nsec >> (8 * 1)) & 0xFF;
  51              		.loc 1 28 0
  52 0016 8368     		ldr	r3, [r0, #8]
  53 0018 1B0A     		lsrs	r3, r3, #8
  54 001a 4B71     		strb	r3, [r1, #5]
  29:../Libraries/ROSSerial/std_msgs/Time.h ****       *(outbuffer + offset + 2) = (this->data.nsec >> (8 * 2)) & 0xFF;
  55              		.loc 1 29 0
  56 001c 4389     		ldrh	r3, [r0, #10]
  57 001e 8B71     		strb	r3, [r1, #6]
  30:../Libraries/ROSSerial/std_msgs/Time.h ****       *(outbuffer + offset + 3) = (this->data.nsec >> (8 * 3)) & 0xFF;
  58              		.loc 1 30 0
  59 0020 C37A     		ldrb	r3, [r0, #11]	@ zero_extendqisi2
  60 0022 CB71     		strb	r3, [r1, #7]
  61              	.LVL2:
  31:../Libraries/ROSSerial/std_msgs/Time.h ****       offset += sizeof(this->data.nsec);
  32:../Libraries/ROSSerial/std_msgs/Time.h ****       return offset;
  33:../Libraries/ROSSerial/std_msgs/Time.h ****     }
  62              		.loc 1 33 0
  63 0024 0820     		movs	r0, #8
  64              	.LVL3:
  65 0026 7047     		bx	lr
  66              		.cfi_endproc
  67              	.LFE383:
  68              		.cantunwind
  69              		.fnend
  71              		.section	.text._ZN8std_msgs4Time11deserializeEPh,"axG",%progbits,_ZN8std_msgs4Time11deserializeEPh
  72              		.align	1
  73              		.weak	_ZN8std_msgs4Time11deserializeEPh
  74              		.syntax unified
  75              		.thumb
  76              		.thumb_func
  77              		.fpu fpv4-sp-d16
  79              	_ZN8std_msgs4Time11deserializeEPh:
  80              		.fnstart
  81              	.LFB384:
  34:../Libraries/ROSSerial/std_msgs/Time.h **** 
  35:../Libraries/ROSSerial/std_msgs/Time.h ****     virtual int deserialize(unsigned char *inbuffer)
  82              		.loc 1 35 0
ARM GAS  /var/folders/l3/4y5292px21b4835bsnjwqc7w009kq1/T//ccOhtKWi.s 			page 3


  83              		.cfi_startproc
  84              		@ args = 0, pretend = 0, frame = 0
  85              		@ frame_needed = 0, uses_anonymous_args = 0
  86              		@ link register save eliminated.
  87              	.LVL4:
  36:../Libraries/ROSSerial/std_msgs/Time.h ****     {
  37:../Libraries/ROSSerial/std_msgs/Time.h ****       int offset = 0;
  38:../Libraries/ROSSerial/std_msgs/Time.h ****       this->data.sec =  ((uint32_t) (*(inbuffer + offset)));
  88              		.loc 1 38 0
  89 0000 0B78     		ldrb	r3, [r1]	@ zero_extendqisi2
  90 0002 4360     		str	r3, [r0, #4]
  39:../Libraries/ROSSerial/std_msgs/Time.h ****       this->data.sec |= ((uint32_t) (*(inbuffer + offset + 1))) << (8 * 1);
  91              		.loc 1 39 0
  92 0004 4A78     		ldrb	r2, [r1, #1]	@ zero_extendqisi2
  93 0006 43EA0223 		orr	r3, r3, r2, lsl #8
  94 000a 4360     		str	r3, [r0, #4]
  40:../Libraries/ROSSerial/std_msgs/Time.h ****       this->data.sec |= ((uint32_t) (*(inbuffer + offset + 2))) << (8 * 2);
  95              		.loc 1 40 0
  96 000c 8A78     		ldrb	r2, [r1, #2]	@ zero_extendqisi2
  97 000e 43EA0243 		orr	r3, r3, r2, lsl #16
  98 0012 4360     		str	r3, [r0, #4]
  41:../Libraries/ROSSerial/std_msgs/Time.h ****       this->data.sec |= ((uint32_t) (*(inbuffer + offset + 3))) << (8 * 3);
  99              		.loc 1 41 0
 100 0014 CA78     		ldrb	r2, [r1, #3]	@ zero_extendqisi2
 101 0016 43EA0263 		orr	r3, r3, r2, lsl #24
 102 001a 4360     		str	r3, [r0, #4]
 103              	.LVL5:
  42:../Libraries/ROSSerial/std_msgs/Time.h ****       offset += sizeof(this->data.sec);
  43:../Libraries/ROSSerial/std_msgs/Time.h ****       this->data.nsec =  ((uint32_t) (*(inbuffer + offset)));
 104              		.loc 1 43 0
 105 001c 0B79     		ldrb	r3, [r1, #4]	@ zero_extendqisi2
 106 001e 8360     		str	r3, [r0, #8]
  44:../Libraries/ROSSerial/std_msgs/Time.h ****       this->data.nsec |= ((uint32_t) (*(inbuffer + offset + 1))) << (8 * 1);
 107              		.loc 1 44 0
 108 0020 4A79     		ldrb	r2, [r1, #5]	@ zero_extendqisi2
 109 0022 43EA0223 		orr	r3, r3, r2, lsl #8
 110 0026 8360     		str	r3, [r0, #8]
  45:../Libraries/ROSSerial/std_msgs/Time.h ****       this->data.nsec |= ((uint32_t) (*(inbuffer + offset + 2))) << (8 * 2);
 111              		.loc 1 45 0
 112 0028 8A79     		ldrb	r2, [r1, #6]	@ zero_extendqisi2
 113 002a 43EA0243 		orr	r3, r3, r2, lsl #16
 114 002e 8360     		str	r3, [r0, #8]
  46:../Libraries/ROSSerial/std_msgs/Time.h ****       this->data.nsec |= ((uint32_t) (*(inbuffer + offset + 3))) << (8 * 3);
 115              		.loc 1 46 0
 116 0030 CA79     		ldrb	r2, [r1, #7]	@ zero_extendqisi2
 117 0032 43EA0263 		orr	r3, r3, r2, lsl #24
 118 0036 8360     		str	r3, [r0, #8]
 119              	.LVL6:
  47:../Libraries/ROSSerial/std_msgs/Time.h ****       offset += sizeof(this->data.nsec);
  48:../Libraries/ROSSerial/std_msgs/Time.h ****      return offset;
  49:../Libraries/ROSSerial/std_msgs/Time.h ****     }
 120              		.loc 1 49 0
 121 0038 0820     		movs	r0, #8
 122              	.LVL7:
 123 003a 7047     		bx	lr
 124              		.cfi_endproc
 125              	.LFE384:
ARM GAS  /var/folders/l3/4y5292px21b4835bsnjwqc7w009kq1/T//ccOhtKWi.s 			page 4


 126              		.cantunwind
 127              		.fnend
 129              		.section	.text._ZN8std_msgs4Time7getTypeEv,"axG",%progbits,_ZN8std_msgs4Time7getTypeEv,comdat
 130              		.align	1
 131              		.weak	_ZN8std_msgs4Time7getTypeEv
 132              		.syntax unified
 133              		.thumb
 134              		.thumb_func
 135              		.fpu fpv4-sp-d16
 137              	_ZN8std_msgs4Time7getTypeEv:
 138              		.fnstart
 139              	.LFB385:
  50:../Libraries/ROSSerial/std_msgs/Time.h **** 
  51:../Libraries/ROSSerial/std_msgs/Time.h ****     const char * getType(){ return "std_msgs/Time"; };
 140              		.loc 1 51 0
 141              		.cfi_startproc
 142              		@ args = 0, pretend = 0, frame = 0
 143              		@ frame_needed = 0, uses_anonymous_args = 0
 144              		@ link register save eliminated.
 145              	.LVL8:
 146              		.loc 1 51 0
 147 0000 0048     		ldr	r0, .L4
 148              	.LVL9:
 149 0002 7047     		bx	lr
 150              	.L5:
 151              		.align	2
 152              	.L4:
 153 0004 00000000 		.word	.LC2
 154              		.cfi_endproc
 155              	.LFE385:
 156              		.cantunwind
 157              		.fnend
 159              		.section	.text._ZN8std_msgs4Time6getMD5Ev,"axG",%progbits,_ZN8std_msgs4Time6getMD5Ev,comdat
 160              		.align	1
 161              		.weak	_ZN8std_msgs4Time6getMD5Ev
 162              		.syntax unified
 163              		.thumb
 164              		.thumb_func
 165              		.fpu fpv4-sp-d16
 167              	_ZN8std_msgs4Time6getMD5Ev:
 168              		.fnstart
 169              	.LFB386:
  52:../Libraries/ROSSerial/std_msgs/Time.h ****     const char * getMD5(){ return "cd7166c74c552c311fbcc2fe5a7bc289"; };
 170              		.loc 1 52 0
 171              		.cfi_startproc
 172              		@ args = 0, pretend = 0, frame = 0
 173              		@ frame_needed = 0, uses_anonymous_args = 0
 174              		@ link register save eliminated.
 175              	.LVL10:
 176              		.loc 1 52 0
 177 0000 0048     		ldr	r0, .L7
 178              	.LVL11:
 179 0002 7047     		bx	lr
 180              	.L8:
 181              		.align	2
 182              	.L7:
 183 0004 00000000 		.word	.LC3
ARM GAS  /var/folders/l3/4y5292px21b4835bsnjwqc7w009kq1/T//ccOhtKWi.s 			page 5


 184              		.cfi_endproc
 185              	.LFE386:
 186              		.cantunwind
 187              		.fnend
 189              		.section	.text._ZN14rosserial_msgs9TopicInfo11deserializeEPh,"axG",%progbits,_ZN14rosserial_msgs9T
 190              		.align	1
 191              		.weak	_ZN14rosserial_msgs9TopicInfo11deserializeEPh
 192              		.syntax unified
 193              		.thumb
 194              		.thumb_func
 195              		.fpu fpv4-sp-d16
 197              	_ZN14rosserial_msgs9TopicInfo11deserializeEPh:
 198              		.fnstart
 199              	.LFB388:
 200              		.file 2 "../Libraries/ROSSerial/rosserial_msgs/TopicInfo.h"
   1:../Libraries/ROSSerial/rosserial_msgs/TopicInfo.h **** #ifndef _ROS_rosserial_msgs_TopicInfo_h
   2:../Libraries/ROSSerial/rosserial_msgs/TopicInfo.h **** #define _ROS_rosserial_msgs_TopicInfo_h
   3:../Libraries/ROSSerial/rosserial_msgs/TopicInfo.h **** 
   4:../Libraries/ROSSerial/rosserial_msgs/TopicInfo.h **** #include <stdint.h>
   5:../Libraries/ROSSerial/rosserial_msgs/TopicInfo.h **** #include <string.h>
   6:../Libraries/ROSSerial/rosserial_msgs/TopicInfo.h **** #include <stdlib.h>
   7:../Libraries/ROSSerial/rosserial_msgs/TopicInfo.h **** #include "ros/msg.h"
   8:../Libraries/ROSSerial/rosserial_msgs/TopicInfo.h **** 
   9:../Libraries/ROSSerial/rosserial_msgs/TopicInfo.h **** namespace rosserial_msgs
  10:../Libraries/ROSSerial/rosserial_msgs/TopicInfo.h **** {
  11:../Libraries/ROSSerial/rosserial_msgs/TopicInfo.h **** 
  12:../Libraries/ROSSerial/rosserial_msgs/TopicInfo.h ****   class TopicInfo : public ros::Msg
  13:../Libraries/ROSSerial/rosserial_msgs/TopicInfo.h ****   {
  14:../Libraries/ROSSerial/rosserial_msgs/TopicInfo.h ****     public:
  15:../Libraries/ROSSerial/rosserial_msgs/TopicInfo.h ****       uint16_t topic_id;
  16:../Libraries/ROSSerial/rosserial_msgs/TopicInfo.h ****       const char* topic_name;
  17:../Libraries/ROSSerial/rosserial_msgs/TopicInfo.h ****       const char* message_type;
  18:../Libraries/ROSSerial/rosserial_msgs/TopicInfo.h ****       const char* md5sum;
  19:../Libraries/ROSSerial/rosserial_msgs/TopicInfo.h ****       int32_t buffer_size;
  20:../Libraries/ROSSerial/rosserial_msgs/TopicInfo.h ****       enum { ID_PUBLISHER = 0 };
  21:../Libraries/ROSSerial/rosserial_msgs/TopicInfo.h ****       enum { ID_SUBSCRIBER = 1 };
  22:../Libraries/ROSSerial/rosserial_msgs/TopicInfo.h ****       enum { ID_SERVICE_SERVER = 2 };
  23:../Libraries/ROSSerial/rosserial_msgs/TopicInfo.h ****       enum { ID_SERVICE_CLIENT = 4 };
  24:../Libraries/ROSSerial/rosserial_msgs/TopicInfo.h ****       enum { ID_PARAMETER_REQUEST = 6 };
  25:../Libraries/ROSSerial/rosserial_msgs/TopicInfo.h ****       enum { ID_LOG = 7 };
  26:../Libraries/ROSSerial/rosserial_msgs/TopicInfo.h ****       enum { ID_TIME = 10 };
  27:../Libraries/ROSSerial/rosserial_msgs/TopicInfo.h ****       enum { ID_TX_STOP = 11 };
  28:../Libraries/ROSSerial/rosserial_msgs/TopicInfo.h **** 
  29:../Libraries/ROSSerial/rosserial_msgs/TopicInfo.h ****     virtual int serialize(unsigned char *outbuffer) const
  30:../Libraries/ROSSerial/rosserial_msgs/TopicInfo.h ****     {
  31:../Libraries/ROSSerial/rosserial_msgs/TopicInfo.h ****       int offset = 0;
  32:../Libraries/ROSSerial/rosserial_msgs/TopicInfo.h ****       *(outbuffer + offset + 0) = (this->topic_id >> (8 * 0)) & 0xFF;
  33:../Libraries/ROSSerial/rosserial_msgs/TopicInfo.h ****       *(outbuffer + offset + 1) = (this->topic_id >> (8 * 1)) & 0xFF;
  34:../Libraries/ROSSerial/rosserial_msgs/TopicInfo.h ****       offset += sizeof(this->topic_id);
  35:../Libraries/ROSSerial/rosserial_msgs/TopicInfo.h ****       uint32_t length_topic_name = strlen(this->topic_name);
  36:../Libraries/ROSSerial/rosserial_msgs/TopicInfo.h ****       memcpy(outbuffer + offset, &length_topic_name, sizeof(uint32_t));
  37:../Libraries/ROSSerial/rosserial_msgs/TopicInfo.h ****       offset += 4;
  38:../Libraries/ROSSerial/rosserial_msgs/TopicInfo.h ****       memcpy(outbuffer + offset, this->topic_name, length_topic_name);
  39:../Libraries/ROSSerial/rosserial_msgs/TopicInfo.h ****       offset += length_topic_name;
  40:../Libraries/ROSSerial/rosserial_msgs/TopicInfo.h ****       uint32_t length_message_type = strlen(this->message_type);
  41:../Libraries/ROSSerial/rosserial_msgs/TopicInfo.h ****       memcpy(outbuffer + offset, &length_message_type, sizeof(uint32_t));
  42:../Libraries/ROSSerial/rosserial_msgs/TopicInfo.h ****       offset += 4;
ARM GAS  /var/folders/l3/4y5292px21b4835bsnjwqc7w009kq1/T//ccOhtKWi.s 			page 6


  43:../Libraries/ROSSerial/rosserial_msgs/TopicInfo.h ****       memcpy(outbuffer + offset, this->message_type, length_message_type);
  44:../Libraries/ROSSerial/rosserial_msgs/TopicInfo.h ****       offset += length_message_type;
  45:../Libraries/ROSSerial/rosserial_msgs/TopicInfo.h ****       uint32_t length_md5sum = strlen(this->md5sum);
  46:../Libraries/ROSSerial/rosserial_msgs/TopicInfo.h ****       memcpy(outbuffer + offset, &length_md5sum, sizeof(uint32_t));
  47:../Libraries/ROSSerial/rosserial_msgs/TopicInfo.h ****       offset += 4;
  48:../Libraries/ROSSerial/rosserial_msgs/TopicInfo.h ****       memcpy(outbuffer + offset, this->md5sum, length_md5sum);
  49:../Libraries/ROSSerial/rosserial_msgs/TopicInfo.h ****       offset += length_md5sum;
  50:../Libraries/ROSSerial/rosserial_msgs/TopicInfo.h ****       union {
  51:../Libraries/ROSSerial/rosserial_msgs/TopicInfo.h ****         int32_t real;
  52:../Libraries/ROSSerial/rosserial_msgs/TopicInfo.h ****         uint32_t base;
  53:../Libraries/ROSSerial/rosserial_msgs/TopicInfo.h ****       } u_buffer_size;
  54:../Libraries/ROSSerial/rosserial_msgs/TopicInfo.h ****       u_buffer_size.real = this->buffer_size;
  55:../Libraries/ROSSerial/rosserial_msgs/TopicInfo.h ****       *(outbuffer + offset + 0) = (u_buffer_size.base >> (8 * 0)) & 0xFF;
  56:../Libraries/ROSSerial/rosserial_msgs/TopicInfo.h ****       *(outbuffer + offset + 1) = (u_buffer_size.base >> (8 * 1)) & 0xFF;
  57:../Libraries/ROSSerial/rosserial_msgs/TopicInfo.h ****       *(outbuffer + offset + 2) = (u_buffer_size.base >> (8 * 2)) & 0xFF;
  58:../Libraries/ROSSerial/rosserial_msgs/TopicInfo.h ****       *(outbuffer + offset + 3) = (u_buffer_size.base >> (8 * 3)) & 0xFF;
  59:../Libraries/ROSSerial/rosserial_msgs/TopicInfo.h ****       offset += sizeof(this->buffer_size);
  60:../Libraries/ROSSerial/rosserial_msgs/TopicInfo.h ****       return offset;
  61:../Libraries/ROSSerial/rosserial_msgs/TopicInfo.h ****     }
  62:../Libraries/ROSSerial/rosserial_msgs/TopicInfo.h **** 
  63:../Libraries/ROSSerial/rosserial_msgs/TopicInfo.h ****     virtual int deserialize(unsigned char *inbuffer)
 201              		.loc 2 63 0
 202              		.cfi_startproc
 203              		@ args = 0, pretend = 0, frame = 0
 204              		@ frame_needed = 0, uses_anonymous_args = 0
 205              		@ link register save eliminated.
 206              	.LVL12:
 207 0000 70B4     		push	{r4, r5, r6}
 208              	.LCFI0:
 209              		.cfi_def_cfa_offset 12
 210              		.cfi_offset 4, -12
 211              		.cfi_offset 5, -8
 212              		.cfi_offset 6, -4
 213              	.LVL13:
  64:../Libraries/ROSSerial/rosserial_msgs/TopicInfo.h ****     {
  65:../Libraries/ROSSerial/rosserial_msgs/TopicInfo.h ****       int offset = 0;
  66:../Libraries/ROSSerial/rosserial_msgs/TopicInfo.h ****       this->topic_id =  ((uint16_t) (*(inbuffer + offset)));
 214              		.loc 2 66 0
 215 0002 0B78     		ldrb	r3, [r1]	@ zero_extendqisi2
 216 0004 8380     		strh	r3, [r0, #4]	@ movhi
  67:../Libraries/ROSSerial/rosserial_msgs/TopicInfo.h ****       this->topic_id |= ((uint16_t) (*(inbuffer + offset + 1))) << (8 * 1);
 217              		.loc 2 67 0
 218 0006 4A78     		ldrb	r2, [r1, #1]	@ zero_extendqisi2
 219 0008 43EA0223 		orr	r3, r3, r2, lsl #8
 220 000c 8380     		strh	r3, [r0, #4]	@ movhi
 221              	.LVL14:
  68:../Libraries/ROSSerial/rosserial_msgs/TopicInfo.h ****       offset += sizeof(this->topic_id);
  69:../Libraries/ROSSerial/rosserial_msgs/TopicInfo.h ****       uint32_t length_topic_name;
  70:../Libraries/ROSSerial/rosserial_msgs/TopicInfo.h ****       memcpy(&length_topic_name, (inbuffer + offset), sizeof(uint32_t));
 222              		.loc 2 70 0
 223 000e D1F80250 		ldr	r5, [r1, #2]	@ unaligned
 224              	.LVL15:
 225              	.LBB73:
  71:../Libraries/ROSSerial/rosserial_msgs/TopicInfo.h ****       offset += 4;
  72:../Libraries/ROSSerial/rosserial_msgs/TopicInfo.h ****       for(unsigned int k= offset; k< offset+length_topic_name; ++k){
 226              		.loc 2 72 0
 227 0012 0623     		movs	r3, #6
ARM GAS  /var/folders/l3/4y5292px21b4835bsnjwqc7w009kq1/T//ccOhtKWi.s 			page 7


 228              	.LVL16:
 229              	.L11:
 230              		.loc 2 72 0 is_stmt 0 discriminator 3
 231 0014 AA1D     		adds	r2, r5, #6
 232 0016 9A42     		cmp	r2, r3
 233 0018 04D9     		bls	.L10
  73:../Libraries/ROSSerial/rosserial_msgs/TopicInfo.h ****           inbuffer[k-1]=inbuffer[k];
 234              		.loc 2 73 0 is_stmt 1 discriminator 2
 235 001a 5A1E     		subs	r2, r3, #1
 236 001c CC5C     		ldrb	r4, [r1, r3]	@ zero_extendqisi2
 237 001e 8C54     		strb	r4, [r1, r2]
  72:../Libraries/ROSSerial/rosserial_msgs/TopicInfo.h ****           inbuffer[k-1]=inbuffer[k];
 238              		.loc 2 72 0 discriminator 2
 239 0020 0133     		adds	r3, r3, #1
 240              	.LVL17:
 241 0022 F7E7     		b	.L11
 242              	.L10:
 243              	.LBE73:
  74:../Libraries/ROSSerial/rosserial_msgs/TopicInfo.h ****       }
  75:../Libraries/ROSSerial/rosserial_msgs/TopicInfo.h ****       inbuffer[offset+length_topic_name-1]=0;
 244              		.loc 2 75 0
 245 0024 0535     		adds	r5, r5, #5
 246              	.LVL18:
 247 0026 0023     		movs	r3, #0
 248              	.LVL19:
 249 0028 4B55     		strb	r3, [r1, r5]
  76:../Libraries/ROSSerial/rosserial_msgs/TopicInfo.h ****       this->topic_name = (char *)(inbuffer + offset-1);
 250              		.loc 2 76 0
 251 002a 4B1D     		adds	r3, r1, #5
 252 002c 8360     		str	r3, [r0, #8]
 253              	.LVL20:
  77:../Libraries/ROSSerial/rosserial_msgs/TopicInfo.h ****       offset += length_topic_name;
  78:../Libraries/ROSSerial/rosserial_msgs/TopicInfo.h ****       uint32_t length_message_type;
  79:../Libraries/ROSSerial/rosserial_msgs/TopicInfo.h ****       memcpy(&length_message_type, (inbuffer + offset), sizeof(uint32_t));
 254              		.loc 2 79 0
 255 002e 8E58     		ldr	r6, [r1, r2]	@ unaligned
 256              	.LVL21:
  80:../Libraries/ROSSerial/rosserial_msgs/TopicInfo.h ****       offset += 4;
 257              		.loc 2 80 0
 258 0030 141D     		adds	r4, r2, #4
 259              	.LVL22:
 260              	.LBB74:
  81:../Libraries/ROSSerial/rosserial_msgs/TopicInfo.h ****       for(unsigned int k= offset; k< offset+length_message_type; ++k){
 261              		.loc 2 81 0
 262 0032 2346     		mov	r3, r4
 263              	.LVL23:
 264              	.L13:
 265              		.loc 2 81 0 is_stmt 0 discriminator 3
 266 0034 3219     		adds	r2, r6, r4
 267 0036 9A42     		cmp	r2, r3
 268 0038 04D9     		bls	.L12
  82:../Libraries/ROSSerial/rosserial_msgs/TopicInfo.h ****           inbuffer[k-1]=inbuffer[k];
 269              		.loc 2 82 0 is_stmt 1 discriminator 2
 270 003a 5A1E     		subs	r2, r3, #1
 271 003c CD5C     		ldrb	r5, [r1, r3]	@ zero_extendqisi2
 272 003e 8D54     		strb	r5, [r1, r2]
  81:../Libraries/ROSSerial/rosserial_msgs/TopicInfo.h ****       for(unsigned int k= offset; k< offset+length_message_type; ++k){
ARM GAS  /var/folders/l3/4y5292px21b4835bsnjwqc7w009kq1/T//ccOhtKWi.s 			page 8


 273              		.loc 2 81 0 discriminator 2
 274 0040 0133     		adds	r3, r3, #1
 275              	.LVL24:
 276 0042 F7E7     		b	.L13
 277              	.L12:
 278              	.LBE74:
  83:../Libraries/ROSSerial/rosserial_msgs/TopicInfo.h ****       }
  84:../Libraries/ROSSerial/rosserial_msgs/TopicInfo.h ****       inbuffer[offset+length_message_type-1]=0;
 279              		.loc 2 84 0
 280 0044 531E     		subs	r3, r2, #1
 281              	.LVL25:
 282 0046 0025     		movs	r5, #0
 283 0048 CD54     		strb	r5, [r1, r3]
  85:../Libraries/ROSSerial/rosserial_msgs/TopicInfo.h ****       this->message_type = (char *)(inbuffer + offset-1);
 284              		.loc 2 85 0
 285 004a 013C     		subs	r4, r4, #1
 286              	.LVL26:
 287 004c 0C44     		add	r4, r4, r1
 288              	.LVL27:
 289 004e C460     		str	r4, [r0, #12]
 290              	.LVL28:
  86:../Libraries/ROSSerial/rosserial_msgs/TopicInfo.h ****       offset += length_message_type;
  87:../Libraries/ROSSerial/rosserial_msgs/TopicInfo.h ****       uint32_t length_md5sum;
  88:../Libraries/ROSSerial/rosserial_msgs/TopicInfo.h ****       memcpy(&length_md5sum, (inbuffer + offset), sizeof(uint32_t));
 291              		.loc 2 88 0
 292 0050 8E58     		ldr	r6, [r1, r2]	@ unaligned
 293              	.LVL29:
  89:../Libraries/ROSSerial/rosserial_msgs/TopicInfo.h ****       offset += 4;
 294              		.loc 2 89 0
 295 0052 0432     		adds	r2, r2, #4
 296              	.LVL30:
 297              	.LBB75:
  90:../Libraries/ROSSerial/rosserial_msgs/TopicInfo.h ****       for(unsigned int k= offset; k< offset+length_md5sum; ++k){
 298              		.loc 2 90 0
 299 0054 1346     		mov	r3, r2
 300              	.LVL31:
 301              	.L15:
 302              		.loc 2 90 0 is_stmt 0 discriminator 3
 303 0056 B418     		adds	r4, r6, r2
 304 0058 9C42     		cmp	r4, r3
 305 005a 04D9     		bls	.L14
  91:../Libraries/ROSSerial/rosserial_msgs/TopicInfo.h ****           inbuffer[k-1]=inbuffer[k];
 306              		.loc 2 91 0 is_stmt 1 discriminator 2
 307 005c 5C1E     		subs	r4, r3, #1
 308 005e CD5C     		ldrb	r5, [r1, r3]	@ zero_extendqisi2
 309 0060 0D55     		strb	r5, [r1, r4]
  90:../Libraries/ROSSerial/rosserial_msgs/TopicInfo.h ****       for(unsigned int k= offset; k< offset+length_md5sum; ++k){
 310              		.loc 2 90 0 discriminator 2
 311 0062 0133     		adds	r3, r3, #1
 312              	.LVL32:
 313 0064 F7E7     		b	.L15
 314              	.L14:
 315              	.LBE75:
  92:../Libraries/ROSSerial/rosserial_msgs/TopicInfo.h ****       }
  93:../Libraries/ROSSerial/rosserial_msgs/TopicInfo.h ****       inbuffer[offset+length_md5sum-1]=0;
 316              		.loc 2 93 0
 317 0066 631E     		subs	r3, r4, #1
ARM GAS  /var/folders/l3/4y5292px21b4835bsnjwqc7w009kq1/T//ccOhtKWi.s 			page 9


 318              	.LVL33:
 319 0068 0025     		movs	r5, #0
 320 006a CD54     		strb	r5, [r1, r3]
  94:../Libraries/ROSSerial/rosserial_msgs/TopicInfo.h ****       this->md5sum = (char *)(inbuffer + offset-1);
 321              		.loc 2 94 0
 322 006c 013A     		subs	r2, r2, #1
 323 006e 0A44     		add	r2, r2, r1
 324 0070 0261     		str	r2, [r0, #16]
 325              	.LVL34:
  95:../Libraries/ROSSerial/rosserial_msgs/TopicInfo.h ****       offset += length_md5sum;
  96:../Libraries/ROSSerial/rosserial_msgs/TopicInfo.h ****       union {
  97:../Libraries/ROSSerial/rosserial_msgs/TopicInfo.h ****         int32_t real;
  98:../Libraries/ROSSerial/rosserial_msgs/TopicInfo.h ****         uint32_t base;
  99:../Libraries/ROSSerial/rosserial_msgs/TopicInfo.h ****       } u_buffer_size;
 100:../Libraries/ROSSerial/rosserial_msgs/TopicInfo.h ****       u_buffer_size.base = 0;
 101:../Libraries/ROSSerial/rosserial_msgs/TopicInfo.h ****       u_buffer_size.base |= ((uint32_t) (*(inbuffer + offset + 0))) << (8 * 0);
 326              		.loc 2 101 0
 327 0072 0B5D     		ldrb	r3, [r1, r4]	@ zero_extendqisi2
 102:../Libraries/ROSSerial/rosserial_msgs/TopicInfo.h ****       u_buffer_size.base |= ((uint32_t) (*(inbuffer + offset + 1))) << (8 * 1);
 328              		.loc 2 102 0
 329 0074 621C     		adds	r2, r4, #1
 330 0076 8A5C     		ldrb	r2, [r1, r2]	@ zero_extendqisi2
 331 0078 43EA0223 		orr	r3, r3, r2, lsl #8
 103:../Libraries/ROSSerial/rosserial_msgs/TopicInfo.h ****       u_buffer_size.base |= ((uint32_t) (*(inbuffer + offset + 2))) << (8 * 2);
 332              		.loc 2 103 0
 333 007c A21C     		adds	r2, r4, #2
 334 007e 8A5C     		ldrb	r2, [r1, r2]	@ zero_extendqisi2
 335 0080 43EA0243 		orr	r3, r3, r2, lsl #16
 104:../Libraries/ROSSerial/rosserial_msgs/TopicInfo.h ****       u_buffer_size.base |= ((uint32_t) (*(inbuffer + offset + 3))) << (8 * 3);
 336              		.loc 2 104 0
 337 0084 E21C     		adds	r2, r4, #3
 338 0086 8A5C     		ldrb	r2, [r1, r2]	@ zero_extendqisi2
 339 0088 43EA0263 		orr	r3, r3, r2, lsl #24
 105:../Libraries/ROSSerial/rosserial_msgs/TopicInfo.h ****       this->buffer_size = u_buffer_size.real;
 340              		.loc 2 105 0
 341 008c 4361     		str	r3, [r0, #20]
 342              	.LVL35:
 106:../Libraries/ROSSerial/rosserial_msgs/TopicInfo.h ****       offset += sizeof(this->buffer_size);
 107:../Libraries/ROSSerial/rosserial_msgs/TopicInfo.h ****      return offset;
 108:../Libraries/ROSSerial/rosserial_msgs/TopicInfo.h ****     }
 343              		.loc 2 108 0
 344 008e 201D     		adds	r0, r4, #4
 345              	.LVL36:
 346 0090 70BC     		pop	{r4, r5, r6}
 347              	.LCFI1:
 348              		.cfi_restore 6
 349              		.cfi_restore 5
 350              		.cfi_restore 4
 351              		.cfi_def_cfa_offset 0
 352 0092 7047     		bx	lr
 353              		.cfi_endproc
 354              	.LFE388:
 355              		.cantunwind
 356              		.fnend
 358              		.section	.text._ZN14rosserial_msgs9TopicInfo7getTypeEv,"axG",%progbits,_ZN14rosserial_msgs9TopicIn
 359              		.align	1
 360              		.weak	_ZN14rosserial_msgs9TopicInfo7getTypeEv
ARM GAS  /var/folders/l3/4y5292px21b4835bsnjwqc7w009kq1/T//ccOhtKWi.s 			page 10


 361              		.syntax unified
 362              		.thumb
 363              		.thumb_func
 364              		.fpu fpv4-sp-d16
 366              	_ZN14rosserial_msgs9TopicInfo7getTypeEv:
 367              		.fnstart
 368              	.LFB389:
 109:../Libraries/ROSSerial/rosserial_msgs/TopicInfo.h **** 
 110:../Libraries/ROSSerial/rosserial_msgs/TopicInfo.h ****     const char * getType(){ return "rosserial_msgs/TopicInfo"; };
 369              		.loc 2 110 0
 370              		.cfi_startproc
 371              		@ args = 0, pretend = 0, frame = 0
 372              		@ frame_needed = 0, uses_anonymous_args = 0
 373              		@ link register save eliminated.
 374              	.LVL37:
 375              		.loc 2 110 0
 376 0000 0048     		ldr	r0, .L18
 377              	.LVL38:
 378 0002 7047     		bx	lr
 379              	.L19:
 380              		.align	2
 381              	.L18:
 382 0004 00000000 		.word	.LC4
 383              		.cfi_endproc
 384              	.LFE389:
 385              		.cantunwind
 386              		.fnend
 388              		.section	.text._ZN14rosserial_msgs9TopicInfo6getMD5Ev,"axG",%progbits,_ZN14rosserial_msgs9TopicInf
 389              		.align	1
 390              		.weak	_ZN14rosserial_msgs9TopicInfo6getMD5Ev
 391              		.syntax unified
 392              		.thumb
 393              		.thumb_func
 394              		.fpu fpv4-sp-d16
 396              	_ZN14rosserial_msgs9TopicInfo6getMD5Ev:
 397              		.fnstart
 398              	.LFB390:
 111:../Libraries/ROSSerial/rosserial_msgs/TopicInfo.h ****     const char * getMD5(){ return "0ad51f88fc44892f8c10684077646005"; };
 399              		.loc 2 111 0
 400              		.cfi_startproc
 401              		@ args = 0, pretend = 0, frame = 0
 402              		@ frame_needed = 0, uses_anonymous_args = 0
 403              		@ link register save eliminated.
 404              	.LVL39:
 405              		.loc 2 111 0
 406 0000 0048     		ldr	r0, .L21
 407              	.LVL40:
 408 0002 7047     		bx	lr
 409              	.L22:
 410              		.align	2
 411              	.L21:
 412 0004 00000000 		.word	.LC5
 413              		.cfi_endproc
 414              	.LFE390:
 415              		.cantunwind
 416              		.fnend
 418              		.section	.text._ZN14rosserial_msgs3Log11deserializeEPh,"axG",%progbits,_ZN14rosserial_msgs3Log11de
ARM GAS  /var/folders/l3/4y5292px21b4835bsnjwqc7w009kq1/T//ccOhtKWi.s 			page 11


 419              		.align	1
 420              		.weak	_ZN14rosserial_msgs3Log11deserializeEPh
 421              		.syntax unified
 422              		.thumb
 423              		.thumb_func
 424              		.fpu fpv4-sp-d16
 426              	_ZN14rosserial_msgs3Log11deserializeEPh:
 427              		.fnstart
 428              	.LFB392:
 429              		.file 3 "../Libraries/ROSSerial/rosserial_msgs/Log.h"
   1:../Libraries/ROSSerial/rosserial_msgs/Log.h **** #ifndef _ROS_rosserial_msgs_Log_h
   2:../Libraries/ROSSerial/rosserial_msgs/Log.h **** #define _ROS_rosserial_msgs_Log_h
   3:../Libraries/ROSSerial/rosserial_msgs/Log.h **** 
   4:../Libraries/ROSSerial/rosserial_msgs/Log.h **** #include <stdint.h>
   5:../Libraries/ROSSerial/rosserial_msgs/Log.h **** #include <string.h>
   6:../Libraries/ROSSerial/rosserial_msgs/Log.h **** #include <stdlib.h>
   7:../Libraries/ROSSerial/rosserial_msgs/Log.h **** #include "ros/msg.h"
   8:../Libraries/ROSSerial/rosserial_msgs/Log.h **** 
   9:../Libraries/ROSSerial/rosserial_msgs/Log.h **** 
  10:../Libraries/ROSSerial/rosserial_msgs/Log.h **** namespace rosserial_msgs
  11:../Libraries/ROSSerial/rosserial_msgs/Log.h **** {
  12:../Libraries/ROSSerial/rosserial_msgs/Log.h **** 
  13:../Libraries/ROSSerial/rosserial_msgs/Log.h ****   class Log : public ros::Msg
  14:../Libraries/ROSSerial/rosserial_msgs/Log.h ****   {
  15:../Libraries/ROSSerial/rosserial_msgs/Log.h ****     public:
  16:../Libraries/ROSSerial/rosserial_msgs/Log.h ****       uint8_t level;
  17:../Libraries/ROSSerial/rosserial_msgs/Log.h ****       const char* msg;
  18:../Libraries/ROSSerial/rosserial_msgs/Log.h ****       enum { ROSDEBUG = 0 };
  19:../Libraries/ROSSerial/rosserial_msgs/Log.h ****       enum { INFO = 1 };
  20:../Libraries/ROSSerial/rosserial_msgs/Log.h ****       enum { WARN = 2 };
  21:../Libraries/ROSSerial/rosserial_msgs/Log.h ****       enum { ERROR = 3 };
  22:../Libraries/ROSSerial/rosserial_msgs/Log.h ****       enum { FATAL = 4 };
  23:../Libraries/ROSSerial/rosserial_msgs/Log.h **** 
  24:../Libraries/ROSSerial/rosserial_msgs/Log.h ****     virtual int serialize(unsigned char *outbuffer) const
  25:../Libraries/ROSSerial/rosserial_msgs/Log.h ****     {
  26:../Libraries/ROSSerial/rosserial_msgs/Log.h ****       int offset = 0;
  27:../Libraries/ROSSerial/rosserial_msgs/Log.h ****       *(outbuffer + offset + 0) = (this->level >> (8 * 0)) & 0xFF;
  28:../Libraries/ROSSerial/rosserial_msgs/Log.h ****       offset += sizeof(this->level);
  29:../Libraries/ROSSerial/rosserial_msgs/Log.h ****       uint32_t length_msg = strlen(this->msg);
  30:../Libraries/ROSSerial/rosserial_msgs/Log.h ****       memcpy(outbuffer + offset, &length_msg, sizeof(uint32_t));
  31:../Libraries/ROSSerial/rosserial_msgs/Log.h ****       offset += 4;
  32:../Libraries/ROSSerial/rosserial_msgs/Log.h ****       memcpy(outbuffer + offset, this->msg, length_msg);
  33:../Libraries/ROSSerial/rosserial_msgs/Log.h ****       offset += length_msg;
  34:../Libraries/ROSSerial/rosserial_msgs/Log.h ****       return offset;
  35:../Libraries/ROSSerial/rosserial_msgs/Log.h ****     }
  36:../Libraries/ROSSerial/rosserial_msgs/Log.h **** 
  37:../Libraries/ROSSerial/rosserial_msgs/Log.h ****     virtual int deserialize(unsigned char *inbuffer)
 430              		.loc 3 37 0
 431              		.cfi_startproc
 432              		@ args = 0, pretend = 0, frame = 0
 433              		@ frame_needed = 0, uses_anonymous_args = 0
 434              		@ link register save eliminated.
 435              	.LVL41:
 436 0000 30B4     		push	{r4, r5}
 437              	.LCFI2:
 438              		.cfi_def_cfa_offset 8
 439              		.cfi_offset 4, -8
ARM GAS  /var/folders/l3/4y5292px21b4835bsnjwqc7w009kq1/T//ccOhtKWi.s 			page 12


 440              		.cfi_offset 5, -4
 441              	.LVL42:
  38:../Libraries/ROSSerial/rosserial_msgs/Log.h ****     {
  39:../Libraries/ROSSerial/rosserial_msgs/Log.h ****       int offset = 0;
  40:../Libraries/ROSSerial/rosserial_msgs/Log.h ****       this->level =  ((uint8_t) (*(inbuffer + offset)));
 442              		.loc 3 40 0
 443 0002 0B78     		ldrb	r3, [r1]	@ zero_extendqisi2
 444 0004 0371     		strb	r3, [r0, #4]
 445              	.LVL43:
  41:../Libraries/ROSSerial/rosserial_msgs/Log.h ****       offset += sizeof(this->level);
  42:../Libraries/ROSSerial/rosserial_msgs/Log.h ****       uint32_t length_msg;
  43:../Libraries/ROSSerial/rosserial_msgs/Log.h ****       memcpy(&length_msg, (inbuffer + offset), sizeof(uint32_t));
 446              		.loc 3 43 0
 447 0006 D1F80150 		ldr	r5, [r1, #1]	@ unaligned
 448              	.LVL44:
 449              	.LBB76:
  44:../Libraries/ROSSerial/rosserial_msgs/Log.h ****       offset += 4;
  45:../Libraries/ROSSerial/rosserial_msgs/Log.h ****       for(unsigned int k= offset; k< offset+length_msg; ++k){
 450              		.loc 3 45 0
 451 000a 0523     		movs	r3, #5
 452              	.LVL45:
 453              	.L25:
 454              		.loc 3 45 0 is_stmt 0 discriminator 3
 455 000c 6A1D     		adds	r2, r5, #5
 456 000e 9A42     		cmp	r2, r3
 457 0010 04D9     		bls	.L24
  46:../Libraries/ROSSerial/rosserial_msgs/Log.h ****           inbuffer[k-1]=inbuffer[k];
 458              		.loc 3 46 0 is_stmt 1 discriminator 2
 459 0012 5A1E     		subs	r2, r3, #1
 460 0014 CC5C     		ldrb	r4, [r1, r3]	@ zero_extendqisi2
 461 0016 8C54     		strb	r4, [r1, r2]
  45:../Libraries/ROSSerial/rosserial_msgs/Log.h ****           inbuffer[k-1]=inbuffer[k];
 462              		.loc 3 45 0 discriminator 2
 463 0018 0133     		adds	r3, r3, #1
 464              	.LVL46:
 465 001a F7E7     		b	.L25
 466              	.L24:
 467              	.LBE76:
  47:../Libraries/ROSSerial/rosserial_msgs/Log.h ****       }
  48:../Libraries/ROSSerial/rosserial_msgs/Log.h ****       inbuffer[offset+length_msg-1]=0;
 468              		.loc 3 48 0
 469 001c 0435     		adds	r5, r5, #4
 470              	.LVL47:
 471 001e 0023     		movs	r3, #0
 472              	.LVL48:
 473 0020 4B55     		strb	r3, [r1, r5]
  49:../Libraries/ROSSerial/rosserial_msgs/Log.h ****       this->msg = (char *)(inbuffer + offset-1);
 474              		.loc 3 49 0
 475 0022 0431     		adds	r1, r1, #4
 476              	.LVL49:
 477 0024 8160     		str	r1, [r0, #8]
 478              	.LVL50:
  50:../Libraries/ROSSerial/rosserial_msgs/Log.h ****       offset += length_msg;
  51:../Libraries/ROSSerial/rosserial_msgs/Log.h ****      return offset;
  52:../Libraries/ROSSerial/rosserial_msgs/Log.h ****     }
 479              		.loc 3 52 0
 480 0026 1046     		mov	r0, r2
ARM GAS  /var/folders/l3/4y5292px21b4835bsnjwqc7w009kq1/T//ccOhtKWi.s 			page 13


 481              	.LVL51:
 482 0028 30BC     		pop	{r4, r5}
 483              	.LCFI3:
 484              		.cfi_restore 5
 485              		.cfi_restore 4
 486              		.cfi_def_cfa_offset 0
 487 002a 7047     		bx	lr
 488              		.cfi_endproc
 489              	.LFE392:
 490              		.cantunwind
 491              		.fnend
 493              		.section	.text._ZN14rosserial_msgs3Log7getTypeEv,"axG",%progbits,_ZN14rosserial_msgs3Log7getTypeEv
 494              		.align	1
 495              		.weak	_ZN14rosserial_msgs3Log7getTypeEv
 496              		.syntax unified
 497              		.thumb
 498              		.thumb_func
 499              		.fpu fpv4-sp-d16
 501              	_ZN14rosserial_msgs3Log7getTypeEv:
 502              		.fnstart
 503              	.LFB393:
  53:../Libraries/ROSSerial/rosserial_msgs/Log.h **** 
  54:../Libraries/ROSSerial/rosserial_msgs/Log.h ****     const char * getType(){ return "rosserial_msgs/Log"; };
 504              		.loc 3 54 0
 505              		.cfi_startproc
 506              		@ args = 0, pretend = 0, frame = 0
 507              		@ frame_needed = 0, uses_anonymous_args = 0
 508              		@ link register save eliminated.
 509              	.LVL52:
 510              		.loc 3 54 0
 511 0000 0048     		ldr	r0, .L28
 512              	.LVL53:
 513 0002 7047     		bx	lr
 514              	.L29:
 515              		.align	2
 516              	.L28:
 517 0004 00000000 		.word	.LC6
 518              		.cfi_endproc
 519              	.LFE393:
 520              		.cantunwind
 521              		.fnend
 523              		.section	.text._ZN14rosserial_msgs3Log6getMD5Ev,"axG",%progbits,_ZN14rosserial_msgs3Log6getMD5Ev,c
 524              		.align	1
 525              		.weak	_ZN14rosserial_msgs3Log6getMD5Ev
 526              		.syntax unified
 527              		.thumb
 528              		.thumb_func
 529              		.fpu fpv4-sp-d16
 531              	_ZN14rosserial_msgs3Log6getMD5Ev:
 532              		.fnstart
 533              	.LFB394:
  55:../Libraries/ROSSerial/rosserial_msgs/Log.h ****     const char * getMD5(){ return "11abd731c25933261cd6183bd12d6295"; };
 534              		.loc 3 55 0
 535              		.cfi_startproc
 536              		@ args = 0, pretend = 0, frame = 0
 537              		@ frame_needed = 0, uses_anonymous_args = 0
 538              		@ link register save eliminated.
ARM GAS  /var/folders/l3/4y5292px21b4835bsnjwqc7w009kq1/T//ccOhtKWi.s 			page 14


 539              	.LVL54:
 540              		.loc 3 55 0
 541 0000 0048     		ldr	r0, .L31
 542              	.LVL55:
 543 0002 7047     		bx	lr
 544              	.L32:
 545              		.align	2
 546              	.L31:
 547 0004 00000000 		.word	.LC7
 548              		.cfi_endproc
 549              	.LFE394:
 550              		.cantunwind
 551              		.fnend
 553              		.section	.text._ZNK14rosserial_msgs9TopicInfo9serializeEPh,"axG",%progbits,_ZNK14rosserial_msgs9To
 554              		.align	1
 555              		.weak	_ZNK14rosserial_msgs9TopicInfo9serializeEPh
 556              		.syntax unified
 557              		.thumb
 558              		.thumb_func
 559              		.fpu fpv4-sp-d16
 561              	_ZNK14rosserial_msgs9TopicInfo9serializeEPh:
 562              		.fnstart
 563              	.LFB387:
  29:../Libraries/ROSSerial/rosserial_msgs/TopicInfo.h ****     {
 564              		.loc 2 29 0
 565              		.cfi_startproc
 566              		@ args = 0, pretend = 0, frame = 0
 567              		@ frame_needed = 0, uses_anonymous_args = 0
 568              	.LVL56:
 569 0000 2DE9F041 		push	{r4, r5, r6, r7, r8, lr}
 570              	.LCFI4:
 571              		.cfi_def_cfa_offset 24
 572              		.cfi_offset 4, -24
 573              		.cfi_offset 5, -20
 574              		.cfi_offset 6, -16
 575              		.cfi_offset 7, -12
 576              		.cfi_offset 8, -8
 577              		.cfi_offset 14, -4
 578 0004 0646     		mov	r6, r0
 579 0006 0C46     		mov	r4, r1
 580              	.LVL57:
  32:../Libraries/ROSSerial/rosserial_msgs/TopicInfo.h ****       *(outbuffer + offset + 1) = (this->topic_id >> (8 * 1)) & 0xFF;
 581              		.loc 2 32 0
 582 0008 8388     		ldrh	r3, [r0, #4]
 583 000a 0B70     		strb	r3, [r1]
  33:../Libraries/ROSSerial/rosserial_msgs/TopicInfo.h ****       offset += sizeof(this->topic_id);
 584              		.loc 2 33 0
 585 000c 8388     		ldrh	r3, [r0, #4]
 586 000e 1B0A     		lsrs	r3, r3, #8
 587 0010 4B70     		strb	r3, [r1, #1]
 588              	.LVL58:
  35:../Libraries/ROSSerial/rosserial_msgs/TopicInfo.h ****       memcpy(outbuffer + offset, &length_topic_name, sizeof(uint32_t));
 589              		.loc 2 35 0
 590 0012 8068     		ldr	r0, [r0, #8]
 591              	.LVL59:
 592 0014 FFF7FEFF 		bl	strlen
 593              	.LVL60:
ARM GAS  /var/folders/l3/4y5292px21b4835bsnjwqc7w009kq1/T//ccOhtKWi.s 			page 15


 594 0018 0746     		mov	r7, r0
 595              	.LVL61:
  36:../Libraries/ROSSerial/rosserial_msgs/TopicInfo.h ****       offset += 4;
 596              		.loc 2 36 0
 597 001a C4F80200 		str	r0, [r4, #2]	@ unaligned
 598              	.LVL62:
  38:../Libraries/ROSSerial/rosserial_msgs/TopicInfo.h ****       offset += length_topic_name;
 599              		.loc 2 38 0
 600 001e 0246     		mov	r2, r0
 601 0020 B168     		ldr	r1, [r6, #8]
 602 0022 A01D     		adds	r0, r4, #6
 603              	.LVL63:
 604 0024 FFF7FEFF 		bl	memcpy
 605              	.LVL64:
  39:../Libraries/ROSSerial/rosserial_msgs/TopicInfo.h ****       uint32_t length_message_type = strlen(this->message_type);
 606              		.loc 2 39 0
 607 0028 07F10608 		add	r8, r7, #6
 608              	.LVL65:
  40:../Libraries/ROSSerial/rosserial_msgs/TopicInfo.h ****       memcpy(outbuffer + offset, &length_message_type, sizeof(uint32_t));
 609              		.loc 2 40 0
 610 002c F068     		ldr	r0, [r6, #12]
 611 002e FFF7FEFF 		bl	strlen
 612              	.LVL66:
 613 0032 0546     		mov	r5, r0
 614              	.LVL67:
  41:../Libraries/ROSSerial/rosserial_msgs/TopicInfo.h ****       offset += 4;
 615              		.loc 2 41 0
 616 0034 44F80800 		str	r0, [r4, r8]	@ unaligned
  42:../Libraries/ROSSerial/rosserial_msgs/TopicInfo.h ****       memcpy(outbuffer + offset, this->message_type, length_message_type);
 617              		.loc 2 42 0
 618 0038 0A37     		adds	r7, r7, #10
 619              	.LVL68:
  43:../Libraries/ROSSerial/rosserial_msgs/TopicInfo.h ****       offset += length_message_type;
 620              		.loc 2 43 0
 621 003a 0246     		mov	r2, r0
 622 003c F168     		ldr	r1, [r6, #12]
 623 003e E019     		adds	r0, r4, r7
 624              	.LVL69:
 625 0040 FFF7FEFF 		bl	memcpy
 626              	.LVL70:
  44:../Libraries/ROSSerial/rosserial_msgs/TopicInfo.h ****       uint32_t length_md5sum = strlen(this->md5sum);
 627              		.loc 2 44 0
 628 0044 2F44     		add	r7, r7, r5
 629              	.LVL71:
  45:../Libraries/ROSSerial/rosserial_msgs/TopicInfo.h ****       memcpy(outbuffer + offset, &length_md5sum, sizeof(uint32_t));
 630              		.loc 2 45 0
 631 0046 3069     		ldr	r0, [r6, #16]
 632 0048 FFF7FEFF 		bl	strlen
 633              	.LVL72:
 634 004c 0546     		mov	r5, r0
 635              	.LVL73:
  46:../Libraries/ROSSerial/rosserial_msgs/TopicInfo.h ****       offset += 4;
 636              		.loc 2 46 0
 637 004e E051     		str	r0, [r4, r7]	@ unaligned
  47:../Libraries/ROSSerial/rosserial_msgs/TopicInfo.h ****       memcpy(outbuffer + offset, this->md5sum, length_md5sum);
 638              		.loc 2 47 0
 639 0050 0437     		adds	r7, r7, #4
ARM GAS  /var/folders/l3/4y5292px21b4835bsnjwqc7w009kq1/T//ccOhtKWi.s 			page 16


 640              	.LVL74:
  48:../Libraries/ROSSerial/rosserial_msgs/TopicInfo.h ****       offset += length_md5sum;
 641              		.loc 2 48 0
 642 0052 0246     		mov	r2, r0
 643 0054 3169     		ldr	r1, [r6, #16]
 644 0056 E019     		adds	r0, r4, r7
 645              	.LVL75:
 646 0058 FFF7FEFF 		bl	memcpy
 647              	.LVL76:
  49:../Libraries/ROSSerial/rosserial_msgs/TopicInfo.h ****       union {
 648              		.loc 2 49 0
 649 005c E819     		adds	r0, r5, r7
 650              	.LVL77:
  54:../Libraries/ROSSerial/rosserial_msgs/TopicInfo.h ****       *(outbuffer + offset + 0) = (u_buffer_size.base >> (8 * 0)) & 0xFF;
 651              		.loc 2 54 0
 652 005e 7369     		ldr	r3, [r6, #20]
  55:../Libraries/ROSSerial/rosserial_msgs/TopicInfo.h ****       *(outbuffer + offset + 1) = (u_buffer_size.base >> (8 * 1)) & 0xFF;
 653              		.loc 2 55 0
 654 0060 2354     		strb	r3, [r4, r0]
  56:../Libraries/ROSSerial/rosserial_msgs/TopicInfo.h ****       *(outbuffer + offset + 2) = (u_buffer_size.base >> (8 * 2)) & 0xFF;
 655              		.loc 2 56 0
 656 0062 190A     		lsrs	r1, r3, #8
 657 0064 421C     		adds	r2, r0, #1
 658 0066 A154     		strb	r1, [r4, r2]
  57:../Libraries/ROSSerial/rosserial_msgs/TopicInfo.h ****       *(outbuffer + offset + 3) = (u_buffer_size.base >> (8 * 3)) & 0xFF;
 659              		.loc 2 57 0
 660 0068 190C     		lsrs	r1, r3, #16
 661 006a 821C     		adds	r2, r0, #2
 662 006c A154     		strb	r1, [r4, r2]
  58:../Libraries/ROSSerial/rosserial_msgs/TopicInfo.h ****       offset += sizeof(this->buffer_size);
 663              		.loc 2 58 0
 664 006e 1B0E     		lsrs	r3, r3, #24
 665 0070 C21C     		adds	r2, r0, #3
 666 0072 A354     		strb	r3, [r4, r2]
 667              	.LVL78:
  61:../Libraries/ROSSerial/rosserial_msgs/TopicInfo.h **** 
 668              		.loc 2 61 0
 669 0074 0430     		adds	r0, r0, #4
 670              	.LVL79:
 671 0076 BDE8F081 		pop	{r4, r5, r6, r7, r8, pc}
 672              		.cfi_endproc
 673              	.LFE387:
 674              		.cantunwind
 675              		.fnend
 677              		.section	.text._ZNK14rosserial_msgs3Log9serializeEPh,"axG",%progbits,_ZNK14rosserial_msgs3Log9seri
 678              		.align	1
 679              		.weak	_ZNK14rosserial_msgs3Log9serializeEPh
 680              		.syntax unified
 681              		.thumb
 682              		.thumb_func
 683              		.fpu fpv4-sp-d16
 685              	_ZNK14rosserial_msgs3Log9serializeEPh:
 686              		.fnstart
 687              	.LFB391:
  24:../Libraries/ROSSerial/rosserial_msgs/Log.h ****     {
 688              		.loc 3 24 0
 689              		.cfi_startproc
ARM GAS  /var/folders/l3/4y5292px21b4835bsnjwqc7w009kq1/T//ccOhtKWi.s 			page 17


 690              		@ args = 0, pretend = 0, frame = 0
 691              		@ frame_needed = 0, uses_anonymous_args = 0
 692              	.LVL80:
 693 0000 70B5     		push	{r4, r5, r6, lr}
 694              	.LCFI5:
 695              		.cfi_def_cfa_offset 16
 696              		.cfi_offset 4, -16
 697              		.cfi_offset 5, -12
 698              		.cfi_offset 6, -8
 699              		.cfi_offset 14, -4
 700 0002 0646     		mov	r6, r0
 701 0004 0D46     		mov	r5, r1
 702              	.LVL81:
  27:../Libraries/ROSSerial/rosserial_msgs/Log.h ****       offset += sizeof(this->level);
 703              		.loc 3 27 0
 704 0006 0379     		ldrb	r3, [r0, #4]	@ zero_extendqisi2
 705 0008 0B70     		strb	r3, [r1]
 706              	.LVL82:
  29:../Libraries/ROSSerial/rosserial_msgs/Log.h ****       memcpy(outbuffer + offset, &length_msg, sizeof(uint32_t));
 707              		.loc 3 29 0
 708 000a 8068     		ldr	r0, [r0, #8]
 709              	.LVL83:
 710 000c FFF7FEFF 		bl	strlen
 711              	.LVL84:
 712 0010 0446     		mov	r4, r0
 713              	.LVL85:
  30:../Libraries/ROSSerial/rosserial_msgs/Log.h ****       offset += 4;
 714              		.loc 3 30 0
 715 0012 C5F80100 		str	r0, [r5, #1]	@ unaligned
 716              	.LVL86:
  32:../Libraries/ROSSerial/rosserial_msgs/Log.h ****       offset += length_msg;
 717              		.loc 3 32 0
 718 0016 0246     		mov	r2, r0
 719 0018 B168     		ldr	r1, [r6, #8]
 720 001a 681D     		adds	r0, r5, #5
 721              	.LVL87:
 722 001c FFF7FEFF 		bl	memcpy
 723              	.LVL88:
  35:../Libraries/ROSSerial/rosserial_msgs/Log.h **** 
 724              		.loc 3 35 0
 725 0020 601D     		adds	r0, r4, #5
 726              	.LVL89:
 727 0022 70BD     		pop	{r4, r5, r6, pc}
 728              		.cfi_endproc
 729              	.LFE391:
 730              		.cantunwind
 731              		.fnend
 733              		.section	.text._Z15rosSpinTaskInitPN3ros11NodeHandle_I13STM32HardwareLi5ELi5ELi512ELi512EEE,"ax",%
 734              		.align	1
 735              		.global	_Z15rosSpinTaskInitPN3ros11NodeHandle_I13STM32HardwareLi5ELi5ELi512ELi512EEE
 736              		.syntax unified
 737              		.thumb
 738              		.thumb_func
 739              		.fpu fpv4-sp-d16
 741              	_Z15rosSpinTaskInitPN3ros11NodeHandle_I13STM32HardwareLi5ELi5ELi512ELi512EEE:
 742              		.fnstart
 743              	.LFB469:
ARM GAS  /var/folders/l3/4y5292px21b4835bsnjwqc7w009kq1/T//ccOhtKWi.s 			page 18


 744              		.file 4 "ROSTasks/Src/spin_task.cpp"
   1:ROSTasks/Src/spin_task.cpp **** /*
   2:ROSTasks/Src/spin_task.cpp ****  * spin_task.cpp
   3:ROSTasks/Src/spin_task.cpp ****  *
   4:ROSTasks/Src/spin_task.cpp ****  *  Created on: Mar 18, 2019
   5:ROSTasks/Src/spin_task.cpp ****  *      Author:
   6:ROSTasks/Src/spin_task.cpp ****  */
   7:ROSTasks/Src/spin_task.cpp **** 
   8:ROSTasks/Src/spin_task.cpp **** #include <stdio.h>
   9:ROSTasks/Src/spin_task.cpp **** #include "bsp_led.h"
  10:ROSTasks/Src/spin_task.cpp **** #include "spin_task.h"
  11:ROSTasks/Src/spin_task.cpp **** 
  12:ROSTasks/Src/spin_task.cpp **** static ros::NodeHandle *nh_;
  13:ROSTasks/Src/spin_task.cpp **** 
  14:ROSTasks/Src/spin_task.cpp **** 
  15:ROSTasks/Src/spin_task.cpp **** void ROS_SpinTaskHandler(void const * argument)
  16:ROSTasks/Src/spin_task.cpp **** {
  17:ROSTasks/Src/spin_task.cpp **** 
  18:ROSTasks/Src/spin_task.cpp ****   /* USER CODE BEGIN ROS_SpinTaskHandler */
  19:ROSTasks/Src/spin_task.cpp **** 
  20:ROSTasks/Src/spin_task.cpp ****   /* Infinite loop */
  21:ROSTasks/Src/spin_task.cpp ****   for(;;)
  22:ROSTasks/Src/spin_task.cpp ****   {
  23:ROSTasks/Src/spin_task.cpp **** 	//bsp_LedToggle(2);
  24:ROSTasks/Src/spin_task.cpp **** 	//printf("This is spin Task\r\n");
  25:ROSTasks/Src/spin_task.cpp **** 	osDelay(333);
  26:ROSTasks/Src/spin_task.cpp **** 	nh_->spinOnce1(); //calling spinOnce() directly give stackoverflow
  27:ROSTasks/Src/spin_task.cpp ****   }
  28:ROSTasks/Src/spin_task.cpp ****   /* USER CODE END ROS_SpinTaskHandler */
  29:ROSTasks/Src/spin_task.cpp **** }
  30:ROSTasks/Src/spin_task.cpp **** 
  31:ROSTasks/Src/spin_task.cpp **** 
  32:ROSTasks/Src/spin_task.cpp **** /*
  33:ROSTasks/Src/spin_task.cpp ****  * Create spin task
  34:ROSTasks/Src/spin_task.cpp ****  */
  35:ROSTasks/Src/spin_task.cpp **** uint32_t rosSpinTaskInit(ros::NodeHandle *nh)
  36:ROSTasks/Src/spin_task.cpp **** {
 745              		.loc 4 36 0
 746              		.cfi_startproc
 747              		@ args = 0, pretend = 0, frame = 24
 748              		@ frame_needed = 0, uses_anonymous_args = 0
 749              	.LVL90:
 750 0000 30B5     		push	{r4, r5, lr}
 751              		.save {r4, r5, lr}
 752              	.LCFI6:
 753              		.cfi_def_cfa_offset 12
 754              		.cfi_offset 4, -12
 755              		.cfi_offset 5, -8
 756              		.cfi_offset 14, -4
 757              		.pad #28
 758 0002 87B0     		sub	sp, sp, #28
 759              	.LCFI7:
 760              		.cfi_def_cfa_offset 40
  37:ROSTasks/Src/spin_task.cpp **** 	osThreadId ROS_SpinTaskHandle;
  38:ROSTasks/Src/spin_task.cpp **** 
  39:ROSTasks/Src/spin_task.cpp **** 	nh_ = nh;
 761              		.loc 4 39 0
ARM GAS  /var/folders/l3/4y5292px21b4835bsnjwqc7w009kq1/T//ccOhtKWi.s 			page 19


 762 0004 084B     		ldr	r3, .L42
 763 0006 1860     		str	r0, [r3]
  40:ROSTasks/Src/spin_task.cpp **** 
  41:ROSTasks/Src/spin_task.cpp **** 	/* definition and creation of ROS_SpinTask */
  42:ROSTasks/Src/spin_task.cpp **** 	osThreadDef(ROS_SpinTask, ROS_SpinTaskHandler, osPriorityNormal, 0, 128); //osPriorityIdle
 764              		.loc 4 42 0
 765 0008 01AC     		add	r4, sp, #4
 766 000a 084D     		ldr	r5, .L42+4
 767 000c 0FCD     		ldmia	r5!, {r0, r1, r2, r3}
 768              	.LVL91:
 769 000e 0FC4     		stmia	r4!, {r0, r1, r2, r3}
 770 0010 2B68     		ldr	r3, [r5]
 771 0012 2360     		str	r3, [r4]
  43:ROSTasks/Src/spin_task.cpp **** 	ROS_SpinTaskHandle = osThreadCreate(osThread(ROS_SpinTask), NULL);
 772              		.loc 4 43 0
 773 0014 0021     		movs	r1, #0
 774 0016 01A8     		add	r0, sp, #4
 775 0018 FFF7FEFF 		bl	osThreadCreate
 776              	.LVL92:
  44:ROSTasks/Src/spin_task.cpp **** 	if (NULL == ROS_SpinTaskHandle)
 777              		.loc 4 44 0
 778 001c 10B1     		cbz	r0, .L41
  45:ROSTasks/Src/spin_task.cpp **** 	{
  46:ROSTasks/Src/spin_task.cpp **** 		return 1;
  47:ROSTasks/Src/spin_task.cpp **** 	}
  48:ROSTasks/Src/spin_task.cpp **** 	return 0;
 779              		.loc 4 48 0
 780 001e 0020     		movs	r0, #0
 781              	.LVL93:
 782              	.L37:
  49:ROSTasks/Src/spin_task.cpp **** 
  50:ROSTasks/Src/spin_task.cpp **** }
 783              		.loc 4 50 0
 784 0020 07B0     		add	sp, sp, #28
 785              	.LCFI8:
 786              		.cfi_remember_state
 787              		.cfi_def_cfa_offset 12
 788              		@ sp needed
 789 0022 30BD     		pop	{r4, r5, pc}
 790              	.LVL94:
 791              	.L41:
 792              	.LCFI9:
 793              		.cfi_restore_state
  46:ROSTasks/Src/spin_task.cpp **** 	}
 794              		.loc 4 46 0
 795 0024 0120     		movs	r0, #1
 796              	.LVL95:
 797 0026 FBE7     		b	.L37
 798              	.L43:
 799              		.align	2
 800              	.L42:
 801 0028 00000000 		.word	.LANCHOR0
 802 002c 00000000 		.word	.LANCHOR1
 803              		.cfi_endproc
 804              	.LFE469:
 805              		.fnend
 807              		.section	.text._ZN3ros11NodeHandle_I13STM32HardwareLi5ELi5ELi512ELi512EE8publish1EiPKNS_3MsgE,"axG
ARM GAS  /var/folders/l3/4y5292px21b4835bsnjwqc7w009kq1/T//ccOhtKWi.s 			page 20


 808              		.align	1
 809              		.weak	_ZN3ros11NodeHandle_I13STM32HardwareLi5ELi5ELi512ELi512EE8publish1EiPKNS_3MsgE
 810              		.syntax unified
 811              		.thumb
 812              		.thumb_func
 813              		.fpu fpv4-sp-d16
 815              	_ZN3ros11NodeHandle_I13STM32HardwareLi5ELi5ELi512ELi512EE8publish1EiPKNS_3MsgE:
 816              		.fnstart
 817              	.LFB483:
 818              		.file 5 "../Libraries/ROSSerial/ros/node_handle.h"
   1:../Libraries/ROSSerial/ros/node_handle.h **** /*
   2:../Libraries/ROSSerial/ros/node_handle.h ****  * Software License Agreement (BSD License)
   3:../Libraries/ROSSerial/ros/node_handle.h ****  *
   4:../Libraries/ROSSerial/ros/node_handle.h ****  * Copyright (c) 2011, Willow Garage, Inc.
   5:../Libraries/ROSSerial/ros/node_handle.h ****  * All rights reserved.
   6:../Libraries/ROSSerial/ros/node_handle.h ****  *
   7:../Libraries/ROSSerial/ros/node_handle.h ****  * Redistribution and use in source and binary forms, with or without
   8:../Libraries/ROSSerial/ros/node_handle.h ****  * modification, are permitted provided that the following conditions
   9:../Libraries/ROSSerial/ros/node_handle.h ****  * are met:
  10:../Libraries/ROSSerial/ros/node_handle.h ****  *
  11:../Libraries/ROSSerial/ros/node_handle.h ****  *  * Redistributions of source code must retain the above copyright
  12:../Libraries/ROSSerial/ros/node_handle.h ****  *    notice, this list of conditions and the following disclaimer.
  13:../Libraries/ROSSerial/ros/node_handle.h ****  *  * Redistributions in binary form must reproduce the above
  14:../Libraries/ROSSerial/ros/node_handle.h ****  *    copyright notice, this list of conditions and the following
  15:../Libraries/ROSSerial/ros/node_handle.h ****  *    disclaimer in the documentation and/or other materials provided
  16:../Libraries/ROSSerial/ros/node_handle.h ****  *    with the distribution.
  17:../Libraries/ROSSerial/ros/node_handle.h ****  *  * Neither the name of Willow Garage, Inc. nor the names of its
  18:../Libraries/ROSSerial/ros/node_handle.h ****  *    contributors may be used to endorse or promote prducts derived
  19:../Libraries/ROSSerial/ros/node_handle.h ****  *    from this software without specific prior written permission.
  20:../Libraries/ROSSerial/ros/node_handle.h ****  *
  21:../Libraries/ROSSerial/ros/node_handle.h ****  * THIS SOFTWARE IS PROVIDED BY THE COPYRIGHT HOLDERS AND CONTRIBUTORS
  22:../Libraries/ROSSerial/ros/node_handle.h ****  * "AS IS" AND ANY EXPRESS OR IMPLIED WARRANTIES, INCLUDING, BUT NOT
  23:../Libraries/ROSSerial/ros/node_handle.h ****  * LIMITED TO, THE IMPLIED WARRANTIES OF MERCHANTABILITY AND FITNESS
  24:../Libraries/ROSSerial/ros/node_handle.h ****  * FOR A PARTICULAR PURPOSE ARE DISCLAIMED. IN NO EVENT SHALL THE
  25:../Libraries/ROSSerial/ros/node_handle.h ****  * COPYRIGHT OWNER OR CONTRIBUTORS BE LIABLE FOR ANY DIRECT, INDIRECT,
  26:../Libraries/ROSSerial/ros/node_handle.h ****  * INCIDENTAL, SPECIAL, EXEMPLARY, OR CONSEQUENTIAL DAMAGES (INCLUDING,
  27:../Libraries/ROSSerial/ros/node_handle.h ****  * BUT NOT LIMITED TO, PROCUREMENT OF SUBSTITUTE GOODS OR SERVICES;
  28:../Libraries/ROSSerial/ros/node_handle.h ****  * LOSS OF USE, DATA, OR PROFITS; OR BUSINESS INTERRUPTION) HOWEVER
  29:../Libraries/ROSSerial/ros/node_handle.h ****  * CAUSED AND ON ANY THEORY OF LIABILITY, WHETHER IN CONTRACT, STRICT
  30:../Libraries/ROSSerial/ros/node_handle.h ****  * LIABILITY, OR TORT (INCLUDING NEGLIGENCE OR OTHERWISE) ARISING IN
  31:../Libraries/ROSSerial/ros/node_handle.h ****  * ANY WAY OUT OF THE USE OF THIS SOFTWARE, EVEN IF ADVISED OF THE
  32:../Libraries/ROSSerial/ros/node_handle.h ****  * POSSIBILITY OF SUCH DAMAGE.
  33:../Libraries/ROSSerial/ros/node_handle.h ****  */
  34:../Libraries/ROSSerial/ros/node_handle.h **** 
  35:../Libraries/ROSSerial/ros/node_handle.h **** #ifndef ROS_NODE_HANDLE_H_
  36:../Libraries/ROSSerial/ros/node_handle.h **** #define ROS_NODE_HANDLE_H_
  37:../Libraries/ROSSerial/ros/node_handle.h **** 
  38:../Libraries/ROSSerial/ros/node_handle.h **** #include <stdint.h>
  39:../Libraries/ROSSerial/ros/node_handle.h **** 
  40:../Libraries/ROSSerial/ros/node_handle.h **** #include "std_msgs/Time.h"
  41:../Libraries/ROSSerial/ros/node_handle.h **** #include "rosserial_msgs/TopicInfo.h"
  42:../Libraries/ROSSerial/ros/node_handle.h **** #include "rosserial_msgs/Log.h"
  43:../Libraries/ROSSerial/ros/node_handle.h **** #include "rosserial_msgs/RequestParam.h"
  44:../Libraries/ROSSerial/ros/node_handle.h **** 
  45:../Libraries/ROSSerial/ros/node_handle.h **** #include "ros/msg.h"
  46:../Libraries/ROSSerial/ros/node_handle.h **** 
  47:../Libraries/ROSSerial/ros/node_handle.h **** namespace ros
ARM GAS  /var/folders/l3/4y5292px21b4835bsnjwqc7w009kq1/T//ccOhtKWi.s 			page 21


  48:../Libraries/ROSSerial/ros/node_handle.h **** {
  49:../Libraries/ROSSerial/ros/node_handle.h **** 
  50:../Libraries/ROSSerial/ros/node_handle.h **** class NodeHandleBase_
  51:../Libraries/ROSSerial/ros/node_handle.h **** {
  52:../Libraries/ROSSerial/ros/node_handle.h **** public:
  53:../Libraries/ROSSerial/ros/node_handle.h ****   virtual int publish(int id, const Msg* msg) = 0;
  54:../Libraries/ROSSerial/ros/node_handle.h ****   virtual int spinOnce() = 0;
  55:../Libraries/ROSSerial/ros/node_handle.h ****   virtual bool connected() = 0;
  56:../Libraries/ROSSerial/ros/node_handle.h **** };
  57:../Libraries/ROSSerial/ros/node_handle.h **** }
  58:../Libraries/ROSSerial/ros/node_handle.h **** 
  59:../Libraries/ROSSerial/ros/node_handle.h **** #include "ros/publisher.h"
  60:../Libraries/ROSSerial/ros/node_handle.h **** #include "ros/subscriber.h"
  61:../Libraries/ROSSerial/ros/node_handle.h **** #include "ros/service_server.h"
  62:../Libraries/ROSSerial/ros/node_handle.h **** #include "ros/service_client.h"
  63:../Libraries/ROSSerial/ros/node_handle.h **** #include "std_msgs/UInt16.h"
  64:../Libraries/ROSSerial/ros/node_handle.h **** 
  65:../Libraries/ROSSerial/ros/node_handle.h **** 
  66:../Libraries/ROSSerial/ros/node_handle.h **** extern void led_cb(unsigned char*);
  67:../Libraries/ROSSerial/ros/node_handle.h **** 
  68:../Libraries/ROSSerial/ros/node_handle.h **** namespace ros
  69:../Libraries/ROSSerial/ros/node_handle.h **** {
  70:../Libraries/ROSSerial/ros/node_handle.h **** 
  71:../Libraries/ROSSerial/ros/node_handle.h **** const int SPIN_OK = 0;
  72:../Libraries/ROSSerial/ros/node_handle.h **** const int SPIN_ERR = -1;
  73:../Libraries/ROSSerial/ros/node_handle.h **** const int SPIN_TIMEOUT = -2;
  74:../Libraries/ROSSerial/ros/node_handle.h **** 
  75:../Libraries/ROSSerial/ros/node_handle.h **** const uint8_t SYNC_SECONDS  = 5;
  76:../Libraries/ROSSerial/ros/node_handle.h **** const uint8_t MODE_FIRST_FF = 0;
  77:../Libraries/ROSSerial/ros/node_handle.h **** 
  78:../Libraries/ROSSerial/ros/node_handle.h **** /*
  79:../Libraries/ROSSerial/ros/node_handle.h ****  * The second sync byte is a protocol version. It's value is 0xff for the first
  80:../Libraries/ROSSerial/ros/node_handle.h ****  * version of the rosserial protocol (used up to hydro), 0xfe for the second version
  81:../Libraries/ROSSerial/ros/node_handle.h ****  * (introduced in hydro), 0xfd for the next, and so on. Its purpose is to enable
  82:../Libraries/ROSSerial/ros/node_handle.h ****  * detection of mismatched protocol versions (e.g. hydro rosserial_python with groovy
  83:../Libraries/ROSSerial/ros/node_handle.h ****  * rosserial_arduino. It must be changed in both this file and in
  84:../Libraries/ROSSerial/ros/node_handle.h ****  * rosserial_python/src/rosserial_python/SerialClient.py
  85:../Libraries/ROSSerial/ros/node_handle.h ****  */
  86:../Libraries/ROSSerial/ros/node_handle.h **** const uint8_t MODE_PROTOCOL_VER   = 1;
  87:../Libraries/ROSSerial/ros/node_handle.h **** const uint8_t PROTOCOL_VER1       = 0xff; // through groovy
  88:../Libraries/ROSSerial/ros/node_handle.h **** const uint8_t PROTOCOL_VER2       = 0xfe; // in hydro
  89:../Libraries/ROSSerial/ros/node_handle.h **** const uint8_t PROTOCOL_VER        = PROTOCOL_VER2;
  90:../Libraries/ROSSerial/ros/node_handle.h **** const uint8_t MODE_SIZE_L         = 2;
  91:../Libraries/ROSSerial/ros/node_handle.h **** const uint8_t MODE_SIZE_H         = 3;
  92:../Libraries/ROSSerial/ros/node_handle.h **** const uint8_t MODE_SIZE_CHECKSUM  = 4;    // checksum for msg size received from size L and H
  93:../Libraries/ROSSerial/ros/node_handle.h **** const uint8_t MODE_TOPIC_L        = 5;    // waiting for topic id
  94:../Libraries/ROSSerial/ros/node_handle.h **** const uint8_t MODE_TOPIC_H        = 6;
  95:../Libraries/ROSSerial/ros/node_handle.h **** const uint8_t MODE_MESSAGE        = 7;
  96:../Libraries/ROSSerial/ros/node_handle.h **** const uint8_t MODE_MSG_CHECKSUM   = 8;    // checksum for msg and topic id
  97:../Libraries/ROSSerial/ros/node_handle.h **** 
  98:../Libraries/ROSSerial/ros/node_handle.h **** 
  99:../Libraries/ROSSerial/ros/node_handle.h **** const uint8_t SERIAL_MSG_TIMEOUT  = 20;   // 20 milliseconds to recieve all of message data
 100:../Libraries/ROSSerial/ros/node_handle.h **** 
 101:../Libraries/ROSSerial/ros/node_handle.h **** using rosserial_msgs::TopicInfo;
 102:../Libraries/ROSSerial/ros/node_handle.h **** 
 103:../Libraries/ROSSerial/ros/node_handle.h **** /* Node Handle */
 104:../Libraries/ROSSerial/ros/node_handle.h **** template<class Hardware,
ARM GAS  /var/folders/l3/4y5292px21b4835bsnjwqc7w009kq1/T//ccOhtKWi.s 			page 22


 105:../Libraries/ROSSerial/ros/node_handle.h ****          int MAX_SUBSCRIBERS = 25,
 106:../Libraries/ROSSerial/ros/node_handle.h ****          int MAX_PUBLISHERS = 25,
 107:../Libraries/ROSSerial/ros/node_handle.h ****          int INPUT_SIZE = 512,
 108:../Libraries/ROSSerial/ros/node_handle.h ****          int OUTPUT_SIZE = 512>
 109:../Libraries/ROSSerial/ros/node_handle.h **** class NodeHandle_ : public NodeHandleBase_
 110:../Libraries/ROSSerial/ros/node_handle.h **** {
 111:../Libraries/ROSSerial/ros/node_handle.h **** protected:
 112:../Libraries/ROSSerial/ros/node_handle.h ****   Hardware hardware_;
 113:../Libraries/ROSSerial/ros/node_handle.h **** 
 114:../Libraries/ROSSerial/ros/node_handle.h ****   /* time used for syncing */
 115:../Libraries/ROSSerial/ros/node_handle.h ****   uint32_t rt_time;
 116:../Libraries/ROSSerial/ros/node_handle.h **** 
 117:../Libraries/ROSSerial/ros/node_handle.h ****   /* used for computing current time */
 118:../Libraries/ROSSerial/ros/node_handle.h ****   uint32_t sec_offset, nsec_offset;
 119:../Libraries/ROSSerial/ros/node_handle.h **** 
 120:../Libraries/ROSSerial/ros/node_handle.h ****   /* Spinonce maximum work timeout */
 121:../Libraries/ROSSerial/ros/node_handle.h ****   uint32_t spin_timeout_;
 122:../Libraries/ROSSerial/ros/node_handle.h **** 
 123:../Libraries/ROSSerial/ros/node_handle.h ****   uint8_t message_in[INPUT_SIZE];
 124:../Libraries/ROSSerial/ros/node_handle.h ****   uint8_t message_out[OUTPUT_SIZE];
 125:../Libraries/ROSSerial/ros/node_handle.h **** 
 126:../Libraries/ROSSerial/ros/node_handle.h ****   Publisher * publishers[MAX_PUBLISHERS];
 127:../Libraries/ROSSerial/ros/node_handle.h ****   Subscriber_ * subscribers[MAX_SUBSCRIBERS];
 128:../Libraries/ROSSerial/ros/node_handle.h **** 
 129:../Libraries/ROSSerial/ros/node_handle.h ****   /*
 130:../Libraries/ROSSerial/ros/node_handle.h ****    * Setup Functions
 131:../Libraries/ROSSerial/ros/node_handle.h ****    */
 132:../Libraries/ROSSerial/ros/node_handle.h **** public:
 133:../Libraries/ROSSerial/ros/node_handle.h ****   NodeHandle_() : configured_(false)
 134:../Libraries/ROSSerial/ros/node_handle.h ****   {
 135:../Libraries/ROSSerial/ros/node_handle.h **** 
 136:../Libraries/ROSSerial/ros/node_handle.h ****     for (unsigned int i = 0; i < MAX_PUBLISHERS; i++)
 137:../Libraries/ROSSerial/ros/node_handle.h ****       publishers[i] = 0;
 138:../Libraries/ROSSerial/ros/node_handle.h **** 
 139:../Libraries/ROSSerial/ros/node_handle.h ****     for (unsigned int i = 0; i < MAX_SUBSCRIBERS; i++)
 140:../Libraries/ROSSerial/ros/node_handle.h ****       subscribers[i] = 0;
 141:../Libraries/ROSSerial/ros/node_handle.h **** 
 142:../Libraries/ROSSerial/ros/node_handle.h ****     for (unsigned int i = 0; i < INPUT_SIZE; i++)
 143:../Libraries/ROSSerial/ros/node_handle.h ****       message_in[i] = 0;
 144:../Libraries/ROSSerial/ros/node_handle.h **** 
 145:../Libraries/ROSSerial/ros/node_handle.h ****     for (unsigned int i = 0; i < OUTPUT_SIZE; i++)
 146:../Libraries/ROSSerial/ros/node_handle.h ****       message_out[i] = 0;
 147:../Libraries/ROSSerial/ros/node_handle.h **** 
 148:../Libraries/ROSSerial/ros/node_handle.h ****     req_param_resp.ints_length = 0;
 149:../Libraries/ROSSerial/ros/node_handle.h ****     req_param_resp.ints = NULL;
 150:../Libraries/ROSSerial/ros/node_handle.h ****     req_param_resp.floats_length = 0;
 151:../Libraries/ROSSerial/ros/node_handle.h ****     req_param_resp.floats = NULL;
 152:../Libraries/ROSSerial/ros/node_handle.h ****     req_param_resp.ints_length = 0;
 153:../Libraries/ROSSerial/ros/node_handle.h ****     req_param_resp.ints = NULL;
 154:../Libraries/ROSSerial/ros/node_handle.h **** 
 155:../Libraries/ROSSerial/ros/node_handle.h ****     spin_timeout_ = 0;
 156:../Libraries/ROSSerial/ros/node_handle.h ****   }
 157:../Libraries/ROSSerial/ros/node_handle.h **** 
 158:../Libraries/ROSSerial/ros/node_handle.h ****   Hardware* getHardware()
 159:../Libraries/ROSSerial/ros/node_handle.h ****   {
 160:../Libraries/ROSSerial/ros/node_handle.h ****     return &hardware_;
 161:../Libraries/ROSSerial/ros/node_handle.h ****   }
ARM GAS  /var/folders/l3/4y5292px21b4835bsnjwqc7w009kq1/T//ccOhtKWi.s 			page 23


 162:../Libraries/ROSSerial/ros/node_handle.h **** 
 163:../Libraries/ROSSerial/ros/node_handle.h ****   /* Start serial, initialize buffers */
 164:../Libraries/ROSSerial/ros/node_handle.h ****   void initNode()
 165:../Libraries/ROSSerial/ros/node_handle.h ****   {
 166:../Libraries/ROSSerial/ros/node_handle.h ****     hardware_.init();
 167:../Libraries/ROSSerial/ros/node_handle.h ****     mode_ = 0;
 168:../Libraries/ROSSerial/ros/node_handle.h ****     bytes_ = 0;
 169:../Libraries/ROSSerial/ros/node_handle.h ****     index_ = 0;
 170:../Libraries/ROSSerial/ros/node_handle.h ****     topic_ = 0;
 171:../Libraries/ROSSerial/ros/node_handle.h ****     //printf("Node init\n");
 172:../Libraries/ROSSerial/ros/node_handle.h ****   };
 173:../Libraries/ROSSerial/ros/node_handle.h **** 
 174:../Libraries/ROSSerial/ros/node_handle.h ****   /* Start a named port, which may be network server IP, initialize buffers */
 175:../Libraries/ROSSerial/ros/node_handle.h ****   void initNode(char *portName)
 176:../Libraries/ROSSerial/ros/node_handle.h ****   {
 177:../Libraries/ROSSerial/ros/node_handle.h ****     hardware_.init(portName);
 178:../Libraries/ROSSerial/ros/node_handle.h ****     mode_ = 0;
 179:../Libraries/ROSSerial/ros/node_handle.h ****     bytes_ = 0;
 180:../Libraries/ROSSerial/ros/node_handle.h ****     index_ = 0;
 181:../Libraries/ROSSerial/ros/node_handle.h ****     topic_ = 0;
 182:../Libraries/ROSSerial/ros/node_handle.h ****   };
 183:../Libraries/ROSSerial/ros/node_handle.h **** 
 184:../Libraries/ROSSerial/ros/node_handle.h ****   /**
 185:../Libraries/ROSSerial/ros/node_handle.h ****    * @brief Sets the maximum time in millisconds that spinOnce() can work.
 186:../Libraries/ROSSerial/ros/node_handle.h ****    * This will not effect the processing of the buffer, as spinOnce processes
 187:../Libraries/ROSSerial/ros/node_handle.h ****    * one byte at a time. It simply sets the maximum time that one call can
 188:../Libraries/ROSSerial/ros/node_handle.h ****    * process for. You can choose to clear the buffer if that is beneficial if
 189:../Libraries/ROSSerial/ros/node_handle.h ****    * SPIN_TIMEOUT is returned from spinOnce().
 190:../Libraries/ROSSerial/ros/node_handle.h ****    * @param timeout The timeout in milliseconds that spinOnce will function.
 191:../Libraries/ROSSerial/ros/node_handle.h ****    */
 192:../Libraries/ROSSerial/ros/node_handle.h ****   void setSpinTimeout(const uint32_t& timeout)
 193:../Libraries/ROSSerial/ros/node_handle.h ****   {
 194:../Libraries/ROSSerial/ros/node_handle.h ****      spin_timeout_ = timeout;
 195:../Libraries/ROSSerial/ros/node_handle.h ****   }
 196:../Libraries/ROSSerial/ros/node_handle.h **** 
 197:../Libraries/ROSSerial/ros/node_handle.h **** protected:
 198:../Libraries/ROSSerial/ros/node_handle.h ****   //State machine variables for spinOnce
 199:../Libraries/ROSSerial/ros/node_handle.h ****   int mode_;
 200:../Libraries/ROSSerial/ros/node_handle.h ****   int bytes_;
 201:../Libraries/ROSSerial/ros/node_handle.h ****   int topic_;
 202:../Libraries/ROSSerial/ros/node_handle.h ****   int index_;
 203:../Libraries/ROSSerial/ros/node_handle.h ****   int checksum_;
 204:../Libraries/ROSSerial/ros/node_handle.h **** 
 205:../Libraries/ROSSerial/ros/node_handle.h ****   bool configured_;
 206:../Libraries/ROSSerial/ros/node_handle.h **** 
 207:../Libraries/ROSSerial/ros/node_handle.h ****   /* used for syncing the time */
 208:../Libraries/ROSSerial/ros/node_handle.h ****   uint32_t last_sync_time;
 209:../Libraries/ROSSerial/ros/node_handle.h ****   uint32_t last_sync_receive_time;
 210:../Libraries/ROSSerial/ros/node_handle.h ****   uint32_t last_msg_timeout_time;
 211:../Libraries/ROSSerial/ros/node_handle.h **** 
 212:../Libraries/ROSSerial/ros/node_handle.h **** public:
 213:../Libraries/ROSSerial/ros/node_handle.h ****   /* This function goes in your loop() function, it handles
 214:../Libraries/ROSSerial/ros/node_handle.h ****    *  serial input and callbacks for subscribers.
 215:../Libraries/ROSSerial/ros/node_handle.h ****    */
 216:../Libraries/ROSSerial/ros/node_handle.h **** 
 217:../Libraries/ROSSerial/ros/node_handle.h ****   virtual int spinOnce() {
 218:../Libraries/ROSSerial/ros/node_handle.h ****     return spinOnce1();
ARM GAS  /var/folders/l3/4y5292px21b4835bsnjwqc7w009kq1/T//ccOhtKWi.s 			page 24


 219:../Libraries/ROSSerial/ros/node_handle.h ****   }
 220:../Libraries/ROSSerial/ros/node_handle.h **** 
 221:../Libraries/ROSSerial/ros/node_handle.h **** //calling spinOnce() directly from spin_task gives stackoverflow
 222:../Libraries/ROSSerial/ros/node_handle.h ****   int spinOnce1()
 223:../Libraries/ROSSerial/ros/node_handle.h ****   {
 224:../Libraries/ROSSerial/ros/node_handle.h ****     //printf("spinOnce\n");
 225:../Libraries/ROSSerial/ros/node_handle.h ****     /* restart if timed out */
 226:../Libraries/ROSSerial/ros/node_handle.h ****     uint32_t c_time = hardware_.time();
 227:../Libraries/ROSSerial/ros/node_handle.h ****     //printf("spinOnce %ld\n",c_time);
 228:../Libraries/ROSSerial/ros/node_handle.h **** 
 229:../Libraries/ROSSerial/ros/node_handle.h ****     if ((c_time - last_sync_receive_time) > (SYNC_SECONDS * 2200))
 230:../Libraries/ROSSerial/ros/node_handle.h ****     {
 231:../Libraries/ROSSerial/ros/node_handle.h ****       configured_ = false;
 232:../Libraries/ROSSerial/ros/node_handle.h ****     }
 233:../Libraries/ROSSerial/ros/node_handle.h **** 
 234:../Libraries/ROSSerial/ros/node_handle.h ****     /* reset if message has timed out */
 235:../Libraries/ROSSerial/ros/node_handle.h ****     if (mode_ != MODE_FIRST_FF)
 236:../Libraries/ROSSerial/ros/node_handle.h ****     {
 237:../Libraries/ROSSerial/ros/node_handle.h ****       if (c_time > last_msg_timeout_time)
 238:../Libraries/ROSSerial/ros/node_handle.h ****       {
 239:../Libraries/ROSSerial/ros/node_handle.h ****         mode_ = MODE_FIRST_FF;
 240:../Libraries/ROSSerial/ros/node_handle.h ****       }
 241:../Libraries/ROSSerial/ros/node_handle.h ****     }
 242:../Libraries/ROSSerial/ros/node_handle.h **** 
 243:../Libraries/ROSSerial/ros/node_handle.h ****     /* while available buffer, read data */
 244:../Libraries/ROSSerial/ros/node_handle.h ****     while (true)
 245:../Libraries/ROSSerial/ros/node_handle.h ****     {
 246:../Libraries/ROSSerial/ros/node_handle.h ****       // If a timeout has been specified, check how long spinOnce has been running.
 247:../Libraries/ROSSerial/ros/node_handle.h ****       if (spin_timeout_ > 0)
 248:../Libraries/ROSSerial/ros/node_handle.h ****       {
 249:../Libraries/ROSSerial/ros/node_handle.h ****         // If the maximum processing timeout has been exceeded, exit with error.
 250:../Libraries/ROSSerial/ros/node_handle.h ****         // The next spinOnce can continue where it left off, or optionally
 251:../Libraries/ROSSerial/ros/node_handle.h ****         // based on the application in use, the hardware buffer could be flushed
 252:../Libraries/ROSSerial/ros/node_handle.h ****         // and start fresh.
 253:../Libraries/ROSSerial/ros/node_handle.h ****         if ((hardware_.time() - c_time) > spin_timeout_)
 254:../Libraries/ROSSerial/ros/node_handle.h ****         {
 255:../Libraries/ROSSerial/ros/node_handle.h ****           // Exit the spin, processing timeout exceeded.
 256:../Libraries/ROSSerial/ros/node_handle.h ****           return SPIN_TIMEOUT;
 257:../Libraries/ROSSerial/ros/node_handle.h ****         }
 258:../Libraries/ROSSerial/ros/node_handle.h ****       }
 259:../Libraries/ROSSerial/ros/node_handle.h ****       int data = hardware_.read();
 260:../Libraries/ROSSerial/ros/node_handle.h ****       if (data < 0)
 261:../Libraries/ROSSerial/ros/node_handle.h ****         break;
 262:../Libraries/ROSSerial/ros/node_handle.h ****       checksum_ += data;
 263:../Libraries/ROSSerial/ros/node_handle.h ****       if (mode_ == MODE_MESSAGE)          /* message data being recieved */
 264:../Libraries/ROSSerial/ros/node_handle.h ****       {
 265:../Libraries/ROSSerial/ros/node_handle.h ****         message_in[index_++] = data;
 266:../Libraries/ROSSerial/ros/node_handle.h ****         bytes_--;
 267:../Libraries/ROSSerial/ros/node_handle.h ****         if (bytes_ == 0)                 /* is message complete? if so, checksum */
 268:../Libraries/ROSSerial/ros/node_handle.h ****           mode_ = MODE_MSG_CHECKSUM;
 269:../Libraries/ROSSerial/ros/node_handle.h ****       }
 270:../Libraries/ROSSerial/ros/node_handle.h ****       else if (mode_ == MODE_FIRST_FF)
 271:../Libraries/ROSSerial/ros/node_handle.h ****       {
 272:../Libraries/ROSSerial/ros/node_handle.h ****         if (data == 0xff)
 273:../Libraries/ROSSerial/ros/node_handle.h ****         {
 274:../Libraries/ROSSerial/ros/node_handle.h ****           mode_++;
 275:../Libraries/ROSSerial/ros/node_handle.h ****           last_msg_timeout_time = c_time + SERIAL_MSG_TIMEOUT;
ARM GAS  /var/folders/l3/4y5292px21b4835bsnjwqc7w009kq1/T//ccOhtKWi.s 			page 25


 276:../Libraries/ROSSerial/ros/node_handle.h ****         }
 277:../Libraries/ROSSerial/ros/node_handle.h ****         else if (hardware_.time() - c_time > (SYNC_SECONDS * 1000))
 278:../Libraries/ROSSerial/ros/node_handle.h ****         {
 279:../Libraries/ROSSerial/ros/node_handle.h ****           /* We have been stuck in spinOnce too long, return error */
 280:../Libraries/ROSSerial/ros/node_handle.h ****           configured_ = false;
 281:../Libraries/ROSSerial/ros/node_handle.h ****           return SPIN_TIMEOUT;
 282:../Libraries/ROSSerial/ros/node_handle.h ****         }
 283:../Libraries/ROSSerial/ros/node_handle.h ****       }
 284:../Libraries/ROSSerial/ros/node_handle.h ****       else if (mode_ == MODE_PROTOCOL_VER)
 285:../Libraries/ROSSerial/ros/node_handle.h ****       {
 286:../Libraries/ROSSerial/ros/node_handle.h ****         if (data == PROTOCOL_VER)
 287:../Libraries/ROSSerial/ros/node_handle.h ****         {
 288:../Libraries/ROSSerial/ros/node_handle.h ****           mode_++;
 289:../Libraries/ROSSerial/ros/node_handle.h ****         }
 290:../Libraries/ROSSerial/ros/node_handle.h ****         else
 291:../Libraries/ROSSerial/ros/node_handle.h ****         {
 292:../Libraries/ROSSerial/ros/node_handle.h ****           mode_ = MODE_FIRST_FF;
 293:../Libraries/ROSSerial/ros/node_handle.h ****           if (configured_ == false)
 294:../Libraries/ROSSerial/ros/node_handle.h ****             requestSyncTime();  /* send a msg back showing our protocol version */
 295:../Libraries/ROSSerial/ros/node_handle.h ****         }
 296:../Libraries/ROSSerial/ros/node_handle.h ****       }
 297:../Libraries/ROSSerial/ros/node_handle.h ****       else if (mode_ == MODE_SIZE_L)      /* bottom half of message size */
 298:../Libraries/ROSSerial/ros/node_handle.h ****       {
 299:../Libraries/ROSSerial/ros/node_handle.h ****         bytes_ = data;
 300:../Libraries/ROSSerial/ros/node_handle.h ****         index_ = 0;
 301:../Libraries/ROSSerial/ros/node_handle.h ****         mode_++;
 302:../Libraries/ROSSerial/ros/node_handle.h ****         checksum_ = data;               /* first byte for calculating size checksum */
 303:../Libraries/ROSSerial/ros/node_handle.h ****       }
 304:../Libraries/ROSSerial/ros/node_handle.h ****       else if (mode_ == MODE_SIZE_H)      /* top half of message size */
 305:../Libraries/ROSSerial/ros/node_handle.h ****       {
 306:../Libraries/ROSSerial/ros/node_handle.h ****         bytes_ += data << 8;
 307:../Libraries/ROSSerial/ros/node_handle.h ****         mode_++;
 308:../Libraries/ROSSerial/ros/node_handle.h ****       }
 309:../Libraries/ROSSerial/ros/node_handle.h ****       else if (mode_ == MODE_SIZE_CHECKSUM)
 310:../Libraries/ROSSerial/ros/node_handle.h ****       {
 311:../Libraries/ROSSerial/ros/node_handle.h ****         if ((checksum_ % 256) == 255)
 312:../Libraries/ROSSerial/ros/node_handle.h ****           mode_++;
 313:../Libraries/ROSSerial/ros/node_handle.h ****         else
 314:../Libraries/ROSSerial/ros/node_handle.h ****           mode_ = MODE_FIRST_FF;          /* Abandon the frame if the msg len is wrong */
 315:../Libraries/ROSSerial/ros/node_handle.h ****       }
 316:../Libraries/ROSSerial/ros/node_handle.h ****       else if (mode_ == MODE_TOPIC_L)     /* bottom half of topic id */
 317:../Libraries/ROSSerial/ros/node_handle.h ****       {
 318:../Libraries/ROSSerial/ros/node_handle.h ****         topic_ = data;
 319:../Libraries/ROSSerial/ros/node_handle.h ****         mode_++;
 320:../Libraries/ROSSerial/ros/node_handle.h ****         checksum_ = data;               /* first byte included in checksum */
 321:../Libraries/ROSSerial/ros/node_handle.h ****       }
 322:../Libraries/ROSSerial/ros/node_handle.h ****       else if (mode_ == MODE_TOPIC_H)     /* top half of topic id */
 323:../Libraries/ROSSerial/ros/node_handle.h ****       {
 324:../Libraries/ROSSerial/ros/node_handle.h ****         topic_ += data << 8;
 325:../Libraries/ROSSerial/ros/node_handle.h ****         mode_ = MODE_MESSAGE;
 326:../Libraries/ROSSerial/ros/node_handle.h ****         if (bytes_ == 0)
 327:../Libraries/ROSSerial/ros/node_handle.h ****           mode_ = MODE_MSG_CHECKSUM;
 328:../Libraries/ROSSerial/ros/node_handle.h ****       }
 329:../Libraries/ROSSerial/ros/node_handle.h ****       else if (mode_ == MODE_MSG_CHECKSUM)    /* do checksum */
 330:../Libraries/ROSSerial/ros/node_handle.h ****       {
 331:../Libraries/ROSSerial/ros/node_handle.h ****         mode_ = MODE_FIRST_FF;
 332:../Libraries/ROSSerial/ros/node_handle.h ****         if ((checksum_ % 256) == 255)
ARM GAS  /var/folders/l3/4y5292px21b4835bsnjwqc7w009kq1/T//ccOhtKWi.s 			page 26


 333:../Libraries/ROSSerial/ros/node_handle.h ****         {
 334:../Libraries/ROSSerial/ros/node_handle.h ****           if (topic_ == TopicInfo::ID_PUBLISHER)
 335:../Libraries/ROSSerial/ros/node_handle.h ****           {
 336:../Libraries/ROSSerial/ros/node_handle.h ****             requestSyncTime();
 337:../Libraries/ROSSerial/ros/node_handle.h ****             negotiateTopics();
 338:../Libraries/ROSSerial/ros/node_handle.h ****             last_sync_time = c_time;
 339:../Libraries/ROSSerial/ros/node_handle.h ****             last_sync_receive_time = c_time;
 340:../Libraries/ROSSerial/ros/node_handle.h ****             return SPIN_ERR;
 341:../Libraries/ROSSerial/ros/node_handle.h ****           }
 342:../Libraries/ROSSerial/ros/node_handle.h ****           else if (topic_ == TopicInfo::ID_TIME)
 343:../Libraries/ROSSerial/ros/node_handle.h ****           {
 344:../Libraries/ROSSerial/ros/node_handle.h ****             syncTime(message_in);
 345:../Libraries/ROSSerial/ros/node_handle.h ****           }
 346:../Libraries/ROSSerial/ros/node_handle.h ****           else if (topic_ == TopicInfo::ID_PARAMETER_REQUEST)
 347:../Libraries/ROSSerial/ros/node_handle.h ****           {
 348:../Libraries/ROSSerial/ros/node_handle.h ****             req_param_resp.deserialize(message_in);
 349:../Libraries/ROSSerial/ros/node_handle.h ****             param_recieved = true;
 350:../Libraries/ROSSerial/ros/node_handle.h ****           }
 351:../Libraries/ROSSerial/ros/node_handle.h ****           else if (topic_ == TopicInfo::ID_TX_STOP)
 352:../Libraries/ROSSerial/ros/node_handle.h ****           {
 353:../Libraries/ROSSerial/ros/node_handle.h ****             configured_ = false;
 354:../Libraries/ROSSerial/ros/node_handle.h ****           }
 355:../Libraries/ROSSerial/ros/node_handle.h ****           else
 356:../Libraries/ROSSerial/ros/node_handle.h ****           {
 357:../Libraries/ROSSerial/ros/node_handle.h ****             if (subscribers[topic_ - 100])
 358:../Libraries/ROSSerial/ros/node_handle.h ****               //subscribers[topic_ - 100]->callback(message_in);
 359:../Libraries/ROSSerial/ros/node_handle.h ****               led_cb( message_in);
 360:../Libraries/ROSSerial/ros/node_handle.h ****           }
 361:../Libraries/ROSSerial/ros/node_handle.h ****         }
 362:../Libraries/ROSSerial/ros/node_handle.h ****       }
 363:../Libraries/ROSSerial/ros/node_handle.h ****     }
 364:../Libraries/ROSSerial/ros/node_handle.h **** 
 365:../Libraries/ROSSerial/ros/node_handle.h ****     /* occasionally sync time */
 366:../Libraries/ROSSerial/ros/node_handle.h ****     if (configured_ && ((c_time - last_sync_time) > (SYNC_SECONDS * 500)))
 367:../Libraries/ROSSerial/ros/node_handle.h ****     {
 368:../Libraries/ROSSerial/ros/node_handle.h ****       requestSyncTime();
 369:../Libraries/ROSSerial/ros/node_handle.h ****       last_sync_time = c_time;
 370:../Libraries/ROSSerial/ros/node_handle.h ****     }
 371:../Libraries/ROSSerial/ros/node_handle.h **** 
 372:../Libraries/ROSSerial/ros/node_handle.h ****     return SPIN_OK;
 373:../Libraries/ROSSerial/ros/node_handle.h ****   }
 374:../Libraries/ROSSerial/ros/node_handle.h **** 
 375:../Libraries/ROSSerial/ros/node_handle.h **** 
 376:../Libraries/ROSSerial/ros/node_handle.h ****   /* Are we connected to the PC? */
 377:../Libraries/ROSSerial/ros/node_handle.h ****   virtual bool connected()
 378:../Libraries/ROSSerial/ros/node_handle.h ****   {
 379:../Libraries/ROSSerial/ros/node_handle.h ****     return configured_;
 380:../Libraries/ROSSerial/ros/node_handle.h ****   };
 381:../Libraries/ROSSerial/ros/node_handle.h **** 
 382:../Libraries/ROSSerial/ros/node_handle.h ****   /********************************************************************
 383:../Libraries/ROSSerial/ros/node_handle.h ****    * Time functions
 384:../Libraries/ROSSerial/ros/node_handle.h ****    */
 385:../Libraries/ROSSerial/ros/node_handle.h **** 
 386:../Libraries/ROSSerial/ros/node_handle.h ****   void requestSyncTime()
 387:../Libraries/ROSSerial/ros/node_handle.h ****   {
 388:../Libraries/ROSSerial/ros/node_handle.h ****     std_msgs::Time t;
 389:../Libraries/ROSSerial/ros/node_handle.h ****     publish1(TopicInfo::ID_TIME, &t);
ARM GAS  /var/folders/l3/4y5292px21b4835bsnjwqc7w009kq1/T//ccOhtKWi.s 			page 27


 390:../Libraries/ROSSerial/ros/node_handle.h ****     rt_time = hardware_.time();
 391:../Libraries/ROSSerial/ros/node_handle.h ****   }
 392:../Libraries/ROSSerial/ros/node_handle.h **** 
 393:../Libraries/ROSSerial/ros/node_handle.h ****   void syncTime(uint8_t * data)
 394:../Libraries/ROSSerial/ros/node_handle.h ****   {
 395:../Libraries/ROSSerial/ros/node_handle.h ****     std_msgs::Time t;
 396:../Libraries/ROSSerial/ros/node_handle.h ****     uint32_t offset = hardware_.time() - rt_time;
 397:../Libraries/ROSSerial/ros/node_handle.h **** 
 398:../Libraries/ROSSerial/ros/node_handle.h ****     t.deserialize(data);
 399:../Libraries/ROSSerial/ros/node_handle.h ****     t.data.sec += offset / 1000;
 400:../Libraries/ROSSerial/ros/node_handle.h ****     t.data.nsec += (offset % 1000) * 1000000UL;
 401:../Libraries/ROSSerial/ros/node_handle.h **** 
 402:../Libraries/ROSSerial/ros/node_handle.h ****     this->setNow(t.data);
 403:../Libraries/ROSSerial/ros/node_handle.h ****     last_sync_receive_time = hardware_.time();
 404:../Libraries/ROSSerial/ros/node_handle.h ****   }
 405:../Libraries/ROSSerial/ros/node_handle.h **** 
 406:../Libraries/ROSSerial/ros/node_handle.h ****   Time now()
 407:../Libraries/ROSSerial/ros/node_handle.h ****   {
 408:../Libraries/ROSSerial/ros/node_handle.h ****     uint32_t ms = hardware_.time();
 409:../Libraries/ROSSerial/ros/node_handle.h ****     Time current_time;
 410:../Libraries/ROSSerial/ros/node_handle.h ****     current_time.sec = ms / 1000 + sec_offset;
 411:../Libraries/ROSSerial/ros/node_handle.h ****     current_time.nsec = (ms % 1000) * 1000000UL + nsec_offset;
 412:../Libraries/ROSSerial/ros/node_handle.h ****     normalizeSecNSec(current_time.sec, current_time.nsec);
 413:../Libraries/ROSSerial/ros/node_handle.h ****     return current_time;
 414:../Libraries/ROSSerial/ros/node_handle.h ****   }
 415:../Libraries/ROSSerial/ros/node_handle.h **** 
 416:../Libraries/ROSSerial/ros/node_handle.h ****   void setNow(Time & new_now)
 417:../Libraries/ROSSerial/ros/node_handle.h ****   {
 418:../Libraries/ROSSerial/ros/node_handle.h ****     uint32_t ms = hardware_.time();
 419:../Libraries/ROSSerial/ros/node_handle.h ****     sec_offset = new_now.sec - ms / 1000 - 1;
 420:../Libraries/ROSSerial/ros/node_handle.h ****     nsec_offset = new_now.nsec - (ms % 1000) * 1000000UL + 1000000000UL;
 421:../Libraries/ROSSerial/ros/node_handle.h ****     normalizeSecNSec(sec_offset, nsec_offset);
 422:../Libraries/ROSSerial/ros/node_handle.h ****   }
 423:../Libraries/ROSSerial/ros/node_handle.h **** 
 424:../Libraries/ROSSerial/ros/node_handle.h ****   /********************************************************************
 425:../Libraries/ROSSerial/ros/node_handle.h ****    * Topic Management
 426:../Libraries/ROSSerial/ros/node_handle.h ****    */
 427:../Libraries/ROSSerial/ros/node_handle.h **** 
 428:../Libraries/ROSSerial/ros/node_handle.h ****   /* Register a new publisher */
 429:../Libraries/ROSSerial/ros/node_handle.h ****   bool advertise(Publisher & p)
 430:../Libraries/ROSSerial/ros/node_handle.h ****   {
 431:../Libraries/ROSSerial/ros/node_handle.h ****     for (int i = 0; i < MAX_PUBLISHERS; i++)
 432:../Libraries/ROSSerial/ros/node_handle.h ****     {
 433:../Libraries/ROSSerial/ros/node_handle.h ****       if (publishers[i] == 0) // empty slot
 434:../Libraries/ROSSerial/ros/node_handle.h ****       {
 435:../Libraries/ROSSerial/ros/node_handle.h ****         publishers[i] = &p;
 436:../Libraries/ROSSerial/ros/node_handle.h ****         p.id_ = i + 100 + MAX_SUBSCRIBERS;
 437:../Libraries/ROSSerial/ros/node_handle.h ****         p.nh_ = this;
 438:../Libraries/ROSSerial/ros/node_handle.h ****         return true;
 439:../Libraries/ROSSerial/ros/node_handle.h ****       }
 440:../Libraries/ROSSerial/ros/node_handle.h ****     }
 441:../Libraries/ROSSerial/ros/node_handle.h ****     return false;
 442:../Libraries/ROSSerial/ros/node_handle.h ****   }
 443:../Libraries/ROSSerial/ros/node_handle.h **** 
 444:../Libraries/ROSSerial/ros/node_handle.h ****   /* Register a new subscriber */
 445:../Libraries/ROSSerial/ros/node_handle.h ****   template<typename SubscriberT>
 446:../Libraries/ROSSerial/ros/node_handle.h ****   bool subscribe(SubscriberT& s)
ARM GAS  /var/folders/l3/4y5292px21b4835bsnjwqc7w009kq1/T//ccOhtKWi.s 			page 28


 447:../Libraries/ROSSerial/ros/node_handle.h ****   {
 448:../Libraries/ROSSerial/ros/node_handle.h ****     for (int i = 0; i < MAX_SUBSCRIBERS; i++)
 449:../Libraries/ROSSerial/ros/node_handle.h ****     {
 450:../Libraries/ROSSerial/ros/node_handle.h ****       if (subscribers[i] == 0) // empty slot
 451:../Libraries/ROSSerial/ros/node_handle.h ****       {
 452:../Libraries/ROSSerial/ros/node_handle.h ****         subscribers[i] = static_cast<Subscriber_*>(&s);
 453:../Libraries/ROSSerial/ros/node_handle.h ****         s.id_ = i + 100;
 454:../Libraries/ROSSerial/ros/node_handle.h ****         return true;
 455:../Libraries/ROSSerial/ros/node_handle.h ****       }
 456:../Libraries/ROSSerial/ros/node_handle.h ****     }
 457:../Libraries/ROSSerial/ros/node_handle.h ****     return false;
 458:../Libraries/ROSSerial/ros/node_handle.h ****   }
 459:../Libraries/ROSSerial/ros/node_handle.h **** 
 460:../Libraries/ROSSerial/ros/node_handle.h **** 
 461:../Libraries/ROSSerial/ros/node_handle.h ****   /* Register a new Service Server */
 462:../Libraries/ROSSerial/ros/node_handle.h ****   template<typename MReq, typename MRes, typename ObjT>
 463:../Libraries/ROSSerial/ros/node_handle.h ****   bool advertiseService(ServiceServer<MReq, MRes, ObjT>& srv)
 464:../Libraries/ROSSerial/ros/node_handle.h ****   {
 465:../Libraries/ROSSerial/ros/node_handle.h ****     bool v = advertise(srv.pub);
 466:../Libraries/ROSSerial/ros/node_handle.h ****     for (int i = 0; i < MAX_SUBSCRIBERS; i++)
 467:../Libraries/ROSSerial/ros/node_handle.h ****     {
 468:../Libraries/ROSSerial/ros/node_handle.h ****       if (subscribers[i] == 0) // empty slot
 469:../Libraries/ROSSerial/ros/node_handle.h ****       {
 470:../Libraries/ROSSerial/ros/node_handle.h ****         subscribers[i] = static_cast<Subscriber_*>(&srv);
 471:../Libraries/ROSSerial/ros/node_handle.h ****         srv.id_ = i + 100;
 472:../Libraries/ROSSerial/ros/node_handle.h ****         return v;
 473:../Libraries/ROSSerial/ros/node_handle.h ****       }
 474:../Libraries/ROSSerial/ros/node_handle.h ****     }
 475:../Libraries/ROSSerial/ros/node_handle.h ****     return false;
 476:../Libraries/ROSSerial/ros/node_handle.h ****   }
 477:../Libraries/ROSSerial/ros/node_handle.h **** 
 478:../Libraries/ROSSerial/ros/node_handle.h ****   /* Register a new Service Client */
 479:../Libraries/ROSSerial/ros/node_handle.h ****   template<typename MReq, typename MRes>
 480:../Libraries/ROSSerial/ros/node_handle.h ****   bool serviceClient(ServiceClient<MReq, MRes>& srv)
 481:../Libraries/ROSSerial/ros/node_handle.h ****   {
 482:../Libraries/ROSSerial/ros/node_handle.h ****     bool v = advertise(srv.pub);
 483:../Libraries/ROSSerial/ros/node_handle.h ****     for (int i = 0; i < MAX_SUBSCRIBERS; i++)
 484:../Libraries/ROSSerial/ros/node_handle.h ****     {
 485:../Libraries/ROSSerial/ros/node_handle.h ****       if (subscribers[i] == 0) // empty slot
 486:../Libraries/ROSSerial/ros/node_handle.h ****       {
 487:../Libraries/ROSSerial/ros/node_handle.h ****         subscribers[i] = static_cast<Subscriber_*>(&srv);
 488:../Libraries/ROSSerial/ros/node_handle.h ****         srv.id_ = i + 100;
 489:../Libraries/ROSSerial/ros/node_handle.h ****         return v;
 490:../Libraries/ROSSerial/ros/node_handle.h ****       }
 491:../Libraries/ROSSerial/ros/node_handle.h ****     }
 492:../Libraries/ROSSerial/ros/node_handle.h ****     return false;
 493:../Libraries/ROSSerial/ros/node_handle.h ****   }
 494:../Libraries/ROSSerial/ros/node_handle.h **** 
 495:../Libraries/ROSSerial/ros/node_handle.h ****   void negotiateTopics()
 496:../Libraries/ROSSerial/ros/node_handle.h ****   {
 497:../Libraries/ROSSerial/ros/node_handle.h ****     rosserial_msgs::TopicInfo ti;
 498:../Libraries/ROSSerial/ros/node_handle.h ****     int i;
 499:../Libraries/ROSSerial/ros/node_handle.h ****     for (i = 0; i < MAX_PUBLISHERS; i++)
 500:../Libraries/ROSSerial/ros/node_handle.h ****     {
 501:../Libraries/ROSSerial/ros/node_handle.h ****       if (publishers[i] != 0) // non-empty slot
 502:../Libraries/ROSSerial/ros/node_handle.h ****       {
 503:../Libraries/ROSSerial/ros/node_handle.h ****         ti.topic_id = publishers[i]->id_;
ARM GAS  /var/folders/l3/4y5292px21b4835bsnjwqc7w009kq1/T//ccOhtKWi.s 			page 29


 504:../Libraries/ROSSerial/ros/node_handle.h ****         ti.topic_name = (char *) publishers[i]->topic_;
 505:../Libraries/ROSSerial/ros/node_handle.h ****         ti.message_type = (char *) publishers[i]->msg_->getType();
 506:../Libraries/ROSSerial/ros/node_handle.h ****         ti.md5sum = (char *) publishers[i]->msg_->getMD5();
 507:../Libraries/ROSSerial/ros/node_handle.h ****         ti.buffer_size = OUTPUT_SIZE;
 508:../Libraries/ROSSerial/ros/node_handle.h ****         publish1(publishers[i]->getEndpointType(), &ti);
 509:../Libraries/ROSSerial/ros/node_handle.h ****       }
 510:../Libraries/ROSSerial/ros/node_handle.h ****     }
 511:../Libraries/ROSSerial/ros/node_handle.h ****     for (i = 0; i < MAX_SUBSCRIBERS; i++)
 512:../Libraries/ROSSerial/ros/node_handle.h ****     {
 513:../Libraries/ROSSerial/ros/node_handle.h ****       if (subscribers[i] != 0) // non-empty slot
 514:../Libraries/ROSSerial/ros/node_handle.h ****       {
 515:../Libraries/ROSSerial/ros/node_handle.h ****         ti.topic_id = subscribers[i]->id_;
 516:../Libraries/ROSSerial/ros/node_handle.h ****         ti.topic_name = "led"; //(char *) subscribers[i]->topic_;
 517:../Libraries/ROSSerial/ros/node_handle.h ****         ti.message_type = "std_msgs/UInt16" ; //(char *) subscribers[i]->getMsgType();
 518:../Libraries/ROSSerial/ros/node_handle.h ****         ti.md5sum = "1df79edf208b629fe6b81923a544552d"; // (char *) subscribers[i]->getMsgMD5();
 519:../Libraries/ROSSerial/ros/node_handle.h ****         ti.buffer_size = INPUT_SIZE;
 520:../Libraries/ROSSerial/ros/node_handle.h ****         publish1(rosserial_msgs::TopicInfo::ID_SUBSCRIBER, &ti);
 521:../Libraries/ROSSerial/ros/node_handle.h ****         //publish1(subscribers[i]->getEndpointType(), &ti);
 522:../Libraries/ROSSerial/ros/node_handle.h ****       }
 523:../Libraries/ROSSerial/ros/node_handle.h ****     }
 524:../Libraries/ROSSerial/ros/node_handle.h ****     configured_ = true;
 525:../Libraries/ROSSerial/ros/node_handle.h ****   }
 526:../Libraries/ROSSerial/ros/node_handle.h **** 
 527:../Libraries/ROSSerial/ros/node_handle.h ****   virtual int publish(int id, const Msg * msg)
 528:../Libraries/ROSSerial/ros/node_handle.h ****   {
 529:../Libraries/ROSSerial/ros/node_handle.h ****     return publish1(id, msg);
 530:../Libraries/ROSSerial/ros/node_handle.h ****   }
 531:../Libraries/ROSSerial/ros/node_handle.h **** 
 532:../Libraries/ROSSerial/ros/node_handle.h ****   int publish1(int id, const Msg * msg)
 819              		.loc 5 532 0
 820              		.cfi_startproc
 821              		@ args = 0, pretend = 0, frame = 16
 822              		@ frame_needed = 0, uses_anonymous_args = 0
 823              	.LVL96:
 824 0000 30B5     		push	{r4, r5, lr}
 825              		.save {r4, r5, lr}
 826              	.LCFI10:
 827              		.cfi_def_cfa_offset 12
 828              		.cfi_offset 4, -12
 829              		.cfi_offset 5, -8
 830              		.cfi_offset 14, -4
 831              		.pad #20
 832 0002 85B0     		sub	sp, sp, #20
 833              	.LCFI11:
 834              		.cfi_def_cfa_offset 32
 533:../Libraries/ROSSerial/ros/node_handle.h ****   {
 534:../Libraries/ROSSerial/ros/node_handle.h ****     //printf("in nh.publsh\n");
 535:../Libraries/ROSSerial/ros/node_handle.h ****     if (id >= 100 && !configured_)
 835              		.loc 5 535 0
 836 0004 6329     		cmp	r1, #99
 837 0006 03DD     		ble	.L45
 838              		.loc 5 535 0 is_stmt 0 discriminator 1
 839 0008 90F85434 		ldrb	r3, [r0, #1108]	@ zero_extendqisi2
 840 000c 002B     		cmp	r3, #0
 841 000e 50D0     		beq	.L50
 842              	.L45:
 843 0010 0D46     		mov	r5, r1
ARM GAS  /var/folders/l3/4y5292px21b4835bsnjwqc7w009kq1/T//ccOhtKWi.s 			page 30


 844 0012 0446     		mov	r4, r0
 536:../Libraries/ROSSerial/ros/node_handle.h ****       return 0;
 537:../Libraries/ROSSerial/ros/node_handle.h ****     //printf("in nh.publsh2\n");
 538:../Libraries/ROSSerial/ros/node_handle.h ****     /* serialize message */
 539:../Libraries/ROSSerial/ros/node_handle.h ****     int l = msg->serialize(message_out + 7);
 845              		.loc 5 539 0 is_stmt 1
 846 0014 1368     		ldr	r3, [r2]
 847 0016 1B68     		ldr	r3, [r3]
 848 0018 00F21F21 		addw	r1, r0, #543
 849              	.LVL97:
 850 001c 1046     		mov	r0, r2
 851              	.LVL98:
 852 001e 9847     		blx	r3
 853              	.LVL99:
 540:../Libraries/ROSSerial/ros/node_handle.h **** 
 541:../Libraries/ROSSerial/ros/node_handle.h ****     /* setup the header */
 542:../Libraries/ROSSerial/ros/node_handle.h ****     message_out[0] = 0xff;
 854              		.loc 5 542 0
 855 0020 FF23     		movs	r3, #255
 856 0022 84F81832 		strb	r3, [r4, #536]
 543:../Libraries/ROSSerial/ros/node_handle.h ****     message_out[1] = PROTOCOL_VER;
 857              		.loc 5 543 0
 858 0026 FE23     		movs	r3, #254
 859 0028 84F81932 		strb	r3, [r4, #537]
 544:../Libraries/ROSSerial/ros/node_handle.h ****     message_out[2] = (uint8_t)((uint16_t)l & 255);
 860              		.loc 5 544 0
 861 002c C3B2     		uxtb	r3, r0
 862 002e 84F81A32 		strb	r3, [r4, #538]
 545:../Libraries/ROSSerial/ros/node_handle.h ****     message_out[3] = (uint8_t)((uint16_t)l >> 8);
 863              		.loc 5 545 0
 864 0032 C0F30722 		ubfx	r2, r0, #8, #8
 865 0036 84F81B22 		strb	r2, [r4, #539]
 546:../Libraries/ROSSerial/ros/node_handle.h ****     message_out[4] = 255 - ((message_out[2] + message_out[3]) % 256);
 866              		.loc 5 546 0
 867 003a 1344     		add	r3, r3, r2
 868 003c DBB2     		uxtb	r3, r3
 869 003e DB43     		mvns	r3, r3
 870 0040 84F81C32 		strb	r3, [r4, #540]
 547:../Libraries/ROSSerial/ros/node_handle.h ****     message_out[5] = (uint8_t)((int16_t)id & 255);
 871              		.loc 5 547 0
 872 0044 84F81D52 		strb	r5, [r4, #541]
 548:../Libraries/ROSSerial/ros/node_handle.h ****     message_out[6] = (uint8_t)((int16_t)id >> 8);
 873              		.loc 5 548 0
 874 0048 45F30721 		sbfx	r1, r5, #8, #8
 875 004c 84F81E12 		strb	r1, [r4, #542]
 876              	.LVL100:
 877              	.LBB86:
 549:../Libraries/ROSSerial/ros/node_handle.h **** 
 550:../Libraries/ROSSerial/ros/node_handle.h ****     /* calculate checksum */
 551:../Libraries/ROSSerial/ros/node_handle.h ****     int chk = 0;
 552:../Libraries/ROSSerial/ros/node_handle.h ****     for (int i = 5; i < l + 7; i++)
 878              		.loc 5 552 0
 879 0050 0523     		movs	r3, #5
 880              	.LBE86:
 551:../Libraries/ROSSerial/ros/node_handle.h ****     for (int i = 5; i < l + 7; i++)
 881              		.loc 5 551 0
 882 0052 0022     		movs	r2, #0
ARM GAS  /var/folders/l3/4y5292px21b4835bsnjwqc7w009kq1/T//ccOhtKWi.s 			page 31


 883              	.LVL101:
 884              	.L48:
 885              	.LBB87:
 886              		.loc 5 552 0 discriminator 3
 887 0054 C11D     		adds	r1, r0, #7
 888 0056 9942     		cmp	r1, r3
 889 0058 05DD     		ble	.L47
 553:../Libraries/ROSSerial/ros/node_handle.h ****       chk += message_out[i];
 890              		.loc 5 553 0 discriminator 2
 891 005a E118     		adds	r1, r4, r3
 892 005c 91F81812 		ldrb	r1, [r1, #536]	@ zero_extendqisi2
 893 0060 0A44     		add	r2, r2, r1
 894              	.LVL102:
 552:../Libraries/ROSSerial/ros/node_handle.h ****       chk += message_out[i];
 895              		.loc 5 552 0 discriminator 2
 896 0062 0133     		adds	r3, r3, #1
 897              	.LVL103:
 898 0064 F6E7     		b	.L48
 899              	.L47:
 900              	.LVL104:
 901              	.LBE87:
 554:../Libraries/ROSSerial/ros/node_handle.h ****     l += 7;
 555:../Libraries/ROSSerial/ros/node_handle.h ****     message_out[l++] = 255 - (chk % 256);
 902              		.loc 5 555 0
 903 0066 5342     		rsbs	r3, r2, #0
 904              	.LVL105:
 905 0068 D2B2     		uxtb	r2, r2
 906              	.LVL106:
 907 006a DBB2     		uxtb	r3, r3
 908 006c 58BF     		it	pl
 909 006e 5A42     		rsbpl	r2, r3, #0
 910 0070 00F10805 		add	r5, r0, #8
 911              	.LVL107:
 912 0074 D243     		mvns	r2, r2
 913 0076 2144     		add	r1, r1, r4
 914 0078 81F81822 		strb	r2, [r1, #536]
 556:../Libraries/ROSSerial/ros/node_handle.h ****     //printf("Sending message - %s\n",message_out);
 557:../Libraries/ROSSerial/ros/node_handle.h ****     if (l <= OUTPUT_SIZE)
 915              		.loc 5 557 0
 916 007c B5F5007F 		cmp	r5, #512
 917 0080 08DC     		bgt	.L49
 918              	.LVL108:
 919              	.LBB88:
 920              	.LBB89:
 921              		.file 6 "../Libraries/ROSSerial/stm32hardware.h"
   1:../Libraries/ROSSerial/stm32hardware.h **** /*
   2:../Libraries/ROSSerial/stm32hardware.h ****  * Software License Agreement (BSD License)
   3:../Libraries/ROSSerial/stm32hardware.h ****  *
   4:../Libraries/ROSSerial/stm32hardware.h ****  * Copyright (c) 2011, Willow Garage, Inc.
   5:../Libraries/ROSSerial/stm32hardware.h ****  * All rights reserved.
   6:../Libraries/ROSSerial/stm32hardware.h ****  *
   7:../Libraries/ROSSerial/stm32hardware.h ****  * Redistribution and use in source and binary forms, with or without
   8:../Libraries/ROSSerial/stm32hardware.h ****  * modification, are permitted provided that the following conditions
   9:../Libraries/ROSSerial/stm32hardware.h ****  * are met:
  10:../Libraries/ROSSerial/stm32hardware.h ****  *
  11:../Libraries/ROSSerial/stm32hardware.h ****  *  * Redistributions of source code must retain the above copyright
  12:../Libraries/ROSSerial/stm32hardware.h ****  *    notice, this list of conditions and the following disclaimer.
ARM GAS  /var/folders/l3/4y5292px21b4835bsnjwqc7w009kq1/T//ccOhtKWi.s 			page 32


  13:../Libraries/ROSSerial/stm32hardware.h ****  *  * Redistributions in binary form must reproduce the above
  14:../Libraries/ROSSerial/stm32hardware.h ****  *    copyright notice, this list of conditions and the following
  15:../Libraries/ROSSerial/stm32hardware.h ****  *    disclaimer in the documentation and/or other materials provided
  16:../Libraries/ROSSerial/stm32hardware.h ****  *    with the distribution.
  17:../Libraries/ROSSerial/stm32hardware.h ****  *  * Neither the name of Willow Garage, Inc. nor the names of its
  18:../Libraries/ROSSerial/stm32hardware.h ****  *    contributors may be used to endorse or promote prducts derived
  19:../Libraries/ROSSerial/stm32hardware.h ****  *    from this software without specific prior written permission.
  20:../Libraries/ROSSerial/stm32hardware.h ****  *
  21:../Libraries/ROSSerial/stm32hardware.h ****  * THIS SOFTWARE IS PROVIDED BY THE COPYRIGHT HOLDERS AND CONTRIBUTORS
  22:../Libraries/ROSSerial/stm32hardware.h ****  * "AS IS" AND ANY EXPRESS OR IMPLIED WARRANTIES, INCLUDING, BUT NOT
  23:../Libraries/ROSSerial/stm32hardware.h ****  * LIMITED TO, THE IMPLIED WARRANTIES OF MERCHANTABILITY AND FITNESS
  24:../Libraries/ROSSerial/stm32hardware.h ****  * FOR A PARTICULAR PURPOSE ARE DISCLAIMED. IN NO EVENT SHALL THE
  25:../Libraries/ROSSerial/stm32hardware.h ****  * COPYRIGHT OWNER OR CONTRIBUTORS BE LIABLE FOR ANY DIRECT, INDIRECT,
  26:../Libraries/ROSSerial/stm32hardware.h ****  * INCIDENTAL, SPECIAL, EXEMPLARY, OR CONSEQUENTIAL DAMAGES (INCLUDING,
  27:../Libraries/ROSSerial/stm32hardware.h ****  * BUT NOT LIMITED TO, PROCUREMENT OF SUBSTITUTE GOODS OR SERVICES;
  28:../Libraries/ROSSerial/stm32hardware.h ****  * LOSS OF USE, DATA, OR PROFITS; OR BUSINESS INTERRUPTION) HOWEVER
  29:../Libraries/ROSSerial/stm32hardware.h ****  * CAUSED AND ON ANY THEORY OF LIABILITY, WHETHER IN CONTRACT, STRICT
  30:../Libraries/ROSSerial/stm32hardware.h ****  * LIABILITY, OR TORT (INCLUDING NEGLIGENCE OR OTHERWISE) ARISING IN
  31:../Libraries/ROSSerial/stm32hardware.h ****  * ANY WAY OUT OF THE USE OF THIS SOFTWARE, EVEN IF ADVISED OF THE
  32:../Libraries/ROSSerial/stm32hardware.h ****  * POSSIBILITY OF SUCH DAMAGE.
  33:../Libraries/ROSSerial/stm32hardware.h ****  */
  34:../Libraries/ROSSerial/stm32hardware.h **** 
  35:../Libraries/ROSSerial/stm32hardware.h **** #ifndef STM32HARDWARE_H_
  36:../Libraries/ROSSerial/stm32hardware.h **** #define STM32HARDWARE_H_
  37:../Libraries/ROSSerial/stm32hardware.h **** 
  38:../Libraries/ROSSerial/stm32hardware.h **** #include "FreeRTOS.h"
  39:../Libraries/ROSSerial/stm32hardware.h **** #include "bsp_uart_fifo.h"
  40:../Libraries/ROSSerial/stm32hardware.h **** #include <stdio.h>
  41:../Libraries/ROSSerial/stm32hardware.h **** 
  42:../Libraries/ROSSerial/stm32hardware.h **** class STM32Hardware
  43:../Libraries/ROSSerial/stm32hardware.h **** {
  44:../Libraries/ROSSerial/stm32hardware.h **** public:
  45:../Libraries/ROSSerial/stm32hardware.h **** 	STM32Hardware()
  46:../Libraries/ROSSerial/stm32hardware.h **** 	{
  47:../Libraries/ROSSerial/stm32hardware.h **** 	}
  48:../Libraries/ROSSerial/stm32hardware.h **** 
  49:../Libraries/ROSSerial/stm32hardware.h **** 	/*
  50:../Libraries/ROSSerial/stm32hardware.h **** 	 * Method: init
  51:../Libraries/ROSSerial/stm32hardware.h **** 	 * ----------------------------
  52:../Libraries/ROSSerial/stm32hardware.h **** 	 *   Initialize the STM32 hardware specific to ROS like UART
  53:../Libraries/ROSSerial/stm32hardware.h **** 	 *   parameters: none
  54:../Libraries/ROSSerial/stm32hardware.h **** 	 *   returns: none
  55:../Libraries/ROSSerial/stm32hardware.h **** 	 */
  56:../Libraries/ROSSerial/stm32hardware.h **** 	void init(void)
  57:../Libraries/ROSSerial/stm32hardware.h **** 	{
  58:../Libraries/ROSSerial/stm32hardware.h **** 
  59:../Libraries/ROSSerial/stm32hardware.h **** 	}
  60:../Libraries/ROSSerial/stm32hardware.h **** 
  61:../Libraries/ROSSerial/stm32hardware.h **** 	/*
  62:../Libraries/ROSSerial/stm32hardware.h ****      * Method: read
  63:../Libraries/ROSSerial/stm32hardware.h **** 	 * ----------------------------
  64:../Libraries/ROSSerial/stm32hardware.h **** 	 *   Read a byte of data from ROS connection
  65:../Libraries/ROSSerial/stm32hardware.h **** 	 *   parameters: none
  66:../Libraries/ROSSerial/stm32hardware.h **** 	 *   returns: data, or -1 if there are no data
  67:../Libraries/ROSSerial/stm32hardware.h **** 	 */
  68:../Libraries/ROSSerial/stm32hardware.h **** 	int read(void)
  69:../Libraries/ROSSerial/stm32hardware.h **** 	{
ARM GAS  /var/folders/l3/4y5292px21b4835bsnjwqc7w009kq1/T//ccOhtKWi.s 			page 33


  70:../Libraries/ROSSerial/stm32hardware.h **** 		uint8_t ucData = -1;
  71:../Libraries/ROSSerial/stm32hardware.h **** 		if(comGetChar(COM1,&ucData) == 0) {
  72:../Libraries/ROSSerial/stm32hardware.h **** 			return -1;
  73:../Libraries/ROSSerial/stm32hardware.h **** 		}
  74:../Libraries/ROSSerial/stm32hardware.h **** 		//printf("Got %c\n",ucData);
  75:../Libraries/ROSSerial/stm32hardware.h **** 		return ucData;
  76:../Libraries/ROSSerial/stm32hardware.h **** 	}
  77:../Libraries/ROSSerial/stm32hardware.h **** 
  78:../Libraries/ROSSerial/stm32hardware.h **** 	/*
  79:../Libraries/ROSSerial/stm32hardware.h **** 	 * Method: write
  80:../Libraries/ROSSerial/stm32hardware.h ****      * ----------------------------
  81:../Libraries/ROSSerial/stm32hardware.h **** 	 *   Send data to ROS connection
  82:../Libraries/ROSSerial/stm32hardware.h **** 	 *   parameters: pointer to data array, length of data
  83:../Libraries/ROSSerial/stm32hardware.h **** 	 *   returns: none
  84:../Libraries/ROSSerial/stm32hardware.h **** 	 */
  85:../Libraries/ROSSerial/stm32hardware.h **** 	void write(uint8_t* data, uint32_t length)
  86:../Libraries/ROSSerial/stm32hardware.h **** 	{
  87:../Libraries/ROSSerial/stm32hardware.h **** 		comSendBuf(COM1,data,length);
 922              		.loc 6 87 0
 923 0082 AAB2     		uxth	r2, r5
 924 0084 04F50671 		add	r1, r4, #536
 925              	.LVL109:
 926 0088 0020     		movs	r0, #0
 927 008a FFF7FEFF 		bl	comSendBuf
 928              	.LVL110:
 929              	.L44:
 930              	.LBE89:
 931              	.LBE88:
 558:../Libraries/ROSSerial/ros/node_handle.h ****     {
 559:../Libraries/ROSSerial/ros/node_handle.h ****       hardware_.write(message_out, l);
 560:../Libraries/ROSSerial/ros/node_handle.h ****       return l;
 561:../Libraries/ROSSerial/ros/node_handle.h ****     }
 562:../Libraries/ROSSerial/ros/node_handle.h ****     else
 563:../Libraries/ROSSerial/ros/node_handle.h ****     {
 564:../Libraries/ROSSerial/ros/node_handle.h ****       logerror("Message from device dropped: message larger than buffer.");
 565:../Libraries/ROSSerial/ros/node_handle.h ****       return -1;
 566:../Libraries/ROSSerial/ros/node_handle.h ****     }
 567:../Libraries/ROSSerial/ros/node_handle.h ****   }
 932              		.loc 5 567 0
 933 008e 2846     		mov	r0, r5
 934 0090 05B0     		add	sp, sp, #20
 935              	.LCFI12:
 936              		.cfi_remember_state
 937              		.cfi_def_cfa_offset 12
 938              		@ sp needed
 939 0092 30BD     		pop	{r4, r5, pc}
 940              	.LVL111:
 941              	.L49:
 942              	.LCFI13:
 943              		.cfi_restore_state
 944              	.LBB90:
 945              	.LBB91:
 946              	.LBB92:
 947              	.LBB93:
 948              	.LBB94:
  13:../Libraries/ROSSerial/rosserial_msgs/Log.h ****   {
 949              		.loc 3 13 0
ARM GAS  /var/folders/l3/4y5292px21b4835bsnjwqc7w009kq1/T//ccOhtKWi.s 			page 34


 950 0094 084B     		ldr	r3, .L52
 951 0096 0193     		str	r3, [sp, #4]
 952              	.LVL112:
 953              	.LBE94:
 954              	.LBE93:
 568:../Libraries/ROSSerial/ros/node_handle.h **** 
 569:../Libraries/ROSSerial/ros/node_handle.h ****   /********************************************************************
 570:../Libraries/ROSSerial/ros/node_handle.h ****    * Logging
 571:../Libraries/ROSSerial/ros/node_handle.h ****    */
 572:../Libraries/ROSSerial/ros/node_handle.h **** 
 573:../Libraries/ROSSerial/ros/node_handle.h **** private:
 574:../Libraries/ROSSerial/ros/node_handle.h ****   void log(char byte, const char * msg)
 575:../Libraries/ROSSerial/ros/node_handle.h ****   {
 576:../Libraries/ROSSerial/ros/node_handle.h ****     rosserial_msgs::Log l;
 577:../Libraries/ROSSerial/ros/node_handle.h ****     l.level = byte;
 955              		.loc 5 577 0
 956 0098 0323     		movs	r3, #3
 957 009a 8DF80830 		strb	r3, [sp, #8]
 578:../Libraries/ROSSerial/ros/node_handle.h ****     l.msg = (char*)msg;
 958              		.loc 5 578 0
 959 009e 074B     		ldr	r3, .L52+4
 960 00a0 0393     		str	r3, [sp, #12]
 579:../Libraries/ROSSerial/ros/node_handle.h ****     publish1(rosserial_msgs::TopicInfo::ID_LOG, &l);
 961              		.loc 5 579 0
 962 00a2 01AA     		add	r2, sp, #4
 963 00a4 0721     		movs	r1, #7
 964 00a6 2046     		mov	r0, r4
 965 00a8 FFF7FEFF 		bl	_ZN3ros11NodeHandle_I13STM32HardwareLi5ELi5ELi512ELi512EE8publish1EiPKNS_3MsgE
 966              	.LVL113:
 967              	.LBE92:
 968              	.LBE91:
 969              	.LBE90:
 565:../Libraries/ROSSerial/ros/node_handle.h ****     }
 970              		.loc 5 565 0
 971 00ac 4FF0FF35 		mov	r5, #-1
 972              	.LVL114:
 973 00b0 EDE7     		b	.L44
 974              	.LVL115:
 975              	.L50:
 536:../Libraries/ROSSerial/ros/node_handle.h ****     //printf("in nh.publsh2\n");
 976              		.loc 5 536 0
 977 00b2 0025     		movs	r5, #0
 978 00b4 EBE7     		b	.L44
 979              	.L53:
 980 00b6 00BF     		.align	2
 981              	.L52:
 982 00b8 08000000 		.word	_ZTVN14rosserial_msgs3LogE+8
 983 00bc 00000000 		.word	.LC9
 984              		.cfi_endproc
 985              	.LFE483:
 986              		.fnend
 988              		.section	.text._Z19ROS_SpinTaskHandlerPKv,"ax",%progbits
 989              		.align	1
 990              		.global	_Z19ROS_SpinTaskHandlerPKv
 991              		.syntax unified
 992              		.thumb
 993              		.thumb_func
ARM GAS  /var/folders/l3/4y5292px21b4835bsnjwqc7w009kq1/T//ccOhtKWi.s 			page 35


 994              		.fpu fpv4-sp-d16
 996              	_Z19ROS_SpinTaskHandlerPKv:
 997              		.fnstart
 998              	.LFB468:
  16:ROSTasks/Src/spin_task.cpp **** 
 999              		.loc 4 16 0
 1000              		.cfi_startproc
 1001              		@ args = 0, pretend = 0, frame = 48
 1002              		@ frame_needed = 0, uses_anonymous_args = 0
 1003              	.LVL116:
 1004 0000 2DE9F043 		push	{r4, r5, r6, r7, r8, r9, lr}
 1005              		.save {r4, r5, r6, r7, r8, r9, lr}
 1006              	.LCFI14:
 1007              		.cfi_def_cfa_offset 28
 1008              		.cfi_offset 4, -28
 1009              		.cfi_offset 5, -24
 1010              		.cfi_offset 6, -20
 1011              		.cfi_offset 7, -16
 1012              		.cfi_offset 8, -12
 1013              		.cfi_offset 9, -8
 1014              		.cfi_offset 14, -4
 1015              		.pad #52
 1016 0004 8DB0     		sub	sp, sp, #52
 1017              	.LCFI15:
 1018              		.cfi_def_cfa_offset 80
 1019 0006 0AE0     		b	.L123
 1020              	.LVL117:
 1021              	.L127:
 1022              	.LBB247:
 1023              	.LBB248:
 366:../Libraries/ROSSerial/ros/node_handle.h ****     {
 1024              		.loc 5 366 0
 1025 0008 94F85434 		ldrb	r3, [r4, #1108]	@ zero_extendqisi2
 1026 000c 3BB1     		cbz	r3, .L123
 1027 000e D4F85834 		ldr	r3, [r4, #1112]
 1028 0012 EB1A     		subs	r3, r5, r3
 1029 0014 40F6C412 		movw	r2, #2500
 1030 0018 9342     		cmp	r3, r2
 1031 001a 00F2A883 		bhi	.L126
 1032              	.LVL118:
 1033              	.L123:
 1034              	.LBE248:
 1035              	.LBE247:
  25:ROSTasks/Src/spin_task.cpp **** 	nh_->spinOnce1(); //calling spinOnce() directly give stackoverflow
 1036              		.loc 4 25 0 discriminator 1
 1037 001e 40F24D10 		movw	r0, #333
 1038 0022 FFF7FEFF 		bl	osDelay
 1039              	.LVL119:
  26:ROSTasks/Src/spin_task.cpp ****   }
 1040              		.loc 4 26 0 discriminator 1
 1041 0026 B94B     		ldr	r3, .L145
 1042 0028 1C68     		ldr	r4, [r3]
 1043              	.LVL120:
 1044              	.LBB408:
 1045              	.LBB407:
 1046              	.LBB249:
 1047              	.LBB250:
ARM GAS  /var/folders/l3/4y5292px21b4835bsnjwqc7w009kq1/T//ccOhtKWi.s 			page 36


  88:../Libraries/ROSSerial/stm32hardware.h **** 	}
  89:../Libraries/ROSSerial/stm32hardware.h **** 
  90:../Libraries/ROSSerial/stm32hardware.h **** 	/*
  91:../Libraries/ROSSerial/stm32hardware.h **** 	 * Method: time
  92:../Libraries/ROSSerial/stm32hardware.h **** 	 * ----------------------------
  93:../Libraries/ROSSerial/stm32hardware.h ****      *   Returns milliseconds since start of program
  94:../Libraries/ROSSerial/stm32hardware.h **** 	 *   parameters: none
  95:../Libraries/ROSSerial/stm32hardware.h **** 	 *   returns: time in milliseconds
  96:../Libraries/ROSSerial/stm32hardware.h **** 	 */
  97:../Libraries/ROSSerial/stm32hardware.h **** 	uint32_t time(void)
  98:../Libraries/ROSSerial/stm32hardware.h **** 	{
  99:../Libraries/ROSSerial/stm32hardware.h **** 		return (uint32_t) xTaskGetTickCount();
 1048              		.loc 6 99 0 discriminator 1
 1049 002a FFF7FEFF 		bl	xTaskGetTickCount
 1050              	.LVL121:
 1051 002e 0546     		mov	r5, r0
 1052              	.LVL122:
 1053              	.LBE250:
 1054              	.LBE249:
 229:../Libraries/ROSSerial/ros/node_handle.h ****     {
 1055              		.loc 5 229 0 discriminator 1
 1056 0030 D4F85C34 		ldr	r3, [r4, #1116]
 1057 0034 C31A     		subs	r3, r0, r3
 1058 0036 42F6F822 		movw	r2, #11000
 1059 003a 9342     		cmp	r3, r2
 1060 003c 02D9     		bls	.L55
 231:../Libraries/ROSSerial/ros/node_handle.h ****     }
 1061              		.loc 5 231 0
 1062 003e 0023     		movs	r3, #0
 1063 0040 84F85434 		strb	r3, [r4, #1108]
 1064              	.L55:
 235:../Libraries/ROSSerial/ros/node_handle.h ****     {
 1065              		.loc 5 235 0
 1066 0044 D4F84034 		ldr	r3, [r4, #1088]
 1067 0048 BBB1     		cbz	r3, .L57
 237:../Libraries/ROSSerial/ros/node_handle.h ****       {
 1068              		.loc 5 237 0
 1069 004a D4F86034 		ldr	r3, [r4, #1120]
 1070 004e 9D42     		cmp	r5, r3
 1071 0050 13D9     		bls	.L57
 239:../Libraries/ROSSerial/ros/node_handle.h ****       }
 1072              		.loc 5 239 0
 1073 0052 0023     		movs	r3, #0
 1074 0054 C4F84034 		str	r3, [r4, #1088]
 1075 0058 0FE0     		b	.L57
 1076              	.LVL123:
 1077              	.L128:
 1078              	.LBB251:
 265:../Libraries/ROSSerial/ros/node_handle.h ****         bytes_--;
 1079              		.loc 5 265 0
 1080 005a D4F84C34 		ldr	r3, [r4, #1100]
 1081 005e 5A1C     		adds	r2, r3, #1
 1082 0060 C4F84C24 		str	r2, [r4, #1100]
 1083 0064 2344     		add	r3, r3, r4
 1084 0066 1976     		strb	r1, [r3, #24]
 266:../Libraries/ROSSerial/ros/node_handle.h ****         if (bytes_ == 0)                 /* is message complete? if so, checksum */
 1085              		.loc 5 266 0
ARM GAS  /var/folders/l3/4y5292px21b4835bsnjwqc7w009kq1/T//ccOhtKWi.s 			page 37


 1086 0068 D4F84434 		ldr	r3, [r4, #1092]
 1087 006c 013B     		subs	r3, r3, #1
 1088 006e C4F84434 		str	r3, [r4, #1092]
 267:../Libraries/ROSSerial/ros/node_handle.h ****           mode_ = MODE_MSG_CHECKSUM;
 1089              		.loc 5 267 0
 1090 0072 13B9     		cbnz	r3, .L57
 268:../Libraries/ROSSerial/ros/node_handle.h ****       }
 1091              		.loc 5 268 0
 1092 0074 0823     		movs	r3, #8
 1093 0076 C4F84034 		str	r3, [r4, #1088]
 1094              	.LVL124:
 1095              	.L57:
 247:../Libraries/ROSSerial/ros/node_handle.h ****       {
 1096              		.loc 5 247 0
 1097 007a 6369     		ldr	r3, [r4, #20]
 1098 007c 2BB1     		cbz	r3, .L58
 1099              	.LVL125:
 1100              	.LBB252:
 1101              	.LBB253:
 1102              		.loc 6 99 0
 1103 007e FFF7FEFF 		bl	xTaskGetTickCount
 1104              	.LVL126:
 1105              	.LBE253:
 1106              	.LBE252:
 253:../Libraries/ROSSerial/ros/node_handle.h ****         {
 1107              		.loc 5 253 0
 1108 0082 401B     		subs	r0, r0, r5
 1109 0084 6369     		ldr	r3, [r4, #20]
 1110 0086 9842     		cmp	r0, r3
 1111 0088 C9D8     		bhi	.L123
 1112              	.L58:
 1113              	.LVL127:
 1114              	.LBB254:
 1115              	.LBB255:
  70:../Libraries/ROSSerial/stm32hardware.h **** 		if(comGetChar(COM1,&ucData) == 0) {
 1116              		.loc 6 70 0
 1117 008a 0CA9     		add	r1, sp, #48
 1118 008c FF23     		movs	r3, #255
 1119 008e 01F8183D 		strb	r3, [r1, #-24]!
  71:../Libraries/ROSSerial/stm32hardware.h **** 			return -1;
 1120              		.loc 6 71 0
 1121 0092 0020     		movs	r0, #0
 1122 0094 FFF7FEFF 		bl	comGetChar
 1123              	.LVL128:
 1124 0098 0028     		cmp	r0, #0
 1125 009a B5D0     		beq	.L127
  75:../Libraries/ROSSerial/stm32hardware.h **** 	}
 1126              		.loc 6 75 0
 1127 009c 9DF81810 		ldrb	r1, [sp, #24]	@ zero_extendqisi2
 1128              	.LVL129:
 1129              	.LBE255:
 1130              	.LBE254:
 262:../Libraries/ROSSerial/ros/node_handle.h ****       if (mode_ == MODE_MESSAGE)          /* message data being recieved */
 1131              		.loc 5 262 0
 1132 00a0 D4F85024 		ldr	r2, [r4, #1104]
 1133 00a4 0A44     		add	r2, r2, r1
 1134 00a6 C4F85024 		str	r2, [r4, #1104]
ARM GAS  /var/folders/l3/4y5292px21b4835bsnjwqc7w009kq1/T//ccOhtKWi.s 			page 38


 263:../Libraries/ROSSerial/ros/node_handle.h ****       {
 1135              		.loc 5 263 0
 1136 00aa D4F84034 		ldr	r3, [r4, #1088]
 1137 00ae 072B     		cmp	r3, #7
 1138 00b0 D3D0     		beq	.L128
 270:../Libraries/ROSSerial/ros/node_handle.h ****       {
 1139              		.loc 5 270 0
 1140 00b2 A3B9     		cbnz	r3, .L64
 272:../Libraries/ROSSerial/ros/node_handle.h ****         {
 1141              		.loc 5 272 0
 1142 00b4 FF29     		cmp	r1, #255
 1143 00b6 07D1     		bne	.L65
 274:../Libraries/ROSSerial/ros/node_handle.h ****           last_msg_timeout_time = c_time + SERIAL_MSG_TIMEOUT;
 1144              		.loc 5 274 0
 1145 00b8 0133     		adds	r3, r3, #1
 1146 00ba C4F84034 		str	r3, [r4, #1088]
 275:../Libraries/ROSSerial/ros/node_handle.h ****         }
 1147              		.loc 5 275 0
 1148 00be 05F11403 		add	r3, r5, #20
 1149 00c2 C4F86034 		str	r3, [r4, #1120]
 1150 00c6 D8E7     		b	.L57
 1151              	.L65:
 1152              	.LVL130:
 1153              	.LBB256:
 1154              	.LBB257:
 1155              		.loc 6 99 0
 1156 00c8 FFF7FEFF 		bl	xTaskGetTickCount
 1157              	.LVL131:
 1158              	.LBE257:
 1159              	.LBE256:
 277:../Libraries/ROSSerial/ros/node_handle.h ****         {
 1160              		.loc 5 277 0
 1161 00cc 401B     		subs	r0, r0, r5
 1162 00ce 41F28833 		movw	r3, #5000
 1163 00d2 9842     		cmp	r0, r3
 1164 00d4 D1D9     		bls	.L57
 280:../Libraries/ROSSerial/ros/node_handle.h ****           return SPIN_TIMEOUT;
 1165              		.loc 5 280 0
 1166 00d6 0023     		movs	r3, #0
 1167 00d8 84F85434 		strb	r3, [r4, #1108]
 1168 00dc 9FE7     		b	.L123
 1169              	.LVL132:
 1170              	.L64:
 284:../Libraries/ROSSerial/ros/node_handle.h ****       {
 1171              		.loc 5 284 0
 1172 00de 012B     		cmp	r3, #1
 1173 00e0 34D0     		beq	.L129
 297:../Libraries/ROSSerial/ros/node_handle.h ****       {
 1174              		.loc 5 297 0
 1175 00e2 022B     		cmp	r3, #2
 1176 00e4 00F0D380 		beq	.L130
 304:../Libraries/ROSSerial/ros/node_handle.h ****       {
 1177              		.loc 5 304 0
 1178 00e8 032B     		cmp	r3, #3
 1179 00ea 00F0DB80 		beq	.L131
 309:../Libraries/ROSSerial/ros/node_handle.h ****       {
 1180              		.loc 5 309 0
ARM GAS  /var/folders/l3/4y5292px21b4835bsnjwqc7w009kq1/T//ccOhtKWi.s 			page 39


 1181 00ee 042B     		cmp	r3, #4
 1182 00f0 00F0E280 		beq	.L132
 316:../Libraries/ROSSerial/ros/node_handle.h ****       {
 1183              		.loc 5 316 0
 1184 00f4 052B     		cmp	r3, #5
 1185 00f6 00F0EE80 		beq	.L133
 322:../Libraries/ROSSerial/ros/node_handle.h ****       {
 1186              		.loc 5 322 0
 1187 00fa 062B     		cmp	r3, #6
 1188 00fc 00F0F380 		beq	.L134
 329:../Libraries/ROSSerial/ros/node_handle.h ****       {
 1189              		.loc 5 329 0
 1190 0100 082B     		cmp	r3, #8
 1191 0102 BAD1     		bne	.L57
 331:../Libraries/ROSSerial/ros/node_handle.h ****         if ((checksum_ % 256) == 255)
 1192              		.loc 5 331 0
 1193 0104 0023     		movs	r3, #0
 1194 0106 C4F84034 		str	r3, [r4, #1088]
 332:../Libraries/ROSSerial/ros/node_handle.h ****         {
 1195              		.loc 5 332 0
 1196 010a 9B1A     		subs	r3, r3, r2
 1197 010c D2B2     		uxtb	r2, r2
 1198 010e DBB2     		uxtb	r3, r3
 1199 0110 58BF     		it	pl
 1200 0112 5A42     		rsbpl	r2, r3, #0
 1201 0114 FF2A     		cmp	r2, #255
 1202 0116 B0D1     		bne	.L57
 334:../Libraries/ROSSerial/ros/node_handle.h ****           {
 1203              		.loc 5 334 0
 1204 0118 D4F84864 		ldr	r6, [r4, #1096]
 1205 011c 002E     		cmp	r6, #0
 1206 011e 00F0FD80 		beq	.L135
 342:../Libraries/ROSSerial/ros/node_handle.h ****           {
 1207              		.loc 5 342 0
 1208 0122 0A2E     		cmp	r6, #10
 1209 0124 00F02F82 		beq	.L136
 346:../Libraries/ROSSerial/ros/node_handle.h ****           {
 1210              		.loc 5 346 0
 1211 0128 062E     		cmp	r6, #6
 1212 012a 00F08782 		beq	.L137
 351:../Libraries/ROSSerial/ros/node_handle.h ****           {
 1213              		.loc 5 351 0
 1214 012e 0B2E     		cmp	r6, #11
 1215 0130 00F01983 		beq	.L138
 357:../Libraries/ROSSerial/ros/node_handle.h ****               //subscribers[topic_ - 100]->callback(message_in);
 1216              		.loc 5 357 0
 1217 0134 06F1A603 		add	r3, r6, #166
 1218 0138 04EB8303 		add	r3, r4, r3, lsl #2
 1219 013c 5B68     		ldr	r3, [r3, #4]
 1220 013e 002B     		cmp	r3, #0
 1221 0140 9BD0     		beq	.L57
 359:../Libraries/ROSSerial/ros/node_handle.h ****           }
 1222              		.loc 5 359 0
 1223 0142 04F11800 		add	r0, r4, #24
 1224 0146 FFF7FEFF 		bl	_Z6led_cbPh
 1225              	.LVL133:
 1226 014a 96E7     		b	.L57
ARM GAS  /var/folders/l3/4y5292px21b4835bsnjwqc7w009kq1/T//ccOhtKWi.s 			page 40


 1227              	.LVL134:
 1228              	.L129:
 286:../Libraries/ROSSerial/ros/node_handle.h ****         {
 1229              		.loc 5 286 0
 1230 014c FE29     		cmp	r1, #254
 1231 014e 32D0     		beq	.L139
 292:../Libraries/ROSSerial/ros/node_handle.h ****           if (configured_ == false)
 1232              		.loc 5 292 0
 1233 0150 0023     		movs	r3, #0
 1234 0152 C4F84034 		str	r3, [r4, #1088]
 293:../Libraries/ROSSerial/ros/node_handle.h ****             requestSyncTime();  /* send a msg back showing our protocol version */
 1235              		.loc 5 293 0
 1236 0156 94F85434 		ldrb	r3, [r4, #1108]	@ zero_extendqisi2
 1237 015a 002B     		cmp	r3, #0
 1238 015c 8DD1     		bne	.L57
 1239              	.LVL135:
 1240              	.LBB258:
 1241              	.LBB259:
 1242              	.LBB260:
 1243              	.LBB261:
  14:../Libraries/ROSSerial/std_msgs/Time.h ****   {
 1244              		.loc 1 14 0
 1245 015e 6C4B     		ldr	r3, .L145+4
 1246 0160 0093     		str	r3, [sp]
 1247              	.LVL136:
 1248              	.LBB262:
 1249              	.LBB263:
 1250              	.LBB264:
 1251              		.file 7 "../Libraries/ROSSerial/ros/time.h"
   1:../Libraries/ROSSerial/ros/time.h **** /*
   2:../Libraries/ROSSerial/ros/time.h ****  * Software License Agreement (BSD License)
   3:../Libraries/ROSSerial/ros/time.h ****  *
   4:../Libraries/ROSSerial/ros/time.h ****  * Copyright (c) 2011, Willow Garage, Inc.
   5:../Libraries/ROSSerial/ros/time.h ****  * All rights reserved.
   6:../Libraries/ROSSerial/ros/time.h ****  *
   7:../Libraries/ROSSerial/ros/time.h ****  * Redistribution and use in source and binary forms, with or without
   8:../Libraries/ROSSerial/ros/time.h ****  * modification, are permitted provided that the following conditions
   9:../Libraries/ROSSerial/ros/time.h ****  * are met:
  10:../Libraries/ROSSerial/ros/time.h ****  *
  11:../Libraries/ROSSerial/ros/time.h ****  *  * Redistributions of source code must retain the above copyright
  12:../Libraries/ROSSerial/ros/time.h ****  *    notice, this list of conditions and the following disclaimer.
  13:../Libraries/ROSSerial/ros/time.h ****  *  * Redistributions in binary form must reproduce the above
  14:../Libraries/ROSSerial/ros/time.h ****  *    copyright notice, this list of conditions and the following
  15:../Libraries/ROSSerial/ros/time.h ****  *    disclaimer in the documentation and/or other materials provided
  16:../Libraries/ROSSerial/ros/time.h ****  *    with the distribution.
  17:../Libraries/ROSSerial/ros/time.h ****  *  * Neither the name of Willow Garage, Inc. nor the names of its
  18:../Libraries/ROSSerial/ros/time.h ****  *    contributors may be used to endorse or promote prducts derived
  19:../Libraries/ROSSerial/ros/time.h ****  *    from this software without specific prior written permission.
  20:../Libraries/ROSSerial/ros/time.h ****  *
  21:../Libraries/ROSSerial/ros/time.h ****  * THIS SOFTWARE IS PROVIDED BY THE COPYRIGHT HOLDERS AND CONTRIBUTORS
  22:../Libraries/ROSSerial/ros/time.h ****  * "AS IS" AND ANY EXPRESS OR IMPLIED WARRANTIES, INCLUDING, BUT NOT
  23:../Libraries/ROSSerial/ros/time.h ****  * LIMITED TO, THE IMPLIED WARRANTIES OF MERCHANTABILITY AND FITNESS
  24:../Libraries/ROSSerial/ros/time.h ****  * FOR A PARTICULAR PURPOSE ARE DISCLAIMED. IN NO EVENT SHALL THE
  25:../Libraries/ROSSerial/ros/time.h ****  * COPYRIGHT OWNER OR CONTRIBUTORS BE LIABLE FOR ANY DIRECT, INDIRECT,
  26:../Libraries/ROSSerial/ros/time.h ****  * INCIDENTAL, SPECIAL, EXEMPLARY, OR CONSEQUENTIAL DAMAGES (INCLUDING,
  27:../Libraries/ROSSerial/ros/time.h ****  * BUT NOT LIMITED TO, PROCUREMENT OF SUBSTITUTE GOODS OR SERVICES;
  28:../Libraries/ROSSerial/ros/time.h ****  * LOSS OF USE, DATA, OR PROFITS; OR BUSINESS INTERRUPTION) HOWEVER
ARM GAS  /var/folders/l3/4y5292px21b4835bsnjwqc7w009kq1/T//ccOhtKWi.s 			page 41


  29:../Libraries/ROSSerial/ros/time.h ****  * CAUSED AND ON ANY THEORY OF LIABILITY, WHETHER IN CONTRACT, STRICT
  30:../Libraries/ROSSerial/ros/time.h ****  * LIABILITY, OR TORT (INCLUDING NEGLIGENCE OR OTHERWISE) ARISING IN
  31:../Libraries/ROSSerial/ros/time.h ****  * ANY WAY OUT OF THE USE OF THIS SOFTWARE, EVEN IF ADVISED OF THE
  32:../Libraries/ROSSerial/ros/time.h ****  * POSSIBILITY OF SUCH DAMAGE.
  33:../Libraries/ROSSerial/ros/time.h ****  */
  34:../Libraries/ROSSerial/ros/time.h **** 
  35:../Libraries/ROSSerial/ros/time.h **** #ifndef ROS_TIME_H_
  36:../Libraries/ROSSerial/ros/time.h **** #define ROS_TIME_H_
  37:../Libraries/ROSSerial/ros/time.h **** 
  38:../Libraries/ROSSerial/ros/time.h **** #include "ros/duration.h"
  39:../Libraries/ROSSerial/ros/time.h **** #include <math.h>
  40:../Libraries/ROSSerial/ros/time.h **** #include <stdint.h>
  41:../Libraries/ROSSerial/ros/time.h **** 
  42:../Libraries/ROSSerial/ros/time.h **** namespace ros
  43:../Libraries/ROSSerial/ros/time.h **** {
  44:../Libraries/ROSSerial/ros/time.h **** void normalizeSecNSec(uint32_t &sec, uint32_t &nsec);
  45:../Libraries/ROSSerial/ros/time.h **** 
  46:../Libraries/ROSSerial/ros/time.h **** class Time
  47:../Libraries/ROSSerial/ros/time.h **** {
  48:../Libraries/ROSSerial/ros/time.h **** public:
  49:../Libraries/ROSSerial/ros/time.h ****   uint32_t sec, nsec;
  50:../Libraries/ROSSerial/ros/time.h **** 
  51:../Libraries/ROSSerial/ros/time.h ****   Time() : sec(0), nsec(0) {}
 1252              		.loc 7 51 0
 1253 0162 0026     		movs	r6, #0
 1254 0164 0196     		str	r6, [sp, #4]
 1255 0166 0296     		str	r6, [sp, #8]
 1256              	.LVL137:
 1257              	.LBE264:
 1258              	.LBE263:
 1259              	.LBE262:
 1260              	.LBE261:
 1261              	.LBE260:
 1262              	.LBB265:
 1263              	.LBB266:
 539:../Libraries/ROSSerial/ros/node_handle.h **** 
 1264              		.loc 5 539 0
 1265 0168 1B68     		ldr	r3, [r3]
 1266 016a 04F21F21 		addw	r1, r4, #543
 1267              	.LVL138:
 1268 016e 6846     		mov	r0, sp
 1269 0170 9847     		blx	r3
 1270              	.LVL139:
 542:../Libraries/ROSSerial/ros/node_handle.h ****     message_out[1] = PROTOCOL_VER;
 1271              		.loc 5 542 0
 1272 0172 FF23     		movs	r3, #255
 1273 0174 84F81832 		strb	r3, [r4, #536]
 543:../Libraries/ROSSerial/ros/node_handle.h ****     message_out[2] = (uint8_t)((uint16_t)l & 255);
 1274              		.loc 5 543 0
 1275 0178 FE23     		movs	r3, #254
 1276 017a 84F81932 		strb	r3, [r4, #537]
 544:../Libraries/ROSSerial/ros/node_handle.h ****     message_out[3] = (uint8_t)((uint16_t)l >> 8);
 1277              		.loc 5 544 0
 1278 017e C3B2     		uxtb	r3, r0
 1279 0180 84F81A32 		strb	r3, [r4, #538]
 545:../Libraries/ROSSerial/ros/node_handle.h ****     message_out[4] = 255 - ((message_out[2] + message_out[3]) % 256);
 1280              		.loc 5 545 0
ARM GAS  /var/folders/l3/4y5292px21b4835bsnjwqc7w009kq1/T//ccOhtKWi.s 			page 42


 1281 0184 C0F30722 		ubfx	r2, r0, #8, #8
 1282 0188 84F81B22 		strb	r2, [r4, #539]
 546:../Libraries/ROSSerial/ros/node_handle.h ****     message_out[5] = (uint8_t)((int16_t)id & 255);
 1283              		.loc 5 546 0
 1284 018c 1344     		add	r3, r3, r2
 1285 018e DBB2     		uxtb	r3, r3
 1286 0190 DB43     		mvns	r3, r3
 1287 0192 84F81C32 		strb	r3, [r4, #540]
 547:../Libraries/ROSSerial/ros/node_handle.h ****     message_out[6] = (uint8_t)((int16_t)id >> 8);
 1288              		.loc 5 547 0
 1289 0196 0A23     		movs	r3, #10
 1290 0198 84F81D32 		strb	r3, [r4, #541]
 548:../Libraries/ROSSerial/ros/node_handle.h **** 
 1291              		.loc 5 548 0
 1292 019c 84F81E62 		strb	r6, [r4, #542]
 1293              	.LVL140:
 1294              	.LBB267:
 552:../Libraries/ROSSerial/ros/node_handle.h ****       chk += message_out[i];
 1295              		.loc 5 552 0
 1296 01a0 0522     		movs	r2, #5
 1297              	.LBE267:
 551:../Libraries/ROSSerial/ros/node_handle.h ****     for (int i = 5; i < l + 7; i++)
 1298              		.loc 5 551 0
 1299 01a2 3346     		mov	r3, r6
 1300              	.LVL141:
 1301              	.L69:
 1302              	.LBB268:
 552:../Libraries/ROSSerial/ros/node_handle.h ****       chk += message_out[i];
 1303              		.loc 5 552 0
 1304 01a4 C11D     		adds	r1, r0, #7
 1305 01a6 9142     		cmp	r1, r2
 1306 01a8 09DD     		ble	.L68
 553:../Libraries/ROSSerial/ros/node_handle.h ****     l += 7;
 1307              		.loc 5 553 0
 1308 01aa A118     		adds	r1, r4, r2
 1309 01ac 91F81812 		ldrb	r1, [r1, #536]	@ zero_extendqisi2
 1310 01b0 0B44     		add	r3, r3, r1
 1311              	.LVL142:
 552:../Libraries/ROSSerial/ros/node_handle.h ****       chk += message_out[i];
 1312              		.loc 5 552 0
 1313 01b2 0132     		adds	r2, r2, #1
 1314              	.LVL143:
 1315 01b4 F6E7     		b	.L69
 1316              	.LVL144:
 1317              	.L139:
 1318              	.LBE268:
 1319              	.LBE266:
 1320              	.LBE265:
 1321              	.LBE259:
 1322              	.LBE258:
 288:../Libraries/ROSSerial/ros/node_handle.h ****         }
 1323              		.loc 5 288 0
 1324 01b6 0133     		adds	r3, r3, #1
 1325 01b8 C4F84034 		str	r3, [r4, #1088]
 1326 01bc 5DE7     		b	.L57
 1327              	.LVL145:
 1328              	.L68:
ARM GAS  /var/folders/l3/4y5292px21b4835bsnjwqc7w009kq1/T//ccOhtKWi.s 			page 43


 1329              	.LBB293:
 1330              	.LBB292:
 1331              	.LBB288:
 1332              	.LBB286:
 555:../Libraries/ROSSerial/ros/node_handle.h ****     //printf("Sending message - %s\n",message_out);
 1333              		.loc 5 555 0
 1334 01be 5A42     		rsbs	r2, r3, #0
 1335              	.LVL146:
 1336 01c0 DBB2     		uxtb	r3, r3
 1337              	.LVL147:
 1338 01c2 D2B2     		uxtb	r2, r2
 1339 01c4 58BF     		it	pl
 1340 01c6 5342     		rsbpl	r3, r2, #0
 1341 01c8 00F10802 		add	r2, r0, #8
 1342              	.LVL148:
 1343 01cc DB43     		mvns	r3, r3
 1344 01ce 2144     		add	r1, r1, r4
 1345 01d0 81F81832 		strb	r3, [r1, #536]
 557:../Libraries/ROSSerial/ros/node_handle.h ****     {
 1346              		.loc 5 557 0
 1347 01d4 B2F5007F 		cmp	r2, #512
 1348 01d8 09DC     		bgt	.L70
 1349              	.LVL149:
 1350              	.LBB269:
 1351              	.LBB270:
  87:../Libraries/ROSSerial/stm32hardware.h **** 	}
 1352              		.loc 6 87 0
 1353 01da 92B2     		uxth	r2, r2
 1354              	.LVL150:
 1355 01dc 04F50671 		add	r1, r4, #536
 1356              	.LVL151:
 1357 01e0 0020     		movs	r0, #0
 1358              	.LVL152:
 1359 01e2 FFF7FEFF 		bl	comSendBuf
 1360              	.LVL153:
 1361              	.L71:
 1362              	.LBE270:
 1363              	.LBE269:
 1364              	.LBE286:
 1365              	.LBE288:
 1366              	.LBB289:
 1367              	.LBB290:
 1368              		.loc 6 99 0
 1369 01e6 FFF7FEFF 		bl	xTaskGetTickCount
 1370              	.LVL154:
 1371              	.LBE290:
 1372              	.LBE289:
 390:../Libraries/ROSSerial/ros/node_handle.h ****   }
 1373              		.loc 5 390 0
 1374 01ea A060     		str	r0, [r4, #8]
 1375 01ec 45E7     		b	.L57
 1376              	.LVL155:
 1377              	.L70:
 1378              	.LBB291:
 1379              	.LBB287:
 1380              	.LBB271:
 1381              	.LBB272:
ARM GAS  /var/folders/l3/4y5292px21b4835bsnjwqc7w009kq1/T//ccOhtKWi.s 			page 44


 1382              	.LBB273:
 1383              	.LBB274:
 1384              	.LBB275:
  13:../Libraries/ROSSerial/rosserial_msgs/Log.h ****   {
 1385              		.loc 3 13 0
 1386 01ee 494B     		ldr	r3, .L145+8
 1387 01f0 0393     		str	r3, [sp, #12]
 1388              	.LVL156:
 1389              	.LBE275:
 1390              	.LBE274:
 577:../Libraries/ROSSerial/ros/node_handle.h ****     l.msg = (char*)msg;
 1391              		.loc 5 577 0
 1392 01f2 0322     		movs	r2, #3
 1393              	.LVL157:
 1394 01f4 8DF81020 		strb	r2, [sp, #16]
 578:../Libraries/ROSSerial/ros/node_handle.h ****     publish1(rosserial_msgs::TopicInfo::ID_LOG, &l);
 1395              		.loc 5 578 0
 1396 01f8 474A     		ldr	r2, .L145+12
 1397 01fa 0592     		str	r2, [sp, #20]
 1398              	.LVL158:
 1399              	.LBB276:
 1400              	.LBB277:
 539:../Libraries/ROSSerial/ros/node_handle.h **** 
 1401              		.loc 5 539 0
 1402 01fc 1B68     		ldr	r3, [r3]
 1403 01fe 04F21F21 		addw	r1, r4, #543
 1404 0202 03A8     		add	r0, sp, #12
 1405              	.LVL159:
 1406 0204 9847     		blx	r3
 1407              	.LVL160:
 542:../Libraries/ROSSerial/ros/node_handle.h ****     message_out[1] = PROTOCOL_VER;
 1408              		.loc 5 542 0
 1409 0206 FF23     		movs	r3, #255
 1410 0208 84F81832 		strb	r3, [r4, #536]
 543:../Libraries/ROSSerial/ros/node_handle.h ****     message_out[2] = (uint8_t)((uint16_t)l & 255);
 1411              		.loc 5 543 0
 1412 020c FE23     		movs	r3, #254
 1413 020e 84F81932 		strb	r3, [r4, #537]
 544:../Libraries/ROSSerial/ros/node_handle.h ****     message_out[3] = (uint8_t)((uint16_t)l >> 8);
 1414              		.loc 5 544 0
 1415 0212 C3B2     		uxtb	r3, r0
 1416 0214 84F81A32 		strb	r3, [r4, #538]
 545:../Libraries/ROSSerial/ros/node_handle.h ****     message_out[4] = 255 - ((message_out[2] + message_out[3]) % 256);
 1417              		.loc 5 545 0
 1418 0218 C0F30722 		ubfx	r2, r0, #8, #8
 1419 021c 84F81B22 		strb	r2, [r4, #539]
 546:../Libraries/ROSSerial/ros/node_handle.h ****     message_out[5] = (uint8_t)((int16_t)id & 255);
 1420              		.loc 5 546 0
 1421 0220 1344     		add	r3, r3, r2
 1422 0222 DBB2     		uxtb	r3, r3
 1423 0224 DB43     		mvns	r3, r3
 1424 0226 84F81C32 		strb	r3, [r4, #540]
 547:../Libraries/ROSSerial/ros/node_handle.h ****     message_out[6] = (uint8_t)((int16_t)id >> 8);
 1425              		.loc 5 547 0
 1426 022a 0723     		movs	r3, #7
 1427 022c 84F81D32 		strb	r3, [r4, #541]
 548:../Libraries/ROSSerial/ros/node_handle.h **** 
ARM GAS  /var/folders/l3/4y5292px21b4835bsnjwqc7w009kq1/T//ccOhtKWi.s 			page 45


 1428              		.loc 5 548 0
 1429 0230 0023     		movs	r3, #0
 1430 0232 84F81E32 		strb	r3, [r4, #542]
 1431              	.LVL161:
 1432              	.LBB278:
 552:../Libraries/ROSSerial/ros/node_handle.h ****       chk += message_out[i];
 1433              		.loc 5 552 0
 1434 0236 0522     		movs	r2, #5
 1435              	.LVL162:
 1436              	.L73:
 1437 0238 C11D     		adds	r1, r0, #7
 1438 023a 9142     		cmp	r1, r2
 1439 023c 05DD     		ble	.L72
 553:../Libraries/ROSSerial/ros/node_handle.h ****     l += 7;
 1440              		.loc 5 553 0
 1441 023e A118     		adds	r1, r4, r2
 1442 0240 91F81812 		ldrb	r1, [r1, #536]	@ zero_extendqisi2
 1443 0244 0B44     		add	r3, r3, r1
 1444              	.LVL163:
 552:../Libraries/ROSSerial/ros/node_handle.h ****       chk += message_out[i];
 1445              		.loc 5 552 0
 1446 0246 0132     		adds	r2, r2, #1
 1447              	.LVL164:
 1448 0248 F6E7     		b	.L73
 1449              	.L72:
 1450              	.LVL165:
 1451              	.LBE278:
 555:../Libraries/ROSSerial/ros/node_handle.h ****     //printf("Sending message - %s\n",message_out);
 1452              		.loc 5 555 0
 1453 024a 5A42     		rsbs	r2, r3, #0
 1454              	.LVL166:
 1455 024c DBB2     		uxtb	r3, r3
 1456              	.LVL167:
 1457 024e D2B2     		uxtb	r2, r2
 1458 0250 58BF     		it	pl
 1459 0252 5342     		rsbpl	r3, r2, #0
 1460 0254 00F10802 		add	r2, r0, #8
 1461              	.LVL168:
 1462 0258 DB43     		mvns	r3, r3
 1463 025a 2144     		add	r1, r1, r4
 1464 025c 81F81832 		strb	r3, [r1, #536]
 557:../Libraries/ROSSerial/ros/node_handle.h ****     {
 1465              		.loc 5 557 0
 1466 0260 B2F5007F 		cmp	r2, #512
 1467 0264 06DC     		bgt	.L74
 1468              	.LVL169:
 1469              	.LBB279:
 1470              	.LBB280:
  87:../Libraries/ROSSerial/stm32hardware.h **** 	}
 1471              		.loc 6 87 0
 1472 0266 92B2     		uxth	r2, r2
 1473              	.LVL170:
 1474 0268 04F50671 		add	r1, r4, #536
 1475              	.LVL171:
 1476 026c 0020     		movs	r0, #0
 1477              	.LVL172:
 1478 026e FFF7FEFF 		bl	comSendBuf
ARM GAS  /var/folders/l3/4y5292px21b4835bsnjwqc7w009kq1/T//ccOhtKWi.s 			page 46


 1479              	.LVL173:
 1480 0272 B8E7     		b	.L71
 1481              	.LVL174:
 1482              	.L74:
 1483              	.LBE280:
 1484              	.LBE279:
 1485              	.LBB281:
 1486              	.LBB282:
 1487              	.LBB283:
 1488              	.LBB284:
 1489              	.LBB285:
  13:../Libraries/ROSSerial/rosserial_msgs/Log.h ****   {
 1490              		.loc 3 13 0
 1491 0274 274B     		ldr	r3, .L145+8
 1492 0276 0693     		str	r3, [sp, #24]
 1493              	.LVL175:
 1494              	.LBE285:
 1495              	.LBE284:
 577:../Libraries/ROSSerial/ros/node_handle.h ****     l.msg = (char*)msg;
 1496              		.loc 5 577 0
 1497 0278 0323     		movs	r3, #3
 1498 027a 8DF81C30 		strb	r3, [sp, #28]
 578:../Libraries/ROSSerial/ros/node_handle.h ****     publish1(rosserial_msgs::TopicInfo::ID_LOG, &l);
 1499              		.loc 5 578 0
 1500 027e 264B     		ldr	r3, .L145+12
 1501 0280 0893     		str	r3, [sp, #32]
 1502              		.loc 5 579 0
 1503 0282 06AA     		add	r2, sp, #24
 1504              	.LVL176:
 1505 0284 0721     		movs	r1, #7
 1506 0286 2046     		mov	r0, r4
 1507              	.LVL177:
 1508 0288 FFF7FEFF 		bl	_ZN3ros11NodeHandle_I13STM32HardwareLi5ELi5ELi512ELi512EE8publish1EiPKNS_3MsgE
 1509              	.LVL178:
 1510 028c ABE7     		b	.L71
 1511              	.LVL179:
 1512              	.L130:
 1513              	.LBE283:
 1514              	.LBE282:
 1515              	.LBE281:
 1516              	.LBE277:
 1517              	.LBE276:
 1518              	.LBE273:
 1519              	.LBE272:
 1520              	.LBE271:
 1521              	.LBE287:
 1522              	.LBE291:
 1523              	.LBE292:
 1524              	.LBE293:
 299:../Libraries/ROSSerial/ros/node_handle.h ****         index_ = 0;
 1525              		.loc 5 299 0
 1526 028e C4F84414 		str	r1, [r4, #1092]
 300:../Libraries/ROSSerial/ros/node_handle.h ****         mode_++;
 1527              		.loc 5 300 0
 1528 0292 0022     		movs	r2, #0
 1529 0294 C4F84C24 		str	r2, [r4, #1100]
 301:../Libraries/ROSSerial/ros/node_handle.h ****         checksum_ = data;               /* first byte for calculating size checksum */
ARM GAS  /var/folders/l3/4y5292px21b4835bsnjwqc7w009kq1/T//ccOhtKWi.s 			page 47


 1530              		.loc 5 301 0
 1531 0298 0133     		adds	r3, r3, #1
 1532 029a C4F84034 		str	r3, [r4, #1088]
 302:../Libraries/ROSSerial/ros/node_handle.h ****       }
 1533              		.loc 5 302 0
 1534 029e C4F85014 		str	r1, [r4, #1104]
 1535 02a2 EAE6     		b	.L57
 1536              	.L131:
 306:../Libraries/ROSSerial/ros/node_handle.h ****         mode_++;
 1537              		.loc 5 306 0
 1538 02a4 D4F84424 		ldr	r2, [r4, #1092]
 1539 02a8 02EB0121 		add	r1, r2, r1, lsl #8
 1540              	.LVL180:
 1541 02ac C4F84414 		str	r1, [r4, #1092]
 307:../Libraries/ROSSerial/ros/node_handle.h ****       }
 1542              		.loc 5 307 0
 1543 02b0 0133     		adds	r3, r3, #1
 1544 02b2 C4F84034 		str	r3, [r4, #1088]
 1545 02b6 E0E6     		b	.L57
 1546              	.LVL181:
 1547              	.L132:
 311:../Libraries/ROSSerial/ros/node_handle.h ****           mode_++;
 1548              		.loc 5 311 0
 1549 02b8 5142     		rsbs	r1, r2, #0
 1550              	.LVL182:
 1551 02ba D2B2     		uxtb	r2, r2
 1552 02bc C9B2     		uxtb	r1, r1
 1553 02be 58BF     		it	pl
 1554 02c0 4A42     		rsbpl	r2, r1, #0
 1555 02c2 FF2A     		cmp	r2, #255
 1556 02c4 03D0     		beq	.L140
 314:../Libraries/ROSSerial/ros/node_handle.h ****       }
 1557              		.loc 5 314 0
 1558 02c6 0023     		movs	r3, #0
 1559 02c8 C4F84034 		str	r3, [r4, #1088]
 1560 02cc D5E6     		b	.L57
 1561              	.L140:
 312:../Libraries/ROSSerial/ros/node_handle.h ****         else
 1562              		.loc 5 312 0
 1563 02ce 0133     		adds	r3, r3, #1
 1564 02d0 C4F84034 		str	r3, [r4, #1088]
 1565 02d4 D1E6     		b	.L57
 1566              	.LVL183:
 1567              	.L133:
 318:../Libraries/ROSSerial/ros/node_handle.h ****         mode_++;
 1568              		.loc 5 318 0
 1569 02d6 C4F84814 		str	r1, [r4, #1096]
 319:../Libraries/ROSSerial/ros/node_handle.h ****         checksum_ = data;               /* first byte included in checksum */
 1570              		.loc 5 319 0
 1571 02da 0133     		adds	r3, r3, #1
 1572 02dc C4F84034 		str	r3, [r4, #1088]
 320:../Libraries/ROSSerial/ros/node_handle.h ****       }
 1573              		.loc 5 320 0
 1574 02e0 C4F85014 		str	r1, [r4, #1104]
 1575 02e4 C9E6     		b	.L57
 1576              	.L134:
 324:../Libraries/ROSSerial/ros/node_handle.h ****         mode_ = MODE_MESSAGE;
ARM GAS  /var/folders/l3/4y5292px21b4835bsnjwqc7w009kq1/T//ccOhtKWi.s 			page 48


 1577              		.loc 5 324 0
 1578 02e6 D4F84834 		ldr	r3, [r4, #1096]
 1579 02ea 03EB0123 		add	r3, r3, r1, lsl #8
 1580 02ee C4F84834 		str	r3, [r4, #1096]
 325:../Libraries/ROSSerial/ros/node_handle.h ****         if (bytes_ == 0)
 1581              		.loc 5 325 0
 1582 02f2 0723     		movs	r3, #7
 1583 02f4 C4F84034 		str	r3, [r4, #1088]
 326:../Libraries/ROSSerial/ros/node_handle.h ****           mode_ = MODE_MSG_CHECKSUM;
 1584              		.loc 5 326 0
 1585 02f8 D4F84434 		ldr	r3, [r4, #1092]
 1586 02fc 002B     		cmp	r3, #0
 1587 02fe 7FF4BCAE 		bne	.L57
 327:../Libraries/ROSSerial/ros/node_handle.h ****       }
 1588              		.loc 5 327 0
 1589 0302 0823     		movs	r3, #8
 1590 0304 C4F84034 		str	r3, [r4, #1088]
 1591 0308 B7E6     		b	.L57
 1592              	.L146:
 1593 030a 00BF     		.align	2
 1594              	.L145:
 1595 030c 00000000 		.word	.LANCHOR0
 1596 0310 08000000 		.word	_ZTVN8std_msgs4TimeE+8
 1597 0314 08000000 		.word	_ZTVN14rosserial_msgs3LogE+8
 1598 0318 00000000 		.word	.LC9
 1599              	.L135:
 1600              	.LVL184:
 1601              	.LBB294:
 1602              	.LBB295:
 1603              	.LBB296:
 1604              	.LBB297:
  14:../Libraries/ROSSerial/std_msgs/Time.h ****   {
 1605              		.loc 1 14 0
 1606 031c BD4B     		ldr	r3, .L147
 1607 031e 0393     		str	r3, [sp, #12]
 1608              	.LVL185:
 1609              	.LBB298:
 1610              	.LBB299:
 1611              	.LBB300:
 1612              		.loc 7 51 0
 1613 0320 0027     		movs	r7, #0
 1614 0322 0497     		str	r7, [sp, #16]
 1615 0324 0597     		str	r7, [sp, #20]
 1616              	.LVL186:
 1617              	.LBE300:
 1618              	.LBE299:
 1619              	.LBE298:
 1620              	.LBE297:
 1621              	.LBE296:
 1622              	.LBB301:
 1623              	.LBB302:
 539:../Libraries/ROSSerial/ros/node_handle.h **** 
 1624              		.loc 5 539 0
 1625 0326 1B68     		ldr	r3, [r3]
 1626 0328 04F21F21 		addw	r1, r4, #543
 1627              	.LVL187:
 1628 032c 03A8     		add	r0, sp, #12
ARM GAS  /var/folders/l3/4y5292px21b4835bsnjwqc7w009kq1/T//ccOhtKWi.s 			page 49


 1629              	.LVL188:
 1630 032e 9847     		blx	r3
 1631              	.LVL189:
 542:../Libraries/ROSSerial/ros/node_handle.h ****     message_out[1] = PROTOCOL_VER;
 1632              		.loc 5 542 0
 1633 0330 FF23     		movs	r3, #255
 1634 0332 84F81832 		strb	r3, [r4, #536]
 543:../Libraries/ROSSerial/ros/node_handle.h ****     message_out[2] = (uint8_t)((uint16_t)l & 255);
 1635              		.loc 5 543 0
 1636 0336 FE23     		movs	r3, #254
 1637 0338 84F81932 		strb	r3, [r4, #537]
 544:../Libraries/ROSSerial/ros/node_handle.h ****     message_out[3] = (uint8_t)((uint16_t)l >> 8);
 1638              		.loc 5 544 0
 1639 033c C3B2     		uxtb	r3, r0
 1640 033e 84F81A32 		strb	r3, [r4, #538]
 545:../Libraries/ROSSerial/ros/node_handle.h ****     message_out[4] = 255 - ((message_out[2] + message_out[3]) % 256);
 1641              		.loc 5 545 0
 1642 0342 C0F30722 		ubfx	r2, r0, #8, #8
 1643 0346 84F81B22 		strb	r2, [r4, #539]
 546:../Libraries/ROSSerial/ros/node_handle.h ****     message_out[5] = (uint8_t)((int16_t)id & 255);
 1644              		.loc 5 546 0
 1645 034a 1344     		add	r3, r3, r2
 1646 034c DBB2     		uxtb	r3, r3
 1647 034e DB43     		mvns	r3, r3
 1648 0350 84F81C32 		strb	r3, [r4, #540]
 547:../Libraries/ROSSerial/ros/node_handle.h ****     message_out[6] = (uint8_t)((int16_t)id >> 8);
 1649              		.loc 5 547 0
 1650 0354 0A23     		movs	r3, #10
 1651 0356 84F81D32 		strb	r3, [r4, #541]
 548:../Libraries/ROSSerial/ros/node_handle.h **** 
 1652              		.loc 5 548 0
 1653 035a 84F81E72 		strb	r7, [r4, #542]
 1654              	.LVL190:
 551:../Libraries/ROSSerial/ros/node_handle.h ****     for (int i = 5; i < l + 7; i++)
 1655              		.loc 5 551 0
 1656 035e 3346     		mov	r3, r6
 1657              	.LBB303:
 552:../Libraries/ROSSerial/ros/node_handle.h ****       chk += message_out[i];
 1658              		.loc 5 552 0
 1659 0360 0527     		movs	r7, #5
 1660              	.LVL191:
 1661              	.L84:
 1662 0362 C11D     		adds	r1, r0, #7
 1663 0364 B942     		cmp	r1, r7
 1664 0366 05DD     		ble	.L83
 553:../Libraries/ROSSerial/ros/node_handle.h ****     l += 7;
 1665              		.loc 5 553 0
 1666 0368 E219     		adds	r2, r4, r7
 1667 036a 92F81822 		ldrb	r2, [r2, #536]	@ zero_extendqisi2
 1668 036e 1344     		add	r3, r3, r2
 1669              	.LVL192:
 552:../Libraries/ROSSerial/ros/node_handle.h ****       chk += message_out[i];
 1670              		.loc 5 552 0
 1671 0370 0137     		adds	r7, r7, #1
 1672              	.LVL193:
 1673 0372 F6E7     		b	.L84
 1674              	.L83:
ARM GAS  /var/folders/l3/4y5292px21b4835bsnjwqc7w009kq1/T//ccOhtKWi.s 			page 50


 1675              	.LVL194:
 1676              	.LBE303:
 555:../Libraries/ROSSerial/ros/node_handle.h ****     //printf("Sending message - %s\n",message_out);
 1677              		.loc 5 555 0
 1678 0374 5A42     		rsbs	r2, r3, #0
 1679 0376 DBB2     		uxtb	r3, r3
 1680              	.LVL195:
 1681 0378 D2B2     		uxtb	r2, r2
 1682 037a 58BF     		it	pl
 1683 037c 5342     		rsbpl	r3, r2, #0
 1684 037e 00F10802 		add	r2, r0, #8
 1685              	.LVL196:
 1686 0382 DB43     		mvns	r3, r3
 1687 0384 2144     		add	r1, r1, r4
 1688 0386 81F81832 		strb	r3, [r1, #536]
 557:../Libraries/ROSSerial/ros/node_handle.h ****     {
 1689              		.loc 5 557 0
 1690 038a B2F5007F 		cmp	r2, #512
 1691 038e 0CDC     		bgt	.L85
 1692              	.LVL197:
 1693              	.LBB304:
 1694              	.LBB305:
  87:../Libraries/ROSSerial/stm32hardware.h **** 	}
 1695              		.loc 6 87 0
 1696 0390 92B2     		uxth	r2, r2
 1697              	.LVL198:
 1698 0392 04F50671 		add	r1, r4, #536
 1699              	.LVL199:
 1700 0396 0020     		movs	r0, #0
 1701              	.LVL200:
 1702 0398 FFF7FEFF 		bl	comSendBuf
 1703              	.LVL201:
 1704              	.L86:
 1705              	.LBE305:
 1706              	.LBE304:
 1707              	.LBE302:
 1708              	.LBE301:
 1709              	.LBB312:
 1710              	.LBB313:
 1711              		.loc 6 99 0
 1712 039c FFF7FEFF 		bl	xTaskGetTickCount
 1713              	.LVL202:
 1714              	.LBE313:
 1715              	.LBE312:
 390:../Libraries/ROSSerial/ros/node_handle.h ****   }
 1716              		.loc 5 390 0
 1717 03a0 A060     		str	r0, [r4, #8]
 1718              	.LVL203:
 1719              	.LBE295:
 1720              	.LBE294:
 1721              	.LBB316:
 1722              	.LBB317:
 1723              	.LBB318:
 1724              	.LBB319:
  12:../Libraries/ROSSerial/rosserial_msgs/TopicInfo.h ****   {
 1725              		.loc 2 12 0
 1726 03a2 9D4B     		ldr	r3, .L147+4
ARM GAS  /var/folders/l3/4y5292px21b4835bsnjwqc7w009kq1/T//ccOhtKWi.s 			page 51


 1727 03a4 0693     		str	r3, [sp, #24]
 1728              	.LVL204:
 1729              	.LBE319:
 1730              	.LBE318:
 499:../Libraries/ROSSerial/ros/node_handle.h ****     {
 1731              		.loc 5 499 0
 1732 03a6 3746     		mov	r7, r6
 1733 03a8 21E0     		b	.L94
 1734              	.LVL205:
 1735              	.L85:
 1736              	.LBE317:
 1737              	.LBE316:
 1738              	.LBB347:
 1739              	.LBB315:
 1740              	.LBB314:
 1741              	.LBB311:
 1742              	.LBB306:
 1743              	.LBB307:
 1744              	.LBB308:
 1745              	.LBB309:
 1746              	.LBB310:
  13:../Libraries/ROSSerial/rosserial_msgs/Log.h ****   {
 1747              		.loc 3 13 0
 1748 03aa 9C4B     		ldr	r3, .L147+8
 1749 03ac 0693     		str	r3, [sp, #24]
 1750              	.LVL206:
 1751              	.LBE310:
 1752              	.LBE309:
 577:../Libraries/ROSSerial/ros/node_handle.h ****     l.msg = (char*)msg;
 1753              		.loc 5 577 0
 1754 03ae 0323     		movs	r3, #3
 1755 03b0 8DF81C30 		strb	r3, [sp, #28]
 578:../Libraries/ROSSerial/ros/node_handle.h ****     publish1(rosserial_msgs::TopicInfo::ID_LOG, &l);
 1756              		.loc 5 578 0
 1757 03b4 9A4B     		ldr	r3, .L147+12
 1758 03b6 0893     		str	r3, [sp, #32]
 1759              		.loc 5 579 0
 1760 03b8 06AA     		add	r2, sp, #24
 1761              	.LVL207:
 1762 03ba 0721     		movs	r1, #7
 1763 03bc 2046     		mov	r0, r4
 1764              	.LVL208:
 1765 03be FFF7FEFF 		bl	_ZN3ros11NodeHandle_I13STM32HardwareLi5ELi5ELi512ELi512EE8publish1EiPKNS_3MsgE
 1766              	.LVL209:
 1767 03c2 EBE7     		b	.L86
 1768              	.LVL210:
 1769              	.L91:
 1770              	.LBE308:
 1771              	.LBE307:
 1772              	.LBE306:
 1773              	.LBE311:
 1774              	.LBE314:
 1775              	.LBE315:
 1776              	.LBE347:
 1777              	.LBB348:
 1778              	.LBB346:
 1779              	.LBB320:
ARM GAS  /var/folders/l3/4y5292px21b4835bsnjwqc7w009kq1/T//ccOhtKWi.s 			page 52


 1780              	.LBB321:
 555:../Libraries/ROSSerial/ros/node_handle.h ****     //printf("Sending message - %s\n",message_out);
 1781              		.loc 5 555 0
 1782 03c4 5A42     		rsbs	r2, r3, #0
 1783              	.LVL211:
 1784 03c6 DBB2     		uxtb	r3, r3
 1785              	.LVL212:
 1786 03c8 D2B2     		uxtb	r2, r2
 1787 03ca 58BF     		it	pl
 1788 03cc 5342     		rsbpl	r3, r2, #0
 1789 03ce 00F10802 		add	r2, r0, #8
 1790              	.LVL213:
 1791 03d2 DB43     		mvns	r3, r3
 1792 03d4 2144     		add	r1, r1, r4
 1793 03d6 81F81832 		strb	r3, [r1, #536]
 557:../Libraries/ROSSerial/ros/node_handle.h ****     {
 1794              		.loc 5 557 0
 1795 03da B2F5007F 		cmp	r2, #512
 1796 03de 58DC     		bgt	.L93
 1797              	.LVL214:
 1798              	.LBB322:
 1799              	.LBB323:
  87:../Libraries/ROSSerial/stm32hardware.h **** 	}
 1800              		.loc 6 87 0
 1801 03e0 92B2     		uxth	r2, r2
 1802              	.LVL215:
 1803 03e2 04F50671 		add	r1, r4, #536
 1804              	.LVL216:
 1805 03e6 0020     		movs	r0, #0
 1806              	.LVL217:
 1807 03e8 FFF7FEFF 		bl	comSendBuf
 1808              	.LVL218:
 1809              	.L88:
 1810              	.LBE323:
 1811              	.LBE322:
 1812              	.LBE321:
 1813              	.LBE320:
 499:../Libraries/ROSSerial/ros/node_handle.h ****     {
 1814              		.loc 5 499 0
 1815 03ec 0137     		adds	r7, r7, #1
 1816              	.LVL219:
 1817              	.L94:
 1818 03ee 042F     		cmp	r7, #4
 1819 03f0 5CDC     		bgt	.L124
 501:../Libraries/ROSSerial/ros/node_handle.h ****       {
 1820              		.loc 5 501 0
 1821 03f2 07F58373 		add	r3, r7, #262
 1822 03f6 54F82330 		ldr	r3, [r4, r3, lsl #2]
 1823 03fa 002B     		cmp	r3, #0
 1824 03fc F6D0     		beq	.L88
 503:../Libraries/ROSSerial/ros/node_handle.h ****         ti.topic_name = (char *) publishers[i]->topic_;
 1825              		.loc 5 503 0
 1826 03fe 9A68     		ldr	r2, [r3, #8]
 1827 0400 ADF81C20 		strh	r2, [sp, #28]	@ movhi
 504:../Libraries/ROSSerial/ros/node_handle.h ****         ti.message_type = (char *) publishers[i]->msg_->getType();
 1828              		.loc 5 504 0
 1829 0404 1A68     		ldr	r2, [r3]
ARM GAS  /var/folders/l3/4y5292px21b4835bsnjwqc7w009kq1/T//ccOhtKWi.s 			page 53


 1830 0406 0892     		str	r2, [sp, #32]
 505:../Libraries/ROSSerial/ros/node_handle.h ****         ti.md5sum = (char *) publishers[i]->msg_->getMD5();
 1831              		.loc 5 505 0
 1832 0408 5868     		ldr	r0, [r3, #4]
 1833 040a 0368     		ldr	r3, [r0]
 1834 040c 9B68     		ldr	r3, [r3, #8]
 1835 040e 9847     		blx	r3
 1836              	.LVL220:
 1837 0410 0990     		str	r0, [sp, #36]
 506:../Libraries/ROSSerial/ros/node_handle.h ****         ti.buffer_size = OUTPUT_SIZE;
 1838              		.loc 5 506 0
 1839 0412 07F58378 		add	r8, r7, #262
 1840 0416 54F82830 		ldr	r3, [r4, r8, lsl #2]
 1841 041a 5868     		ldr	r0, [r3, #4]
 1842 041c 0368     		ldr	r3, [r0]
 1843 041e DB68     		ldr	r3, [r3, #12]
 1844 0420 9847     		blx	r3
 1845              	.LVL221:
 1846 0422 0A90     		str	r0, [sp, #40]
 507:../Libraries/ROSSerial/ros/node_handle.h ****         publish1(publishers[i]->getEndpointType(), &ti);
 1847              		.loc 5 507 0
 1848 0424 4FF40073 		mov	r3, #512
 1849 0428 0B93     		str	r3, [sp, #44]
 508:../Libraries/ROSSerial/ros/node_handle.h ****       }
 1850              		.loc 5 508 0
 1851 042a 54F82830 		ldr	r3, [r4, r8, lsl #2]
 1852              	.LVL222:
 1853              	.LBB331:
 1854              	.LBB332:
 1855              		.file 8 "../Libraries/ROSSerial/ros/publisher.h"
   1:../Libraries/ROSSerial/ros/publisher.h **** /*
   2:../Libraries/ROSSerial/ros/publisher.h ****  * Software License Agreement (BSD License)
   3:../Libraries/ROSSerial/ros/publisher.h ****  *
   4:../Libraries/ROSSerial/ros/publisher.h ****  * Copyright (c) 2011, Willow Garage, Inc.
   5:../Libraries/ROSSerial/ros/publisher.h ****  * All rights reserved.
   6:../Libraries/ROSSerial/ros/publisher.h ****  *
   7:../Libraries/ROSSerial/ros/publisher.h ****  * Redistribution and use in source and binary forms, with or without
   8:../Libraries/ROSSerial/ros/publisher.h ****  * modification, are permitted provided that the following conditions
   9:../Libraries/ROSSerial/ros/publisher.h ****  * are met:
  10:../Libraries/ROSSerial/ros/publisher.h ****  *
  11:../Libraries/ROSSerial/ros/publisher.h ****  *  * Redistributions of source code must retain the above copyright
  12:../Libraries/ROSSerial/ros/publisher.h ****  *    notice, this list of conditions and the following disclaimer.
  13:../Libraries/ROSSerial/ros/publisher.h ****  *  * Redistributions in binary form must reproduce the above
  14:../Libraries/ROSSerial/ros/publisher.h ****  *    copyright notice, this list of conditions and the following
  15:../Libraries/ROSSerial/ros/publisher.h ****  *    disclaimer in the documentation and/or other materials provided
  16:../Libraries/ROSSerial/ros/publisher.h ****  *    with the distribution.
  17:../Libraries/ROSSerial/ros/publisher.h ****  *  * Neither the name of Willow Garage, Inc. nor the names of its
  18:../Libraries/ROSSerial/ros/publisher.h ****  *    contributors may be used to endorse or promote prducts derived
  19:../Libraries/ROSSerial/ros/publisher.h ****  *    from this software without specific prior written permission.
  20:../Libraries/ROSSerial/ros/publisher.h ****  *
  21:../Libraries/ROSSerial/ros/publisher.h ****  * THIS SOFTWARE IS PROVIDED BY THE COPYRIGHT HOLDERS AND CONTRIBUTORS
  22:../Libraries/ROSSerial/ros/publisher.h ****  * "AS IS" AND ANY EXPRESS OR IMPLIED WARRANTIES, INCLUDING, BUT NOT
  23:../Libraries/ROSSerial/ros/publisher.h ****  * LIMITED TO, THE IMPLIED WARRANTIES OF MERCHANTABILITY AND FITNESS
  24:../Libraries/ROSSerial/ros/publisher.h ****  * FOR A PARTICULAR PURPOSE ARE DISCLAIMED. IN NO EVENT SHALL THE
  25:../Libraries/ROSSerial/ros/publisher.h ****  * COPYRIGHT OWNER OR CONTRIBUTORS BE LIABLE FOR ANY DIRECT, INDIRECT,
  26:../Libraries/ROSSerial/ros/publisher.h ****  * INCIDENTAL, SPECIAL, EXEMPLARY, OR CONSEQUENTIAL DAMAGES (INCLUDING,
  27:../Libraries/ROSSerial/ros/publisher.h ****  * BUT NOT LIMITED TO, PROCUREMENT OF SUBSTITUTE GOODS OR SERVICES;
ARM GAS  /var/folders/l3/4y5292px21b4835bsnjwqc7w009kq1/T//ccOhtKWi.s 			page 54


  28:../Libraries/ROSSerial/ros/publisher.h ****  * LOSS OF USE, DATA, OR PROFITS; OR BUSINESS INTERRUPTION) HOWEVER
  29:../Libraries/ROSSerial/ros/publisher.h ****  * CAUSED AND ON ANY THEORY OF LIABILITY, WHETHER IN CONTRACT, STRICT
  30:../Libraries/ROSSerial/ros/publisher.h ****  * LIABILITY, OR TORT (INCLUDING NEGLIGENCE OR OTHERWISE) ARISING IN
  31:../Libraries/ROSSerial/ros/publisher.h ****  * ANY WAY OUT OF THE USE OF THIS SOFTWARE, EVEN IF ADVISED OF THE
  32:../Libraries/ROSSerial/ros/publisher.h ****  * POSSIBILITY OF SUCH DAMAGE.
  33:../Libraries/ROSSerial/ros/publisher.h ****  */
  34:../Libraries/ROSSerial/ros/publisher.h **** 
  35:../Libraries/ROSSerial/ros/publisher.h **** #ifndef _ROS_PUBLISHER_H_
  36:../Libraries/ROSSerial/ros/publisher.h **** #define _ROS_PUBLISHER_H_
  37:../Libraries/ROSSerial/ros/publisher.h **** 
  38:../Libraries/ROSSerial/ros/publisher.h **** #include "rosserial_msgs/TopicInfo.h"
  39:../Libraries/ROSSerial/ros/publisher.h **** #include "ros/node_handle.h"
  40:../Libraries/ROSSerial/ros/publisher.h **** 
  41:../Libraries/ROSSerial/ros/publisher.h **** namespace ros
  42:../Libraries/ROSSerial/ros/publisher.h **** {
  43:../Libraries/ROSSerial/ros/publisher.h **** 
  44:../Libraries/ROSSerial/ros/publisher.h **** /* Generic Publisher */
  45:../Libraries/ROSSerial/ros/publisher.h **** class Publisher
  46:../Libraries/ROSSerial/ros/publisher.h **** {
  47:../Libraries/ROSSerial/ros/publisher.h **** public:
  48:../Libraries/ROSSerial/ros/publisher.h ****   Publisher(const char * topic_name, Msg * msg, int endpoint = rosserial_msgs::TopicInfo::ID_PUBLIS
  49:../Libraries/ROSSerial/ros/publisher.h ****     topic_(topic_name),
  50:../Libraries/ROSSerial/ros/publisher.h ****     msg_(msg),
  51:../Libraries/ROSSerial/ros/publisher.h ****     endpoint_(endpoint) {};
  52:../Libraries/ROSSerial/ros/publisher.h **** 
  53:../Libraries/ROSSerial/ros/publisher.h ****   int publish(const Msg * msg)
  54:../Libraries/ROSSerial/ros/publisher.h ****   {
  55:../Libraries/ROSSerial/ros/publisher.h ****     //printf("nh_ = %x, id_ = %d, chatter publishing %s\n",nh_, id_,msg->getType());
  56:../Libraries/ROSSerial/ros/publisher.h ****     return nh_->publish(id_, msg); //this doesn't work so moved to publish_task
  57:../Libraries/ROSSerial/ros/publisher.h ****   };
  58:../Libraries/ROSSerial/ros/publisher.h **** 
  59:../Libraries/ROSSerial/ros/publisher.h ****   int getEndpointType()
  60:../Libraries/ROSSerial/ros/publisher.h ****   {
  61:../Libraries/ROSSerial/ros/publisher.h ****     return endpoint_;
 1856              		.loc 8 61 0
 1857 042e D3F81080 		ldr	r8, [r3, #16]
 1858              	.LVL223:
 1859              	.LBE332:
 1860              	.LBE331:
 1861              	.LBB333:
 1862              	.LBB330:
 535:../Libraries/ROSSerial/ros/node_handle.h ****       return 0;
 1863              		.loc 5 535 0
 1864 0432 B8F1630F 		cmp	r8, #99
 1865 0436 03DD     		ble	.L89
 1866 0438 94F85434 		ldrb	r3, [r4, #1108]	@ zero_extendqisi2
 1867 043c 002B     		cmp	r3, #0
 1868 043e D5D0     		beq	.L88
 1869              	.L89:
 539:../Libraries/ROSSerial/ros/node_handle.h **** 
 1870              		.loc 5 539 0
 1871 0440 069B     		ldr	r3, [sp, #24]
 1872 0442 1B68     		ldr	r3, [r3]
 1873 0444 04F21F21 		addw	r1, r4, #543
 1874 0448 06A8     		add	r0, sp, #24
 1875              	.LVL224:
 1876 044a 9847     		blx	r3
ARM GAS  /var/folders/l3/4y5292px21b4835bsnjwqc7w009kq1/T//ccOhtKWi.s 			page 55


 1877              	.LVL225:
 542:../Libraries/ROSSerial/ros/node_handle.h ****     message_out[1] = PROTOCOL_VER;
 1878              		.loc 5 542 0
 1879 044c FF23     		movs	r3, #255
 1880 044e 84F81832 		strb	r3, [r4, #536]
 543:../Libraries/ROSSerial/ros/node_handle.h ****     message_out[2] = (uint8_t)((uint16_t)l & 255);
 1881              		.loc 5 543 0
 1882 0452 FE23     		movs	r3, #254
 1883 0454 84F81932 		strb	r3, [r4, #537]
 544:../Libraries/ROSSerial/ros/node_handle.h ****     message_out[3] = (uint8_t)((uint16_t)l >> 8);
 1884              		.loc 5 544 0
 1885 0458 C3B2     		uxtb	r3, r0
 1886 045a 84F81A32 		strb	r3, [r4, #538]
 545:../Libraries/ROSSerial/ros/node_handle.h ****     message_out[4] = 255 - ((message_out[2] + message_out[3]) % 256);
 1887              		.loc 5 545 0
 1888 045e C0F30722 		ubfx	r2, r0, #8, #8
 1889 0462 84F81B22 		strb	r2, [r4, #539]
 546:../Libraries/ROSSerial/ros/node_handle.h ****     message_out[5] = (uint8_t)((int16_t)id & 255);
 1890              		.loc 5 546 0
 1891 0466 1344     		add	r3, r3, r2
 1892 0468 DBB2     		uxtb	r3, r3
 1893 046a DB43     		mvns	r3, r3
 1894 046c 84F81C32 		strb	r3, [r4, #540]
 547:../Libraries/ROSSerial/ros/node_handle.h ****     message_out[6] = (uint8_t)((int16_t)id >> 8);
 1895              		.loc 5 547 0
 1896 0470 84F81D82 		strb	r8, [r4, #541]
 548:../Libraries/ROSSerial/ros/node_handle.h **** 
 1897              		.loc 5 548 0
 1898 0474 48F30728 		sbfx	r8, r8, #8, #8
 1899              	.LVL226:
 1900 0478 84F81E82 		strb	r8, [r4, #542]
 1901              	.LVL227:
 551:../Libraries/ROSSerial/ros/node_handle.h ****     for (int i = 5; i < l + 7; i++)
 1902              		.loc 5 551 0
 1903 047c 3346     		mov	r3, r6
 1904              	.LBB324:
 552:../Libraries/ROSSerial/ros/node_handle.h ****       chk += message_out[i];
 1905              		.loc 5 552 0
 1906 047e 0522     		movs	r2, #5
 1907              	.LVL228:
 1908              	.L92:
 1909 0480 C11D     		adds	r1, r0, #7
 1910 0482 9142     		cmp	r1, r2
 1911 0484 9EDD     		ble	.L91
 553:../Libraries/ROSSerial/ros/node_handle.h ****     l += 7;
 1912              		.loc 5 553 0
 1913 0486 A118     		adds	r1, r4, r2
 1914 0488 91F81812 		ldrb	r1, [r1, #536]	@ zero_extendqisi2
 1915 048c 0B44     		add	r3, r3, r1
 1916              	.LVL229:
 552:../Libraries/ROSSerial/ros/node_handle.h ****       chk += message_out[i];
 1917              		.loc 5 552 0
 1918 048e 0132     		adds	r2, r2, #1
 1919              	.LVL230:
 1920 0490 F6E7     		b	.L92
 1921              	.LVL231:
 1922              	.L93:
ARM GAS  /var/folders/l3/4y5292px21b4835bsnjwqc7w009kq1/T//ccOhtKWi.s 			page 56


 1923              	.LBE324:
 1924              	.LBB325:
 1925              	.LBB326:
 1926              	.LBB327:
 1927              	.LBB328:
 1928              	.LBB329:
  13:../Libraries/ROSSerial/rosserial_msgs/Log.h ****   {
 1929              		.loc 3 13 0
 1930 0492 624B     		ldr	r3, .L147+8
 1931 0494 0393     		str	r3, [sp, #12]
 1932              	.LVL232:
 1933              	.LBE329:
 1934              	.LBE328:
 577:../Libraries/ROSSerial/ros/node_handle.h ****     l.msg = (char*)msg;
 1935              		.loc 5 577 0
 1936 0496 0323     		movs	r3, #3
 1937 0498 8DF81030 		strb	r3, [sp, #16]
 578:../Libraries/ROSSerial/ros/node_handle.h ****     publish1(rosserial_msgs::TopicInfo::ID_LOG, &l);
 1938              		.loc 5 578 0
 1939 049c 604B     		ldr	r3, .L147+12
 1940 049e 0593     		str	r3, [sp, #20]
 1941              		.loc 5 579 0
 1942 04a0 03AA     		add	r2, sp, #12
 1943              	.LVL233:
 1944 04a2 0721     		movs	r1, #7
 1945 04a4 2046     		mov	r0, r4
 1946              	.LVL234:
 1947 04a6 FFF7FEFF 		bl	_ZN3ros11NodeHandle_I13STM32HardwareLi5ELi5ELi512ELi512EE8publish1EiPKNS_3MsgE
 1948              	.LVL235:
 1949 04aa 9FE7     		b	.L88
 1950              	.LVL236:
 1951              	.L124:
 1952              	.LBE327:
 1953              	.LBE326:
 1954              	.LBE325:
 1955              	.LBE330:
 1956              	.LBE333:
 511:../Libraries/ROSSerial/ros/node_handle.h ****     {
 1957              		.loc 5 511 0
 1958 04ac 3746     		mov	r7, r6
 1959              	.LVL237:
 1960 04ae 14E0     		b	.L87
 1961              	.LVL238:
 1962              	.L97:
 1963              	.LBB334:
 1964              	.LBB335:
 555:../Libraries/ROSSerial/ros/node_handle.h ****     //printf("Sending message - %s\n",message_out);
 1965              		.loc 5 555 0
 1966 04b0 5A42     		rsbs	r2, r3, #0
 1967 04b2 DBB2     		uxtb	r3, r3
 1968              	.LVL239:
 1969 04b4 D2B2     		uxtb	r2, r2
 1970 04b6 58BF     		it	pl
 1971 04b8 5342     		rsbpl	r3, r2, #0
 1972 04ba 00F10802 		add	r2, r0, #8
 1973              	.LVL240:
 1974 04be DB43     		mvns	r3, r3
ARM GAS  /var/folders/l3/4y5292px21b4835bsnjwqc7w009kq1/T//ccOhtKWi.s 			page 57


 1975 04c0 2144     		add	r1, r1, r4
 1976 04c2 81F81832 		strb	r3, [r1, #536]
 557:../Libraries/ROSSerial/ros/node_handle.h ****     {
 1977              		.loc 5 557 0
 1978 04c6 B2F5007F 		cmp	r2, #512
 1979 04ca 47DC     		bgt	.L99
 1980              	.LVL241:
 1981              	.LBB336:
 1982              	.LBB337:
  87:../Libraries/ROSSerial/stm32hardware.h **** 	}
 1983              		.loc 6 87 0
 1984 04cc 92B2     		uxth	r2, r2
 1985              	.LVL242:
 1986 04ce 04F50671 		add	r1, r4, #536
 1987              	.LVL243:
 1988 04d2 0020     		movs	r0, #0
 1989              	.LVL244:
 1990 04d4 FFF7FEFF 		bl	comSendBuf
 1991              	.LVL245:
 1992              	.L96:
 1993              	.LBE337:
 1994              	.LBE336:
 1995              	.LBE335:
 1996              	.LBE334:
 511:../Libraries/ROSSerial/ros/node_handle.h ****     {
 1997              		.loc 5 511 0
 1998 04d8 0137     		adds	r7, r7, #1
 1999              	.LVL246:
 2000              	.L87:
 2001 04da 042F     		cmp	r7, #4
 2002 04dc 4BDC     		bgt	.L95
 513:../Libraries/ROSSerial/ros/node_handle.h ****       {
 2003              		.loc 5 513 0
 2004 04de 07F58573 		add	r3, r7, #266
 2005 04e2 04EB8303 		add	r3, r4, r3, lsl #2
 2006 04e6 5B68     		ldr	r3, [r3, #4]
 2007 04e8 002B     		cmp	r3, #0
 2008 04ea F5D0     		beq	.L96
 515:../Libraries/ROSSerial/ros/node_handle.h ****         ti.topic_name = "led"; //(char *) subscribers[i]->topic_;
 2009              		.loc 5 515 0
 2010 04ec 5B68     		ldr	r3, [r3, #4]
 2011 04ee ADF81C30 		strh	r3, [sp, #28]	@ movhi
 516:../Libraries/ROSSerial/ros/node_handle.h ****         ti.message_type = "std_msgs/UInt16" ; //(char *) subscribers[i]->getMsgType();
 2012              		.loc 5 516 0
 2013 04f2 4C4B     		ldr	r3, .L147+16
 2014 04f4 0893     		str	r3, [sp, #32]
 517:../Libraries/ROSSerial/ros/node_handle.h ****         ti.md5sum = "1df79edf208b629fe6b81923a544552d"; // (char *) subscribers[i]->getMsgMD5();
 2015              		.loc 5 517 0
 2016 04f6 4C4B     		ldr	r3, .L147+20
 2017 04f8 0993     		str	r3, [sp, #36]
 518:../Libraries/ROSSerial/ros/node_handle.h ****         ti.buffer_size = INPUT_SIZE;
 2018              		.loc 5 518 0
 2019 04fa 4C4B     		ldr	r3, .L147+24
 2020 04fc 0A93     		str	r3, [sp, #40]
 519:../Libraries/ROSSerial/ros/node_handle.h ****         publish1(rosserial_msgs::TopicInfo::ID_SUBSCRIBER, &ti);
 2021              		.loc 5 519 0
 2022 04fe 4FF40073 		mov	r3, #512
ARM GAS  /var/folders/l3/4y5292px21b4835bsnjwqc7w009kq1/T//ccOhtKWi.s 			page 58


 2023 0502 0B93     		str	r3, [sp, #44]
 2024              	.LVL247:
 2025              	.LBB345:
 2026              	.LBB344:
 539:../Libraries/ROSSerial/ros/node_handle.h **** 
 2027              		.loc 5 539 0
 2028 0504 069B     		ldr	r3, [sp, #24]
 2029 0506 1B68     		ldr	r3, [r3]
 2030 0508 04F21F21 		addw	r1, r4, #543
 2031 050c 06A8     		add	r0, sp, #24
 2032              	.LVL248:
 2033 050e 9847     		blx	r3
 2034              	.LVL249:
 542:../Libraries/ROSSerial/ros/node_handle.h ****     message_out[1] = PROTOCOL_VER;
 2035              		.loc 5 542 0
 2036 0510 FF23     		movs	r3, #255
 2037 0512 84F81832 		strb	r3, [r4, #536]
 543:../Libraries/ROSSerial/ros/node_handle.h ****     message_out[2] = (uint8_t)((uint16_t)l & 255);
 2038              		.loc 5 543 0
 2039 0516 FE23     		movs	r3, #254
 2040 0518 84F81932 		strb	r3, [r4, #537]
 544:../Libraries/ROSSerial/ros/node_handle.h ****     message_out[3] = (uint8_t)((uint16_t)l >> 8);
 2041              		.loc 5 544 0
 2042 051c C3B2     		uxtb	r3, r0
 2043 051e 84F81A32 		strb	r3, [r4, #538]
 545:../Libraries/ROSSerial/ros/node_handle.h ****     message_out[4] = 255 - ((message_out[2] + message_out[3]) % 256);
 2044              		.loc 5 545 0
 2045 0522 C0F30722 		ubfx	r2, r0, #8, #8
 2046 0526 84F81B22 		strb	r2, [r4, #539]
 546:../Libraries/ROSSerial/ros/node_handle.h ****     message_out[5] = (uint8_t)((int16_t)id & 255);
 2047              		.loc 5 546 0
 2048 052a 1344     		add	r3, r3, r2
 2049 052c DBB2     		uxtb	r3, r3
 2050 052e DB43     		mvns	r3, r3
 2051 0530 84F81C32 		strb	r3, [r4, #540]
 547:../Libraries/ROSSerial/ros/node_handle.h ****     message_out[6] = (uint8_t)((int16_t)id >> 8);
 2052              		.loc 5 547 0
 2053 0534 0123     		movs	r3, #1
 2054 0536 84F81D32 		strb	r3, [r4, #541]
 548:../Libraries/ROSSerial/ros/node_handle.h **** 
 2055              		.loc 5 548 0
 2056 053a 0023     		movs	r3, #0
 2057 053c 84F81E32 		strb	r3, [r4, #542]
 2058              	.LVL250:
 551:../Libraries/ROSSerial/ros/node_handle.h ****     for (int i = 5; i < l + 7; i++)
 2059              		.loc 5 551 0
 2060 0540 3346     		mov	r3, r6
 2061              	.LBB338:
 552:../Libraries/ROSSerial/ros/node_handle.h ****       chk += message_out[i];
 2062              		.loc 5 552 0
 2063 0542 4FF0050C 		mov	ip, #5
 2064              	.LVL251:
 2065              	.L98:
 2066 0546 C11D     		adds	r1, r0, #7
 2067 0548 6145     		cmp	r1, ip
 2068 054a B1DD     		ble	.L97
 553:../Libraries/ROSSerial/ros/node_handle.h ****     l += 7;
ARM GAS  /var/folders/l3/4y5292px21b4835bsnjwqc7w009kq1/T//ccOhtKWi.s 			page 59


 2069              		.loc 5 553 0
 2070 054c 04EB0C02 		add	r2, r4, ip
 2071 0550 92F81822 		ldrb	r2, [r2, #536]	@ zero_extendqisi2
 2072 0554 1344     		add	r3, r3, r2
 2073              	.LVL252:
 552:../Libraries/ROSSerial/ros/node_handle.h ****       chk += message_out[i];
 2074              		.loc 5 552 0
 2075 0556 0CF1010C 		add	ip, ip, #1
 2076              	.LVL253:
 2077 055a F4E7     		b	.L98
 2078              	.LVL254:
 2079              	.L99:
 2080              	.LBE338:
 2081              	.LBB339:
 2082              	.LBB340:
 2083              	.LBB341:
 2084              	.LBB342:
 2085              	.LBB343:
  13:../Libraries/ROSSerial/rosserial_msgs/Log.h ****   {
 2086              		.loc 3 13 0
 2087 055c 2F4B     		ldr	r3, .L147+8
 2088 055e 0393     		str	r3, [sp, #12]
 2089              	.LVL255:
 2090              	.LBE343:
 2091              	.LBE342:
 577:../Libraries/ROSSerial/ros/node_handle.h ****     l.msg = (char*)msg;
 2092              		.loc 5 577 0
 2093 0560 0323     		movs	r3, #3
 2094 0562 8DF81030 		strb	r3, [sp, #16]
 578:../Libraries/ROSSerial/ros/node_handle.h ****     publish1(rosserial_msgs::TopicInfo::ID_LOG, &l);
 2095              		.loc 5 578 0
 2096 0566 2E4B     		ldr	r3, .L147+12
 2097 0568 0593     		str	r3, [sp, #20]
 2098              		.loc 5 579 0
 2099 056a 03AA     		add	r2, sp, #12
 2100              	.LVL256:
 2101 056c 0721     		movs	r1, #7
 2102 056e 2046     		mov	r0, r4
 2103              	.LVL257:
 2104 0570 FFF7FEFF 		bl	_ZN3ros11NodeHandle_I13STM32HardwareLi5ELi5ELi512ELi512EE8publish1EiPKNS_3MsgE
 2105              	.LVL258:
 2106 0574 B0E7     		b	.L96
 2107              	.LVL259:
 2108              	.L95:
 2109              	.LBE341:
 2110              	.LBE340:
 2111              	.LBE339:
 2112              	.LBE344:
 2113              	.LBE345:
 524:../Libraries/ROSSerial/ros/node_handle.h ****   }
 2114              		.loc 5 524 0
 2115 0576 0123     		movs	r3, #1
 2116 0578 84F85434 		strb	r3, [r4, #1108]
 2117              	.LVL260:
 2118              	.LBE346:
 2119              	.LBE348:
 338:../Libraries/ROSSerial/ros/node_handle.h ****             last_sync_receive_time = c_time;
ARM GAS  /var/folders/l3/4y5292px21b4835bsnjwqc7w009kq1/T//ccOhtKWi.s 			page 60


 2120              		.loc 5 338 0
 2121 057c C4F85854 		str	r5, [r4, #1112]
 339:../Libraries/ROSSerial/ros/node_handle.h ****             return SPIN_ERR;
 2122              		.loc 5 339 0
 2123 0580 C4F85C54 		str	r5, [r4, #1116]
 2124 0584 4BE5     		b	.L123
 2125              	.LVL261:
 2126              	.L136:
 344:../Libraries/ROSSerial/ros/node_handle.h ****           }
 2127              		.loc 5 344 0
 2128 0586 04F11806 		add	r6, r4, #24
 2129              	.LVL262:
 2130              	.LBB349:
 2131              	.LBB350:
 2132              	.LBB351:
 2133              	.LBB352:
 2134              		.loc 6 99 0
 2135 058a FFF7FEFF 		bl	xTaskGetTickCount
 2136              	.LVL263:
 2137              	.LBE352:
 2138              	.LBE351:
 396:../Libraries/ROSSerial/ros/node_handle.h **** 
 2139              		.loc 5 396 0
 2140 058e A368     		ldr	r3, [r4, #8]
 2141 0590 C01A     		subs	r0, r0, r3
 2142              	.LVL264:
 2143              	.LBB353:
 2144              	.LBB354:
  38:../Libraries/ROSSerial/std_msgs/Time.h ****       this->data.sec |= ((uint32_t) (*(inbuffer + offset + 1))) << (8 * 1);
 2145              		.loc 1 38 0
 2146 0592 237E     		ldrb	r3, [r4, #24]	@ zero_extendqisi2
  39:../Libraries/ROSSerial/std_msgs/Time.h ****       this->data.sec |= ((uint32_t) (*(inbuffer + offset + 2))) << (8 * 2);
 2147              		.loc 1 39 0
 2148 0594 3246     		mov	r2, r6
 2149 0596 7178     		ldrb	r1, [r6, #1]	@ zero_extendqisi2
 2150 0598 43EA0123 		orr	r3, r3, r1, lsl #8
  40:../Libraries/ROSSerial/std_msgs/Time.h ****       this->data.sec |= ((uint32_t) (*(inbuffer + offset + 3))) << (8 * 3);
 2151              		.loc 1 40 0
 2152 059c B178     		ldrb	r1, [r6, #2]	@ zero_extendqisi2
 2153 059e 43EA0143 		orr	r3, r3, r1, lsl #16
  41:../Libraries/ROSSerial/std_msgs/Time.h ****       offset += sizeof(this->data.sec);
 2154              		.loc 1 41 0
 2155 05a2 F178     		ldrb	r1, [r6, #3]	@ zero_extendqisi2
 2156 05a4 43EA0163 		orr	r3, r3, r1, lsl #24
 2157 05a8 0793     		str	r3, [sp, #28]
 2158              	.LVL265:
  43:../Libraries/ROSSerial/std_msgs/Time.h ****       this->data.nsec |= ((uint32_t) (*(inbuffer + offset + 1))) << (8 * 1);
 2159              		.loc 1 43 0
 2160 05aa 3179     		ldrb	r1, [r6, #4]	@ zero_extendqisi2
  44:../Libraries/ROSSerial/std_msgs/Time.h ****       this->data.nsec |= ((uint32_t) (*(inbuffer + offset + 2))) << (8 * 2);
 2161              		.loc 1 44 0
 2162 05ac 7679     		ldrb	r6, [r6, #5]	@ zero_extendqisi2
 2163 05ae 41EA0621 		orr	r1, r1, r6, lsl #8
  45:../Libraries/ROSSerial/std_msgs/Time.h ****       this->data.nsec |= ((uint32_t) (*(inbuffer + offset + 3))) << (8 * 3);
 2164              		.loc 1 45 0
 2165 05b2 9679     		ldrb	r6, [r2, #6]	@ zero_extendqisi2
 2166 05b4 41EA0641 		orr	r1, r1, r6, lsl #16
ARM GAS  /var/folders/l3/4y5292px21b4835bsnjwqc7w009kq1/T//ccOhtKWi.s 			page 61


  46:../Libraries/ROSSerial/std_msgs/Time.h ****       offset += sizeof(this->data.nsec);
 2167              		.loc 1 46 0
 2168 05b8 D279     		ldrb	r2, [r2, #7]	@ zero_extendqisi2
 2169 05ba 41EA0261 		orr	r1, r1, r2, lsl #24
 2170              	.LVL266:
 2171              	.LBE354:
 2172              	.LBE353:
 399:../Libraries/ROSSerial/ros/node_handle.h ****     t.data.nsec += (offset % 1000) * 1000000UL;
 2173              		.loc 5 399 0
 2174 05be 1C4E     		ldr	r6, .L147+28
 2175 05c0 A6FB0072 		umull	r7, r2, r6, r0
 2176 05c4 9209     		lsrs	r2, r2, #6
 2177 05c6 1344     		add	r3, r3, r2
 2178 05c8 0793     		str	r3, [sp, #28]
 400:../Libraries/ROSSerial/ros/node_handle.h **** 
 2179              		.loc 5 400 0
 2180 05ca 4FF47A78 		mov	r8, #1000
 2181 05ce 08FB1203 		mls	r3, r8, r2, r0
 2182 05d2 184F     		ldr	r7, .L147+32
 2183 05d4 07FB0313 		mla	r3, r7, r3, r1
 2184 05d8 0893     		str	r3, [sp, #32]
 2185              	.LVL267:
 2186              	.LBB355:
 2187              	.LBB356:
 2188              	.LBB357:
 2189              	.LBB358:
 2190              		.loc 6 99 0
 2191 05da FFF7FEFF 		bl	xTaskGetTickCount
 2192              	.LVL268:
 2193              	.LBE358:
 2194              	.LBE357:
 419:../Libraries/ROSSerial/ros/node_handle.h ****     nsec_offset = new_now.nsec - (ms % 1000) * 1000000UL + 1000000000UL;
 2195              		.loc 5 419 0
 2196 05de A6FB0023 		umull	r2, r3, r6, r0
 2197 05e2 9B09     		lsrs	r3, r3, #6
 2198 05e4 079A     		ldr	r2, [sp, #28]
 2199 05e6 D21A     		subs	r2, r2, r3
 2200 05e8 013A     		subs	r2, r2, #1
 2201 05ea E260     		str	r2, [r4, #12]
 420:../Libraries/ROSSerial/ros/node_handle.h ****     normalizeSecNSec(sec_offset, nsec_offset);
 2202              		.loc 5 420 0
 2203 05ec 08FB1303 		mls	r3, r8, r3, r0
 2204 05f0 089A     		ldr	r2, [sp, #32]
 2205 05f2 07FB1323 		mls	r3, r7, r3, r2
 2206 05f6 104A     		ldr	r2, .L147+36
 2207 05f8 1A44     		add	r2, r2, r3
 2208 05fa 2146     		mov	r1, r4
 2209 05fc 41F8102F 		str	r2, [r1, #16]!
 421:../Libraries/ROSSerial/ros/node_handle.h ****   }
 2210              		.loc 5 421 0
 2211 0600 04F10C00 		add	r0, r4, #12
 2212              	.LVL269:
 2213 0604 FFF7FEFF 		bl	_ZN3ros16normalizeSecNSecERmS0_
 2214              	.LVL270:
 2215              	.LBE356:
 2216              	.LBE355:
 2217              	.LBB359:
ARM GAS  /var/folders/l3/4y5292px21b4835bsnjwqc7w009kq1/T//ccOhtKWi.s 			page 62


 2218              	.LBB360:
 2219              		.loc 6 99 0
 2220 0608 FFF7FEFF 		bl	xTaskGetTickCount
 2221              	.LVL271:
 2222              	.LBE360:
 2223              	.LBE359:
 403:../Libraries/ROSSerial/ros/node_handle.h ****   }
 2224              		.loc 5 403 0
 2225 060c C4F85C04 		str	r0, [r4, #1116]
 2226 0610 33E5     		b	.L57
 2227              	.L148:
 2228 0612 00BF     		.align	2
 2229              	.L147:
 2230 0614 08000000 		.word	_ZTVN8std_msgs4TimeE+8
 2231 0618 08000000 		.word	_ZTVN14rosserial_msgs9TopicInfoE+8
 2232 061c 08000000 		.word	_ZTVN14rosserial_msgs3LogE+8
 2233 0620 00000000 		.word	.LC9
 2234 0624 00000000 		.word	.LC10
 2235 0628 04000000 		.word	.LC11
 2236 062c 14000000 		.word	.LC12
 2237 0630 D34D6210 		.word	274877907
 2238 0634 40420F00 		.word	1000000
 2239 0638 00CA9A3B 		.word	1000000000
 2240              	.LVL272:
 2241              	.L137:
 2242              	.LBE350:
 2243              	.LBE349:
 348:../Libraries/ROSSerial/ros/node_handle.h ****             param_recieved = true;
 2244              		.loc 5 348 0
 2245 063c 04F58D68 		add	r8, r4, #1128
 2246 0640 04F11807 		add	r7, r4, #24
 2247              	.LVL273:
 2248              	.LBB361:
 2249              	.LBB362:
 2250              		.file 9 "../Libraries/ROSSerial/rosserial_msgs/RequestParam.h"
   1:../Libraries/ROSSerial/rosserial_msgs/RequestParam.h **** #ifndef _ROS_SERVICE_RequestParam_h
   2:../Libraries/ROSSerial/rosserial_msgs/RequestParam.h **** #define _ROS_SERVICE_RequestParam_h
   3:../Libraries/ROSSerial/rosserial_msgs/RequestParam.h **** 
   4:../Libraries/ROSSerial/rosserial_msgs/RequestParam.h **** #include <stdint.h>
   5:../Libraries/ROSSerial/rosserial_msgs/RequestParam.h **** #include <string.h>
   6:../Libraries/ROSSerial/rosserial_msgs/RequestParam.h **** #include <stdlib.h>
   7:../Libraries/ROSSerial/rosserial_msgs/RequestParam.h **** #include "ros/msg.h"
   8:../Libraries/ROSSerial/rosserial_msgs/RequestParam.h **** 
   9:../Libraries/ROSSerial/rosserial_msgs/RequestParam.h **** 
  10:../Libraries/ROSSerial/rosserial_msgs/RequestParam.h **** namespace rosserial_msgs
  11:../Libraries/ROSSerial/rosserial_msgs/RequestParam.h **** {
  12:../Libraries/ROSSerial/rosserial_msgs/RequestParam.h **** 
  13:../Libraries/ROSSerial/rosserial_msgs/RequestParam.h **** static const char REQUESTPARAM[] = "rosserial_msgs/RequestParam";
  14:../Libraries/ROSSerial/rosserial_msgs/RequestParam.h **** 
  15:../Libraries/ROSSerial/rosserial_msgs/RequestParam.h ****   class RequestParamRequest : public ros::Msg
  16:../Libraries/ROSSerial/rosserial_msgs/RequestParam.h ****   {
  17:../Libraries/ROSSerial/rosserial_msgs/RequestParam.h ****     public:
  18:../Libraries/ROSSerial/rosserial_msgs/RequestParam.h ****       const char* name;
  19:../Libraries/ROSSerial/rosserial_msgs/RequestParam.h **** 
  20:../Libraries/ROSSerial/rosserial_msgs/RequestParam.h ****     virtual int serialize(unsigned char *outbuffer) const
  21:../Libraries/ROSSerial/rosserial_msgs/RequestParam.h ****     {
  22:../Libraries/ROSSerial/rosserial_msgs/RequestParam.h ****       int offset = 0;
ARM GAS  /var/folders/l3/4y5292px21b4835bsnjwqc7w009kq1/T//ccOhtKWi.s 			page 63


  23:../Libraries/ROSSerial/rosserial_msgs/RequestParam.h ****       uint32_t length_name = strlen(this->name);
  24:../Libraries/ROSSerial/rosserial_msgs/RequestParam.h ****       memcpy(outbuffer + offset, &length_name, sizeof(uint32_t));
  25:../Libraries/ROSSerial/rosserial_msgs/RequestParam.h ****       offset += 4;
  26:../Libraries/ROSSerial/rosserial_msgs/RequestParam.h ****       memcpy(outbuffer + offset, this->name, length_name);
  27:../Libraries/ROSSerial/rosserial_msgs/RequestParam.h ****       offset += length_name;
  28:../Libraries/ROSSerial/rosserial_msgs/RequestParam.h ****       return offset;
  29:../Libraries/ROSSerial/rosserial_msgs/RequestParam.h ****     }
  30:../Libraries/ROSSerial/rosserial_msgs/RequestParam.h **** 
  31:../Libraries/ROSSerial/rosserial_msgs/RequestParam.h ****     virtual int deserialize(unsigned char *inbuffer)
  32:../Libraries/ROSSerial/rosserial_msgs/RequestParam.h ****     {
  33:../Libraries/ROSSerial/rosserial_msgs/RequestParam.h ****       int offset = 0;
  34:../Libraries/ROSSerial/rosserial_msgs/RequestParam.h ****       uint32_t length_name;
  35:../Libraries/ROSSerial/rosserial_msgs/RequestParam.h ****       memcpy(&length_name, (inbuffer + offset), sizeof(uint32_t));
  36:../Libraries/ROSSerial/rosserial_msgs/RequestParam.h ****       offset += 4;
  37:../Libraries/ROSSerial/rosserial_msgs/RequestParam.h ****       for(unsigned int k= offset; k< offset+length_name; ++k){
  38:../Libraries/ROSSerial/rosserial_msgs/RequestParam.h ****           inbuffer[k-1]=inbuffer[k];
  39:../Libraries/ROSSerial/rosserial_msgs/RequestParam.h ****       }
  40:../Libraries/ROSSerial/rosserial_msgs/RequestParam.h ****       inbuffer[offset+length_name-1]=0;
  41:../Libraries/ROSSerial/rosserial_msgs/RequestParam.h ****       this->name = (char *)(inbuffer + offset-1);
  42:../Libraries/ROSSerial/rosserial_msgs/RequestParam.h ****       offset += length_name;
  43:../Libraries/ROSSerial/rosserial_msgs/RequestParam.h ****      return offset;
  44:../Libraries/ROSSerial/rosserial_msgs/RequestParam.h ****     }
  45:../Libraries/ROSSerial/rosserial_msgs/RequestParam.h **** 
  46:../Libraries/ROSSerial/rosserial_msgs/RequestParam.h ****     const char * getType(){ return REQUESTPARAM; };
  47:../Libraries/ROSSerial/rosserial_msgs/RequestParam.h ****     const char * getMD5(){ return "c1f3d28f1b044c871e6eff2e9fc3c667"; };
  48:../Libraries/ROSSerial/rosserial_msgs/RequestParam.h **** 
  49:../Libraries/ROSSerial/rosserial_msgs/RequestParam.h ****   };
  50:../Libraries/ROSSerial/rosserial_msgs/RequestParam.h **** 
  51:../Libraries/ROSSerial/rosserial_msgs/RequestParam.h ****   class RequestParamResponse : public ros::Msg
  52:../Libraries/ROSSerial/rosserial_msgs/RequestParam.h ****   {
  53:../Libraries/ROSSerial/rosserial_msgs/RequestParam.h ****     public:
  54:../Libraries/ROSSerial/rosserial_msgs/RequestParam.h ****       uint8_t ints_length;
  55:../Libraries/ROSSerial/rosserial_msgs/RequestParam.h ****       int32_t st_ints;
  56:../Libraries/ROSSerial/rosserial_msgs/RequestParam.h ****       int32_t * ints;
  57:../Libraries/ROSSerial/rosserial_msgs/RequestParam.h ****       uint8_t floats_length;
  58:../Libraries/ROSSerial/rosserial_msgs/RequestParam.h ****       float st_floats;
  59:../Libraries/ROSSerial/rosserial_msgs/RequestParam.h ****       float * floats;
  60:../Libraries/ROSSerial/rosserial_msgs/RequestParam.h ****       uint8_t strings_length;
  61:../Libraries/ROSSerial/rosserial_msgs/RequestParam.h ****       char* st_strings;
  62:../Libraries/ROSSerial/rosserial_msgs/RequestParam.h ****       char* * strings;
  63:../Libraries/ROSSerial/rosserial_msgs/RequestParam.h **** 
  64:../Libraries/ROSSerial/rosserial_msgs/RequestParam.h ****     virtual int serialize(unsigned char *outbuffer) const
  65:../Libraries/ROSSerial/rosserial_msgs/RequestParam.h ****     {
  66:../Libraries/ROSSerial/rosserial_msgs/RequestParam.h ****       int offset = 0;
  67:../Libraries/ROSSerial/rosserial_msgs/RequestParam.h ****       *(outbuffer + offset++) = ints_length;
  68:../Libraries/ROSSerial/rosserial_msgs/RequestParam.h ****       *(outbuffer + offset++) = 0;
  69:../Libraries/ROSSerial/rosserial_msgs/RequestParam.h ****       *(outbuffer + offset++) = 0;
  70:../Libraries/ROSSerial/rosserial_msgs/RequestParam.h ****       *(outbuffer + offset++) = 0;
  71:../Libraries/ROSSerial/rosserial_msgs/RequestParam.h ****       for( uint8_t i = 0; i < ints_length; i++){
  72:../Libraries/ROSSerial/rosserial_msgs/RequestParam.h ****       union {
  73:../Libraries/ROSSerial/rosserial_msgs/RequestParam.h ****         int32_t real;
  74:../Libraries/ROSSerial/rosserial_msgs/RequestParam.h ****         uint32_t base;
  75:../Libraries/ROSSerial/rosserial_msgs/RequestParam.h ****       } u_intsi;
  76:../Libraries/ROSSerial/rosserial_msgs/RequestParam.h ****       u_intsi.real = this->ints[i];
  77:../Libraries/ROSSerial/rosserial_msgs/RequestParam.h ****       *(outbuffer + offset + 0) = (u_intsi.base >> (8 * 0)) & 0xFF;
  78:../Libraries/ROSSerial/rosserial_msgs/RequestParam.h ****       *(outbuffer + offset + 1) = (u_intsi.base >> (8 * 1)) & 0xFF;
  79:../Libraries/ROSSerial/rosserial_msgs/RequestParam.h ****       *(outbuffer + offset + 2) = (u_intsi.base >> (8 * 2)) & 0xFF;
ARM GAS  /var/folders/l3/4y5292px21b4835bsnjwqc7w009kq1/T//ccOhtKWi.s 			page 64


  80:../Libraries/ROSSerial/rosserial_msgs/RequestParam.h ****       *(outbuffer + offset + 3) = (u_intsi.base >> (8 * 3)) & 0xFF;
  81:../Libraries/ROSSerial/rosserial_msgs/RequestParam.h ****       offset += sizeof(this->ints[i]);
  82:../Libraries/ROSSerial/rosserial_msgs/RequestParam.h ****       }
  83:../Libraries/ROSSerial/rosserial_msgs/RequestParam.h ****       *(outbuffer + offset++) = floats_length;
  84:../Libraries/ROSSerial/rosserial_msgs/RequestParam.h ****       *(outbuffer + offset++) = 0;
  85:../Libraries/ROSSerial/rosserial_msgs/RequestParam.h ****       *(outbuffer + offset++) = 0;
  86:../Libraries/ROSSerial/rosserial_msgs/RequestParam.h ****       *(outbuffer + offset++) = 0;
  87:../Libraries/ROSSerial/rosserial_msgs/RequestParam.h ****       for( uint8_t i = 0; i < floats_length; i++){
  88:../Libraries/ROSSerial/rosserial_msgs/RequestParam.h ****       union {
  89:../Libraries/ROSSerial/rosserial_msgs/RequestParam.h ****         float real;
  90:../Libraries/ROSSerial/rosserial_msgs/RequestParam.h ****         uint32_t base;
  91:../Libraries/ROSSerial/rosserial_msgs/RequestParam.h ****       } u_floatsi;
  92:../Libraries/ROSSerial/rosserial_msgs/RequestParam.h ****       u_floatsi.real = this->floats[i];
  93:../Libraries/ROSSerial/rosserial_msgs/RequestParam.h ****       *(outbuffer + offset + 0) = (u_floatsi.base >> (8 * 0)) & 0xFF;
  94:../Libraries/ROSSerial/rosserial_msgs/RequestParam.h ****       *(outbuffer + offset + 1) = (u_floatsi.base >> (8 * 1)) & 0xFF;
  95:../Libraries/ROSSerial/rosserial_msgs/RequestParam.h ****       *(outbuffer + offset + 2) = (u_floatsi.base >> (8 * 2)) & 0xFF;
  96:../Libraries/ROSSerial/rosserial_msgs/RequestParam.h ****       *(outbuffer + offset + 3) = (u_floatsi.base >> (8 * 3)) & 0xFF;
  97:../Libraries/ROSSerial/rosserial_msgs/RequestParam.h ****       offset += sizeof(this->floats[i]);
  98:../Libraries/ROSSerial/rosserial_msgs/RequestParam.h ****       }
  99:../Libraries/ROSSerial/rosserial_msgs/RequestParam.h ****       *(outbuffer + offset++) = strings_length;
 100:../Libraries/ROSSerial/rosserial_msgs/RequestParam.h ****       *(outbuffer + offset++) = 0;
 101:../Libraries/ROSSerial/rosserial_msgs/RequestParam.h ****       *(outbuffer + offset++) = 0;
 102:../Libraries/ROSSerial/rosserial_msgs/RequestParam.h ****       *(outbuffer + offset++) = 0;
 103:../Libraries/ROSSerial/rosserial_msgs/RequestParam.h ****       for( uint8_t i = 0; i < strings_length; i++){
 104:../Libraries/ROSSerial/rosserial_msgs/RequestParam.h ****       uint32_t length_stringsi = strlen(this->strings[i]);
 105:../Libraries/ROSSerial/rosserial_msgs/RequestParam.h ****       memcpy(outbuffer + offset, &length_stringsi, sizeof(uint32_t));
 106:../Libraries/ROSSerial/rosserial_msgs/RequestParam.h ****       offset += 4;
 107:../Libraries/ROSSerial/rosserial_msgs/RequestParam.h ****       memcpy(outbuffer + offset, this->strings[i], length_stringsi);
 108:../Libraries/ROSSerial/rosserial_msgs/RequestParam.h ****       offset += length_stringsi;
 109:../Libraries/ROSSerial/rosserial_msgs/RequestParam.h ****       }
 110:../Libraries/ROSSerial/rosserial_msgs/RequestParam.h ****       return offset;
 111:../Libraries/ROSSerial/rosserial_msgs/RequestParam.h ****     }
 112:../Libraries/ROSSerial/rosserial_msgs/RequestParam.h **** 
 113:../Libraries/ROSSerial/rosserial_msgs/RequestParam.h ****     virtual int deserialize(unsigned char *inbuffer)
 114:../Libraries/ROSSerial/rosserial_msgs/RequestParam.h ****     {
 115:../Libraries/ROSSerial/rosserial_msgs/RequestParam.h ****       int offset = 0;
 116:../Libraries/ROSSerial/rosserial_msgs/RequestParam.h ****       uint8_t ints_lengthT = *(inbuffer + offset++);
 2251              		.loc 9 116 0
 2252 0644 267E     		ldrb	r6, [r4, #24]	@ zero_extendqisi2
 2253              	.LVL274:
 117:../Libraries/ROSSerial/rosserial_msgs/RequestParam.h ****       if(ints_lengthT > ints_length)
 2254              		.loc 9 117 0
 2255 0646 98F80430 		ldrb	r3, [r8, #4]	@ zero_extendqisi2
 2256 064a 9E42     		cmp	r6, r3
 2257 064c 1ED8     		bhi	.L141
 2258              	.LVL275:
 2259              	.L103:
 118:../Libraries/ROSSerial/rosserial_msgs/RequestParam.h ****         this->ints = (int32_t*)realloc(this->ints, ints_lengthT * sizeof(int32_t));
 119:../Libraries/ROSSerial/rosserial_msgs/RequestParam.h ****       offset += 3;
 120:../Libraries/ROSSerial/rosserial_msgs/RequestParam.h ****       ints_length = ints_lengthT;
 2260              		.loc 9 120 0
 2261 064e 88F80460 		strb	r6, [r8, #4]
 2262              	.LVL276:
 2263              	.LBB363:
 121:../Libraries/ROSSerial/rosserial_msgs/RequestParam.h ****       for( uint8_t i = 0; i < ints_length; i++){
 2264              		.loc 9 121 0
 2265 0652 0022     		movs	r2, #0
ARM GAS  /var/folders/l3/4y5292px21b4835bsnjwqc7w009kq1/T//ccOhtKWi.s 			page 65


 2266              	.LBE363:
 119:../Libraries/ROSSerial/rosserial_msgs/RequestParam.h ****       ints_length = ints_lengthT;
 2267              		.loc 9 119 0
 2268 0654 0426     		movs	r6, #4
 2269              	.LVL277:
 2270              	.L105:
 2271              	.LBB365:
 2272              		.loc 9 121 0
 2273 0656 98F80430 		ldrb	r3, [r8, #4]	@ zero_extendqisi2
 2274 065a 9342     		cmp	r3, r2
 2275 065c 1ED9     		bls	.L104
 2276              	.LBB364:
 122:../Libraries/ROSSerial/rosserial_msgs/RequestParam.h ****       union {
 123:../Libraries/ROSSerial/rosserial_msgs/RequestParam.h ****         int32_t real;
 124:../Libraries/ROSSerial/rosserial_msgs/RequestParam.h ****         uint32_t base;
 125:../Libraries/ROSSerial/rosserial_msgs/RequestParam.h ****       } u_st_ints;
 126:../Libraries/ROSSerial/rosserial_msgs/RequestParam.h ****       u_st_ints.base = 0;
 127:../Libraries/ROSSerial/rosserial_msgs/RequestParam.h ****       u_st_ints.base |= ((uint32_t) (*(inbuffer + offset + 0))) << (8 * 0);
 2277              		.loc 9 127 0
 2278 065e BB5D     		ldrb	r3, [r7, r6]	@ zero_extendqisi2
 128:../Libraries/ROSSerial/rosserial_msgs/RequestParam.h ****       u_st_ints.base |= ((uint32_t) (*(inbuffer + offset + 1))) << (8 * 1);
 2279              		.loc 9 128 0
 2280 0660 711C     		adds	r1, r6, #1
 2281 0662 795C     		ldrb	r1, [r7, r1]	@ zero_extendqisi2
 2282 0664 43EA0123 		orr	r3, r3, r1, lsl #8
 129:../Libraries/ROSSerial/rosserial_msgs/RequestParam.h ****       u_st_ints.base |= ((uint32_t) (*(inbuffer + offset + 2))) << (8 * 2);
 2283              		.loc 9 129 0
 2284 0668 B11C     		adds	r1, r6, #2
 2285 066a 795C     		ldrb	r1, [r7, r1]	@ zero_extendqisi2
 2286 066c 43EA0143 		orr	r3, r3, r1, lsl #16
 130:../Libraries/ROSSerial/rosserial_msgs/RequestParam.h ****       u_st_ints.base |= ((uint32_t) (*(inbuffer + offset + 3))) << (8 * 3);
 2287              		.loc 9 130 0
 2288 0670 F11C     		adds	r1, r6, #3
 2289 0672 795C     		ldrb	r1, [r7, r1]	@ zero_extendqisi2
 2290 0674 43EA0163 		orr	r3, r3, r1, lsl #24
 131:../Libraries/ROSSerial/rosserial_msgs/RequestParam.h ****       this->st_ints = u_st_ints.real;
 2291              		.loc 9 131 0
 2292 0678 C8F80830 		str	r3, [r8, #8]
 132:../Libraries/ROSSerial/rosserial_msgs/RequestParam.h ****       offset += sizeof(this->st_ints);
 2293              		.loc 9 132 0
 2294 067c 0436     		adds	r6, r6, #4
 2295              	.LVL278:
 133:../Libraries/ROSSerial/rosserial_msgs/RequestParam.h ****         memcpy( &(this->ints[i]), &(this->st_ints), sizeof(int32_t));
 2296              		.loc 9 133 0
 2297 067e D8F80C10 		ldr	r1, [r8, #12]
 2298 0682 41F82230 		str	r3, [r1, r2, lsl #2]	@ unaligned
 2299              	.LBE364:
 121:../Libraries/ROSSerial/rosserial_msgs/RequestParam.h ****       union {
 2300              		.loc 9 121 0
 2301 0686 0132     		adds	r2, r2, #1
 2302              	.LVL279:
 2303 0688 D2B2     		uxtb	r2, r2
 2304              	.LVL280:
 2305 068a E4E7     		b	.L105
 2306              	.LVL281:
 2307              	.L141:
 2308              	.LBE365:
ARM GAS  /var/folders/l3/4y5292px21b4835bsnjwqc7w009kq1/T//ccOhtKWi.s 			page 66


 118:../Libraries/ROSSerial/rosserial_msgs/RequestParam.h ****       offset += 3;
 2309              		.loc 9 118 0
 2310 068c B100     		lsls	r1, r6, #2
 2311              	.LVL282:
 2312 068e D8F80C00 		ldr	r0, [r8, #12]
 2313 0692 FFF7FEFF 		bl	realloc
 2314              	.LVL283:
 2315 0696 C8F80C00 		str	r0, [r8, #12]
 2316 069a D8E7     		b	.L103
 2317              	.LVL284:
 2318              	.L104:
 134:../Libraries/ROSSerial/rosserial_msgs/RequestParam.h ****       }
 135:../Libraries/ROSSerial/rosserial_msgs/RequestParam.h ****       uint8_t floats_lengthT = *(inbuffer + offset++);
 2319              		.loc 9 135 0
 2320 069c 17F80690 		ldrb	r9, [r7, r6]	@ zero_extendqisi2
 2321              	.LVL285:
 136:../Libraries/ROSSerial/rosserial_msgs/RequestParam.h ****       if(floats_lengthT > floats_length)
 2322              		.loc 9 136 0
 2323 06a0 98F81030 		ldrb	r3, [r8, #16]	@ zero_extendqisi2
 2324 06a4 9945     		cmp	r9, r3
 2325 06a6 1ED8     		bhi	.L142
 2326              	.LVL286:
 2327              	.L106:
 137:../Libraries/ROSSerial/rosserial_msgs/RequestParam.h ****         this->floats = (float*)realloc(this->floats, floats_lengthT * sizeof(float));
 138:../Libraries/ROSSerial/rosserial_msgs/RequestParam.h ****       offset += 3;
 2328              		.loc 9 138 0
 2329 06a8 0436     		adds	r6, r6, #4
 2330              	.LVL287:
 139:../Libraries/ROSSerial/rosserial_msgs/RequestParam.h ****       floats_length = floats_lengthT;
 2331              		.loc 9 139 0
 2332 06aa 88F81090 		strb	r9, [r8, #16]
 2333              	.LVL288:
 2334              	.LBB366:
 140:../Libraries/ROSSerial/rosserial_msgs/RequestParam.h ****       for( uint8_t i = 0; i < floats_length; i++){
 2335              		.loc 9 140 0
 2336 06ae 0022     		movs	r2, #0
 2337              	.LVL289:
 2338              	.L108:
 2339 06b0 98F81030 		ldrb	r3, [r8, #16]	@ zero_extendqisi2
 2340 06b4 9342     		cmp	r3, r2
 2341 06b6 1FD9     		bls	.L107
 2342              	.LBB367:
 141:../Libraries/ROSSerial/rosserial_msgs/RequestParam.h ****       union {
 142:../Libraries/ROSSerial/rosserial_msgs/RequestParam.h ****         float real;
 143:../Libraries/ROSSerial/rosserial_msgs/RequestParam.h ****         uint32_t base;
 144:../Libraries/ROSSerial/rosserial_msgs/RequestParam.h ****       } u_st_floats;
 145:../Libraries/ROSSerial/rosserial_msgs/RequestParam.h ****       u_st_floats.base = 0;
 146:../Libraries/ROSSerial/rosserial_msgs/RequestParam.h ****       u_st_floats.base |= ((uint32_t) (*(inbuffer + offset + 0))) << (8 * 0);
 2343              		.loc 9 146 0
 2344 06b8 BB5D     		ldrb	r3, [r7, r6]	@ zero_extendqisi2
 147:../Libraries/ROSSerial/rosserial_msgs/RequestParam.h ****       u_st_floats.base |= ((uint32_t) (*(inbuffer + offset + 1))) << (8 * 1);
 2345              		.loc 9 147 0
 2346 06ba 711C     		adds	r1, r6, #1
 2347 06bc 795C     		ldrb	r1, [r7, r1]	@ zero_extendqisi2
 2348 06be 43EA0123 		orr	r3, r3, r1, lsl #8
 148:../Libraries/ROSSerial/rosserial_msgs/RequestParam.h ****       u_st_floats.base |= ((uint32_t) (*(inbuffer + offset + 2))) << (8 * 2);
 2349              		.loc 9 148 0
ARM GAS  /var/folders/l3/4y5292px21b4835bsnjwqc7w009kq1/T//ccOhtKWi.s 			page 67


 2350 06c2 B11C     		adds	r1, r6, #2
 2351 06c4 795C     		ldrb	r1, [r7, r1]	@ zero_extendqisi2
 2352 06c6 43EA0143 		orr	r3, r3, r1, lsl #16
 149:../Libraries/ROSSerial/rosserial_msgs/RequestParam.h ****       u_st_floats.base |= ((uint32_t) (*(inbuffer + offset + 3))) << (8 * 3);
 2353              		.loc 9 149 0
 2354 06ca F11C     		adds	r1, r6, #3
 2355 06cc 795C     		ldrb	r1, [r7, r1]	@ zero_extendqisi2
 2356 06ce 43EA0163 		orr	r3, r3, r1, lsl #24
 150:../Libraries/ROSSerial/rosserial_msgs/RequestParam.h ****       this->st_floats = u_st_floats.real;
 2357              		.loc 9 150 0
 2358 06d2 C8F81430 		str	r3, [r8, #20]	@ float
 151:../Libraries/ROSSerial/rosserial_msgs/RequestParam.h ****       offset += sizeof(this->st_floats);
 2359              		.loc 9 151 0
 2360 06d6 0436     		adds	r6, r6, #4
 2361              	.LVL290:
 152:../Libraries/ROSSerial/rosserial_msgs/RequestParam.h ****         memcpy( &(this->floats[i]), &(this->st_floats), sizeof(float));
 2362              		.loc 9 152 0
 2363 06d8 D8F81810 		ldr	r1, [r8, #24]
 2364 06dc 41F82230 		str	r3, [r1, r2, lsl #2]	@ unaligned
 2365              	.LBE367:
 140:../Libraries/ROSSerial/rosserial_msgs/RequestParam.h ****       union {
 2366              		.loc 9 140 0
 2367 06e0 0132     		adds	r2, r2, #1
 2368              	.LVL291:
 2369 06e2 D2B2     		uxtb	r2, r2
 2370              	.LVL292:
 2371 06e4 E4E7     		b	.L108
 2372              	.LVL293:
 2373              	.L142:
 2374              	.LBE366:
 137:../Libraries/ROSSerial/rosserial_msgs/RequestParam.h ****       offset += 3;
 2375              		.loc 9 137 0
 2376 06e6 4FEA8901 		lsl	r1, r9, #2
 2377 06ea D8F81800 		ldr	r0, [r8, #24]
 2378 06ee FFF7FEFF 		bl	realloc
 2379              	.LVL294:
 2380 06f2 C8F81800 		str	r0, [r8, #24]
 2381 06f6 D7E7     		b	.L106
 2382              	.LVL295:
 2383              	.L107:
 153:../Libraries/ROSSerial/rosserial_msgs/RequestParam.h ****       }
 154:../Libraries/ROSSerial/rosserial_msgs/RequestParam.h ****       uint8_t strings_lengthT = *(inbuffer + offset++);
 2384              		.loc 9 154 0
 2385 06f8 17F80690 		ldrb	r9, [r7, r6]	@ zero_extendqisi2
 2386              	.LVL296:
 155:../Libraries/ROSSerial/rosserial_msgs/RequestParam.h ****       if(strings_lengthT > strings_length)
 2387              		.loc 9 155 0
 2388 06fc 98F81C30 		ldrb	r3, [r8, #28]	@ zero_extendqisi2
 2389 0700 9945     		cmp	r9, r3
 2390 0702 05D8     		bhi	.L143
 2391              	.LVL297:
 2392              	.L109:
 156:../Libraries/ROSSerial/rosserial_msgs/RequestParam.h ****         this->strings = (char**)realloc(this->strings, strings_lengthT * sizeof(char*));
 157:../Libraries/ROSSerial/rosserial_msgs/RequestParam.h ****       offset += 3;
 2393              		.loc 9 157 0
 2394 0704 321D     		adds	r2, r6, #4
 2395              	.LVL298:
ARM GAS  /var/folders/l3/4y5292px21b4835bsnjwqc7w009kq1/T//ccOhtKWi.s 			page 68


 158:../Libraries/ROSSerial/rosserial_msgs/RequestParam.h ****       strings_length = strings_lengthT;
 2396              		.loc 9 158 0
 2397 0706 88F81C90 		strb	r9, [r8, #28]
 2398              	.LVL299:
 2399              	.LBB368:
 159:../Libraries/ROSSerial/rosserial_msgs/RequestParam.h ****       for( uint8_t i = 0; i < strings_length; i++){
 2400              		.loc 9 159 0
 2401 070a 4FF0000C 		mov	ip, #0
 2402 070e 17E0     		b	.L113
 2403              	.LVL300:
 2404              	.L143:
 2405              	.LBE368:
 156:../Libraries/ROSSerial/rosserial_msgs/RequestParam.h ****         this->strings = (char**)realloc(this->strings, strings_lengthT * sizeof(char*));
 2406              		.loc 9 156 0
 2407 0710 4FEA8901 		lsl	r1, r9, #2
 2408 0714 D8F82400 		ldr	r0, [r8, #36]
 2409 0718 FFF7FEFF 		bl	realloc
 2410              	.LVL301:
 2411 071c C8F82400 		str	r0, [r8, #36]
 2412 0720 F0E7     		b	.L109
 2413              	.LVL302:
 2414              	.L111:
 2415              	.LBB372:
 2416              	.LBB369:
 160:../Libraries/ROSSerial/rosserial_msgs/RequestParam.h ****       uint32_t length_st_strings;
 161:../Libraries/ROSSerial/rosserial_msgs/RequestParam.h ****       memcpy(&length_st_strings, (inbuffer + offset), sizeof(uint32_t));
 162:../Libraries/ROSSerial/rosserial_msgs/RequestParam.h ****       offset += 4;
 163:../Libraries/ROSSerial/rosserial_msgs/RequestParam.h ****       for(unsigned int k= offset; k< offset+length_st_strings; ++k){
 164:../Libraries/ROSSerial/rosserial_msgs/RequestParam.h ****           inbuffer[k-1]=inbuffer[k];
 165:../Libraries/ROSSerial/rosserial_msgs/RequestParam.h ****       }
 166:../Libraries/ROSSerial/rosserial_msgs/RequestParam.h ****       inbuffer[offset+length_st_strings-1]=0;
 2417              		.loc 9 166 0
 2418 0722 531E     		subs	r3, r2, #1
 2419              	.LVL303:
 2420 0724 0021     		movs	r1, #0
 2421 0726 F954     		strb	r1, [r7, r3]
 167:../Libraries/ROSSerial/rosserial_msgs/RequestParam.h ****       this->st_strings = (char *)(inbuffer + offset-1);
 2422              		.loc 9 167 0
 2423 0728 731E     		subs	r3, r6, #1
 2424 072a 3B44     		add	r3, r3, r7
 2425 072c C8F82030 		str	r3, [r8, #32]
 2426              	.LVL304:
 168:../Libraries/ROSSerial/rosserial_msgs/RequestParam.h ****       offset += length_st_strings;
 169:../Libraries/ROSSerial/rosserial_msgs/RequestParam.h ****         memcpy( &(this->strings[i]), &(this->st_strings), sizeof(char*));
 2427              		.loc 9 169 0
 2428 0730 D8F82410 		ldr	r1, [r8, #36]
 2429 0734 41F82C30 		str	r3, [r1, ip, lsl #2]	@ unaligned
 2430              	.LVL305:
 2431              	.LBE369:
 159:../Libraries/ROSSerial/rosserial_msgs/RequestParam.h ****       uint32_t length_st_strings;
 2432              		.loc 9 159 0
 2433 0738 0CF1010C 		add	ip, ip, #1
 2434              	.LVL306:
 2435 073c 5FFA8CFC 		uxtb	ip, ip
 2436              	.LVL307:
 2437              	.L113:
 2438 0740 98F81C30 		ldrb	r3, [r8, #28]	@ zero_extendqisi2
ARM GAS  /var/folders/l3/4y5292px21b4835bsnjwqc7w009kq1/T//ccOhtKWi.s 			page 69


 2439 0744 6345     		cmp	r3, ip
 2440 0746 0AD9     		bls	.L110
 2441              	.LBB371:
 161:../Libraries/ROSSerial/rosserial_msgs/RequestParam.h ****       offset += 4;
 2442              		.loc 9 161 0
 2443 0748 B858     		ldr	r0, [r7, r2]	@ unaligned
 2444              	.LVL308:
 162:../Libraries/ROSSerial/rosserial_msgs/RequestParam.h ****       for(unsigned int k= offset; k< offset+length_st_strings; ++k){
 2445              		.loc 9 162 0
 2446 074a 161D     		adds	r6, r2, #4
 2447              	.LVL309:
 2448              	.LBB370:
 163:../Libraries/ROSSerial/rosserial_msgs/RequestParam.h ****           inbuffer[k-1]=inbuffer[k];
 2449              		.loc 9 163 0
 2450 074c 3346     		mov	r3, r6
 2451              	.LVL310:
 2452              	.L112:
 2453 074e 8219     		adds	r2, r0, r6
 2454 0750 9A42     		cmp	r2, r3
 2455 0752 E6D9     		bls	.L111
 164:../Libraries/ROSSerial/rosserial_msgs/RequestParam.h ****       }
 2456              		.loc 9 164 0
 2457 0754 5A1E     		subs	r2, r3, #1
 2458 0756 F95C     		ldrb	r1, [r7, r3]	@ zero_extendqisi2
 2459 0758 B954     		strb	r1, [r7, r2]
 163:../Libraries/ROSSerial/rosserial_msgs/RequestParam.h ****           inbuffer[k-1]=inbuffer[k];
 2460              		.loc 9 163 0
 2461 075a 0133     		adds	r3, r3, #1
 2462              	.LVL311:
 2463 075c F7E7     		b	.L112
 2464              	.LVL312:
 2465              	.L110:
 2466              	.LBE370:
 2467              	.LBE371:
 2468              	.LBE372:
 2469              	.LBE362:
 2470              	.LBE361:
 349:../Libraries/ROSSerial/ros/node_handle.h ****           }
 2471              		.loc 5 349 0
 2472 075e 0123     		movs	r3, #1
 2473 0760 84F86434 		strb	r3, [r4, #1124]
 2474 0764 89E4     		b	.L57
 2475              	.LVL313:
 2476              	.L138:
 353:../Libraries/ROSSerial/ros/node_handle.h ****           }
 2477              		.loc 5 353 0
 2478 0766 0023     		movs	r3, #0
 2479 0768 84F85434 		strb	r3, [r4, #1108]
 2480 076c 85E4     		b	.L57
 2481              	.LVL314:
 2482              	.L126:
 2483              	.LBE251:
 2484              	.LBB373:
 2485              	.LBB374:
 2486              	.LBB375:
 2487              	.LBB376:
  14:../Libraries/ROSSerial/std_msgs/Time.h ****   {
ARM GAS  /var/folders/l3/4y5292px21b4835bsnjwqc7w009kq1/T//ccOhtKWi.s 			page 70


 2488              		.loc 1 14 0
 2489 076e 4B4B     		ldr	r3, .L149
 2490 0770 0093     		str	r3, [sp]
 2491              	.LVL315:
 2492              	.LBB377:
 2493              	.LBB378:
 2494              	.LBB379:
 2495              		.loc 7 51 0
 2496 0772 0026     		movs	r6, #0
 2497 0774 0196     		str	r6, [sp, #4]
 2498 0776 0296     		str	r6, [sp, #8]
 2499              	.LVL316:
 2500              	.LBE379:
 2501              	.LBE378:
 2502              	.LBE377:
 2503              	.LBE376:
 2504              	.LBE375:
 2505              	.LBB380:
 2506              	.LBB381:
 539:../Libraries/ROSSerial/ros/node_handle.h **** 
 2507              		.loc 5 539 0
 2508 0778 1B68     		ldr	r3, [r3]
 2509 077a 04F21F21 		addw	r1, r4, #543
 2510 077e 6846     		mov	r0, sp
 2511 0780 9847     		blx	r3
 2512              	.LVL317:
 542:../Libraries/ROSSerial/ros/node_handle.h ****     message_out[1] = PROTOCOL_VER;
 2513              		.loc 5 542 0
 2514 0782 FF23     		movs	r3, #255
 2515 0784 84F81832 		strb	r3, [r4, #536]
 543:../Libraries/ROSSerial/ros/node_handle.h ****     message_out[2] = (uint8_t)((uint16_t)l & 255);
 2516              		.loc 5 543 0
 2517 0788 FE23     		movs	r3, #254
 2518 078a 84F81932 		strb	r3, [r4, #537]
 544:../Libraries/ROSSerial/ros/node_handle.h ****     message_out[3] = (uint8_t)((uint16_t)l >> 8);
 2519              		.loc 5 544 0
 2520 078e C3B2     		uxtb	r3, r0
 2521 0790 84F81A32 		strb	r3, [r4, #538]
 545:../Libraries/ROSSerial/ros/node_handle.h ****     message_out[4] = 255 - ((message_out[2] + message_out[3]) % 256);
 2522              		.loc 5 545 0
 2523 0794 C0F30722 		ubfx	r2, r0, #8, #8
 2524 0798 84F81B22 		strb	r2, [r4, #539]
 546:../Libraries/ROSSerial/ros/node_handle.h ****     message_out[5] = (uint8_t)((int16_t)id & 255);
 2525              		.loc 5 546 0
 2526 079c 1344     		add	r3, r3, r2
 2527 079e DBB2     		uxtb	r3, r3
 2528 07a0 DB43     		mvns	r3, r3
 2529 07a2 84F81C32 		strb	r3, [r4, #540]
 547:../Libraries/ROSSerial/ros/node_handle.h ****     message_out[6] = (uint8_t)((int16_t)id >> 8);
 2530              		.loc 5 547 0
 2531 07a6 0A23     		movs	r3, #10
 2532 07a8 84F81D32 		strb	r3, [r4, #541]
 548:../Libraries/ROSSerial/ros/node_handle.h **** 
 2533              		.loc 5 548 0
 2534 07ac 84F81E62 		strb	r6, [r4, #542]
 2535              	.LVL318:
 2536              	.LBB382:
ARM GAS  /var/folders/l3/4y5292px21b4835bsnjwqc7w009kq1/T//ccOhtKWi.s 			page 71


 552:../Libraries/ROSSerial/ros/node_handle.h ****       chk += message_out[i];
 2537              		.loc 5 552 0
 2538 07b0 0522     		movs	r2, #5
 2539              	.LBE382:
 551:../Libraries/ROSSerial/ros/node_handle.h ****     for (int i = 5; i < l + 7; i++)
 2540              		.loc 5 551 0
 2541 07b2 3346     		mov	r3, r6
 2542 07b4 04E0     		b	.L116
 2543              	.LVL319:
 2544              	.L144:
 2545              	.LBB383:
 553:../Libraries/ROSSerial/ros/node_handle.h ****     l += 7;
 2546              		.loc 5 553 0
 2547 07b6 A118     		adds	r1, r4, r2
 2548 07b8 91F81812 		ldrb	r1, [r1, #536]	@ zero_extendqisi2
 2549 07bc 0B44     		add	r3, r3, r1
 2550              	.LVL320:
 552:../Libraries/ROSSerial/ros/node_handle.h ****       chk += message_out[i];
 2551              		.loc 5 552 0
 2552 07be 0132     		adds	r2, r2, #1
 2553              	.LVL321:
 2554              	.L116:
 2555 07c0 C11D     		adds	r1, r0, #7
 2556 07c2 9142     		cmp	r1, r2
 2557 07c4 F7DC     		bgt	.L144
 2558              	.LVL322:
 2559              	.LBE383:
 555:../Libraries/ROSSerial/ros/node_handle.h ****     //printf("Sending message - %s\n",message_out);
 2560              		.loc 5 555 0
 2561 07c6 5A42     		rsbs	r2, r3, #0
 2562              	.LVL323:
 2563 07c8 DBB2     		uxtb	r3, r3
 2564              	.LVL324:
 2565 07ca D2B2     		uxtb	r2, r2
 2566 07cc 58BF     		it	pl
 2567 07ce 5342     		rsbpl	r3, r2, #0
 2568 07d0 00F10802 		add	r2, r0, #8
 2569              	.LVL325:
 2570 07d4 DB43     		mvns	r3, r3
 2571 07d6 2144     		add	r1, r1, r4
 2572 07d8 81F81832 		strb	r3, [r1, #536]
 557:../Libraries/ROSSerial/ros/node_handle.h ****     {
 2573              		.loc 5 557 0
 2574 07dc B2F5007F 		cmp	r2, #512
 2575 07e0 0BDC     		bgt	.L117
 2576              	.LVL326:
 2577              	.LBB384:
 2578              	.LBB385:
  87:../Libraries/ROSSerial/stm32hardware.h **** 	}
 2579              		.loc 6 87 0
 2580 07e2 92B2     		uxth	r2, r2
 2581              	.LVL327:
 2582 07e4 04F50671 		add	r1, r4, #536
 2583              	.LVL328:
 2584 07e8 0020     		movs	r0, #0
 2585              	.LVL329:
 2586 07ea FFF7FEFF 		bl	comSendBuf
ARM GAS  /var/folders/l3/4y5292px21b4835bsnjwqc7w009kq1/T//ccOhtKWi.s 			page 72


 2587              	.LVL330:
 2588              	.L118:
 2589              	.LBE385:
 2590              	.LBE384:
 2591              	.LBE381:
 2592              	.LBE380:
 2593              	.LBB402:
 2594              	.LBB403:
 2595              		.loc 6 99 0
 2596 07ee FFF7FEFF 		bl	xTaskGetTickCount
 2597              	.LVL331:
 2598              	.LBE403:
 2599              	.LBE402:
 390:../Libraries/ROSSerial/ros/node_handle.h ****   }
 2600              		.loc 5 390 0
 2601 07f2 A060     		str	r0, [r4, #8]
 2602              	.LVL332:
 2603              	.LBE374:
 2604              	.LBE373:
 369:../Libraries/ROSSerial/ros/node_handle.h ****     }
 2605              		.loc 5 369 0
 2606 07f4 C4F85854 		str	r5, [r4, #1112]
 2607 07f8 11E4     		b	.L123
 2608              	.LVL333:
 2609              	.L117:
 2610              	.LBB406:
 2611              	.LBB405:
 2612              	.LBB404:
 2613              	.LBB401:
 2614              	.LBB386:
 2615              	.LBB387:
 2616              	.LBB388:
 2617              	.LBB389:
 2618              	.LBB390:
  13:../Libraries/ROSSerial/rosserial_msgs/Log.h ****   {
 2619              		.loc 3 13 0
 2620 07fa 294B     		ldr	r3, .L149+4
 2621 07fc 0393     		str	r3, [sp, #12]
 2622              	.LVL334:
 2623              	.LBE390:
 2624              	.LBE389:
 577:../Libraries/ROSSerial/ros/node_handle.h ****     l.msg = (char*)msg;
 2625              		.loc 5 577 0
 2626 07fe 0322     		movs	r2, #3
 2627              	.LVL335:
 2628 0800 8DF81020 		strb	r2, [sp, #16]
 578:../Libraries/ROSSerial/ros/node_handle.h ****     publish1(rosserial_msgs::TopicInfo::ID_LOG, &l);
 2629              		.loc 5 578 0
 2630 0804 274A     		ldr	r2, .L149+8
 2631 0806 0592     		str	r2, [sp, #20]
 2632              	.LVL336:
 2633              	.LBB391:
 2634              	.LBB392:
 539:../Libraries/ROSSerial/ros/node_handle.h **** 
 2635              		.loc 5 539 0
 2636 0808 1B68     		ldr	r3, [r3]
 2637 080a 04F21F21 		addw	r1, r4, #543
ARM GAS  /var/folders/l3/4y5292px21b4835bsnjwqc7w009kq1/T//ccOhtKWi.s 			page 73


 2638 080e 03A8     		add	r0, sp, #12
 2639              	.LVL337:
 2640 0810 9847     		blx	r3
 2641              	.LVL338:
 542:../Libraries/ROSSerial/ros/node_handle.h ****     message_out[1] = PROTOCOL_VER;
 2642              		.loc 5 542 0
 2643 0812 FF23     		movs	r3, #255
 2644 0814 84F81832 		strb	r3, [r4, #536]
 543:../Libraries/ROSSerial/ros/node_handle.h ****     message_out[2] = (uint8_t)((uint16_t)l & 255);
 2645              		.loc 5 543 0
 2646 0818 FE23     		movs	r3, #254
 2647 081a 84F81932 		strb	r3, [r4, #537]
 544:../Libraries/ROSSerial/ros/node_handle.h ****     message_out[3] = (uint8_t)((uint16_t)l >> 8);
 2648              		.loc 5 544 0
 2649 081e C3B2     		uxtb	r3, r0
 2650 0820 84F81A32 		strb	r3, [r4, #538]
 545:../Libraries/ROSSerial/ros/node_handle.h ****     message_out[4] = 255 - ((message_out[2] + message_out[3]) % 256);
 2651              		.loc 5 545 0
 2652 0824 C0F30722 		ubfx	r2, r0, #8, #8
 2653 0828 84F81B22 		strb	r2, [r4, #539]
 546:../Libraries/ROSSerial/ros/node_handle.h ****     message_out[5] = (uint8_t)((int16_t)id & 255);
 2654              		.loc 5 546 0
 2655 082c 1344     		add	r3, r3, r2
 2656 082e DBB2     		uxtb	r3, r3
 2657 0830 DB43     		mvns	r3, r3
 2658 0832 84F81C32 		strb	r3, [r4, #540]
 547:../Libraries/ROSSerial/ros/node_handle.h ****     message_out[6] = (uint8_t)((int16_t)id >> 8);
 2659              		.loc 5 547 0
 2660 0836 0723     		movs	r3, #7
 2661 0838 84F81D32 		strb	r3, [r4, #541]
 548:../Libraries/ROSSerial/ros/node_handle.h **** 
 2662              		.loc 5 548 0
 2663 083c 0023     		movs	r3, #0
 2664 083e 84F81E32 		strb	r3, [r4, #542]
 2665              	.LVL339:
 2666              	.LBB393:
 552:../Libraries/ROSSerial/ros/node_handle.h ****       chk += message_out[i];
 2667              		.loc 5 552 0
 2668 0842 0526     		movs	r6, #5
 2669              	.LVL340:
 2670              	.L120:
 2671 0844 C11D     		adds	r1, r0, #7
 2672 0846 B142     		cmp	r1, r6
 2673 0848 05DD     		ble	.L119
 553:../Libraries/ROSSerial/ros/node_handle.h ****     l += 7;
 2674              		.loc 5 553 0
 2675 084a A219     		adds	r2, r4, r6
 2676 084c 92F81822 		ldrb	r2, [r2, #536]	@ zero_extendqisi2
 2677 0850 1344     		add	r3, r3, r2
 2678              	.LVL341:
 552:../Libraries/ROSSerial/ros/node_handle.h ****       chk += message_out[i];
 2679              		.loc 5 552 0
 2680 0852 0136     		adds	r6, r6, #1
 2681              	.LVL342:
 2682 0854 F6E7     		b	.L120
 2683              	.L119:
 2684              	.LVL343:
ARM GAS  /var/folders/l3/4y5292px21b4835bsnjwqc7w009kq1/T//ccOhtKWi.s 			page 74


 2685              	.LBE393:
 555:../Libraries/ROSSerial/ros/node_handle.h ****     //printf("Sending message - %s\n",message_out);
 2686              		.loc 5 555 0
 2687 0856 5A42     		rsbs	r2, r3, #0
 2688 0858 DBB2     		uxtb	r3, r3
 2689              	.LVL344:
 2690 085a D2B2     		uxtb	r2, r2
 2691 085c 58BF     		it	pl
 2692 085e 5342     		rsbpl	r3, r2, #0
 2693 0860 00F10802 		add	r2, r0, #8
 2694              	.LVL345:
 2695 0864 DB43     		mvns	r3, r3
 2696 0866 2144     		add	r1, r1, r4
 2697 0868 81F81832 		strb	r3, [r1, #536]
 557:../Libraries/ROSSerial/ros/node_handle.h ****     {
 2698              		.loc 5 557 0
 2699 086c B2F5007F 		cmp	r2, #512
 2700 0870 06DC     		bgt	.L121
 2701              	.LVL346:
 2702              	.LBB394:
 2703              	.LBB395:
  87:../Libraries/ROSSerial/stm32hardware.h **** 	}
 2704              		.loc 6 87 0
 2705 0872 92B2     		uxth	r2, r2
 2706              	.LVL347:
 2707 0874 04F50671 		add	r1, r4, #536
 2708              	.LVL348:
 2709 0878 0020     		movs	r0, #0
 2710              	.LVL349:
 2711 087a FFF7FEFF 		bl	comSendBuf
 2712              	.LVL350:
 2713 087e B6E7     		b	.L118
 2714              	.LVL351:
 2715              	.L121:
 2716              	.LBE395:
 2717              	.LBE394:
 2718              	.LBB396:
 2719              	.LBB397:
 2720              	.LBB398:
 2721              	.LBB399:
 2722              	.LBB400:
  13:../Libraries/ROSSerial/rosserial_msgs/Log.h ****   {
 2723              		.loc 3 13 0
 2724 0880 074B     		ldr	r3, .L149+4
 2725 0882 0693     		str	r3, [sp, #24]
 2726              	.LVL352:
 2727              	.LBE400:
 2728              	.LBE399:
 577:../Libraries/ROSSerial/ros/node_handle.h ****     l.msg = (char*)msg;
 2729              		.loc 5 577 0
 2730 0884 0323     		movs	r3, #3
 2731 0886 8DF81C30 		strb	r3, [sp, #28]
 578:../Libraries/ROSSerial/ros/node_handle.h ****     publish1(rosserial_msgs::TopicInfo::ID_LOG, &l);
 2732              		.loc 5 578 0
 2733 088a 064B     		ldr	r3, .L149+8
 2734 088c 0893     		str	r3, [sp, #32]
 2735              		.loc 5 579 0
ARM GAS  /var/folders/l3/4y5292px21b4835bsnjwqc7w009kq1/T//ccOhtKWi.s 			page 75


 2736 088e 06AA     		add	r2, sp, #24
 2737              	.LVL353:
 2738 0890 0721     		movs	r1, #7
 2739 0892 2046     		mov	r0, r4
 2740              	.LVL354:
 2741 0894 FFF7FEFF 		bl	_ZN3ros11NodeHandle_I13STM32HardwareLi5ELi5ELi512ELi512EE8publish1EiPKNS_3MsgE
 2742              	.LVL355:
 2743 0898 A9E7     		b	.L118
 2744              	.L150:
 2745 089a 00BF     		.align	2
 2746              	.L149:
 2747 089c 08000000 		.word	_ZTVN8std_msgs4TimeE+8
 2748 08a0 08000000 		.word	_ZTVN14rosserial_msgs3LogE+8
 2749 08a4 00000000 		.word	.LC9
 2750              	.LBE398:
 2751              	.LBE397:
 2752              	.LBE396:
 2753              	.LBE392:
 2754              	.LBE391:
 2755              	.LBE388:
 2756              	.LBE387:
 2757              	.LBE386:
 2758              	.LBE401:
 2759              	.LBE404:
 2760              	.LBE405:
 2761              	.LBE406:
 2762              	.LBE407:
 2763              	.LBE408:
 2764              		.cfi_endproc
 2765              	.LFE468:
 2766              		.fnend
 2768              		.weak	_ZTVN8std_msgs4TimeE
 2769              		.section	.rodata._ZTVN8std_msgs4TimeE,"aG",%progbits,_ZTVN8std_msgs4TimeE,comdat
 2770              		.align	2
 2773              	_ZTVN8std_msgs4TimeE:
 2774 0000 00000000 		.word	0
 2775 0004 00000000 		.word	0
 2776 0008 00000000 		.word	_ZNK8std_msgs4Time9serializeEPh
 2777 000c 00000000 		.word	_ZN8std_msgs4Time11deserializeEPh
 2778 0010 00000000 		.word	_ZN8std_msgs4Time7getTypeEv
 2779 0014 00000000 		.word	_ZN8std_msgs4Time6getMD5Ev
 2780              		.weak	_ZTVN14rosserial_msgs9TopicInfoE
 2781              		.section	.rodata._ZTVN14rosserial_msgs9TopicInfoE,"aG",%progbits,_ZTVN14rosserial_msgs9TopicInfoE,
 2782              		.align	2
 2785              	_ZTVN14rosserial_msgs9TopicInfoE:
 2786 0000 00000000 		.word	0
 2787 0004 00000000 		.word	0
 2788 0008 00000000 		.word	_ZNK14rosserial_msgs9TopicInfo9serializeEPh
 2789 000c 00000000 		.word	_ZN14rosserial_msgs9TopicInfo11deserializeEPh
 2790 0010 00000000 		.word	_ZN14rosserial_msgs9TopicInfo7getTypeEv
 2791 0014 00000000 		.word	_ZN14rosserial_msgs9TopicInfo6getMD5Ev
 2792              		.weak	_ZTVN14rosserial_msgs3LogE
 2793              		.section	.rodata._ZTVN14rosserial_msgs3LogE,"aG",%progbits,_ZTVN14rosserial_msgs3LogE,comdat
 2794              		.align	2
 2797              	_ZTVN14rosserial_msgs3LogE:
 2798 0000 00000000 		.word	0
 2799 0004 00000000 		.word	0
ARM GAS  /var/folders/l3/4y5292px21b4835bsnjwqc7w009kq1/T//ccOhtKWi.s 			page 76


 2800 0008 00000000 		.word	_ZNK14rosserial_msgs3Log9serializeEPh
 2801 000c 00000000 		.word	_ZN14rosserial_msgs3Log11deserializeEPh
 2802 0010 00000000 		.word	_ZN14rosserial_msgs3Log7getTypeEv
 2803 0014 00000000 		.word	_ZN14rosserial_msgs3Log6getMD5Ev
 2804              		.section	.rodata
 2805              		.align	2
 2806              		.set	.LANCHOR1,. + 0
 2807              	.LC8:
 2808 0000 00000000 		.word	.LC0
 2809 0004 00000000 		.word	_Z19ROS_SpinTaskHandlerPKv
 2810 0008 0000     		.short	0
 2811 000a 0000     		.space	2
 2812 000c 00000000 		.word	0
 2813 0010 80000000 		.word	128
 2814              		.section	.bss._ZL3nh_,"aw",%nobits
 2815              		.align	2
 2816              		.set	.LANCHOR0,. + 0
 2819              	_ZL3nh_:
 2820 0000 00000000 		.space	4
 2821              		.section	.rodata._Z19ROS_SpinTaskHandlerPKv.str1.4,"aMS",%progbits,1
 2822              		.align	2
 2823              	.LC10:
 2824 0000 6C656400 		.ascii	"led\000"
 2825              	.LC11:
 2826 0004 7374645F 		.ascii	"std_msgs/UInt16\000"
 2826      6D736773 
 2826      2F55496E 
 2826      74313600 
 2827              	.LC12:
 2828 0014 31646637 		.ascii	"1df79edf208b629fe6b81923a544552d\000"
 2828      39656466 
 2828      32303862 
 2828      36323966 
 2828      65366238 
 2829              		.section	.rodata._ZN14rosserial_msgs3Log6getMD5Ev.str1.4,"aMS",%progbits,1
 2830              		.align	2
 2831              	.LC7:
 2832 0000 31316162 		.ascii	"11abd731c25933261cd6183bd12d6295\000"
 2832      64373331 
 2832      63323539 
 2832      33333236 
 2832      31636436 
 2833              		.section	.rodata._ZN14rosserial_msgs3Log7getTypeEv.str1.4,"aMS",%progbits,1
 2834              		.align	2
 2835              	.LC6:
 2836 0000 726F7373 		.ascii	"rosserial_msgs/Log\000"
 2836      65726961 
 2836      6C5F6D73 
 2836      67732F4C 
 2836      6F6700
 2837              		.section	.rodata._ZN14rosserial_msgs9TopicInfo6getMD5Ev.str1.4,"aMS",%progbits,1
 2838              		.align	2
 2839              	.LC5:
 2840 0000 30616435 		.ascii	"0ad51f88fc44892f8c10684077646005\000"
 2840      31663838 
 2840      66633434 
 2840      38393266 
ARM GAS  /var/folders/l3/4y5292px21b4835bsnjwqc7w009kq1/T//ccOhtKWi.s 			page 77


 2840      38633130 
 2841              		.section	.rodata._ZN14rosserial_msgs9TopicInfo7getTypeEv.str1.4,"aMS",%progbits,1
 2842              		.align	2
 2843              	.LC4:
 2844 0000 726F7373 		.ascii	"rosserial_msgs/TopicInfo\000"
 2844      65726961 
 2844      6C5F6D73 
 2844      67732F54 
 2844      6F706963 
 2845              		.section	.rodata._ZN3ros11NodeHandle_I13STM32HardwareLi5ELi5ELi512ELi512EE8publish1EiPKNS_3MsgE.st
 2846              		.align	2
 2847              	.LC9:
 2848 0000 4D657373 		.ascii	"Message from device dropped: message larger than bu"
 2848      61676520 
 2848      66726F6D 
 2848      20646576 
 2848      69636520 
 2849 0033 66666572 		.ascii	"ffer.\000"
 2849      2E00
 2850              		.section	.rodata._ZN8std_msgs4Time6getMD5Ev.str1.4,"aMS",%progbits,1
 2851              		.align	2
 2852              	.LC3:
 2853 0000 63643731 		.ascii	"cd7166c74c552c311fbcc2fe5a7bc289\000"
 2853      36366337 
 2853      34633535 
 2853      32633331 
 2853      31666263 
 2854              		.section	.rodata._ZN8std_msgs4Time7getTypeEv.str1.4,"aMS",%progbits,1
 2855              		.align	2
 2856              	.LC2:
 2857 0000 7374645F 		.ascii	"std_msgs/Time\000"
 2857      6D736773 
 2857      2F54696D 
 2857      6500
 2858              		.section	.rodata.str1.4,"aMS",%progbits,1
 2859              		.align	2
 2860              	.LC0:
 2861 0000 524F535F 		.ascii	"ROS_SpinTask\000"
 2861      5370696E 
 2861      5461736B 
 2861      00
 2862              		.text
 2863              	.Letext0:
 2864              		.file 10 "/usr/local/Cellar/gcc-arm-none-eabi/20180627/arm-none-eabi/include/machine/_default_type
 2865              		.file 11 "/usr/local/Cellar/gcc-arm-none-eabi/20180627/lib/gcc/arm-none-eabi/7.3.1/include/stddef.
 2866              		.file 12 "/usr/local/Cellar/gcc-arm-none-eabi/20180627/arm-none-eabi/include/sys/lock.h"
 2867              		.file 13 "/usr/local/Cellar/gcc-arm-none-eabi/20180627/arm-none-eabi/include/sys/_types.h"
 2868              		.file 14 "/usr/local/Cellar/gcc-arm-none-eabi/20180627/arm-none-eabi/include/sys/reent.h"
 2869              		.file 15 "/usr/local/Cellar/gcc-arm-none-eabi/20180627/arm-none-eabi/include/sys/_stdint.h"
 2870              		.file 16 "../Libraries/CMSIS/CM4/CoreSupport/core_cm4.h"
 2871              		.file 17 "../Libraries/CMSIS/CM4/DeviceSupport/system_at32f4xx.h"
 2872              		.file 18 "Inc/FreeRTOSConfig.h"
 2873              		.file 19 "../Middlewares/FreeRTOS//Source/include/task.h"
 2874              		.file 20 "../Middlewares/FreeRTOS//Source/CMSIS_RTOS/cmsis_os.h"
 2875              		.file 21 "bsp/inc/bsp_uart_fifo.h"
 2876              		.file 22 "/usr/local/Cellar/gcc-arm-none-eabi/20180627/arm-none-eabi/include/c++/7.3.1/cstdlib"
 2877              		.file 23 "/usr/local/Cellar/gcc-arm-none-eabi/20180627/arm-none-eabi/include/c++/7.3.1/cmath"
ARM GAS  /var/folders/l3/4y5292px21b4835bsnjwqc7w009kq1/T//ccOhtKWi.s 			page 78


 2878              		.file 24 "/usr/local/Cellar/gcc-arm-none-eabi/20180627/arm-none-eabi/include/c++/7.3.1/arm-none-ea
 2879              		.file 25 "/usr/local/Cellar/gcc-arm-none-eabi/20180627/arm-none-eabi/include/stdlib.h"
 2880              		.file 26 "/usr/local/Cellar/gcc-arm-none-eabi/20180627/arm-none-eabi/include/c++/7.3.1/stdlib.h"
 2881              		.file 27 "/usr/local/Cellar/gcc-arm-none-eabi/20180627/arm-none-eabi/include/math.h"
 2882              		.file 28 "/usr/local/Cellar/gcc-arm-none-eabi/20180627/arm-none-eabi/include/c++/7.3.1/math.h"
 2883              		.file 29 "<built-in>"
 2884              		.file 30 "../Libraries/ROSSerial/ros/msg.h"
 2885              		.file 31 "../Libraries/ROSSerial/ros/duration.h"
 2886              		.file 32 "../Libraries/ROSSerial/ros.h"
 2887              		.file 33 "/usr/local/Cellar/gcc-arm-none-eabi/20180627/arm-none-eabi/include/string.h"
ARM GAS  /var/folders/l3/4y5292px21b4835bsnjwqc7w009kq1/T//ccOhtKWi.s 			page 79


DEFINED SYMBOLS
                            *ABS*:0000000000000000 spin_task.cpp
/var/folders/l3/4y5292px21b4835bsnjwqc7w009kq1/T//ccOhtKWi.s:17     .text._ZNK8std_msgs4Time9serializeEPh:0000000000000000 $t
/var/folders/l3/4y5292px21b4835bsnjwqc7w009kq1/T//ccOhtKWi.s:24     .text._ZNK8std_msgs4Time9serializeEPh:0000000000000000 _ZNK8std_msgs4Time9serializeEPh
.ARM.exidx.text._ZNK8std_msgs4Time9serializeEPh:0000000000000000 $d
/var/folders/l3/4y5292px21b4835bsnjwqc7w009kq1/T//ccOhtKWi.s:72     .text._ZN8std_msgs4Time11deserializeEPh:0000000000000000 $t
/var/folders/l3/4y5292px21b4835bsnjwqc7w009kq1/T//ccOhtKWi.s:79     .text._ZN8std_msgs4Time11deserializeEPh:0000000000000000 _ZN8std_msgs4Time11deserializeEPh
.ARM.exidx.text._ZN8std_msgs4Time11deserializeEPh:0000000000000000 $d
/var/folders/l3/4y5292px21b4835bsnjwqc7w009kq1/T//ccOhtKWi.s:130    .text._ZN8std_msgs4Time7getTypeEv:0000000000000000 $t
/var/folders/l3/4y5292px21b4835bsnjwqc7w009kq1/T//ccOhtKWi.s:137    .text._ZN8std_msgs4Time7getTypeEv:0000000000000000 _ZN8std_msgs4Time7getTypeEv
/var/folders/l3/4y5292px21b4835bsnjwqc7w009kq1/T//ccOhtKWi.s:153    .text._ZN8std_msgs4Time7getTypeEv:0000000000000004 $d
.ARM.exidx.text._ZN8std_msgs4Time7getTypeEv:0000000000000000 $d
/var/folders/l3/4y5292px21b4835bsnjwqc7w009kq1/T//ccOhtKWi.s:160    .text._ZN8std_msgs4Time6getMD5Ev:0000000000000000 $t
/var/folders/l3/4y5292px21b4835bsnjwqc7w009kq1/T//ccOhtKWi.s:167    .text._ZN8std_msgs4Time6getMD5Ev:0000000000000000 _ZN8std_msgs4Time6getMD5Ev
/var/folders/l3/4y5292px21b4835bsnjwqc7w009kq1/T//ccOhtKWi.s:183    .text._ZN8std_msgs4Time6getMD5Ev:0000000000000004 $d
.ARM.exidx.text._ZN8std_msgs4Time6getMD5Ev:0000000000000000 $d
/var/folders/l3/4y5292px21b4835bsnjwqc7w009kq1/T//ccOhtKWi.s:190    .text._ZN14rosserial_msgs9TopicInfo11deserializeEPh:0000000000000000 $t
/var/folders/l3/4y5292px21b4835bsnjwqc7w009kq1/T//ccOhtKWi.s:197    .text._ZN14rosserial_msgs9TopicInfo11deserializeEPh:0000000000000000 _ZN14rosserial_msgs9TopicInfo11deserializeEPh
.ARM.exidx.text._ZN14rosserial_msgs9TopicInfo11deserializeEPh:0000000000000000 $d
/var/folders/l3/4y5292px21b4835bsnjwqc7w009kq1/T//ccOhtKWi.s:359    .text._ZN14rosserial_msgs9TopicInfo7getTypeEv:0000000000000000 $t
/var/folders/l3/4y5292px21b4835bsnjwqc7w009kq1/T//ccOhtKWi.s:366    .text._ZN14rosserial_msgs9TopicInfo7getTypeEv:0000000000000000 _ZN14rosserial_msgs9TopicInfo7getTypeEv
/var/folders/l3/4y5292px21b4835bsnjwqc7w009kq1/T//ccOhtKWi.s:382    .text._ZN14rosserial_msgs9TopicInfo7getTypeEv:0000000000000004 $d
.ARM.exidx.text._ZN14rosserial_msgs9TopicInfo7getTypeEv:0000000000000000 $d
/var/folders/l3/4y5292px21b4835bsnjwqc7w009kq1/T//ccOhtKWi.s:389    .text._ZN14rosserial_msgs9TopicInfo6getMD5Ev:0000000000000000 $t
/var/folders/l3/4y5292px21b4835bsnjwqc7w009kq1/T//ccOhtKWi.s:396    .text._ZN14rosserial_msgs9TopicInfo6getMD5Ev:0000000000000000 _ZN14rosserial_msgs9TopicInfo6getMD5Ev
/var/folders/l3/4y5292px21b4835bsnjwqc7w009kq1/T//ccOhtKWi.s:412    .text._ZN14rosserial_msgs9TopicInfo6getMD5Ev:0000000000000004 $d
.ARM.exidx.text._ZN14rosserial_msgs9TopicInfo6getMD5Ev:0000000000000000 $d
/var/folders/l3/4y5292px21b4835bsnjwqc7w009kq1/T//ccOhtKWi.s:419    .text._ZN14rosserial_msgs3Log11deserializeEPh:0000000000000000 $t
/var/folders/l3/4y5292px21b4835bsnjwqc7w009kq1/T//ccOhtKWi.s:426    .text._ZN14rosserial_msgs3Log11deserializeEPh:0000000000000000 _ZN14rosserial_msgs3Log11deserializeEPh
.ARM.exidx.text._ZN14rosserial_msgs3Log11deserializeEPh:0000000000000000 $d
/var/folders/l3/4y5292px21b4835bsnjwqc7w009kq1/T//ccOhtKWi.s:494    .text._ZN14rosserial_msgs3Log7getTypeEv:0000000000000000 $t
/var/folders/l3/4y5292px21b4835bsnjwqc7w009kq1/T//ccOhtKWi.s:501    .text._ZN14rosserial_msgs3Log7getTypeEv:0000000000000000 _ZN14rosserial_msgs3Log7getTypeEv
/var/folders/l3/4y5292px21b4835bsnjwqc7w009kq1/T//ccOhtKWi.s:517    .text._ZN14rosserial_msgs3Log7getTypeEv:0000000000000004 $d
.ARM.exidx.text._ZN14rosserial_msgs3Log7getTypeEv:0000000000000000 $d
/var/folders/l3/4y5292px21b4835bsnjwqc7w009kq1/T//ccOhtKWi.s:524    .text._ZN14rosserial_msgs3Log6getMD5Ev:0000000000000000 $t
/var/folders/l3/4y5292px21b4835bsnjwqc7w009kq1/T//ccOhtKWi.s:531    .text._ZN14rosserial_msgs3Log6getMD5Ev:0000000000000000 _ZN14rosserial_msgs3Log6getMD5Ev
/var/folders/l3/4y5292px21b4835bsnjwqc7w009kq1/T//ccOhtKWi.s:547    .text._ZN14rosserial_msgs3Log6getMD5Ev:0000000000000004 $d
.ARM.exidx.text._ZN14rosserial_msgs3Log6getMD5Ev:0000000000000000 $d
/var/folders/l3/4y5292px21b4835bsnjwqc7w009kq1/T//ccOhtKWi.s:554    .text._ZNK14rosserial_msgs9TopicInfo9serializeEPh:0000000000000000 $t
/var/folders/l3/4y5292px21b4835bsnjwqc7w009kq1/T//ccOhtKWi.s:561    .text._ZNK14rosserial_msgs9TopicInfo9serializeEPh:0000000000000000 _ZNK14rosserial_msgs9TopicInfo9serializeEPh
.ARM.exidx.text._ZNK14rosserial_msgs9TopicInfo9serializeEPh:0000000000000000 $d
/var/folders/l3/4y5292px21b4835bsnjwqc7w009kq1/T//ccOhtKWi.s:678    .text._ZNK14rosserial_msgs3Log9serializeEPh:0000000000000000 $t
/var/folders/l3/4y5292px21b4835bsnjwqc7w009kq1/T//ccOhtKWi.s:685    .text._ZNK14rosserial_msgs3Log9serializeEPh:0000000000000000 _ZNK14rosserial_msgs3Log9serializeEPh
.ARM.exidx.text._ZNK14rosserial_msgs3Log9serializeEPh:0000000000000000 $d
/var/folders/l3/4y5292px21b4835bsnjwqc7w009kq1/T//ccOhtKWi.s:734    .text._Z15rosSpinTaskInitPN3ros11NodeHandle_I13STM32HardwareLi5ELi5ELi512ELi512EEE:0000000000000000 $t
/var/folders/l3/4y5292px21b4835bsnjwqc7w009kq1/T//ccOhtKWi.s:741    .text._Z15rosSpinTaskInitPN3ros11NodeHandle_I13STM32HardwareLi5ELi5ELi512ELi512EEE:0000000000000000 _Z15rosSpinTaskInitPN3ros11NodeHandle_I13STM32HardwareLi5ELi5ELi512ELi512EEE
/var/folders/l3/4y5292px21b4835bsnjwqc7w009kq1/T//ccOhtKWi.s:801    .text._Z15rosSpinTaskInitPN3ros11NodeHandle_I13STM32HardwareLi5ELi5ELi512ELi512EEE:0000000000000028 $d
.ARM.exidx.text._Z15rosSpinTaskInitPN3ros11NodeHandle_I13STM32HardwareLi5ELi5ELi512ELi512EEE:0000000000000000 $d
/var/folders/l3/4y5292px21b4835bsnjwqc7w009kq1/T//ccOhtKWi.s:808    .text._ZN3ros11NodeHandle_I13STM32HardwareLi5ELi5ELi512ELi512EE8publish1EiPKNS_3MsgE:0000000000000000 $t
/var/folders/l3/4y5292px21b4835bsnjwqc7w009kq1/T//ccOhtKWi.s:815    .text._ZN3ros11NodeHandle_I13STM32HardwareLi5ELi5ELi512ELi512EE8publish1EiPKNS_3MsgE:0000000000000000 _ZN3ros11NodeHandle_I13STM32HardwareLi5ELi5ELi512ELi512EE8publish1EiPKNS_3MsgE
/var/folders/l3/4y5292px21b4835bsnjwqc7w009kq1/T//ccOhtKWi.s:982    .text._ZN3ros11NodeHandle_I13STM32HardwareLi5ELi5ELi512ELi512EE8publish1EiPKNS_3MsgE:00000000000000b8 $d
/var/folders/l3/4y5292px21b4835bsnjwqc7w009kq1/T//ccOhtKWi.s:2797   .rodata._ZTVN14rosserial_msgs3LogE:0000000000000000 _ZTVN14rosserial_msgs3LogE
.ARM.exidx.text._ZN3ros11NodeHandle_I13STM32HardwareLi5ELi5ELi512ELi512EE8publish1EiPKNS_3MsgE:0000000000000000 $d
/var/folders/l3/4y5292px21b4835bsnjwqc7w009kq1/T//ccOhtKWi.s:989    .text._Z19ROS_SpinTaskHandlerPKv:0000000000000000 $t
/var/folders/l3/4y5292px21b4835bsnjwqc7w009kq1/T//ccOhtKWi.s:996    .text._Z19ROS_SpinTaskHandlerPKv:0000000000000000 _Z19ROS_SpinTaskHandlerPKv
/var/folders/l3/4y5292px21b4835bsnjwqc7w009kq1/T//ccOhtKWi.s:1595   .text._Z19ROS_SpinTaskHandlerPKv:000000000000030c $d
/var/folders/l3/4y5292px21b4835bsnjwqc7w009kq1/T//ccOhtKWi.s:2773   .rodata._ZTVN8std_msgs4TimeE:0000000000000000 _ZTVN8std_msgs4TimeE
ARM GAS  /var/folders/l3/4y5292px21b4835bsnjwqc7w009kq1/T//ccOhtKWi.s 			page 80


/var/folders/l3/4y5292px21b4835bsnjwqc7w009kq1/T//ccOhtKWi.s:1606   .text._Z19ROS_SpinTaskHandlerPKv:000000000000031c $t
/var/folders/l3/4y5292px21b4835bsnjwqc7w009kq1/T//ccOhtKWi.s:2230   .text._Z19ROS_SpinTaskHandlerPKv:0000000000000614 $d
/var/folders/l3/4y5292px21b4835bsnjwqc7w009kq1/T//ccOhtKWi.s:2785   .rodata._ZTVN14rosserial_msgs9TopicInfoE:0000000000000000 _ZTVN14rosserial_msgs9TopicInfoE
/var/folders/l3/4y5292px21b4835bsnjwqc7w009kq1/T//ccOhtKWi.s:2245   .text._Z19ROS_SpinTaskHandlerPKv:000000000000063c $t
/var/folders/l3/4y5292px21b4835bsnjwqc7w009kq1/T//ccOhtKWi.s:2747   .text._Z19ROS_SpinTaskHandlerPKv:000000000000089c $d
.ARM.exidx.text._Z19ROS_SpinTaskHandlerPKv:0000000000000000 $d
/var/folders/l3/4y5292px21b4835bsnjwqc7w009kq1/T//ccOhtKWi.s:2770   .rodata._ZTVN8std_msgs4TimeE:0000000000000000 $d
/var/folders/l3/4y5292px21b4835bsnjwqc7w009kq1/T//ccOhtKWi.s:2782   .rodata._ZTVN14rosserial_msgs9TopicInfoE:0000000000000000 $d
/var/folders/l3/4y5292px21b4835bsnjwqc7w009kq1/T//ccOhtKWi.s:2794   .rodata._ZTVN14rosserial_msgs3LogE:0000000000000000 $d
/var/folders/l3/4y5292px21b4835bsnjwqc7w009kq1/T//ccOhtKWi.s:2805   .rodata:0000000000000000 $d
/var/folders/l3/4y5292px21b4835bsnjwqc7w009kq1/T//ccOhtKWi.s:2815   .bss._ZL3nh_:0000000000000000 $d
/var/folders/l3/4y5292px21b4835bsnjwqc7w009kq1/T//ccOhtKWi.s:2819   .bss._ZL3nh_:0000000000000000 _ZL3nh_
/var/folders/l3/4y5292px21b4835bsnjwqc7w009kq1/T//ccOhtKWi.s:2822   .rodata._Z19ROS_SpinTaskHandlerPKv.str1.4:0000000000000000 $d
/var/folders/l3/4y5292px21b4835bsnjwqc7w009kq1/T//ccOhtKWi.s:2830   .rodata._ZN14rosserial_msgs3Log6getMD5Ev.str1.4:0000000000000000 $d
/var/folders/l3/4y5292px21b4835bsnjwqc7w009kq1/T//ccOhtKWi.s:2834   .rodata._ZN14rosserial_msgs3Log7getTypeEv.str1.4:0000000000000000 $d
/var/folders/l3/4y5292px21b4835bsnjwqc7w009kq1/T//ccOhtKWi.s:2838   .rodata._ZN14rosserial_msgs9TopicInfo6getMD5Ev.str1.4:0000000000000000 $d
/var/folders/l3/4y5292px21b4835bsnjwqc7w009kq1/T//ccOhtKWi.s:2842   .rodata._ZN14rosserial_msgs9TopicInfo7getTypeEv.str1.4:0000000000000000 $d
/var/folders/l3/4y5292px21b4835bsnjwqc7w009kq1/T//ccOhtKWi.s:2846   .rodata._ZN3ros11NodeHandle_I13STM32HardwareLi5ELi5ELi512ELi512EE8publish1EiPKNS_3MsgE.str1.4:0000000000000000 $d
/var/folders/l3/4y5292px21b4835bsnjwqc7w009kq1/T//ccOhtKWi.s:2851   .rodata._ZN8std_msgs4Time6getMD5Ev.str1.4:0000000000000000 $d
/var/folders/l3/4y5292px21b4835bsnjwqc7w009kq1/T//ccOhtKWi.s:2855   .rodata._ZN8std_msgs4Time7getTypeEv.str1.4:0000000000000000 $d
/var/folders/l3/4y5292px21b4835bsnjwqc7w009kq1/T//ccOhtKWi.s:2859   .rodata.str1.4:0000000000000000 $d

UNDEFINED SYMBOLS
strlen
memcpy
osThreadCreate
__aeabi_unwind_cpp_pr0
comSendBuf
osDelay
xTaskGetTickCount
comGetChar
_Z6led_cbPh
_ZN3ros16normalizeSecNSecERmS0_
realloc
