ARM GAS  /var/folders/l3/4y5292px21b4835bsnjwqc7w009kq1/T//cc8944ZQ.s 			page 1


   1              		.cpu cortex-m4
   2              		.eabi_attribute 27, 1
   3              		.eabi_attribute 20, 1
   4              		.eabi_attribute 21, 1
   5              		.eabi_attribute 23, 3
   6              		.eabi_attribute 24, 1
   7              		.eabi_attribute 25, 1
   8              		.eabi_attribute 26, 1
   9              		.eabi_attribute 30, 1
  10              		.eabi_attribute 34, 1
  11              		.eabi_attribute 18, 4
  12              		.file	"spin_task.cpp"
  13              		.text
  14              	.Ltext0:
  15              		.cfi_sections	.debug_frame
  16              		.section	.text._ZNK8std_msgs4Time9serializeEPh,"axG",%progbits,_ZNK8std_msgs4Time9serializeEPh,com
  17              		.align	1
  18              		.weak	_ZNK8std_msgs4Time9serializeEPh
  19              		.syntax unified
  20              		.thumb
  21              		.thumb_func
  22              		.fpu fpv4-sp-d16
  24              	_ZNK8std_msgs4Time9serializeEPh:
  25              		.fnstart
  26              	.LFB383:
  27              		.file 1 "../Libraries/ROSSerial/std_msgs/Time.h"
   1:../Libraries/ROSSerial/std_msgs/Time.h **** #ifndef _ROS_std_msgs_Time_h
   2:../Libraries/ROSSerial/std_msgs/Time.h **** #define _ROS_std_msgs_Time_h
   3:../Libraries/ROSSerial/std_msgs/Time.h **** 
   4:../Libraries/ROSSerial/std_msgs/Time.h **** #include <stdint.h>
   5:../Libraries/ROSSerial/std_msgs/Time.h **** #include <string.h>
   6:../Libraries/ROSSerial/std_msgs/Time.h **** #include <stdlib.h>
   7:../Libraries/ROSSerial/std_msgs/Time.h **** #include "ros/msg.h"
   8:../Libraries/ROSSerial/std_msgs/Time.h **** #include "ros/time.h"
   9:../Libraries/ROSSerial/std_msgs/Time.h **** 
  10:../Libraries/ROSSerial/std_msgs/Time.h **** 
  11:../Libraries/ROSSerial/std_msgs/Time.h **** namespace std_msgs
  12:../Libraries/ROSSerial/std_msgs/Time.h **** {
  13:../Libraries/ROSSerial/std_msgs/Time.h **** 
  14:../Libraries/ROSSerial/std_msgs/Time.h ****   class Time : public ros::Msg
  15:../Libraries/ROSSerial/std_msgs/Time.h ****   {
  16:../Libraries/ROSSerial/std_msgs/Time.h ****     public:
  17:../Libraries/ROSSerial/std_msgs/Time.h ****       ros::Time data;
  18:../Libraries/ROSSerial/std_msgs/Time.h **** 
  19:../Libraries/ROSSerial/std_msgs/Time.h ****     virtual int serialize(unsigned char *outbuffer) const
  28              		.loc 1 19 0
  29              		.cfi_startproc
  30              		@ args = 0, pretend = 0, frame = 0
  31              		@ frame_needed = 0, uses_anonymous_args = 0
  32              		@ link register save eliminated.
  33              	.LVL0:
  20:../Libraries/ROSSerial/std_msgs/Time.h ****     {
  21:../Libraries/ROSSerial/std_msgs/Time.h ****       int offset = 0;
  22:../Libraries/ROSSerial/std_msgs/Time.h ****       *(outbuffer + offset + 0) = (this->data.sec >> (8 * 0)) & 0xFF;
  34              		.loc 1 22 0
  35 0000 4368     		ldr	r3, [r0, #4]
  36 0002 0B70     		strb	r3, [r1]
ARM GAS  /var/folders/l3/4y5292px21b4835bsnjwqc7w009kq1/T//cc8944ZQ.s 			page 2


  23:../Libraries/ROSSerial/std_msgs/Time.h ****       *(outbuffer + offset + 1) = (this->data.sec >> (8 * 1)) & 0xFF;
  37              		.loc 1 23 0
  38 0004 4368     		ldr	r3, [r0, #4]
  39 0006 1B0A     		lsrs	r3, r3, #8
  40 0008 4B70     		strb	r3, [r1, #1]
  24:../Libraries/ROSSerial/std_msgs/Time.h ****       *(outbuffer + offset + 2) = (this->data.sec >> (8 * 2)) & 0xFF;
  41              		.loc 1 24 0
  42 000a C388     		ldrh	r3, [r0, #6]
  43 000c 8B70     		strb	r3, [r1, #2]
  25:../Libraries/ROSSerial/std_msgs/Time.h ****       *(outbuffer + offset + 3) = (this->data.sec >> (8 * 3)) & 0xFF;
  44              		.loc 1 25 0
  45 000e C379     		ldrb	r3, [r0, #7]	@ zero_extendqisi2
  46 0010 CB70     		strb	r3, [r1, #3]
  47              	.LVL1:
  26:../Libraries/ROSSerial/std_msgs/Time.h ****       offset += sizeof(this->data.sec);
  27:../Libraries/ROSSerial/std_msgs/Time.h ****       *(outbuffer + offset + 0) = (this->data.nsec >> (8 * 0)) & 0xFF;
  48              		.loc 1 27 0
  49 0012 8368     		ldr	r3, [r0, #8]
  50 0014 0B71     		strb	r3, [r1, #4]
  28:../Libraries/ROSSerial/std_msgs/Time.h ****       *(outbuffer + offset + 1) = (this->data.nsec >> (8 * 1)) & 0xFF;
  51              		.loc 1 28 0
  52 0016 8368     		ldr	r3, [r0, #8]
  53 0018 1B0A     		lsrs	r3, r3, #8
  54 001a 4B71     		strb	r3, [r1, #5]
  29:../Libraries/ROSSerial/std_msgs/Time.h ****       *(outbuffer + offset + 2) = (this->data.nsec >> (8 * 2)) & 0xFF;
  55              		.loc 1 29 0
  56 001c 4389     		ldrh	r3, [r0, #10]
  57 001e 8B71     		strb	r3, [r1, #6]
  30:../Libraries/ROSSerial/std_msgs/Time.h ****       *(outbuffer + offset + 3) = (this->data.nsec >> (8 * 3)) & 0xFF;
  58              		.loc 1 30 0
  59 0020 C37A     		ldrb	r3, [r0, #11]	@ zero_extendqisi2
  60 0022 CB71     		strb	r3, [r1, #7]
  61              	.LVL2:
  31:../Libraries/ROSSerial/std_msgs/Time.h ****       offset += sizeof(this->data.nsec);
  32:../Libraries/ROSSerial/std_msgs/Time.h ****       return offset;
  33:../Libraries/ROSSerial/std_msgs/Time.h ****     }
  62              		.loc 1 33 0
  63 0024 0820     		movs	r0, #8
  64              	.LVL3:
  65 0026 7047     		bx	lr
  66              		.cfi_endproc
  67              	.LFE383:
  68              		.cantunwind
  69              		.fnend
  71              		.section	.text._ZN8std_msgs4Time11deserializeEPh,"axG",%progbits,_ZN8std_msgs4Time11deserializeEPh
  72              		.align	1
  73              		.weak	_ZN8std_msgs4Time11deserializeEPh
  74              		.syntax unified
  75              		.thumb
  76              		.thumb_func
  77              		.fpu fpv4-sp-d16
  79              	_ZN8std_msgs4Time11deserializeEPh:
  80              		.fnstart
  81              	.LFB384:
  34:../Libraries/ROSSerial/std_msgs/Time.h **** 
  35:../Libraries/ROSSerial/std_msgs/Time.h ****     virtual int deserialize(unsigned char *inbuffer)
  82              		.loc 1 35 0
ARM GAS  /var/folders/l3/4y5292px21b4835bsnjwqc7w009kq1/T//cc8944ZQ.s 			page 3


  83              		.cfi_startproc
  84              		@ args = 0, pretend = 0, frame = 0
  85              		@ frame_needed = 0, uses_anonymous_args = 0
  86              		@ link register save eliminated.
  87              	.LVL4:
  36:../Libraries/ROSSerial/std_msgs/Time.h ****     {
  37:../Libraries/ROSSerial/std_msgs/Time.h ****       int offset = 0;
  38:../Libraries/ROSSerial/std_msgs/Time.h ****       this->data.sec =  ((uint32_t) (*(inbuffer + offset)));
  88              		.loc 1 38 0
  89 0000 0B78     		ldrb	r3, [r1]	@ zero_extendqisi2
  90 0002 4360     		str	r3, [r0, #4]
  39:../Libraries/ROSSerial/std_msgs/Time.h ****       this->data.sec |= ((uint32_t) (*(inbuffer + offset + 1))) << (8 * 1);
  91              		.loc 1 39 0
  92 0004 4A78     		ldrb	r2, [r1, #1]	@ zero_extendqisi2
  93 0006 43EA0223 		orr	r3, r3, r2, lsl #8
  94 000a 4360     		str	r3, [r0, #4]
  40:../Libraries/ROSSerial/std_msgs/Time.h ****       this->data.sec |= ((uint32_t) (*(inbuffer + offset + 2))) << (8 * 2);
  95              		.loc 1 40 0
  96 000c 8A78     		ldrb	r2, [r1, #2]	@ zero_extendqisi2
  97 000e 43EA0243 		orr	r3, r3, r2, lsl #16
  98 0012 4360     		str	r3, [r0, #4]
  41:../Libraries/ROSSerial/std_msgs/Time.h ****       this->data.sec |= ((uint32_t) (*(inbuffer + offset + 3))) << (8 * 3);
  99              		.loc 1 41 0
 100 0014 CA78     		ldrb	r2, [r1, #3]	@ zero_extendqisi2
 101 0016 43EA0263 		orr	r3, r3, r2, lsl #24
 102 001a 4360     		str	r3, [r0, #4]
 103              	.LVL5:
  42:../Libraries/ROSSerial/std_msgs/Time.h ****       offset += sizeof(this->data.sec);
  43:../Libraries/ROSSerial/std_msgs/Time.h ****       this->data.nsec =  ((uint32_t) (*(inbuffer + offset)));
 104              		.loc 1 43 0
 105 001c 0B79     		ldrb	r3, [r1, #4]	@ zero_extendqisi2
 106 001e 8360     		str	r3, [r0, #8]
  44:../Libraries/ROSSerial/std_msgs/Time.h ****       this->data.nsec |= ((uint32_t) (*(inbuffer + offset + 1))) << (8 * 1);
 107              		.loc 1 44 0
 108 0020 4A79     		ldrb	r2, [r1, #5]	@ zero_extendqisi2
 109 0022 43EA0223 		orr	r3, r3, r2, lsl #8
 110 0026 8360     		str	r3, [r0, #8]
  45:../Libraries/ROSSerial/std_msgs/Time.h ****       this->data.nsec |= ((uint32_t) (*(inbuffer + offset + 2))) << (8 * 2);
 111              		.loc 1 45 0
 112 0028 8A79     		ldrb	r2, [r1, #6]	@ zero_extendqisi2
 113 002a 43EA0243 		orr	r3, r3, r2, lsl #16
 114 002e 8360     		str	r3, [r0, #8]
  46:../Libraries/ROSSerial/std_msgs/Time.h ****       this->data.nsec |= ((uint32_t) (*(inbuffer + offset + 3))) << (8 * 3);
 115              		.loc 1 46 0
 116 0030 CA79     		ldrb	r2, [r1, #7]	@ zero_extendqisi2
 117 0032 43EA0263 		orr	r3, r3, r2, lsl #24
 118 0036 8360     		str	r3, [r0, #8]
 119              	.LVL6:
  47:../Libraries/ROSSerial/std_msgs/Time.h ****       offset += sizeof(this->data.nsec);
  48:../Libraries/ROSSerial/std_msgs/Time.h ****      return offset;
  49:../Libraries/ROSSerial/std_msgs/Time.h ****     }
 120              		.loc 1 49 0
 121 0038 0820     		movs	r0, #8
 122              	.LVL7:
 123 003a 7047     		bx	lr
 124              		.cfi_endproc
 125              	.LFE384:
ARM GAS  /var/folders/l3/4y5292px21b4835bsnjwqc7w009kq1/T//cc8944ZQ.s 			page 4


 126              		.cantunwind
 127              		.fnend
 129              		.section	.text._ZN8std_msgs4Time7getTypeEv,"axG",%progbits,_ZN8std_msgs4Time7getTypeEv,comdat
 130              		.align	1
 131              		.weak	_ZN8std_msgs4Time7getTypeEv
 132              		.syntax unified
 133              		.thumb
 134              		.thumb_func
 135              		.fpu fpv4-sp-d16
 137              	_ZN8std_msgs4Time7getTypeEv:
 138              		.fnstart
 139              	.LFB385:
  50:../Libraries/ROSSerial/std_msgs/Time.h **** 
  51:../Libraries/ROSSerial/std_msgs/Time.h ****     const char * getType(){ return "std_msgs/Time"; };
 140              		.loc 1 51 0
 141              		.cfi_startproc
 142              		@ args = 0, pretend = 0, frame = 0
 143              		@ frame_needed = 0, uses_anonymous_args = 0
 144              		@ link register save eliminated.
 145              	.LVL8:
 146              		.loc 1 51 0
 147 0000 0048     		ldr	r0, .L4
 148              	.LVL9:
 149 0002 7047     		bx	lr
 150              	.L5:
 151              		.align	2
 152              	.L4:
 153 0004 00000000 		.word	.LC2
 154              		.cfi_endproc
 155              	.LFE385:
 156              		.cantunwind
 157              		.fnend
 159              		.section	.text._ZN8std_msgs4Time6getMD5Ev,"axG",%progbits,_ZN8std_msgs4Time6getMD5Ev,comdat
 160              		.align	1
 161              		.weak	_ZN8std_msgs4Time6getMD5Ev
 162              		.syntax unified
 163              		.thumb
 164              		.thumb_func
 165              		.fpu fpv4-sp-d16
 167              	_ZN8std_msgs4Time6getMD5Ev:
 168              		.fnstart
 169              	.LFB386:
  52:../Libraries/ROSSerial/std_msgs/Time.h ****     const char * getMD5(){ return "cd7166c74c552c311fbcc2fe5a7bc289"; };
 170              		.loc 1 52 0
 171              		.cfi_startproc
 172              		@ args = 0, pretend = 0, frame = 0
 173              		@ frame_needed = 0, uses_anonymous_args = 0
 174              		@ link register save eliminated.
 175              	.LVL10:
 176              		.loc 1 52 0
 177 0000 0048     		ldr	r0, .L7
 178              	.LVL11:
 179 0002 7047     		bx	lr
 180              	.L8:
 181              		.align	2
 182              	.L7:
 183 0004 00000000 		.word	.LC3
ARM GAS  /var/folders/l3/4y5292px21b4835bsnjwqc7w009kq1/T//cc8944ZQ.s 			page 5


 184              		.cfi_endproc
 185              	.LFE386:
 186              		.cantunwind
 187              		.fnend
 189              		.section	.text._ZN14rosserial_msgs9TopicInfo11deserializeEPh,"axG",%progbits,_ZN14rosserial_msgs9T
 190              		.align	1
 191              		.weak	_ZN14rosserial_msgs9TopicInfo11deserializeEPh
 192              		.syntax unified
 193              		.thumb
 194              		.thumb_func
 195              		.fpu fpv4-sp-d16
 197              	_ZN14rosserial_msgs9TopicInfo11deserializeEPh:
 198              		.fnstart
 199              	.LFB388:
 200              		.file 2 "../Libraries/ROSSerial/rosserial_msgs/TopicInfo.h"
   1:../Libraries/ROSSerial/rosserial_msgs/TopicInfo.h **** #ifndef _ROS_rosserial_msgs_TopicInfo_h
   2:../Libraries/ROSSerial/rosserial_msgs/TopicInfo.h **** #define _ROS_rosserial_msgs_TopicInfo_h
   3:../Libraries/ROSSerial/rosserial_msgs/TopicInfo.h **** 
   4:../Libraries/ROSSerial/rosserial_msgs/TopicInfo.h **** #include <stdint.h>
   5:../Libraries/ROSSerial/rosserial_msgs/TopicInfo.h **** #include <string.h>
   6:../Libraries/ROSSerial/rosserial_msgs/TopicInfo.h **** #include <stdlib.h>
   7:../Libraries/ROSSerial/rosserial_msgs/TopicInfo.h **** #include "ros/msg.h"
   8:../Libraries/ROSSerial/rosserial_msgs/TopicInfo.h **** 
   9:../Libraries/ROSSerial/rosserial_msgs/TopicInfo.h **** namespace rosserial_msgs
  10:../Libraries/ROSSerial/rosserial_msgs/TopicInfo.h **** {
  11:../Libraries/ROSSerial/rosserial_msgs/TopicInfo.h **** 
  12:../Libraries/ROSSerial/rosserial_msgs/TopicInfo.h ****   class TopicInfo : public ros::Msg
  13:../Libraries/ROSSerial/rosserial_msgs/TopicInfo.h ****   {
  14:../Libraries/ROSSerial/rosserial_msgs/TopicInfo.h ****     public:
  15:../Libraries/ROSSerial/rosserial_msgs/TopicInfo.h ****       uint16_t topic_id;
  16:../Libraries/ROSSerial/rosserial_msgs/TopicInfo.h ****       const char* topic_name;
  17:../Libraries/ROSSerial/rosserial_msgs/TopicInfo.h ****       const char* message_type;
  18:../Libraries/ROSSerial/rosserial_msgs/TopicInfo.h ****       const char* md5sum;
  19:../Libraries/ROSSerial/rosserial_msgs/TopicInfo.h ****       int32_t buffer_size;
  20:../Libraries/ROSSerial/rosserial_msgs/TopicInfo.h ****       enum { ID_PUBLISHER = 0 };
  21:../Libraries/ROSSerial/rosserial_msgs/TopicInfo.h ****       enum { ID_SUBSCRIBER = 1 };
  22:../Libraries/ROSSerial/rosserial_msgs/TopicInfo.h ****       enum { ID_SERVICE_SERVER = 2 };
  23:../Libraries/ROSSerial/rosserial_msgs/TopicInfo.h ****       enum { ID_SERVICE_CLIENT = 4 };
  24:../Libraries/ROSSerial/rosserial_msgs/TopicInfo.h ****       enum { ID_PARAMETER_REQUEST = 6 };
  25:../Libraries/ROSSerial/rosserial_msgs/TopicInfo.h ****       enum { ID_LOG = 7 };
  26:../Libraries/ROSSerial/rosserial_msgs/TopicInfo.h ****       enum { ID_TIME = 10 };
  27:../Libraries/ROSSerial/rosserial_msgs/TopicInfo.h ****       enum { ID_TX_STOP = 11 };
  28:../Libraries/ROSSerial/rosserial_msgs/TopicInfo.h **** 
  29:../Libraries/ROSSerial/rosserial_msgs/TopicInfo.h ****     virtual int serialize(unsigned char *outbuffer) const
  30:../Libraries/ROSSerial/rosserial_msgs/TopicInfo.h ****     {
  31:../Libraries/ROSSerial/rosserial_msgs/TopicInfo.h ****       int offset = 0;
  32:../Libraries/ROSSerial/rosserial_msgs/TopicInfo.h ****       *(outbuffer + offset + 0) = (this->topic_id >> (8 * 0)) & 0xFF;
  33:../Libraries/ROSSerial/rosserial_msgs/TopicInfo.h ****       *(outbuffer + offset + 1) = (this->topic_id >> (8 * 1)) & 0xFF;
  34:../Libraries/ROSSerial/rosserial_msgs/TopicInfo.h ****       offset += sizeof(this->topic_id);
  35:../Libraries/ROSSerial/rosserial_msgs/TopicInfo.h ****       uint32_t length_topic_name = strlen(this->topic_name);
  36:../Libraries/ROSSerial/rosserial_msgs/TopicInfo.h ****       memcpy(outbuffer + offset, &length_topic_name, sizeof(uint32_t));
  37:../Libraries/ROSSerial/rosserial_msgs/TopicInfo.h ****       offset += 4;
  38:../Libraries/ROSSerial/rosserial_msgs/TopicInfo.h ****       memcpy(outbuffer + offset, this->topic_name, length_topic_name);
  39:../Libraries/ROSSerial/rosserial_msgs/TopicInfo.h ****       offset += length_topic_name;
  40:../Libraries/ROSSerial/rosserial_msgs/TopicInfo.h ****       uint32_t length_message_type = strlen(this->message_type);
  41:../Libraries/ROSSerial/rosserial_msgs/TopicInfo.h ****       memcpy(outbuffer + offset, &length_message_type, sizeof(uint32_t));
  42:../Libraries/ROSSerial/rosserial_msgs/TopicInfo.h ****       offset += 4;
ARM GAS  /var/folders/l3/4y5292px21b4835bsnjwqc7w009kq1/T//cc8944ZQ.s 			page 6


  43:../Libraries/ROSSerial/rosserial_msgs/TopicInfo.h ****       memcpy(outbuffer + offset, this->message_type, length_message_type);
  44:../Libraries/ROSSerial/rosserial_msgs/TopicInfo.h ****       offset += length_message_type;
  45:../Libraries/ROSSerial/rosserial_msgs/TopicInfo.h ****       uint32_t length_md5sum = strlen(this->md5sum);
  46:../Libraries/ROSSerial/rosserial_msgs/TopicInfo.h ****       memcpy(outbuffer + offset, &length_md5sum, sizeof(uint32_t));
  47:../Libraries/ROSSerial/rosserial_msgs/TopicInfo.h ****       offset += 4;
  48:../Libraries/ROSSerial/rosserial_msgs/TopicInfo.h ****       memcpy(outbuffer + offset, this->md5sum, length_md5sum);
  49:../Libraries/ROSSerial/rosserial_msgs/TopicInfo.h ****       offset += length_md5sum;
  50:../Libraries/ROSSerial/rosserial_msgs/TopicInfo.h ****       union {
  51:../Libraries/ROSSerial/rosserial_msgs/TopicInfo.h ****         int32_t real;
  52:../Libraries/ROSSerial/rosserial_msgs/TopicInfo.h ****         uint32_t base;
  53:../Libraries/ROSSerial/rosserial_msgs/TopicInfo.h ****       } u_buffer_size;
  54:../Libraries/ROSSerial/rosserial_msgs/TopicInfo.h ****       u_buffer_size.real = this->buffer_size;
  55:../Libraries/ROSSerial/rosserial_msgs/TopicInfo.h ****       *(outbuffer + offset + 0) = (u_buffer_size.base >> (8 * 0)) & 0xFF;
  56:../Libraries/ROSSerial/rosserial_msgs/TopicInfo.h ****       *(outbuffer + offset + 1) = (u_buffer_size.base >> (8 * 1)) & 0xFF;
  57:../Libraries/ROSSerial/rosserial_msgs/TopicInfo.h ****       *(outbuffer + offset + 2) = (u_buffer_size.base >> (8 * 2)) & 0xFF;
  58:../Libraries/ROSSerial/rosserial_msgs/TopicInfo.h ****       *(outbuffer + offset + 3) = (u_buffer_size.base >> (8 * 3)) & 0xFF;
  59:../Libraries/ROSSerial/rosserial_msgs/TopicInfo.h ****       offset += sizeof(this->buffer_size);
  60:../Libraries/ROSSerial/rosserial_msgs/TopicInfo.h ****       return offset;
  61:../Libraries/ROSSerial/rosserial_msgs/TopicInfo.h ****     }
  62:../Libraries/ROSSerial/rosserial_msgs/TopicInfo.h **** 
  63:../Libraries/ROSSerial/rosserial_msgs/TopicInfo.h ****     virtual int deserialize(unsigned char *inbuffer)
 201              		.loc 2 63 0
 202              		.cfi_startproc
 203              		@ args = 0, pretend = 0, frame = 0
 204              		@ frame_needed = 0, uses_anonymous_args = 0
 205              		@ link register save eliminated.
 206              	.LVL12:
 207 0000 70B4     		push	{r4, r5, r6}
 208              	.LCFI0:
 209              		.cfi_def_cfa_offset 12
 210              		.cfi_offset 4, -12
 211              		.cfi_offset 5, -8
 212              		.cfi_offset 6, -4
 213              	.LVL13:
  64:../Libraries/ROSSerial/rosserial_msgs/TopicInfo.h ****     {
  65:../Libraries/ROSSerial/rosserial_msgs/TopicInfo.h ****       int offset = 0;
  66:../Libraries/ROSSerial/rosserial_msgs/TopicInfo.h ****       this->topic_id =  ((uint16_t) (*(inbuffer + offset)));
 214              		.loc 2 66 0
 215 0002 0B78     		ldrb	r3, [r1]	@ zero_extendqisi2
 216 0004 8380     		strh	r3, [r0, #4]	@ movhi
  67:../Libraries/ROSSerial/rosserial_msgs/TopicInfo.h ****       this->topic_id |= ((uint16_t) (*(inbuffer + offset + 1))) << (8 * 1);
 217              		.loc 2 67 0
 218 0006 4A78     		ldrb	r2, [r1, #1]	@ zero_extendqisi2
 219 0008 43EA0223 		orr	r3, r3, r2, lsl #8
 220 000c 8380     		strh	r3, [r0, #4]	@ movhi
 221              	.LVL14:
  68:../Libraries/ROSSerial/rosserial_msgs/TopicInfo.h ****       offset += sizeof(this->topic_id);
  69:../Libraries/ROSSerial/rosserial_msgs/TopicInfo.h ****       uint32_t length_topic_name;
  70:../Libraries/ROSSerial/rosserial_msgs/TopicInfo.h ****       memcpy(&length_topic_name, (inbuffer + offset), sizeof(uint32_t));
 222              		.loc 2 70 0
 223 000e D1F80250 		ldr	r5, [r1, #2]	@ unaligned
 224              	.LVL15:
 225              	.LBB73:
  71:../Libraries/ROSSerial/rosserial_msgs/TopicInfo.h ****       offset += 4;
  72:../Libraries/ROSSerial/rosserial_msgs/TopicInfo.h ****       for(unsigned int k= offset; k< offset+length_topic_name; ++k){
 226              		.loc 2 72 0
 227 0012 0623     		movs	r3, #6
ARM GAS  /var/folders/l3/4y5292px21b4835bsnjwqc7w009kq1/T//cc8944ZQ.s 			page 7


 228              	.LVL16:
 229              	.L11:
 230              		.loc 2 72 0 is_stmt 0 discriminator 3
 231 0014 AA1D     		adds	r2, r5, #6
 232 0016 9A42     		cmp	r2, r3
 233 0018 04D9     		bls	.L10
  73:../Libraries/ROSSerial/rosserial_msgs/TopicInfo.h ****           inbuffer[k-1]=inbuffer[k];
 234              		.loc 2 73 0 is_stmt 1 discriminator 2
 235 001a 5A1E     		subs	r2, r3, #1
 236 001c CC5C     		ldrb	r4, [r1, r3]	@ zero_extendqisi2
 237 001e 8C54     		strb	r4, [r1, r2]
  72:../Libraries/ROSSerial/rosserial_msgs/TopicInfo.h ****           inbuffer[k-1]=inbuffer[k];
 238              		.loc 2 72 0 discriminator 2
 239 0020 0133     		adds	r3, r3, #1
 240              	.LVL17:
 241 0022 F7E7     		b	.L11
 242              	.L10:
 243              	.LBE73:
  74:../Libraries/ROSSerial/rosserial_msgs/TopicInfo.h ****       }
  75:../Libraries/ROSSerial/rosserial_msgs/TopicInfo.h ****       inbuffer[offset+length_topic_name-1]=0;
 244              		.loc 2 75 0
 245 0024 0535     		adds	r5, r5, #5
 246              	.LVL18:
 247 0026 0023     		movs	r3, #0
 248              	.LVL19:
 249 0028 4B55     		strb	r3, [r1, r5]
  76:../Libraries/ROSSerial/rosserial_msgs/TopicInfo.h ****       this->topic_name = (char *)(inbuffer + offset-1);
 250              		.loc 2 76 0
 251 002a 4B1D     		adds	r3, r1, #5
 252 002c 8360     		str	r3, [r0, #8]
 253              	.LVL20:
  77:../Libraries/ROSSerial/rosserial_msgs/TopicInfo.h ****       offset += length_topic_name;
  78:../Libraries/ROSSerial/rosserial_msgs/TopicInfo.h ****       uint32_t length_message_type;
  79:../Libraries/ROSSerial/rosserial_msgs/TopicInfo.h ****       memcpy(&length_message_type, (inbuffer + offset), sizeof(uint32_t));
 254              		.loc 2 79 0
 255 002e 8E58     		ldr	r6, [r1, r2]	@ unaligned
 256              	.LVL21:
  80:../Libraries/ROSSerial/rosserial_msgs/TopicInfo.h ****       offset += 4;
 257              		.loc 2 80 0
 258 0030 141D     		adds	r4, r2, #4
 259              	.LVL22:
 260              	.LBB74:
  81:../Libraries/ROSSerial/rosserial_msgs/TopicInfo.h ****       for(unsigned int k= offset; k< offset+length_message_type; ++k){
 261              		.loc 2 81 0
 262 0032 2346     		mov	r3, r4
 263              	.LVL23:
 264              	.L13:
 265              		.loc 2 81 0 is_stmt 0 discriminator 3
 266 0034 3219     		adds	r2, r6, r4
 267 0036 9A42     		cmp	r2, r3
 268 0038 04D9     		bls	.L12
  82:../Libraries/ROSSerial/rosserial_msgs/TopicInfo.h ****           inbuffer[k-1]=inbuffer[k];
 269              		.loc 2 82 0 is_stmt 1 discriminator 2
 270 003a 5A1E     		subs	r2, r3, #1
 271 003c CD5C     		ldrb	r5, [r1, r3]	@ zero_extendqisi2
 272 003e 8D54     		strb	r5, [r1, r2]
  81:../Libraries/ROSSerial/rosserial_msgs/TopicInfo.h ****       for(unsigned int k= offset; k< offset+length_message_type; ++k){
ARM GAS  /var/folders/l3/4y5292px21b4835bsnjwqc7w009kq1/T//cc8944ZQ.s 			page 8


 273              		.loc 2 81 0 discriminator 2
 274 0040 0133     		adds	r3, r3, #1
 275              	.LVL24:
 276 0042 F7E7     		b	.L13
 277              	.L12:
 278              	.LBE74:
  83:../Libraries/ROSSerial/rosserial_msgs/TopicInfo.h ****       }
  84:../Libraries/ROSSerial/rosserial_msgs/TopicInfo.h ****       inbuffer[offset+length_message_type-1]=0;
 279              		.loc 2 84 0
 280 0044 531E     		subs	r3, r2, #1
 281              	.LVL25:
 282 0046 0025     		movs	r5, #0
 283 0048 CD54     		strb	r5, [r1, r3]
  85:../Libraries/ROSSerial/rosserial_msgs/TopicInfo.h ****       this->message_type = (char *)(inbuffer + offset-1);
 284              		.loc 2 85 0
 285 004a 013C     		subs	r4, r4, #1
 286              	.LVL26:
 287 004c 0C44     		add	r4, r4, r1
 288              	.LVL27:
 289 004e C460     		str	r4, [r0, #12]
 290              	.LVL28:
  86:../Libraries/ROSSerial/rosserial_msgs/TopicInfo.h ****       offset += length_message_type;
  87:../Libraries/ROSSerial/rosserial_msgs/TopicInfo.h ****       uint32_t length_md5sum;
  88:../Libraries/ROSSerial/rosserial_msgs/TopicInfo.h ****       memcpy(&length_md5sum, (inbuffer + offset), sizeof(uint32_t));
 291              		.loc 2 88 0
 292 0050 8E58     		ldr	r6, [r1, r2]	@ unaligned
 293              	.LVL29:
  89:../Libraries/ROSSerial/rosserial_msgs/TopicInfo.h ****       offset += 4;
 294              		.loc 2 89 0
 295 0052 0432     		adds	r2, r2, #4
 296              	.LVL30:
 297              	.LBB75:
  90:../Libraries/ROSSerial/rosserial_msgs/TopicInfo.h ****       for(unsigned int k= offset; k< offset+length_md5sum; ++k){
 298              		.loc 2 90 0
 299 0054 1346     		mov	r3, r2
 300              	.LVL31:
 301              	.L15:
 302              		.loc 2 90 0 is_stmt 0 discriminator 3
 303 0056 B418     		adds	r4, r6, r2
 304 0058 9C42     		cmp	r4, r3
 305 005a 04D9     		bls	.L14
  91:../Libraries/ROSSerial/rosserial_msgs/TopicInfo.h ****           inbuffer[k-1]=inbuffer[k];
 306              		.loc 2 91 0 is_stmt 1 discriminator 2
 307 005c 5C1E     		subs	r4, r3, #1
 308 005e CD5C     		ldrb	r5, [r1, r3]	@ zero_extendqisi2
 309 0060 0D55     		strb	r5, [r1, r4]
  90:../Libraries/ROSSerial/rosserial_msgs/TopicInfo.h ****       for(unsigned int k= offset; k< offset+length_md5sum; ++k){
 310              		.loc 2 90 0 discriminator 2
 311 0062 0133     		adds	r3, r3, #1
 312              	.LVL32:
 313 0064 F7E7     		b	.L15
 314              	.L14:
 315              	.LBE75:
  92:../Libraries/ROSSerial/rosserial_msgs/TopicInfo.h ****       }
  93:../Libraries/ROSSerial/rosserial_msgs/TopicInfo.h ****       inbuffer[offset+length_md5sum-1]=0;
 316              		.loc 2 93 0
 317 0066 631E     		subs	r3, r4, #1
ARM GAS  /var/folders/l3/4y5292px21b4835bsnjwqc7w009kq1/T//cc8944ZQ.s 			page 9


 318              	.LVL33:
 319 0068 0025     		movs	r5, #0
 320 006a CD54     		strb	r5, [r1, r3]
  94:../Libraries/ROSSerial/rosserial_msgs/TopicInfo.h ****       this->md5sum = (char *)(inbuffer + offset-1);
 321              		.loc 2 94 0
 322 006c 013A     		subs	r2, r2, #1
 323 006e 0A44     		add	r2, r2, r1
 324 0070 0261     		str	r2, [r0, #16]
 325              	.LVL34:
  95:../Libraries/ROSSerial/rosserial_msgs/TopicInfo.h ****       offset += length_md5sum;
  96:../Libraries/ROSSerial/rosserial_msgs/TopicInfo.h ****       union {
  97:../Libraries/ROSSerial/rosserial_msgs/TopicInfo.h ****         int32_t real;
  98:../Libraries/ROSSerial/rosserial_msgs/TopicInfo.h ****         uint32_t base;
  99:../Libraries/ROSSerial/rosserial_msgs/TopicInfo.h ****       } u_buffer_size;
 100:../Libraries/ROSSerial/rosserial_msgs/TopicInfo.h ****       u_buffer_size.base = 0;
 101:../Libraries/ROSSerial/rosserial_msgs/TopicInfo.h ****       u_buffer_size.base |= ((uint32_t) (*(inbuffer + offset + 0))) << (8 * 0);
 326              		.loc 2 101 0
 327 0072 0B5D     		ldrb	r3, [r1, r4]	@ zero_extendqisi2
 102:../Libraries/ROSSerial/rosserial_msgs/TopicInfo.h ****       u_buffer_size.base |= ((uint32_t) (*(inbuffer + offset + 1))) << (8 * 1);
 328              		.loc 2 102 0
 329 0074 621C     		adds	r2, r4, #1
 330 0076 8A5C     		ldrb	r2, [r1, r2]	@ zero_extendqisi2
 331 0078 43EA0223 		orr	r3, r3, r2, lsl #8
 103:../Libraries/ROSSerial/rosserial_msgs/TopicInfo.h ****       u_buffer_size.base |= ((uint32_t) (*(inbuffer + offset + 2))) << (8 * 2);
 332              		.loc 2 103 0
 333 007c A21C     		adds	r2, r4, #2
 334 007e 8A5C     		ldrb	r2, [r1, r2]	@ zero_extendqisi2
 335 0080 43EA0243 		orr	r3, r3, r2, lsl #16
 104:../Libraries/ROSSerial/rosserial_msgs/TopicInfo.h ****       u_buffer_size.base |= ((uint32_t) (*(inbuffer + offset + 3))) << (8 * 3);
 336              		.loc 2 104 0
 337 0084 E21C     		adds	r2, r4, #3
 338 0086 8A5C     		ldrb	r2, [r1, r2]	@ zero_extendqisi2
 339 0088 43EA0263 		orr	r3, r3, r2, lsl #24
 105:../Libraries/ROSSerial/rosserial_msgs/TopicInfo.h ****       this->buffer_size = u_buffer_size.real;
 340              		.loc 2 105 0
 341 008c 4361     		str	r3, [r0, #20]
 342              	.LVL35:
 106:../Libraries/ROSSerial/rosserial_msgs/TopicInfo.h ****       offset += sizeof(this->buffer_size);
 107:../Libraries/ROSSerial/rosserial_msgs/TopicInfo.h ****      return offset;
 108:../Libraries/ROSSerial/rosserial_msgs/TopicInfo.h ****     }
 343              		.loc 2 108 0
 344 008e 201D     		adds	r0, r4, #4
 345              	.LVL36:
 346 0090 70BC     		pop	{r4, r5, r6}
 347              	.LCFI1:
 348              		.cfi_restore 6
 349              		.cfi_restore 5
 350              		.cfi_restore 4
 351              		.cfi_def_cfa_offset 0
 352 0092 7047     		bx	lr
 353              		.cfi_endproc
 354              	.LFE388:
 355              		.cantunwind
 356              		.fnend
 358              		.section	.text._ZN14rosserial_msgs9TopicInfo7getTypeEv,"axG",%progbits,_ZN14rosserial_msgs9TopicIn
 359              		.align	1
 360              		.weak	_ZN14rosserial_msgs9TopicInfo7getTypeEv
ARM GAS  /var/folders/l3/4y5292px21b4835bsnjwqc7w009kq1/T//cc8944ZQ.s 			page 10


 361              		.syntax unified
 362              		.thumb
 363              		.thumb_func
 364              		.fpu fpv4-sp-d16
 366              	_ZN14rosserial_msgs9TopicInfo7getTypeEv:
 367              		.fnstart
 368              	.LFB389:
 109:../Libraries/ROSSerial/rosserial_msgs/TopicInfo.h **** 
 110:../Libraries/ROSSerial/rosserial_msgs/TopicInfo.h ****     const char * getType(){ return "rosserial_msgs/TopicInfo"; };
 369              		.loc 2 110 0
 370              		.cfi_startproc
 371              		@ args = 0, pretend = 0, frame = 0
 372              		@ frame_needed = 0, uses_anonymous_args = 0
 373              		@ link register save eliminated.
 374              	.LVL37:
 375              		.loc 2 110 0
 376 0000 0048     		ldr	r0, .L18
 377              	.LVL38:
 378 0002 7047     		bx	lr
 379              	.L19:
 380              		.align	2
 381              	.L18:
 382 0004 00000000 		.word	.LC4
 383              		.cfi_endproc
 384              	.LFE389:
 385              		.cantunwind
 386              		.fnend
 388              		.section	.text._ZN14rosserial_msgs9TopicInfo6getMD5Ev,"axG",%progbits,_ZN14rosserial_msgs9TopicInf
 389              		.align	1
 390              		.weak	_ZN14rosserial_msgs9TopicInfo6getMD5Ev
 391              		.syntax unified
 392              		.thumb
 393              		.thumb_func
 394              		.fpu fpv4-sp-d16
 396              	_ZN14rosserial_msgs9TopicInfo6getMD5Ev:
 397              		.fnstart
 398              	.LFB390:
 111:../Libraries/ROSSerial/rosserial_msgs/TopicInfo.h ****     const char * getMD5(){ return "0ad51f88fc44892f8c10684077646005"; };
 399              		.loc 2 111 0
 400              		.cfi_startproc
 401              		@ args = 0, pretend = 0, frame = 0
 402              		@ frame_needed = 0, uses_anonymous_args = 0
 403              		@ link register save eliminated.
 404              	.LVL39:
 405              		.loc 2 111 0
 406 0000 0048     		ldr	r0, .L21
 407              	.LVL40:
 408 0002 7047     		bx	lr
 409              	.L22:
 410              		.align	2
 411              	.L21:
 412 0004 00000000 		.word	.LC5
 413              		.cfi_endproc
 414              	.LFE390:
 415              		.cantunwind
 416              		.fnend
 418              		.section	.text._ZN14rosserial_msgs3Log11deserializeEPh,"axG",%progbits,_ZN14rosserial_msgs3Log11de
ARM GAS  /var/folders/l3/4y5292px21b4835bsnjwqc7w009kq1/T//cc8944ZQ.s 			page 11


 419              		.align	1
 420              		.weak	_ZN14rosserial_msgs3Log11deserializeEPh
 421              		.syntax unified
 422              		.thumb
 423              		.thumb_func
 424              		.fpu fpv4-sp-d16
 426              	_ZN14rosserial_msgs3Log11deserializeEPh:
 427              		.fnstart
 428              	.LFB392:
 429              		.file 3 "../Libraries/ROSSerial/rosserial_msgs/Log.h"
   1:../Libraries/ROSSerial/rosserial_msgs/Log.h **** #ifndef _ROS_rosserial_msgs_Log_h
   2:../Libraries/ROSSerial/rosserial_msgs/Log.h **** #define _ROS_rosserial_msgs_Log_h
   3:../Libraries/ROSSerial/rosserial_msgs/Log.h **** 
   4:../Libraries/ROSSerial/rosserial_msgs/Log.h **** #include <stdint.h>
   5:../Libraries/ROSSerial/rosserial_msgs/Log.h **** #include <string.h>
   6:../Libraries/ROSSerial/rosserial_msgs/Log.h **** #include <stdlib.h>
   7:../Libraries/ROSSerial/rosserial_msgs/Log.h **** #include "ros/msg.h"
   8:../Libraries/ROSSerial/rosserial_msgs/Log.h **** 
   9:../Libraries/ROSSerial/rosserial_msgs/Log.h **** 
  10:../Libraries/ROSSerial/rosserial_msgs/Log.h **** namespace rosserial_msgs
  11:../Libraries/ROSSerial/rosserial_msgs/Log.h **** {
  12:../Libraries/ROSSerial/rosserial_msgs/Log.h **** 
  13:../Libraries/ROSSerial/rosserial_msgs/Log.h ****   class Log : public ros::Msg
  14:../Libraries/ROSSerial/rosserial_msgs/Log.h ****   {
  15:../Libraries/ROSSerial/rosserial_msgs/Log.h ****     public:
  16:../Libraries/ROSSerial/rosserial_msgs/Log.h ****       uint8_t level;
  17:../Libraries/ROSSerial/rosserial_msgs/Log.h ****       const char* msg;
  18:../Libraries/ROSSerial/rosserial_msgs/Log.h ****       enum { ROSDEBUG = 0 };
  19:../Libraries/ROSSerial/rosserial_msgs/Log.h ****       enum { INFO = 1 };
  20:../Libraries/ROSSerial/rosserial_msgs/Log.h ****       enum { WARN = 2 };
  21:../Libraries/ROSSerial/rosserial_msgs/Log.h ****       enum { ERROR = 3 };
  22:../Libraries/ROSSerial/rosserial_msgs/Log.h ****       enum { FATAL = 4 };
  23:../Libraries/ROSSerial/rosserial_msgs/Log.h **** 
  24:../Libraries/ROSSerial/rosserial_msgs/Log.h ****     virtual int serialize(unsigned char *outbuffer) const
  25:../Libraries/ROSSerial/rosserial_msgs/Log.h ****     {
  26:../Libraries/ROSSerial/rosserial_msgs/Log.h ****       int offset = 0;
  27:../Libraries/ROSSerial/rosserial_msgs/Log.h ****       *(outbuffer + offset + 0) = (this->level >> (8 * 0)) & 0xFF;
  28:../Libraries/ROSSerial/rosserial_msgs/Log.h ****       offset += sizeof(this->level);
  29:../Libraries/ROSSerial/rosserial_msgs/Log.h ****       uint32_t length_msg = strlen(this->msg);
  30:../Libraries/ROSSerial/rosserial_msgs/Log.h ****       memcpy(outbuffer + offset, &length_msg, sizeof(uint32_t));
  31:../Libraries/ROSSerial/rosserial_msgs/Log.h ****       offset += 4;
  32:../Libraries/ROSSerial/rosserial_msgs/Log.h ****       memcpy(outbuffer + offset, this->msg, length_msg);
  33:../Libraries/ROSSerial/rosserial_msgs/Log.h ****       offset += length_msg;
  34:../Libraries/ROSSerial/rosserial_msgs/Log.h ****       return offset;
  35:../Libraries/ROSSerial/rosserial_msgs/Log.h ****     }
  36:../Libraries/ROSSerial/rosserial_msgs/Log.h **** 
  37:../Libraries/ROSSerial/rosserial_msgs/Log.h ****     virtual int deserialize(unsigned char *inbuffer)
 430              		.loc 3 37 0
 431              		.cfi_startproc
 432              		@ args = 0, pretend = 0, frame = 0
 433              		@ frame_needed = 0, uses_anonymous_args = 0
 434              		@ link register save eliminated.
 435              	.LVL41:
 436 0000 30B4     		push	{r4, r5}
 437              	.LCFI2:
 438              		.cfi_def_cfa_offset 8
 439              		.cfi_offset 4, -8
ARM GAS  /var/folders/l3/4y5292px21b4835bsnjwqc7w009kq1/T//cc8944ZQ.s 			page 12


 440              		.cfi_offset 5, -4
 441              	.LVL42:
  38:../Libraries/ROSSerial/rosserial_msgs/Log.h ****     {
  39:../Libraries/ROSSerial/rosserial_msgs/Log.h ****       int offset = 0;
  40:../Libraries/ROSSerial/rosserial_msgs/Log.h ****       this->level =  ((uint8_t) (*(inbuffer + offset)));
 442              		.loc 3 40 0
 443 0002 0B78     		ldrb	r3, [r1]	@ zero_extendqisi2
 444 0004 0371     		strb	r3, [r0, #4]
 445              	.LVL43:
  41:../Libraries/ROSSerial/rosserial_msgs/Log.h ****       offset += sizeof(this->level);
  42:../Libraries/ROSSerial/rosserial_msgs/Log.h ****       uint32_t length_msg;
  43:../Libraries/ROSSerial/rosserial_msgs/Log.h ****       memcpy(&length_msg, (inbuffer + offset), sizeof(uint32_t));
 446              		.loc 3 43 0
 447 0006 D1F80150 		ldr	r5, [r1, #1]	@ unaligned
 448              	.LVL44:
 449              	.LBB76:
  44:../Libraries/ROSSerial/rosserial_msgs/Log.h ****       offset += 4;
  45:../Libraries/ROSSerial/rosserial_msgs/Log.h ****       for(unsigned int k= offset; k< offset+length_msg; ++k){
 450              		.loc 3 45 0
 451 000a 0523     		movs	r3, #5
 452              	.LVL45:
 453              	.L25:
 454              		.loc 3 45 0 is_stmt 0 discriminator 3
 455 000c 6A1D     		adds	r2, r5, #5
 456 000e 9A42     		cmp	r2, r3
 457 0010 04D9     		bls	.L24
  46:../Libraries/ROSSerial/rosserial_msgs/Log.h ****           inbuffer[k-1]=inbuffer[k];
 458              		.loc 3 46 0 is_stmt 1 discriminator 2
 459 0012 5A1E     		subs	r2, r3, #1
 460 0014 CC5C     		ldrb	r4, [r1, r3]	@ zero_extendqisi2
 461 0016 8C54     		strb	r4, [r1, r2]
  45:../Libraries/ROSSerial/rosserial_msgs/Log.h ****           inbuffer[k-1]=inbuffer[k];
 462              		.loc 3 45 0 discriminator 2
 463 0018 0133     		adds	r3, r3, #1
 464              	.LVL46:
 465 001a F7E7     		b	.L25
 466              	.L24:
 467              	.LBE76:
  47:../Libraries/ROSSerial/rosserial_msgs/Log.h ****       }
  48:../Libraries/ROSSerial/rosserial_msgs/Log.h ****       inbuffer[offset+length_msg-1]=0;
 468              		.loc 3 48 0
 469 001c 0435     		adds	r5, r5, #4
 470              	.LVL47:
 471 001e 0023     		movs	r3, #0
 472              	.LVL48:
 473 0020 4B55     		strb	r3, [r1, r5]
  49:../Libraries/ROSSerial/rosserial_msgs/Log.h ****       this->msg = (char *)(inbuffer + offset-1);
 474              		.loc 3 49 0
 475 0022 0431     		adds	r1, r1, #4
 476              	.LVL49:
 477 0024 8160     		str	r1, [r0, #8]
 478              	.LVL50:
  50:../Libraries/ROSSerial/rosserial_msgs/Log.h ****       offset += length_msg;
  51:../Libraries/ROSSerial/rosserial_msgs/Log.h ****      return offset;
  52:../Libraries/ROSSerial/rosserial_msgs/Log.h ****     }
 479              		.loc 3 52 0
 480 0026 1046     		mov	r0, r2
ARM GAS  /var/folders/l3/4y5292px21b4835bsnjwqc7w009kq1/T//cc8944ZQ.s 			page 13


 481              	.LVL51:
 482 0028 30BC     		pop	{r4, r5}
 483              	.LCFI3:
 484              		.cfi_restore 5
 485              		.cfi_restore 4
 486              		.cfi_def_cfa_offset 0
 487 002a 7047     		bx	lr
 488              		.cfi_endproc
 489              	.LFE392:
 490              		.cantunwind
 491              		.fnend
 493              		.section	.text._ZN14rosserial_msgs3Log7getTypeEv,"axG",%progbits,_ZN14rosserial_msgs3Log7getTypeEv
 494              		.align	1
 495              		.weak	_ZN14rosserial_msgs3Log7getTypeEv
 496              		.syntax unified
 497              		.thumb
 498              		.thumb_func
 499              		.fpu fpv4-sp-d16
 501              	_ZN14rosserial_msgs3Log7getTypeEv:
 502              		.fnstart
 503              	.LFB393:
  53:../Libraries/ROSSerial/rosserial_msgs/Log.h **** 
  54:../Libraries/ROSSerial/rosserial_msgs/Log.h ****     const char * getType(){ return "rosserial_msgs/Log"; };
 504              		.loc 3 54 0
 505              		.cfi_startproc
 506              		@ args = 0, pretend = 0, frame = 0
 507              		@ frame_needed = 0, uses_anonymous_args = 0
 508              		@ link register save eliminated.
 509              	.LVL52:
 510              		.loc 3 54 0
 511 0000 0048     		ldr	r0, .L28
 512              	.LVL53:
 513 0002 7047     		bx	lr
 514              	.L29:
 515              		.align	2
 516              	.L28:
 517 0004 00000000 		.word	.LC6
 518              		.cfi_endproc
 519              	.LFE393:
 520              		.cantunwind
 521              		.fnend
 523              		.section	.text._ZN14rosserial_msgs3Log6getMD5Ev,"axG",%progbits,_ZN14rosserial_msgs3Log6getMD5Ev,c
 524              		.align	1
 525              		.weak	_ZN14rosserial_msgs3Log6getMD5Ev
 526              		.syntax unified
 527              		.thumb
 528              		.thumb_func
 529              		.fpu fpv4-sp-d16
 531              	_ZN14rosserial_msgs3Log6getMD5Ev:
 532              		.fnstart
 533              	.LFB394:
  55:../Libraries/ROSSerial/rosserial_msgs/Log.h ****     const char * getMD5(){ return "11abd731c25933261cd6183bd12d6295"; };
 534              		.loc 3 55 0
 535              		.cfi_startproc
 536              		@ args = 0, pretend = 0, frame = 0
 537              		@ frame_needed = 0, uses_anonymous_args = 0
 538              		@ link register save eliminated.
ARM GAS  /var/folders/l3/4y5292px21b4835bsnjwqc7w009kq1/T//cc8944ZQ.s 			page 14


 539              	.LVL54:
 540              		.loc 3 55 0
 541 0000 0048     		ldr	r0, .L31
 542              	.LVL55:
 543 0002 7047     		bx	lr
 544              	.L32:
 545              		.align	2
 546              	.L31:
 547 0004 00000000 		.word	.LC7
 548              		.cfi_endproc
 549              	.LFE394:
 550              		.cantunwind
 551              		.fnend
 553              		.section	.text._ZNK14rosserial_msgs9TopicInfo9serializeEPh,"axG",%progbits,_ZNK14rosserial_msgs9To
 554              		.align	1
 555              		.weak	_ZNK14rosserial_msgs9TopicInfo9serializeEPh
 556              		.syntax unified
 557              		.thumb
 558              		.thumb_func
 559              		.fpu fpv4-sp-d16
 561              	_ZNK14rosserial_msgs9TopicInfo9serializeEPh:
 562              		.fnstart
 563              	.LFB387:
  29:../Libraries/ROSSerial/rosserial_msgs/TopicInfo.h ****     {
 564              		.loc 2 29 0
 565              		.cfi_startproc
 566              		@ args = 0, pretend = 0, frame = 0
 567              		@ frame_needed = 0, uses_anonymous_args = 0
 568              	.LVL56:
 569 0000 2DE9F041 		push	{r4, r5, r6, r7, r8, lr}
 570              	.LCFI4:
 571              		.cfi_def_cfa_offset 24
 572              		.cfi_offset 4, -24
 573              		.cfi_offset 5, -20
 574              		.cfi_offset 6, -16
 575              		.cfi_offset 7, -12
 576              		.cfi_offset 8, -8
 577              		.cfi_offset 14, -4
 578 0004 0646     		mov	r6, r0
 579 0006 0C46     		mov	r4, r1
 580              	.LVL57:
  32:../Libraries/ROSSerial/rosserial_msgs/TopicInfo.h ****       *(outbuffer + offset + 1) = (this->topic_id >> (8 * 1)) & 0xFF;
 581              		.loc 2 32 0
 582 0008 8388     		ldrh	r3, [r0, #4]
 583 000a 0B70     		strb	r3, [r1]
  33:../Libraries/ROSSerial/rosserial_msgs/TopicInfo.h ****       offset += sizeof(this->topic_id);
 584              		.loc 2 33 0
 585 000c 8388     		ldrh	r3, [r0, #4]
 586 000e 1B0A     		lsrs	r3, r3, #8
 587 0010 4B70     		strb	r3, [r1, #1]
 588              	.LVL58:
  35:../Libraries/ROSSerial/rosserial_msgs/TopicInfo.h ****       memcpy(outbuffer + offset, &length_topic_name, sizeof(uint32_t));
 589              		.loc 2 35 0
 590 0012 8068     		ldr	r0, [r0, #8]
 591              	.LVL59:
 592 0014 FFF7FEFF 		bl	strlen
 593              	.LVL60:
ARM GAS  /var/folders/l3/4y5292px21b4835bsnjwqc7w009kq1/T//cc8944ZQ.s 			page 15


 594 0018 0746     		mov	r7, r0
 595              	.LVL61:
  36:../Libraries/ROSSerial/rosserial_msgs/TopicInfo.h ****       offset += 4;
 596              		.loc 2 36 0
 597 001a C4F80200 		str	r0, [r4, #2]	@ unaligned
 598              	.LVL62:
  38:../Libraries/ROSSerial/rosserial_msgs/TopicInfo.h ****       offset += length_topic_name;
 599              		.loc 2 38 0
 600 001e 0246     		mov	r2, r0
 601 0020 B168     		ldr	r1, [r6, #8]
 602 0022 A01D     		adds	r0, r4, #6
 603              	.LVL63:
 604 0024 FFF7FEFF 		bl	memcpy
 605              	.LVL64:
  39:../Libraries/ROSSerial/rosserial_msgs/TopicInfo.h ****       uint32_t length_message_type = strlen(this->message_type);
 606              		.loc 2 39 0
 607 0028 07F10608 		add	r8, r7, #6
 608              	.LVL65:
  40:../Libraries/ROSSerial/rosserial_msgs/TopicInfo.h ****       memcpy(outbuffer + offset, &length_message_type, sizeof(uint32_t));
 609              		.loc 2 40 0
 610 002c F068     		ldr	r0, [r6, #12]
 611 002e FFF7FEFF 		bl	strlen
 612              	.LVL66:
 613 0032 0546     		mov	r5, r0
 614              	.LVL67:
  41:../Libraries/ROSSerial/rosserial_msgs/TopicInfo.h ****       offset += 4;
 615              		.loc 2 41 0
 616 0034 44F80800 		str	r0, [r4, r8]	@ unaligned
  42:../Libraries/ROSSerial/rosserial_msgs/TopicInfo.h ****       memcpy(outbuffer + offset, this->message_type, length_message_type);
 617              		.loc 2 42 0
 618 0038 0A37     		adds	r7, r7, #10
 619              	.LVL68:
  43:../Libraries/ROSSerial/rosserial_msgs/TopicInfo.h ****       offset += length_message_type;
 620              		.loc 2 43 0
 621 003a 0246     		mov	r2, r0
 622 003c F168     		ldr	r1, [r6, #12]
 623 003e E019     		adds	r0, r4, r7
 624              	.LVL69:
 625 0040 FFF7FEFF 		bl	memcpy
 626              	.LVL70:
  44:../Libraries/ROSSerial/rosserial_msgs/TopicInfo.h ****       uint32_t length_md5sum = strlen(this->md5sum);
 627              		.loc 2 44 0
 628 0044 2F44     		add	r7, r7, r5
 629              	.LVL71:
  45:../Libraries/ROSSerial/rosserial_msgs/TopicInfo.h ****       memcpy(outbuffer + offset, &length_md5sum, sizeof(uint32_t));
 630              		.loc 2 45 0
 631 0046 3069     		ldr	r0, [r6, #16]
 632 0048 FFF7FEFF 		bl	strlen
 633              	.LVL72:
 634 004c 0546     		mov	r5, r0
 635              	.LVL73:
  46:../Libraries/ROSSerial/rosserial_msgs/TopicInfo.h ****       offset += 4;
 636              		.loc 2 46 0
 637 004e E051     		str	r0, [r4, r7]	@ unaligned
  47:../Libraries/ROSSerial/rosserial_msgs/TopicInfo.h ****       memcpy(outbuffer + offset, this->md5sum, length_md5sum);
 638              		.loc 2 47 0
 639 0050 0437     		adds	r7, r7, #4
ARM GAS  /var/folders/l3/4y5292px21b4835bsnjwqc7w009kq1/T//cc8944ZQ.s 			page 16


 640              	.LVL74:
  48:../Libraries/ROSSerial/rosserial_msgs/TopicInfo.h ****       offset += length_md5sum;
 641              		.loc 2 48 0
 642 0052 0246     		mov	r2, r0
 643 0054 3169     		ldr	r1, [r6, #16]
 644 0056 E019     		adds	r0, r4, r7
 645              	.LVL75:
 646 0058 FFF7FEFF 		bl	memcpy
 647              	.LVL76:
  49:../Libraries/ROSSerial/rosserial_msgs/TopicInfo.h ****       union {
 648              		.loc 2 49 0
 649 005c E819     		adds	r0, r5, r7
 650              	.LVL77:
  54:../Libraries/ROSSerial/rosserial_msgs/TopicInfo.h ****       *(outbuffer + offset + 0) = (u_buffer_size.base >> (8 * 0)) & 0xFF;
 651              		.loc 2 54 0
 652 005e 7369     		ldr	r3, [r6, #20]
  55:../Libraries/ROSSerial/rosserial_msgs/TopicInfo.h ****       *(outbuffer + offset + 1) = (u_buffer_size.base >> (8 * 1)) & 0xFF;
 653              		.loc 2 55 0
 654 0060 2354     		strb	r3, [r4, r0]
  56:../Libraries/ROSSerial/rosserial_msgs/TopicInfo.h ****       *(outbuffer + offset + 2) = (u_buffer_size.base >> (8 * 2)) & 0xFF;
 655              		.loc 2 56 0
 656 0062 190A     		lsrs	r1, r3, #8
 657 0064 421C     		adds	r2, r0, #1
 658 0066 A154     		strb	r1, [r4, r2]
  57:../Libraries/ROSSerial/rosserial_msgs/TopicInfo.h ****       *(outbuffer + offset + 3) = (u_buffer_size.base >> (8 * 3)) & 0xFF;
 659              		.loc 2 57 0
 660 0068 190C     		lsrs	r1, r3, #16
 661 006a 821C     		adds	r2, r0, #2
 662 006c A154     		strb	r1, [r4, r2]
  58:../Libraries/ROSSerial/rosserial_msgs/TopicInfo.h ****       offset += sizeof(this->buffer_size);
 663              		.loc 2 58 0
 664 006e 1B0E     		lsrs	r3, r3, #24
 665 0070 C21C     		adds	r2, r0, #3
 666 0072 A354     		strb	r3, [r4, r2]
 667              	.LVL78:
  61:../Libraries/ROSSerial/rosserial_msgs/TopicInfo.h **** 
 668              		.loc 2 61 0
 669 0074 0430     		adds	r0, r0, #4
 670              	.LVL79:
 671 0076 BDE8F081 		pop	{r4, r5, r6, r7, r8, pc}
 672              		.cfi_endproc
 673              	.LFE387:
 674              		.cantunwind
 675              		.fnend
 677              		.section	.text._ZNK14rosserial_msgs3Log9serializeEPh,"axG",%progbits,_ZNK14rosserial_msgs3Log9seri
 678              		.align	1
 679              		.weak	_ZNK14rosserial_msgs3Log9serializeEPh
 680              		.syntax unified
 681              		.thumb
 682              		.thumb_func
 683              		.fpu fpv4-sp-d16
 685              	_ZNK14rosserial_msgs3Log9serializeEPh:
 686              		.fnstart
 687              	.LFB391:
  24:../Libraries/ROSSerial/rosserial_msgs/Log.h ****     {
 688              		.loc 3 24 0
 689              		.cfi_startproc
ARM GAS  /var/folders/l3/4y5292px21b4835bsnjwqc7w009kq1/T//cc8944ZQ.s 			page 17


 690              		@ args = 0, pretend = 0, frame = 0
 691              		@ frame_needed = 0, uses_anonymous_args = 0
 692              	.LVL80:
 693 0000 70B5     		push	{r4, r5, r6, lr}
 694              	.LCFI5:
 695              		.cfi_def_cfa_offset 16
 696              		.cfi_offset 4, -16
 697              		.cfi_offset 5, -12
 698              		.cfi_offset 6, -8
 699              		.cfi_offset 14, -4
 700 0002 0646     		mov	r6, r0
 701 0004 0D46     		mov	r5, r1
 702              	.LVL81:
  27:../Libraries/ROSSerial/rosserial_msgs/Log.h ****       offset += sizeof(this->level);
 703              		.loc 3 27 0
 704 0006 0379     		ldrb	r3, [r0, #4]	@ zero_extendqisi2
 705 0008 0B70     		strb	r3, [r1]
 706              	.LVL82:
  29:../Libraries/ROSSerial/rosserial_msgs/Log.h ****       memcpy(outbuffer + offset, &length_msg, sizeof(uint32_t));
 707              		.loc 3 29 0
 708 000a 8068     		ldr	r0, [r0, #8]
 709              	.LVL83:
 710 000c FFF7FEFF 		bl	strlen
 711              	.LVL84:
 712 0010 0446     		mov	r4, r0
 713              	.LVL85:
  30:../Libraries/ROSSerial/rosserial_msgs/Log.h ****       offset += 4;
 714              		.loc 3 30 0
 715 0012 C5F80100 		str	r0, [r5, #1]	@ unaligned
 716              	.LVL86:
  32:../Libraries/ROSSerial/rosserial_msgs/Log.h ****       offset += length_msg;
 717              		.loc 3 32 0
 718 0016 0246     		mov	r2, r0
 719 0018 B168     		ldr	r1, [r6, #8]
 720 001a 681D     		adds	r0, r5, #5
 721              	.LVL87:
 722 001c FFF7FEFF 		bl	memcpy
 723              	.LVL88:
  35:../Libraries/ROSSerial/rosserial_msgs/Log.h **** 
 724              		.loc 3 35 0
 725 0020 601D     		adds	r0, r4, #5
 726              	.LVL89:
 727 0022 70BD     		pop	{r4, r5, r6, pc}
 728              		.cfi_endproc
 729              	.LFE391:
 730              		.cantunwind
 731              		.fnend
 733              		.section	.text._Z15rosSpinTaskInitPN3ros11NodeHandle_I13STM32HardwareLi5ELi5ELi512ELi512EEE,"ax",%
 734              		.align	1
 735              		.global	_Z15rosSpinTaskInitPN3ros11NodeHandle_I13STM32HardwareLi5ELi5ELi512ELi512EEE
 736              		.syntax unified
 737              		.thumb
 738              		.thumb_func
 739              		.fpu fpv4-sp-d16
 741              	_Z15rosSpinTaskInitPN3ros11NodeHandle_I13STM32HardwareLi5ELi5ELi512ELi512EEE:
 742              		.fnstart
 743              	.LFB465:
ARM GAS  /var/folders/l3/4y5292px21b4835bsnjwqc7w009kq1/T//cc8944ZQ.s 			page 18


 744              		.file 4 "ROSTasks/Src/spin_task.cpp"
   1:ROSTasks/Src/spin_task.cpp **** /*
   2:ROSTasks/Src/spin_task.cpp ****  * spin_task.cpp
   3:ROSTasks/Src/spin_task.cpp ****  *
   4:ROSTasks/Src/spin_task.cpp ****  *  Created on: Mar 18, 2019
   5:ROSTasks/Src/spin_task.cpp ****  *      Author:
   6:ROSTasks/Src/spin_task.cpp ****  */
   7:ROSTasks/Src/spin_task.cpp **** 
   8:ROSTasks/Src/spin_task.cpp **** #include <stdio.h>
   9:ROSTasks/Src/spin_task.cpp **** #include "bsp_led.h"
  10:ROSTasks/Src/spin_task.cpp **** #include "spin_task.h"
  11:ROSTasks/Src/spin_task.cpp **** 
  12:ROSTasks/Src/spin_task.cpp **** static ros::NodeHandle *nh_;
  13:ROSTasks/Src/spin_task.cpp **** 
  14:ROSTasks/Src/spin_task.cpp **** 
  15:ROSTasks/Src/spin_task.cpp **** void ROS_SpinTaskHandler(void const * argument)
  16:ROSTasks/Src/spin_task.cpp **** {
  17:ROSTasks/Src/spin_task.cpp **** 
  18:ROSTasks/Src/spin_task.cpp ****   /* USER CODE BEGIN ROS_SpinTaskHandler */
  19:ROSTasks/Src/spin_task.cpp **** 
  20:ROSTasks/Src/spin_task.cpp ****   /* Infinite loop */
  21:ROSTasks/Src/spin_task.cpp ****   for(;;)
  22:ROSTasks/Src/spin_task.cpp ****   {
  23:ROSTasks/Src/spin_task.cpp **** 	//bsp_LedToggle(2);
  24:ROSTasks/Src/spin_task.cpp **** 	//printf("This is spin Task\r\n");
  25:ROSTasks/Src/spin_task.cpp **** 	osDelay(1000);
  26:ROSTasks/Src/spin_task.cpp **** 	nh_->spinOnce1(); //calling spinOnce() directly give stackoverflow
  27:ROSTasks/Src/spin_task.cpp ****   }
  28:ROSTasks/Src/spin_task.cpp ****   /* USER CODE END ROS_SpinTaskHandler */
  29:ROSTasks/Src/spin_task.cpp **** }
  30:ROSTasks/Src/spin_task.cpp **** 
  31:ROSTasks/Src/spin_task.cpp **** 
  32:ROSTasks/Src/spin_task.cpp **** /*
  33:ROSTasks/Src/spin_task.cpp ****  * Create spin task
  34:ROSTasks/Src/spin_task.cpp ****  */
  35:ROSTasks/Src/spin_task.cpp **** uint32_t rosSpinTaskInit(ros::NodeHandle *nh)
  36:ROSTasks/Src/spin_task.cpp **** {
 745              		.loc 4 36 0
 746              		.cfi_startproc
 747              		@ args = 0, pretend = 0, frame = 24
 748              		@ frame_needed = 0, uses_anonymous_args = 0
 749              	.LVL90:
 750 0000 30B5     		push	{r4, r5, lr}
 751              		.save {r4, r5, lr}
 752              	.LCFI6:
 753              		.cfi_def_cfa_offset 12
 754              		.cfi_offset 4, -12
 755              		.cfi_offset 5, -8
 756              		.cfi_offset 14, -4
 757              		.pad #28
 758 0002 87B0     		sub	sp, sp, #28
 759              	.LCFI7:
 760              		.cfi_def_cfa_offset 40
  37:ROSTasks/Src/spin_task.cpp **** 	osThreadId ROS_SpinTaskHandle;
  38:ROSTasks/Src/spin_task.cpp **** 
  39:ROSTasks/Src/spin_task.cpp **** 	nh_ = nh;
 761              		.loc 4 39 0
ARM GAS  /var/folders/l3/4y5292px21b4835bsnjwqc7w009kq1/T//cc8944ZQ.s 			page 19


 762 0004 084B     		ldr	r3, .L42
 763 0006 1860     		str	r0, [r3]
  40:ROSTasks/Src/spin_task.cpp **** 
  41:ROSTasks/Src/spin_task.cpp **** 	/* definition and creation of ROS_SpinTask */
  42:ROSTasks/Src/spin_task.cpp **** 	osThreadDef(ROS_SpinTask, ROS_SpinTaskHandler, osPriorityIdle, 0, 128);
 764              		.loc 4 42 0
 765 0008 01AC     		add	r4, sp, #4
 766 000a 084D     		ldr	r5, .L42+4
 767 000c 0FCD     		ldmia	r5!, {r0, r1, r2, r3}
 768              	.LVL91:
 769 000e 0FC4     		stmia	r4!, {r0, r1, r2, r3}
 770 0010 2B68     		ldr	r3, [r5]
 771 0012 2360     		str	r3, [r4]
  43:ROSTasks/Src/spin_task.cpp **** 	ROS_SpinTaskHandle = osThreadCreate(osThread(ROS_SpinTask), NULL);
 772              		.loc 4 43 0
 773 0014 0021     		movs	r1, #0
 774 0016 01A8     		add	r0, sp, #4
 775 0018 FFF7FEFF 		bl	osThreadCreate
 776              	.LVL92:
  44:ROSTasks/Src/spin_task.cpp **** 	if (NULL == ROS_SpinTaskHandle)
 777              		.loc 4 44 0
 778 001c 10B1     		cbz	r0, .L41
  45:ROSTasks/Src/spin_task.cpp **** 	{
  46:ROSTasks/Src/spin_task.cpp **** 		return 1;
  47:ROSTasks/Src/spin_task.cpp **** 	}
  48:ROSTasks/Src/spin_task.cpp **** 	return 0;
 779              		.loc 4 48 0
 780 001e 0020     		movs	r0, #0
 781              	.LVL93:
 782              	.L37:
  49:ROSTasks/Src/spin_task.cpp **** 
  50:ROSTasks/Src/spin_task.cpp **** }
 783              		.loc 4 50 0
 784 0020 07B0     		add	sp, sp, #28
 785              	.LCFI8:
 786              		.cfi_remember_state
 787              		.cfi_def_cfa_offset 12
 788              		@ sp needed
 789 0022 30BD     		pop	{r4, r5, pc}
 790              	.LVL94:
 791              	.L41:
 792              	.LCFI9:
 793              		.cfi_restore_state
  46:ROSTasks/Src/spin_task.cpp **** 	}
 794              		.loc 4 46 0
 795 0024 0120     		movs	r0, #1
 796              	.LVL95:
 797 0026 FBE7     		b	.L37
 798              	.L43:
 799              		.align	2
 800              	.L42:
 801 0028 00000000 		.word	.LANCHOR0
 802 002c 00000000 		.word	.LANCHOR1
 803              		.cfi_endproc
 804              	.LFE465:
 805              		.fnend
 807              		.section	.text._ZN3ros11NodeHandle_I13STM32HardwareLi5ELi5ELi512ELi512EE8publish1EiPKNS_3MsgE,"axG
ARM GAS  /var/folders/l3/4y5292px21b4835bsnjwqc7w009kq1/T//cc8944ZQ.s 			page 20


 808              		.align	1
 809              		.weak	_ZN3ros11NodeHandle_I13STM32HardwareLi5ELi5ELi512ELi512EE8publish1EiPKNS_3MsgE
 810              		.syntax unified
 811              		.thumb
 812              		.thumb_func
 813              		.fpu fpv4-sp-d16
 815              	_ZN3ros11NodeHandle_I13STM32HardwareLi5ELi5ELi512ELi512EE8publish1EiPKNS_3MsgE:
 816              		.fnstart
 817              	.LFB479:
 818              		.file 5 "../Libraries/ROSSerial/ros/node_handle.h"
   1:../Libraries/ROSSerial/ros/node_handle.h **** /*
   2:../Libraries/ROSSerial/ros/node_handle.h ****  * Software License Agreement (BSD License)
   3:../Libraries/ROSSerial/ros/node_handle.h ****  *
   4:../Libraries/ROSSerial/ros/node_handle.h ****  * Copyright (c) 2011, Willow Garage, Inc.
   5:../Libraries/ROSSerial/ros/node_handle.h ****  * All rights reserved.
   6:../Libraries/ROSSerial/ros/node_handle.h ****  *
   7:../Libraries/ROSSerial/ros/node_handle.h ****  * Redistribution and use in source and binary forms, with or without
   8:../Libraries/ROSSerial/ros/node_handle.h ****  * modification, are permitted provided that the following conditions
   9:../Libraries/ROSSerial/ros/node_handle.h ****  * are met:
  10:../Libraries/ROSSerial/ros/node_handle.h ****  *
  11:../Libraries/ROSSerial/ros/node_handle.h ****  *  * Redistributions of source code must retain the above copyright
  12:../Libraries/ROSSerial/ros/node_handle.h ****  *    notice, this list of conditions and the following disclaimer.
  13:../Libraries/ROSSerial/ros/node_handle.h ****  *  * Redistributions in binary form must reproduce the above
  14:../Libraries/ROSSerial/ros/node_handle.h ****  *    copyright notice, this list of conditions and the following
  15:../Libraries/ROSSerial/ros/node_handle.h ****  *    disclaimer in the documentation and/or other materials provided
  16:../Libraries/ROSSerial/ros/node_handle.h ****  *    with the distribution.
  17:../Libraries/ROSSerial/ros/node_handle.h ****  *  * Neither the name of Willow Garage, Inc. nor the names of its
  18:../Libraries/ROSSerial/ros/node_handle.h ****  *    contributors may be used to endorse or promote prducts derived
  19:../Libraries/ROSSerial/ros/node_handle.h ****  *    from this software without specific prior written permission.
  20:../Libraries/ROSSerial/ros/node_handle.h ****  *
  21:../Libraries/ROSSerial/ros/node_handle.h ****  * THIS SOFTWARE IS PROVIDED BY THE COPYRIGHT HOLDERS AND CONTRIBUTORS
  22:../Libraries/ROSSerial/ros/node_handle.h ****  * "AS IS" AND ANY EXPRESS OR IMPLIED WARRANTIES, INCLUDING, BUT NOT
  23:../Libraries/ROSSerial/ros/node_handle.h ****  * LIMITED TO, THE IMPLIED WARRANTIES OF MERCHANTABILITY AND FITNESS
  24:../Libraries/ROSSerial/ros/node_handle.h ****  * FOR A PARTICULAR PURPOSE ARE DISCLAIMED. IN NO EVENT SHALL THE
  25:../Libraries/ROSSerial/ros/node_handle.h ****  * COPYRIGHT OWNER OR CONTRIBUTORS BE LIABLE FOR ANY DIRECT, INDIRECT,
  26:../Libraries/ROSSerial/ros/node_handle.h ****  * INCIDENTAL, SPECIAL, EXEMPLARY, OR CONSEQUENTIAL DAMAGES (INCLUDING,
  27:../Libraries/ROSSerial/ros/node_handle.h ****  * BUT NOT LIMITED TO, PROCUREMENT OF SUBSTITUTE GOODS OR SERVICES;
  28:../Libraries/ROSSerial/ros/node_handle.h ****  * LOSS OF USE, DATA, OR PROFITS; OR BUSINESS INTERRUPTION) HOWEVER
  29:../Libraries/ROSSerial/ros/node_handle.h ****  * CAUSED AND ON ANY THEORY OF LIABILITY, WHETHER IN CONTRACT, STRICT
  30:../Libraries/ROSSerial/ros/node_handle.h ****  * LIABILITY, OR TORT (INCLUDING NEGLIGENCE OR OTHERWISE) ARISING IN
  31:../Libraries/ROSSerial/ros/node_handle.h ****  * ANY WAY OUT OF THE USE OF THIS SOFTWARE, EVEN IF ADVISED OF THE
  32:../Libraries/ROSSerial/ros/node_handle.h ****  * POSSIBILITY OF SUCH DAMAGE.
  33:../Libraries/ROSSerial/ros/node_handle.h ****  */
  34:../Libraries/ROSSerial/ros/node_handle.h **** 
  35:../Libraries/ROSSerial/ros/node_handle.h **** #ifndef ROS_NODE_HANDLE_H_
  36:../Libraries/ROSSerial/ros/node_handle.h **** #define ROS_NODE_HANDLE_H_
  37:../Libraries/ROSSerial/ros/node_handle.h **** 
  38:../Libraries/ROSSerial/ros/node_handle.h **** #include <stdint.h>
  39:../Libraries/ROSSerial/ros/node_handle.h **** 
  40:../Libraries/ROSSerial/ros/node_handle.h **** #include "std_msgs/Time.h"
  41:../Libraries/ROSSerial/ros/node_handle.h **** #include "rosserial_msgs/TopicInfo.h"
  42:../Libraries/ROSSerial/ros/node_handle.h **** #include "rosserial_msgs/Log.h"
  43:../Libraries/ROSSerial/ros/node_handle.h **** #include "rosserial_msgs/RequestParam.h"
  44:../Libraries/ROSSerial/ros/node_handle.h **** 
  45:../Libraries/ROSSerial/ros/node_handle.h **** #include "ros/msg.h"
  46:../Libraries/ROSSerial/ros/node_handle.h **** 
  47:../Libraries/ROSSerial/ros/node_handle.h **** namespace ros
ARM GAS  /var/folders/l3/4y5292px21b4835bsnjwqc7w009kq1/T//cc8944ZQ.s 			page 21


  48:../Libraries/ROSSerial/ros/node_handle.h **** {
  49:../Libraries/ROSSerial/ros/node_handle.h **** 
  50:../Libraries/ROSSerial/ros/node_handle.h **** class NodeHandleBase_
  51:../Libraries/ROSSerial/ros/node_handle.h **** {
  52:../Libraries/ROSSerial/ros/node_handle.h **** public:
  53:../Libraries/ROSSerial/ros/node_handle.h ****   virtual int publish(int id, const Msg* msg) = 0;
  54:../Libraries/ROSSerial/ros/node_handle.h ****   virtual int spinOnce() = 0;
  55:../Libraries/ROSSerial/ros/node_handle.h ****   virtual bool connected() = 0;
  56:../Libraries/ROSSerial/ros/node_handle.h **** };
  57:../Libraries/ROSSerial/ros/node_handle.h **** }
  58:../Libraries/ROSSerial/ros/node_handle.h **** 
  59:../Libraries/ROSSerial/ros/node_handle.h **** #include "ros/publisher.h"
  60:../Libraries/ROSSerial/ros/node_handle.h **** #include "ros/subscriber.h"
  61:../Libraries/ROSSerial/ros/node_handle.h **** #include "ros/service_server.h"
  62:../Libraries/ROSSerial/ros/node_handle.h **** #include "ros/service_client.h"
  63:../Libraries/ROSSerial/ros/node_handle.h **** 
  64:../Libraries/ROSSerial/ros/node_handle.h **** namespace ros
  65:../Libraries/ROSSerial/ros/node_handle.h **** {
  66:../Libraries/ROSSerial/ros/node_handle.h **** 
  67:../Libraries/ROSSerial/ros/node_handle.h **** const int SPIN_OK = 0;
  68:../Libraries/ROSSerial/ros/node_handle.h **** const int SPIN_ERR = -1;
  69:../Libraries/ROSSerial/ros/node_handle.h **** const int SPIN_TIMEOUT = -2;
  70:../Libraries/ROSSerial/ros/node_handle.h **** 
  71:../Libraries/ROSSerial/ros/node_handle.h **** const uint8_t SYNC_SECONDS  = 5;
  72:../Libraries/ROSSerial/ros/node_handle.h **** const uint8_t MODE_FIRST_FF = 0;
  73:../Libraries/ROSSerial/ros/node_handle.h **** /*
  74:../Libraries/ROSSerial/ros/node_handle.h ****  * The second sync byte is a protocol version. It's value is 0xff for the first
  75:../Libraries/ROSSerial/ros/node_handle.h ****  * version of the rosserial protocol (used up to hydro), 0xfe for the second version
  76:../Libraries/ROSSerial/ros/node_handle.h ****  * (introduced in hydro), 0xfd for the next, and so on. Its purpose is to enable
  77:../Libraries/ROSSerial/ros/node_handle.h ****  * detection of mismatched protocol versions (e.g. hydro rosserial_python with groovy
  78:../Libraries/ROSSerial/ros/node_handle.h ****  * rosserial_arduino. It must be changed in both this file and in
  79:../Libraries/ROSSerial/ros/node_handle.h ****  * rosserial_python/src/rosserial_python/SerialClient.py
  80:../Libraries/ROSSerial/ros/node_handle.h ****  */
  81:../Libraries/ROSSerial/ros/node_handle.h **** const uint8_t MODE_PROTOCOL_VER   = 1;
  82:../Libraries/ROSSerial/ros/node_handle.h **** const uint8_t PROTOCOL_VER1       = 0xff; // through groovy
  83:../Libraries/ROSSerial/ros/node_handle.h **** const uint8_t PROTOCOL_VER2       = 0xfe; // in hydro
  84:../Libraries/ROSSerial/ros/node_handle.h **** const uint8_t PROTOCOL_VER        = PROTOCOL_VER2;
  85:../Libraries/ROSSerial/ros/node_handle.h **** const uint8_t MODE_SIZE_L         = 2;
  86:../Libraries/ROSSerial/ros/node_handle.h **** const uint8_t MODE_SIZE_H         = 3;
  87:../Libraries/ROSSerial/ros/node_handle.h **** const uint8_t MODE_SIZE_CHECKSUM  = 4;    // checksum for msg size received from size L and H
  88:../Libraries/ROSSerial/ros/node_handle.h **** const uint8_t MODE_TOPIC_L        = 5;    // waiting for topic id
  89:../Libraries/ROSSerial/ros/node_handle.h **** const uint8_t MODE_TOPIC_H        = 6;
  90:../Libraries/ROSSerial/ros/node_handle.h **** const uint8_t MODE_MESSAGE        = 7;
  91:../Libraries/ROSSerial/ros/node_handle.h **** const uint8_t MODE_MSG_CHECKSUM   = 8;    // checksum for msg and topic id
  92:../Libraries/ROSSerial/ros/node_handle.h **** 
  93:../Libraries/ROSSerial/ros/node_handle.h **** 
  94:../Libraries/ROSSerial/ros/node_handle.h **** const uint8_t SERIAL_MSG_TIMEOUT  = 20;   // 20 milliseconds to recieve all of message data
  95:../Libraries/ROSSerial/ros/node_handle.h **** 
  96:../Libraries/ROSSerial/ros/node_handle.h **** using rosserial_msgs::TopicInfo;
  97:../Libraries/ROSSerial/ros/node_handle.h **** 
  98:../Libraries/ROSSerial/ros/node_handle.h **** /* Node Handle */
  99:../Libraries/ROSSerial/ros/node_handle.h **** template<class Hardware,
 100:../Libraries/ROSSerial/ros/node_handle.h ****          int MAX_SUBSCRIBERS = 25,
 101:../Libraries/ROSSerial/ros/node_handle.h ****          int MAX_PUBLISHERS = 25,
 102:../Libraries/ROSSerial/ros/node_handle.h ****          int INPUT_SIZE = 512,
 103:../Libraries/ROSSerial/ros/node_handle.h ****          int OUTPUT_SIZE = 512>
 104:../Libraries/ROSSerial/ros/node_handle.h **** class NodeHandle_ : public NodeHandleBase_
ARM GAS  /var/folders/l3/4y5292px21b4835bsnjwqc7w009kq1/T//cc8944ZQ.s 			page 22


 105:../Libraries/ROSSerial/ros/node_handle.h **** {
 106:../Libraries/ROSSerial/ros/node_handle.h **** protected:
 107:../Libraries/ROSSerial/ros/node_handle.h ****   Hardware hardware_;
 108:../Libraries/ROSSerial/ros/node_handle.h **** 
 109:../Libraries/ROSSerial/ros/node_handle.h ****   /* time used for syncing */
 110:../Libraries/ROSSerial/ros/node_handle.h ****   uint32_t rt_time;
 111:../Libraries/ROSSerial/ros/node_handle.h **** 
 112:../Libraries/ROSSerial/ros/node_handle.h ****   /* used for computing current time */
 113:../Libraries/ROSSerial/ros/node_handle.h ****   uint32_t sec_offset, nsec_offset;
 114:../Libraries/ROSSerial/ros/node_handle.h **** 
 115:../Libraries/ROSSerial/ros/node_handle.h ****   /* Spinonce maximum work timeout */
 116:../Libraries/ROSSerial/ros/node_handle.h ****   uint32_t spin_timeout_;
 117:../Libraries/ROSSerial/ros/node_handle.h **** 
 118:../Libraries/ROSSerial/ros/node_handle.h ****   uint8_t message_in[INPUT_SIZE];
 119:../Libraries/ROSSerial/ros/node_handle.h ****   uint8_t message_out[OUTPUT_SIZE];
 120:../Libraries/ROSSerial/ros/node_handle.h **** 
 121:../Libraries/ROSSerial/ros/node_handle.h ****   Publisher * publishers[MAX_PUBLISHERS];
 122:../Libraries/ROSSerial/ros/node_handle.h ****   Subscriber_ * subscribers[MAX_SUBSCRIBERS];
 123:../Libraries/ROSSerial/ros/node_handle.h **** 
 124:../Libraries/ROSSerial/ros/node_handle.h ****   /*
 125:../Libraries/ROSSerial/ros/node_handle.h ****    * Setup Functions
 126:../Libraries/ROSSerial/ros/node_handle.h ****    */
 127:../Libraries/ROSSerial/ros/node_handle.h **** public:
 128:../Libraries/ROSSerial/ros/node_handle.h ****   NodeHandle_() : configured_(false)
 129:../Libraries/ROSSerial/ros/node_handle.h ****   {
 130:../Libraries/ROSSerial/ros/node_handle.h **** 
 131:../Libraries/ROSSerial/ros/node_handle.h ****     for (unsigned int i = 0; i < MAX_PUBLISHERS; i++)
 132:../Libraries/ROSSerial/ros/node_handle.h ****       publishers[i] = 0;
 133:../Libraries/ROSSerial/ros/node_handle.h **** 
 134:../Libraries/ROSSerial/ros/node_handle.h ****     for (unsigned int i = 0; i < MAX_SUBSCRIBERS; i++)
 135:../Libraries/ROSSerial/ros/node_handle.h ****       subscribers[i] = 0;
 136:../Libraries/ROSSerial/ros/node_handle.h **** 
 137:../Libraries/ROSSerial/ros/node_handle.h ****     for (unsigned int i = 0; i < INPUT_SIZE; i++)
 138:../Libraries/ROSSerial/ros/node_handle.h ****       message_in[i] = 0;
 139:../Libraries/ROSSerial/ros/node_handle.h **** 
 140:../Libraries/ROSSerial/ros/node_handle.h ****     for (unsigned int i = 0; i < OUTPUT_SIZE; i++)
 141:../Libraries/ROSSerial/ros/node_handle.h ****       message_out[i] = 0;
 142:../Libraries/ROSSerial/ros/node_handle.h **** 
 143:../Libraries/ROSSerial/ros/node_handle.h ****     req_param_resp.ints_length = 0;
 144:../Libraries/ROSSerial/ros/node_handle.h ****     req_param_resp.ints = NULL;
 145:../Libraries/ROSSerial/ros/node_handle.h ****     req_param_resp.floats_length = 0;
 146:../Libraries/ROSSerial/ros/node_handle.h ****     req_param_resp.floats = NULL;
 147:../Libraries/ROSSerial/ros/node_handle.h ****     req_param_resp.ints_length = 0;
 148:../Libraries/ROSSerial/ros/node_handle.h ****     req_param_resp.ints = NULL;
 149:../Libraries/ROSSerial/ros/node_handle.h **** 
 150:../Libraries/ROSSerial/ros/node_handle.h ****     spin_timeout_ = 0;
 151:../Libraries/ROSSerial/ros/node_handle.h ****   }
 152:../Libraries/ROSSerial/ros/node_handle.h **** 
 153:../Libraries/ROSSerial/ros/node_handle.h ****   Hardware* getHardware()
 154:../Libraries/ROSSerial/ros/node_handle.h ****   {
 155:../Libraries/ROSSerial/ros/node_handle.h ****     return &hardware_;
 156:../Libraries/ROSSerial/ros/node_handle.h ****   }
 157:../Libraries/ROSSerial/ros/node_handle.h **** 
 158:../Libraries/ROSSerial/ros/node_handle.h ****   /* Start serial, initialize buffers */
 159:../Libraries/ROSSerial/ros/node_handle.h ****   void initNode()
 160:../Libraries/ROSSerial/ros/node_handle.h ****   {
 161:../Libraries/ROSSerial/ros/node_handle.h ****     hardware_.init();
ARM GAS  /var/folders/l3/4y5292px21b4835bsnjwqc7w009kq1/T//cc8944ZQ.s 			page 23


 162:../Libraries/ROSSerial/ros/node_handle.h ****     mode_ = 0;
 163:../Libraries/ROSSerial/ros/node_handle.h ****     bytes_ = 0;
 164:../Libraries/ROSSerial/ros/node_handle.h ****     index_ = 0;
 165:../Libraries/ROSSerial/ros/node_handle.h ****     topic_ = 0;
 166:../Libraries/ROSSerial/ros/node_handle.h ****     //printf("Node init\n");
 167:../Libraries/ROSSerial/ros/node_handle.h ****   };
 168:../Libraries/ROSSerial/ros/node_handle.h **** 
 169:../Libraries/ROSSerial/ros/node_handle.h ****   /* Start a named port, which may be network server IP, initialize buffers */
 170:../Libraries/ROSSerial/ros/node_handle.h ****   void initNode(char *portName)
 171:../Libraries/ROSSerial/ros/node_handle.h ****   {
 172:../Libraries/ROSSerial/ros/node_handle.h ****     hardware_.init(portName);
 173:../Libraries/ROSSerial/ros/node_handle.h ****     mode_ = 0;
 174:../Libraries/ROSSerial/ros/node_handle.h ****     bytes_ = 0;
 175:../Libraries/ROSSerial/ros/node_handle.h ****     index_ = 0;
 176:../Libraries/ROSSerial/ros/node_handle.h ****     topic_ = 0;
 177:../Libraries/ROSSerial/ros/node_handle.h ****   };
 178:../Libraries/ROSSerial/ros/node_handle.h **** 
 179:../Libraries/ROSSerial/ros/node_handle.h ****   /**
 180:../Libraries/ROSSerial/ros/node_handle.h ****    * @brief Sets the maximum time in millisconds that spinOnce() can work.
 181:../Libraries/ROSSerial/ros/node_handle.h ****    * This will not effect the processing of the buffer, as spinOnce processes
 182:../Libraries/ROSSerial/ros/node_handle.h ****    * one byte at a time. It simply sets the maximum time that one call can
 183:../Libraries/ROSSerial/ros/node_handle.h ****    * process for. You can choose to clear the buffer if that is beneficial if
 184:../Libraries/ROSSerial/ros/node_handle.h ****    * SPIN_TIMEOUT is returned from spinOnce().
 185:../Libraries/ROSSerial/ros/node_handle.h ****    * @param timeout The timeout in milliseconds that spinOnce will function.
 186:../Libraries/ROSSerial/ros/node_handle.h ****    */
 187:../Libraries/ROSSerial/ros/node_handle.h ****   void setSpinTimeout(const uint32_t& timeout)
 188:../Libraries/ROSSerial/ros/node_handle.h ****   {
 189:../Libraries/ROSSerial/ros/node_handle.h ****      spin_timeout_ = timeout;
 190:../Libraries/ROSSerial/ros/node_handle.h ****   }
 191:../Libraries/ROSSerial/ros/node_handle.h **** 
 192:../Libraries/ROSSerial/ros/node_handle.h **** protected:
 193:../Libraries/ROSSerial/ros/node_handle.h ****   //State machine variables for spinOnce
 194:../Libraries/ROSSerial/ros/node_handle.h ****   int mode_;
 195:../Libraries/ROSSerial/ros/node_handle.h ****   int bytes_;
 196:../Libraries/ROSSerial/ros/node_handle.h ****   int topic_;
 197:../Libraries/ROSSerial/ros/node_handle.h ****   int index_;
 198:../Libraries/ROSSerial/ros/node_handle.h ****   int checksum_;
 199:../Libraries/ROSSerial/ros/node_handle.h **** 
 200:../Libraries/ROSSerial/ros/node_handle.h ****   bool configured_;
 201:../Libraries/ROSSerial/ros/node_handle.h **** 
 202:../Libraries/ROSSerial/ros/node_handle.h ****   /* used for syncing the time */
 203:../Libraries/ROSSerial/ros/node_handle.h ****   uint32_t last_sync_time;
 204:../Libraries/ROSSerial/ros/node_handle.h ****   uint32_t last_sync_receive_time;
 205:../Libraries/ROSSerial/ros/node_handle.h ****   uint32_t last_msg_timeout_time;
 206:../Libraries/ROSSerial/ros/node_handle.h **** 
 207:../Libraries/ROSSerial/ros/node_handle.h **** public:
 208:../Libraries/ROSSerial/ros/node_handle.h ****   /* This function goes in your loop() function, it handles
 209:../Libraries/ROSSerial/ros/node_handle.h ****    *  serial input and callbacks for subscribers.
 210:../Libraries/ROSSerial/ros/node_handle.h ****    */
 211:../Libraries/ROSSerial/ros/node_handle.h **** 
 212:../Libraries/ROSSerial/ros/node_handle.h ****   virtual int spinOnce() {
 213:../Libraries/ROSSerial/ros/node_handle.h ****     return spinOnce1();
 214:../Libraries/ROSSerial/ros/node_handle.h ****   }
 215:../Libraries/ROSSerial/ros/node_handle.h **** 
 216:../Libraries/ROSSerial/ros/node_handle.h **** //calling spinOnce() directly from spin_task gives stackoverflow
 217:../Libraries/ROSSerial/ros/node_handle.h ****   int spinOnce1()
 218:../Libraries/ROSSerial/ros/node_handle.h ****   {
ARM GAS  /var/folders/l3/4y5292px21b4835bsnjwqc7w009kq1/T//cc8944ZQ.s 			page 24


 219:../Libraries/ROSSerial/ros/node_handle.h ****     //printf("spinOnce\n");
 220:../Libraries/ROSSerial/ros/node_handle.h ****     /* restart if timed out */
 221:../Libraries/ROSSerial/ros/node_handle.h ****     uint32_t c_time = hardware_.time();
 222:../Libraries/ROSSerial/ros/node_handle.h ****     //printf("spinOnce %ld\n",c_time);
 223:../Libraries/ROSSerial/ros/node_handle.h **** 
 224:../Libraries/ROSSerial/ros/node_handle.h ****     if ((c_time - last_sync_receive_time) > (SYNC_SECONDS * 2200))
 225:../Libraries/ROSSerial/ros/node_handle.h ****     {
 226:../Libraries/ROSSerial/ros/node_handle.h ****       configured_ = false;
 227:../Libraries/ROSSerial/ros/node_handle.h ****     }
 228:../Libraries/ROSSerial/ros/node_handle.h **** 
 229:../Libraries/ROSSerial/ros/node_handle.h ****     /* reset if message has timed out */
 230:../Libraries/ROSSerial/ros/node_handle.h ****     if (mode_ != MODE_FIRST_FF)
 231:../Libraries/ROSSerial/ros/node_handle.h ****     {
 232:../Libraries/ROSSerial/ros/node_handle.h ****       if (c_time > last_msg_timeout_time)
 233:../Libraries/ROSSerial/ros/node_handle.h ****       {
 234:../Libraries/ROSSerial/ros/node_handle.h ****         mode_ = MODE_FIRST_FF;
 235:../Libraries/ROSSerial/ros/node_handle.h ****       }
 236:../Libraries/ROSSerial/ros/node_handle.h ****     }
 237:../Libraries/ROSSerial/ros/node_handle.h **** 
 238:../Libraries/ROSSerial/ros/node_handle.h ****     /* while available buffer, read data */
 239:../Libraries/ROSSerial/ros/node_handle.h ****     while (true)
 240:../Libraries/ROSSerial/ros/node_handle.h ****     {
 241:../Libraries/ROSSerial/ros/node_handle.h ****       // If a timeout has been specified, check how long spinOnce has been running.
 242:../Libraries/ROSSerial/ros/node_handle.h ****       if (spin_timeout_ > 0)
 243:../Libraries/ROSSerial/ros/node_handle.h ****       {
 244:../Libraries/ROSSerial/ros/node_handle.h ****         // If the maximum processing timeout has been exceeded, exit with error.
 245:../Libraries/ROSSerial/ros/node_handle.h ****         // The next spinOnce can continue where it left off, or optionally
 246:../Libraries/ROSSerial/ros/node_handle.h ****         // based on the application in use, the hardware buffer could be flushed
 247:../Libraries/ROSSerial/ros/node_handle.h ****         // and start fresh.
 248:../Libraries/ROSSerial/ros/node_handle.h ****         if ((hardware_.time() - c_time) > spin_timeout_)
 249:../Libraries/ROSSerial/ros/node_handle.h ****         {
 250:../Libraries/ROSSerial/ros/node_handle.h ****           // Exit the spin, processing timeout exceeded.
 251:../Libraries/ROSSerial/ros/node_handle.h ****           return SPIN_TIMEOUT;
 252:../Libraries/ROSSerial/ros/node_handle.h ****         }
 253:../Libraries/ROSSerial/ros/node_handle.h ****       }
 254:../Libraries/ROSSerial/ros/node_handle.h ****       int data = hardware_.read();
 255:../Libraries/ROSSerial/ros/node_handle.h ****       if (data < 0)
 256:../Libraries/ROSSerial/ros/node_handle.h ****         break;
 257:../Libraries/ROSSerial/ros/node_handle.h ****       checksum_ += data;
 258:../Libraries/ROSSerial/ros/node_handle.h ****       if (mode_ == MODE_MESSAGE)          /* message data being recieved */
 259:../Libraries/ROSSerial/ros/node_handle.h ****       {
 260:../Libraries/ROSSerial/ros/node_handle.h ****         message_in[index_++] = data;
 261:../Libraries/ROSSerial/ros/node_handle.h ****         bytes_--;
 262:../Libraries/ROSSerial/ros/node_handle.h ****         if (bytes_ == 0)                 /* is message complete? if so, checksum */
 263:../Libraries/ROSSerial/ros/node_handle.h ****           mode_ = MODE_MSG_CHECKSUM;
 264:../Libraries/ROSSerial/ros/node_handle.h ****       }
 265:../Libraries/ROSSerial/ros/node_handle.h ****       else if (mode_ == MODE_FIRST_FF)
 266:../Libraries/ROSSerial/ros/node_handle.h ****       {
 267:../Libraries/ROSSerial/ros/node_handle.h ****         if (data == 0xff)
 268:../Libraries/ROSSerial/ros/node_handle.h ****         {
 269:../Libraries/ROSSerial/ros/node_handle.h ****           mode_++;
 270:../Libraries/ROSSerial/ros/node_handle.h ****           last_msg_timeout_time = c_time + SERIAL_MSG_TIMEOUT;
 271:../Libraries/ROSSerial/ros/node_handle.h ****         }
 272:../Libraries/ROSSerial/ros/node_handle.h ****         else if (hardware_.time() - c_time > (SYNC_SECONDS * 1000))
 273:../Libraries/ROSSerial/ros/node_handle.h ****         {
 274:../Libraries/ROSSerial/ros/node_handle.h ****           /* We have been stuck in spinOnce too long, return error */
 275:../Libraries/ROSSerial/ros/node_handle.h ****           configured_ = false;
ARM GAS  /var/folders/l3/4y5292px21b4835bsnjwqc7w009kq1/T//cc8944ZQ.s 			page 25


 276:../Libraries/ROSSerial/ros/node_handle.h ****           return SPIN_TIMEOUT;
 277:../Libraries/ROSSerial/ros/node_handle.h ****         }
 278:../Libraries/ROSSerial/ros/node_handle.h ****       }
 279:../Libraries/ROSSerial/ros/node_handle.h ****       else if (mode_ == MODE_PROTOCOL_VER)
 280:../Libraries/ROSSerial/ros/node_handle.h ****       {
 281:../Libraries/ROSSerial/ros/node_handle.h ****         if (data == PROTOCOL_VER)
 282:../Libraries/ROSSerial/ros/node_handle.h ****         {
 283:../Libraries/ROSSerial/ros/node_handle.h ****           mode_++;
 284:../Libraries/ROSSerial/ros/node_handle.h ****         }
 285:../Libraries/ROSSerial/ros/node_handle.h ****         else
 286:../Libraries/ROSSerial/ros/node_handle.h ****         {
 287:../Libraries/ROSSerial/ros/node_handle.h ****           mode_ = MODE_FIRST_FF;
 288:../Libraries/ROSSerial/ros/node_handle.h ****           if (configured_ == false)
 289:../Libraries/ROSSerial/ros/node_handle.h ****             requestSyncTime();  /* send a msg back showing our protocol version */
 290:../Libraries/ROSSerial/ros/node_handle.h ****         }
 291:../Libraries/ROSSerial/ros/node_handle.h ****       }
 292:../Libraries/ROSSerial/ros/node_handle.h ****       else if (mode_ == MODE_SIZE_L)      /* bottom half of message size */
 293:../Libraries/ROSSerial/ros/node_handle.h ****       {
 294:../Libraries/ROSSerial/ros/node_handle.h ****         bytes_ = data;
 295:../Libraries/ROSSerial/ros/node_handle.h ****         index_ = 0;
 296:../Libraries/ROSSerial/ros/node_handle.h ****         mode_++;
 297:../Libraries/ROSSerial/ros/node_handle.h ****         checksum_ = data;               /* first byte for calculating size checksum */
 298:../Libraries/ROSSerial/ros/node_handle.h ****       }
 299:../Libraries/ROSSerial/ros/node_handle.h ****       else if (mode_ == MODE_SIZE_H)      /* top half of message size */
 300:../Libraries/ROSSerial/ros/node_handle.h ****       {
 301:../Libraries/ROSSerial/ros/node_handle.h ****         bytes_ += data << 8;
 302:../Libraries/ROSSerial/ros/node_handle.h ****         mode_++;
 303:../Libraries/ROSSerial/ros/node_handle.h ****       }
 304:../Libraries/ROSSerial/ros/node_handle.h ****       else if (mode_ == MODE_SIZE_CHECKSUM)
 305:../Libraries/ROSSerial/ros/node_handle.h ****       {
 306:../Libraries/ROSSerial/ros/node_handle.h ****         if ((checksum_ % 256) == 255)
 307:../Libraries/ROSSerial/ros/node_handle.h ****           mode_++;
 308:../Libraries/ROSSerial/ros/node_handle.h ****         else
 309:../Libraries/ROSSerial/ros/node_handle.h ****           mode_ = MODE_FIRST_FF;          /* Abandon the frame if the msg len is wrong */
 310:../Libraries/ROSSerial/ros/node_handle.h ****       }
 311:../Libraries/ROSSerial/ros/node_handle.h ****       else if (mode_ == MODE_TOPIC_L)     /* bottom half of topic id */
 312:../Libraries/ROSSerial/ros/node_handle.h ****       {
 313:../Libraries/ROSSerial/ros/node_handle.h ****         topic_ = data;
 314:../Libraries/ROSSerial/ros/node_handle.h ****         mode_++;
 315:../Libraries/ROSSerial/ros/node_handle.h ****         checksum_ = data;               /* first byte included in checksum */
 316:../Libraries/ROSSerial/ros/node_handle.h ****       }
 317:../Libraries/ROSSerial/ros/node_handle.h ****       else if (mode_ == MODE_TOPIC_H)     /* top half of topic id */
 318:../Libraries/ROSSerial/ros/node_handle.h ****       {
 319:../Libraries/ROSSerial/ros/node_handle.h ****         topic_ += data << 8;
 320:../Libraries/ROSSerial/ros/node_handle.h ****         mode_ = MODE_MESSAGE;
 321:../Libraries/ROSSerial/ros/node_handle.h ****         if (bytes_ == 0)
 322:../Libraries/ROSSerial/ros/node_handle.h ****           mode_ = MODE_MSG_CHECKSUM;
 323:../Libraries/ROSSerial/ros/node_handle.h ****       }
 324:../Libraries/ROSSerial/ros/node_handle.h ****       else if (mode_ == MODE_MSG_CHECKSUM)    /* do checksum */
 325:../Libraries/ROSSerial/ros/node_handle.h ****       {
 326:../Libraries/ROSSerial/ros/node_handle.h ****         mode_ = MODE_FIRST_FF;
 327:../Libraries/ROSSerial/ros/node_handle.h ****         if ((checksum_ % 256) == 255)
 328:../Libraries/ROSSerial/ros/node_handle.h ****         {
 329:../Libraries/ROSSerial/ros/node_handle.h ****           if (topic_ == TopicInfo::ID_PUBLISHER)
 330:../Libraries/ROSSerial/ros/node_handle.h ****           {
 331:../Libraries/ROSSerial/ros/node_handle.h ****             requestSyncTime();
 332:../Libraries/ROSSerial/ros/node_handle.h ****             negotiateTopics();
ARM GAS  /var/folders/l3/4y5292px21b4835bsnjwqc7w009kq1/T//cc8944ZQ.s 			page 26


 333:../Libraries/ROSSerial/ros/node_handle.h ****             last_sync_time = c_time;
 334:../Libraries/ROSSerial/ros/node_handle.h ****             last_sync_receive_time = c_time;
 335:../Libraries/ROSSerial/ros/node_handle.h ****             return SPIN_ERR;
 336:../Libraries/ROSSerial/ros/node_handle.h ****           }
 337:../Libraries/ROSSerial/ros/node_handle.h ****           else if (topic_ == TopicInfo::ID_TIME)
 338:../Libraries/ROSSerial/ros/node_handle.h ****           {
 339:../Libraries/ROSSerial/ros/node_handle.h ****             syncTime(message_in);
 340:../Libraries/ROSSerial/ros/node_handle.h ****           }
 341:../Libraries/ROSSerial/ros/node_handle.h ****           else if (topic_ == TopicInfo::ID_PARAMETER_REQUEST)
 342:../Libraries/ROSSerial/ros/node_handle.h ****           {
 343:../Libraries/ROSSerial/ros/node_handle.h ****             req_param_resp.deserialize(message_in);
 344:../Libraries/ROSSerial/ros/node_handle.h ****             param_recieved = true;
 345:../Libraries/ROSSerial/ros/node_handle.h ****           }
 346:../Libraries/ROSSerial/ros/node_handle.h ****           else if (topic_ == TopicInfo::ID_TX_STOP)
 347:../Libraries/ROSSerial/ros/node_handle.h ****           {
 348:../Libraries/ROSSerial/ros/node_handle.h ****             configured_ = false;
 349:../Libraries/ROSSerial/ros/node_handle.h ****           }
 350:../Libraries/ROSSerial/ros/node_handle.h ****           else
 351:../Libraries/ROSSerial/ros/node_handle.h ****           {
 352:../Libraries/ROSSerial/ros/node_handle.h ****             if (subscribers[topic_ - 100])
 353:../Libraries/ROSSerial/ros/node_handle.h ****               subscribers[topic_ - 100]->callback(message_in);
 354:../Libraries/ROSSerial/ros/node_handle.h ****           }
 355:../Libraries/ROSSerial/ros/node_handle.h ****         }
 356:../Libraries/ROSSerial/ros/node_handle.h ****       }
 357:../Libraries/ROSSerial/ros/node_handle.h ****     }
 358:../Libraries/ROSSerial/ros/node_handle.h **** 
 359:../Libraries/ROSSerial/ros/node_handle.h ****     /* occasionally sync time */
 360:../Libraries/ROSSerial/ros/node_handle.h ****     if (configured_ && ((c_time - last_sync_time) > (SYNC_SECONDS * 500)))
 361:../Libraries/ROSSerial/ros/node_handle.h ****     {
 362:../Libraries/ROSSerial/ros/node_handle.h ****       requestSyncTime();
 363:../Libraries/ROSSerial/ros/node_handle.h ****       last_sync_time = c_time;
 364:../Libraries/ROSSerial/ros/node_handle.h ****     }
 365:../Libraries/ROSSerial/ros/node_handle.h **** 
 366:../Libraries/ROSSerial/ros/node_handle.h ****     return SPIN_OK;
 367:../Libraries/ROSSerial/ros/node_handle.h ****   }
 368:../Libraries/ROSSerial/ros/node_handle.h **** 
 369:../Libraries/ROSSerial/ros/node_handle.h **** 
 370:../Libraries/ROSSerial/ros/node_handle.h ****   /* Are we connected to the PC? */
 371:../Libraries/ROSSerial/ros/node_handle.h ****   virtual bool connected()
 372:../Libraries/ROSSerial/ros/node_handle.h ****   {
 373:../Libraries/ROSSerial/ros/node_handle.h ****     return configured_;
 374:../Libraries/ROSSerial/ros/node_handle.h ****   };
 375:../Libraries/ROSSerial/ros/node_handle.h **** 
 376:../Libraries/ROSSerial/ros/node_handle.h ****   /********************************************************************
 377:../Libraries/ROSSerial/ros/node_handle.h ****    * Time functions
 378:../Libraries/ROSSerial/ros/node_handle.h ****    */
 379:../Libraries/ROSSerial/ros/node_handle.h **** 
 380:../Libraries/ROSSerial/ros/node_handle.h ****   void requestSyncTime()
 381:../Libraries/ROSSerial/ros/node_handle.h ****   {
 382:../Libraries/ROSSerial/ros/node_handle.h ****     std_msgs::Time t;
 383:../Libraries/ROSSerial/ros/node_handle.h ****     publish1(TopicInfo::ID_TIME, &t);
 384:../Libraries/ROSSerial/ros/node_handle.h ****     rt_time = hardware_.time();
 385:../Libraries/ROSSerial/ros/node_handle.h ****   }
 386:../Libraries/ROSSerial/ros/node_handle.h **** 
 387:../Libraries/ROSSerial/ros/node_handle.h ****   void syncTime(uint8_t * data)
 388:../Libraries/ROSSerial/ros/node_handle.h ****   {
 389:../Libraries/ROSSerial/ros/node_handle.h ****     std_msgs::Time t;
ARM GAS  /var/folders/l3/4y5292px21b4835bsnjwqc7w009kq1/T//cc8944ZQ.s 			page 27


 390:../Libraries/ROSSerial/ros/node_handle.h ****     uint32_t offset = hardware_.time() - rt_time;
 391:../Libraries/ROSSerial/ros/node_handle.h **** 
 392:../Libraries/ROSSerial/ros/node_handle.h ****     t.deserialize(data);
 393:../Libraries/ROSSerial/ros/node_handle.h ****     t.data.sec += offset / 1000;
 394:../Libraries/ROSSerial/ros/node_handle.h ****     t.data.nsec += (offset % 1000) * 1000000UL;
 395:../Libraries/ROSSerial/ros/node_handle.h **** 
 396:../Libraries/ROSSerial/ros/node_handle.h ****     this->setNow(t.data);
 397:../Libraries/ROSSerial/ros/node_handle.h ****     last_sync_receive_time = hardware_.time();
 398:../Libraries/ROSSerial/ros/node_handle.h ****   }
 399:../Libraries/ROSSerial/ros/node_handle.h **** 
 400:../Libraries/ROSSerial/ros/node_handle.h ****   Time now()
 401:../Libraries/ROSSerial/ros/node_handle.h ****   {
 402:../Libraries/ROSSerial/ros/node_handle.h ****     uint32_t ms = hardware_.time();
 403:../Libraries/ROSSerial/ros/node_handle.h ****     Time current_time;
 404:../Libraries/ROSSerial/ros/node_handle.h ****     current_time.sec = ms / 1000 + sec_offset;
 405:../Libraries/ROSSerial/ros/node_handle.h ****     current_time.nsec = (ms % 1000) * 1000000UL + nsec_offset;
 406:../Libraries/ROSSerial/ros/node_handle.h ****     normalizeSecNSec(current_time.sec, current_time.nsec);
 407:../Libraries/ROSSerial/ros/node_handle.h ****     return current_time;
 408:../Libraries/ROSSerial/ros/node_handle.h ****   }
 409:../Libraries/ROSSerial/ros/node_handle.h **** 
 410:../Libraries/ROSSerial/ros/node_handle.h ****   void setNow(Time & new_now)
 411:../Libraries/ROSSerial/ros/node_handle.h ****   {
 412:../Libraries/ROSSerial/ros/node_handle.h ****     uint32_t ms = hardware_.time();
 413:../Libraries/ROSSerial/ros/node_handle.h ****     sec_offset = new_now.sec - ms / 1000 - 1;
 414:../Libraries/ROSSerial/ros/node_handle.h ****     nsec_offset = new_now.nsec - (ms % 1000) * 1000000UL + 1000000000UL;
 415:../Libraries/ROSSerial/ros/node_handle.h ****     normalizeSecNSec(sec_offset, nsec_offset);
 416:../Libraries/ROSSerial/ros/node_handle.h ****   }
 417:../Libraries/ROSSerial/ros/node_handle.h **** 
 418:../Libraries/ROSSerial/ros/node_handle.h ****   /********************************************************************
 419:../Libraries/ROSSerial/ros/node_handle.h ****    * Topic Management
 420:../Libraries/ROSSerial/ros/node_handle.h ****    */
 421:../Libraries/ROSSerial/ros/node_handle.h **** 
 422:../Libraries/ROSSerial/ros/node_handle.h ****   /* Register a new publisher */
 423:../Libraries/ROSSerial/ros/node_handle.h ****   bool advertise(Publisher & p)
 424:../Libraries/ROSSerial/ros/node_handle.h ****   {
 425:../Libraries/ROSSerial/ros/node_handle.h ****     for (int i = 0; i < MAX_PUBLISHERS; i++)
 426:../Libraries/ROSSerial/ros/node_handle.h ****     {
 427:../Libraries/ROSSerial/ros/node_handle.h ****       if (publishers[i] == 0) // empty slot
 428:../Libraries/ROSSerial/ros/node_handle.h ****       {
 429:../Libraries/ROSSerial/ros/node_handle.h ****         publishers[i] = &p;
 430:../Libraries/ROSSerial/ros/node_handle.h ****         p.id_ = i + 100 + MAX_SUBSCRIBERS;
 431:../Libraries/ROSSerial/ros/node_handle.h ****         p.nh_ = this;
 432:../Libraries/ROSSerial/ros/node_handle.h ****         return true;
 433:../Libraries/ROSSerial/ros/node_handle.h ****       }
 434:../Libraries/ROSSerial/ros/node_handle.h ****     }
 435:../Libraries/ROSSerial/ros/node_handle.h ****     return false;
 436:../Libraries/ROSSerial/ros/node_handle.h ****   }
 437:../Libraries/ROSSerial/ros/node_handle.h **** 
 438:../Libraries/ROSSerial/ros/node_handle.h ****   /* Register a new subscriber */
 439:../Libraries/ROSSerial/ros/node_handle.h ****   template<typename SubscriberT>
 440:../Libraries/ROSSerial/ros/node_handle.h ****   bool subscribe(SubscriberT& s)
 441:../Libraries/ROSSerial/ros/node_handle.h ****   {
 442:../Libraries/ROSSerial/ros/node_handle.h ****     for (int i = 0; i < MAX_SUBSCRIBERS; i++)
 443:../Libraries/ROSSerial/ros/node_handle.h ****     {
 444:../Libraries/ROSSerial/ros/node_handle.h ****       if (subscribers[i] == 0) // empty slot
 445:../Libraries/ROSSerial/ros/node_handle.h ****       {
 446:../Libraries/ROSSerial/ros/node_handle.h ****         subscribers[i] = static_cast<Subscriber_*>(&s);
ARM GAS  /var/folders/l3/4y5292px21b4835bsnjwqc7w009kq1/T//cc8944ZQ.s 			page 28


 447:../Libraries/ROSSerial/ros/node_handle.h ****         s.id_ = i + 100;
 448:../Libraries/ROSSerial/ros/node_handle.h ****         return true;
 449:../Libraries/ROSSerial/ros/node_handle.h ****       }
 450:../Libraries/ROSSerial/ros/node_handle.h ****     }
 451:../Libraries/ROSSerial/ros/node_handle.h ****     return false;
 452:../Libraries/ROSSerial/ros/node_handle.h ****   }
 453:../Libraries/ROSSerial/ros/node_handle.h **** 
 454:../Libraries/ROSSerial/ros/node_handle.h ****   /* Register a new Service Server */
 455:../Libraries/ROSSerial/ros/node_handle.h ****   template<typename MReq, typename MRes, typename ObjT>
 456:../Libraries/ROSSerial/ros/node_handle.h ****   bool advertiseService(ServiceServer<MReq, MRes, ObjT>& srv)
 457:../Libraries/ROSSerial/ros/node_handle.h ****   {
 458:../Libraries/ROSSerial/ros/node_handle.h ****     bool v = advertise(srv.pub);
 459:../Libraries/ROSSerial/ros/node_handle.h ****     for (int i = 0; i < MAX_SUBSCRIBERS; i++)
 460:../Libraries/ROSSerial/ros/node_handle.h ****     {
 461:../Libraries/ROSSerial/ros/node_handle.h ****       if (subscribers[i] == 0) // empty slot
 462:../Libraries/ROSSerial/ros/node_handle.h ****       {
 463:../Libraries/ROSSerial/ros/node_handle.h ****         subscribers[i] = static_cast<Subscriber_*>(&srv);
 464:../Libraries/ROSSerial/ros/node_handle.h ****         srv.id_ = i + 100;
 465:../Libraries/ROSSerial/ros/node_handle.h ****         return v;
 466:../Libraries/ROSSerial/ros/node_handle.h ****       }
 467:../Libraries/ROSSerial/ros/node_handle.h ****     }
 468:../Libraries/ROSSerial/ros/node_handle.h ****     return false;
 469:../Libraries/ROSSerial/ros/node_handle.h ****   }
 470:../Libraries/ROSSerial/ros/node_handle.h **** 
 471:../Libraries/ROSSerial/ros/node_handle.h ****   /* Register a new Service Client */
 472:../Libraries/ROSSerial/ros/node_handle.h ****   template<typename MReq, typename MRes>
 473:../Libraries/ROSSerial/ros/node_handle.h ****   bool serviceClient(ServiceClient<MReq, MRes>& srv)
 474:../Libraries/ROSSerial/ros/node_handle.h ****   {
 475:../Libraries/ROSSerial/ros/node_handle.h ****     bool v = advertise(srv.pub);
 476:../Libraries/ROSSerial/ros/node_handle.h ****     for (int i = 0; i < MAX_SUBSCRIBERS; i++)
 477:../Libraries/ROSSerial/ros/node_handle.h ****     {
 478:../Libraries/ROSSerial/ros/node_handle.h ****       if (subscribers[i] == 0) // empty slot
 479:../Libraries/ROSSerial/ros/node_handle.h ****       {
 480:../Libraries/ROSSerial/ros/node_handle.h ****         subscribers[i] = static_cast<Subscriber_*>(&srv);
 481:../Libraries/ROSSerial/ros/node_handle.h ****         srv.id_ = i + 100;
 482:../Libraries/ROSSerial/ros/node_handle.h ****         return v;
 483:../Libraries/ROSSerial/ros/node_handle.h ****       }
 484:../Libraries/ROSSerial/ros/node_handle.h ****     }
 485:../Libraries/ROSSerial/ros/node_handle.h ****     return false;
 486:../Libraries/ROSSerial/ros/node_handle.h ****   }
 487:../Libraries/ROSSerial/ros/node_handle.h **** 
 488:../Libraries/ROSSerial/ros/node_handle.h ****   void negotiateTopics()
 489:../Libraries/ROSSerial/ros/node_handle.h ****   {
 490:../Libraries/ROSSerial/ros/node_handle.h ****     rosserial_msgs::TopicInfo ti;
 491:../Libraries/ROSSerial/ros/node_handle.h ****     int i;
 492:../Libraries/ROSSerial/ros/node_handle.h ****     for (i = 0; i < MAX_PUBLISHERS; i++)
 493:../Libraries/ROSSerial/ros/node_handle.h ****     {
 494:../Libraries/ROSSerial/ros/node_handle.h ****       if (publishers[i] != 0) // non-empty slot
 495:../Libraries/ROSSerial/ros/node_handle.h ****       {
 496:../Libraries/ROSSerial/ros/node_handle.h ****         ti.topic_id = publishers[i]->id_;
 497:../Libraries/ROSSerial/ros/node_handle.h ****         ti.topic_name = (char *) publishers[i]->topic_;
 498:../Libraries/ROSSerial/ros/node_handle.h ****         ti.message_type = (char *) publishers[i]->msg_->getType();
 499:../Libraries/ROSSerial/ros/node_handle.h ****         ti.md5sum = (char *) publishers[i]->msg_->getMD5();
 500:../Libraries/ROSSerial/ros/node_handle.h ****         ti.buffer_size = OUTPUT_SIZE;
 501:../Libraries/ROSSerial/ros/node_handle.h ****         publish1(publishers[i]->getEndpointType(), &ti);
 502:../Libraries/ROSSerial/ros/node_handle.h ****       }
 503:../Libraries/ROSSerial/ros/node_handle.h ****     }
ARM GAS  /var/folders/l3/4y5292px21b4835bsnjwqc7w009kq1/T//cc8944ZQ.s 			page 29


 504:../Libraries/ROSSerial/ros/node_handle.h ****     for (i = 0; i < MAX_SUBSCRIBERS; i++)
 505:../Libraries/ROSSerial/ros/node_handle.h ****     {
 506:../Libraries/ROSSerial/ros/node_handle.h ****       if (subscribers[i] != 0) // non-empty slot
 507:../Libraries/ROSSerial/ros/node_handle.h ****       {
 508:../Libraries/ROSSerial/ros/node_handle.h ****         ti.topic_id = subscribers[i]->id_;
 509:../Libraries/ROSSerial/ros/node_handle.h ****         ti.topic_name = (char *) subscribers[i]->topic_;
 510:../Libraries/ROSSerial/ros/node_handle.h ****         ti.message_type = (char *) subscribers[i]->getMsgType();
 511:../Libraries/ROSSerial/ros/node_handle.h ****         ti.md5sum = (char *) subscribers[i]->getMsgMD5();
 512:../Libraries/ROSSerial/ros/node_handle.h ****         ti.buffer_size = INPUT_SIZE;
 513:../Libraries/ROSSerial/ros/node_handle.h ****         publish1(subscribers[i]->getEndpointType(), &ti);
 514:../Libraries/ROSSerial/ros/node_handle.h ****       }
 515:../Libraries/ROSSerial/ros/node_handle.h ****     }
 516:../Libraries/ROSSerial/ros/node_handle.h ****     configured_ = true;
 517:../Libraries/ROSSerial/ros/node_handle.h ****   }
 518:../Libraries/ROSSerial/ros/node_handle.h **** 
 519:../Libraries/ROSSerial/ros/node_handle.h ****   virtual int publish(int id, const Msg * msg)
 520:../Libraries/ROSSerial/ros/node_handle.h ****   {
 521:../Libraries/ROSSerial/ros/node_handle.h ****     return publish1(id, msg);
 522:../Libraries/ROSSerial/ros/node_handle.h ****   }
 523:../Libraries/ROSSerial/ros/node_handle.h **** 
 524:../Libraries/ROSSerial/ros/node_handle.h ****   int publish1(int id, const Msg * msg)
 819              		.loc 5 524 0
 820              		.cfi_startproc
 821              		@ args = 0, pretend = 0, frame = 16
 822              		@ frame_needed = 0, uses_anonymous_args = 0
 823              	.LVL96:
 824 0000 30B5     		push	{r4, r5, lr}
 825              		.save {r4, r5, lr}
 826              	.LCFI10:
 827              		.cfi_def_cfa_offset 12
 828              		.cfi_offset 4, -12
 829              		.cfi_offset 5, -8
 830              		.cfi_offset 14, -4
 831              		.pad #20
 832 0002 85B0     		sub	sp, sp, #20
 833              	.LCFI11:
 834              		.cfi_def_cfa_offset 32
 525:../Libraries/ROSSerial/ros/node_handle.h ****   {
 526:../Libraries/ROSSerial/ros/node_handle.h ****     //printf("in nh.publsh\n");
 527:../Libraries/ROSSerial/ros/node_handle.h ****     if (id >= 100 && !configured_)
 835              		.loc 5 527 0
 836 0004 6329     		cmp	r1, #99
 837 0006 03DD     		ble	.L45
 838              		.loc 5 527 0 is_stmt 0 discriminator 1
 839 0008 90F85434 		ldrb	r3, [r0, #1108]	@ zero_extendqisi2
 840 000c 002B     		cmp	r3, #0
 841 000e 50D0     		beq	.L50
 842              	.L45:
 843 0010 0D46     		mov	r5, r1
 844 0012 0446     		mov	r4, r0
 528:../Libraries/ROSSerial/ros/node_handle.h ****       return 0;
 529:../Libraries/ROSSerial/ros/node_handle.h ****     //printf("in nh.publsh2\n");
 530:../Libraries/ROSSerial/ros/node_handle.h ****     /* serialize message */
 531:../Libraries/ROSSerial/ros/node_handle.h ****     int l = msg->serialize(message_out + 7);
 845              		.loc 5 531 0 is_stmt 1
 846 0014 1368     		ldr	r3, [r2]
 847 0016 1B68     		ldr	r3, [r3]
ARM GAS  /var/folders/l3/4y5292px21b4835bsnjwqc7w009kq1/T//cc8944ZQ.s 			page 30


 848 0018 00F21F21 		addw	r1, r0, #543
 849              	.LVL97:
 850 001c 1046     		mov	r0, r2
 851              	.LVL98:
 852 001e 9847     		blx	r3
 853              	.LVL99:
 532:../Libraries/ROSSerial/ros/node_handle.h **** 
 533:../Libraries/ROSSerial/ros/node_handle.h ****     /* setup the header */
 534:../Libraries/ROSSerial/ros/node_handle.h ****     message_out[0] = 0xff;
 854              		.loc 5 534 0
 855 0020 FF23     		movs	r3, #255
 856 0022 84F81832 		strb	r3, [r4, #536]
 535:../Libraries/ROSSerial/ros/node_handle.h ****     message_out[1] = PROTOCOL_VER;
 857              		.loc 5 535 0
 858 0026 FE23     		movs	r3, #254
 859 0028 84F81932 		strb	r3, [r4, #537]
 536:../Libraries/ROSSerial/ros/node_handle.h ****     message_out[2] = (uint8_t)((uint16_t)l & 255);
 860              		.loc 5 536 0
 861 002c C3B2     		uxtb	r3, r0
 862 002e 84F81A32 		strb	r3, [r4, #538]
 537:../Libraries/ROSSerial/ros/node_handle.h ****     message_out[3] = (uint8_t)((uint16_t)l >> 8);
 863              		.loc 5 537 0
 864 0032 C0F30722 		ubfx	r2, r0, #8, #8
 865 0036 84F81B22 		strb	r2, [r4, #539]
 538:../Libraries/ROSSerial/ros/node_handle.h ****     message_out[4] = 255 - ((message_out[2] + message_out[3]) % 256);
 866              		.loc 5 538 0
 867 003a 1344     		add	r3, r3, r2
 868 003c DBB2     		uxtb	r3, r3
 869 003e DB43     		mvns	r3, r3
 870 0040 84F81C32 		strb	r3, [r4, #540]
 539:../Libraries/ROSSerial/ros/node_handle.h ****     message_out[5] = (uint8_t)((int16_t)id & 255);
 871              		.loc 5 539 0
 872 0044 84F81D52 		strb	r5, [r4, #541]
 540:../Libraries/ROSSerial/ros/node_handle.h ****     message_out[6] = (uint8_t)((int16_t)id >> 8);
 873              		.loc 5 540 0
 874 0048 45F30721 		sbfx	r1, r5, #8, #8
 875 004c 84F81E12 		strb	r1, [r4, #542]
 876              	.LVL100:
 877              	.LBB86:
 541:../Libraries/ROSSerial/ros/node_handle.h **** 
 542:../Libraries/ROSSerial/ros/node_handle.h ****     /* calculate checksum */
 543:../Libraries/ROSSerial/ros/node_handle.h ****     int chk = 0;
 544:../Libraries/ROSSerial/ros/node_handle.h ****     for (int i = 5; i < l + 7; i++)
 878              		.loc 5 544 0
 879 0050 0523     		movs	r3, #5
 880              	.LBE86:
 543:../Libraries/ROSSerial/ros/node_handle.h ****     for (int i = 5; i < l + 7; i++)
 881              		.loc 5 543 0
 882 0052 0022     		movs	r2, #0
 883              	.LVL101:
 884              	.L48:
 885              	.LBB87:
 886              		.loc 5 544 0 discriminator 3
 887 0054 C11D     		adds	r1, r0, #7
 888 0056 9942     		cmp	r1, r3
 889 0058 05DD     		ble	.L47
 545:../Libraries/ROSSerial/ros/node_handle.h ****       chk += message_out[i];
ARM GAS  /var/folders/l3/4y5292px21b4835bsnjwqc7w009kq1/T//cc8944ZQ.s 			page 31


 890              		.loc 5 545 0 discriminator 2
 891 005a E118     		adds	r1, r4, r3
 892 005c 91F81812 		ldrb	r1, [r1, #536]	@ zero_extendqisi2
 893 0060 0A44     		add	r2, r2, r1
 894              	.LVL102:
 544:../Libraries/ROSSerial/ros/node_handle.h ****       chk += message_out[i];
 895              		.loc 5 544 0 discriminator 2
 896 0062 0133     		adds	r3, r3, #1
 897              	.LVL103:
 898 0064 F6E7     		b	.L48
 899              	.L47:
 900              	.LVL104:
 901              	.LBE87:
 546:../Libraries/ROSSerial/ros/node_handle.h ****     l += 7;
 547:../Libraries/ROSSerial/ros/node_handle.h ****     message_out[l++] = 255 - (chk % 256);
 902              		.loc 5 547 0
 903 0066 5342     		rsbs	r3, r2, #0
 904              	.LVL105:
 905 0068 D2B2     		uxtb	r2, r2
 906              	.LVL106:
 907 006a DBB2     		uxtb	r3, r3
 908 006c 58BF     		it	pl
 909 006e 5A42     		rsbpl	r2, r3, #0
 910 0070 00F10805 		add	r5, r0, #8
 911              	.LVL107:
 912 0074 D243     		mvns	r2, r2
 913 0076 2144     		add	r1, r1, r4
 914 0078 81F81822 		strb	r2, [r1, #536]
 548:../Libraries/ROSSerial/ros/node_handle.h ****     //printf("Sending message - %s\n",message_out);
 549:../Libraries/ROSSerial/ros/node_handle.h ****     if (l <= OUTPUT_SIZE)
 915              		.loc 5 549 0
 916 007c B5F5007F 		cmp	r5, #512
 917 0080 08DC     		bgt	.L49
 918              	.LVL108:
 919              	.LBB88:
 920              	.LBB89:
 921              		.file 6 "../Libraries/ROSSerial/stm32hardware.h"
   1:../Libraries/ROSSerial/stm32hardware.h **** /*
   2:../Libraries/ROSSerial/stm32hardware.h ****  * Software License Agreement (BSD License)
   3:../Libraries/ROSSerial/stm32hardware.h ****  *
   4:../Libraries/ROSSerial/stm32hardware.h ****  * Copyright (c) 2011, Willow Garage, Inc.
   5:../Libraries/ROSSerial/stm32hardware.h ****  * All rights reserved.
   6:../Libraries/ROSSerial/stm32hardware.h ****  *
   7:../Libraries/ROSSerial/stm32hardware.h ****  * Redistribution and use in source and binary forms, with or without
   8:../Libraries/ROSSerial/stm32hardware.h ****  * modification, are permitted provided that the following conditions
   9:../Libraries/ROSSerial/stm32hardware.h ****  * are met:
  10:../Libraries/ROSSerial/stm32hardware.h ****  *
  11:../Libraries/ROSSerial/stm32hardware.h ****  *  * Redistributions of source code must retain the above copyright
  12:../Libraries/ROSSerial/stm32hardware.h ****  *    notice, this list of conditions and the following disclaimer.
  13:../Libraries/ROSSerial/stm32hardware.h ****  *  * Redistributions in binary form must reproduce the above
  14:../Libraries/ROSSerial/stm32hardware.h ****  *    copyright notice, this list of conditions and the following
  15:../Libraries/ROSSerial/stm32hardware.h ****  *    disclaimer in the documentation and/or other materials provided
  16:../Libraries/ROSSerial/stm32hardware.h ****  *    with the distribution.
  17:../Libraries/ROSSerial/stm32hardware.h ****  *  * Neither the name of Willow Garage, Inc. nor the names of its
  18:../Libraries/ROSSerial/stm32hardware.h ****  *    contributors may be used to endorse or promote prducts derived
  19:../Libraries/ROSSerial/stm32hardware.h ****  *    from this software without specific prior written permission.
  20:../Libraries/ROSSerial/stm32hardware.h ****  *
ARM GAS  /var/folders/l3/4y5292px21b4835bsnjwqc7w009kq1/T//cc8944ZQ.s 			page 32


  21:../Libraries/ROSSerial/stm32hardware.h ****  * THIS SOFTWARE IS PROVIDED BY THE COPYRIGHT HOLDERS AND CONTRIBUTORS
  22:../Libraries/ROSSerial/stm32hardware.h ****  * "AS IS" AND ANY EXPRESS OR IMPLIED WARRANTIES, INCLUDING, BUT NOT
  23:../Libraries/ROSSerial/stm32hardware.h ****  * LIMITED TO, THE IMPLIED WARRANTIES OF MERCHANTABILITY AND FITNESS
  24:../Libraries/ROSSerial/stm32hardware.h ****  * FOR A PARTICULAR PURPOSE ARE DISCLAIMED. IN NO EVENT SHALL THE
  25:../Libraries/ROSSerial/stm32hardware.h ****  * COPYRIGHT OWNER OR CONTRIBUTORS BE LIABLE FOR ANY DIRECT, INDIRECT,
  26:../Libraries/ROSSerial/stm32hardware.h ****  * INCIDENTAL, SPECIAL, EXEMPLARY, OR CONSEQUENTIAL DAMAGES (INCLUDING,
  27:../Libraries/ROSSerial/stm32hardware.h ****  * BUT NOT LIMITED TO, PROCUREMENT OF SUBSTITUTE GOODS OR SERVICES;
  28:../Libraries/ROSSerial/stm32hardware.h ****  * LOSS OF USE, DATA, OR PROFITS; OR BUSINESS INTERRUPTION) HOWEVER
  29:../Libraries/ROSSerial/stm32hardware.h ****  * CAUSED AND ON ANY THEORY OF LIABILITY, WHETHER IN CONTRACT, STRICT
  30:../Libraries/ROSSerial/stm32hardware.h ****  * LIABILITY, OR TORT (INCLUDING NEGLIGENCE OR OTHERWISE) ARISING IN
  31:../Libraries/ROSSerial/stm32hardware.h ****  * ANY WAY OUT OF THE USE OF THIS SOFTWARE, EVEN IF ADVISED OF THE
  32:../Libraries/ROSSerial/stm32hardware.h ****  * POSSIBILITY OF SUCH DAMAGE.
  33:../Libraries/ROSSerial/stm32hardware.h ****  */
  34:../Libraries/ROSSerial/stm32hardware.h **** 
  35:../Libraries/ROSSerial/stm32hardware.h **** #ifndef STM32HARDWARE_H_
  36:../Libraries/ROSSerial/stm32hardware.h **** #define STM32HARDWARE_H_
  37:../Libraries/ROSSerial/stm32hardware.h **** 
  38:../Libraries/ROSSerial/stm32hardware.h **** #include "FreeRTOS.h"
  39:../Libraries/ROSSerial/stm32hardware.h **** #include "bsp_uart_fifo.h"
  40:../Libraries/ROSSerial/stm32hardware.h **** #include <stdio.h>
  41:../Libraries/ROSSerial/stm32hardware.h **** 
  42:../Libraries/ROSSerial/stm32hardware.h **** class STM32Hardware
  43:../Libraries/ROSSerial/stm32hardware.h **** {
  44:../Libraries/ROSSerial/stm32hardware.h **** public:
  45:../Libraries/ROSSerial/stm32hardware.h **** 	STM32Hardware()
  46:../Libraries/ROSSerial/stm32hardware.h **** 	{
  47:../Libraries/ROSSerial/stm32hardware.h **** 	}
  48:../Libraries/ROSSerial/stm32hardware.h **** 
  49:../Libraries/ROSSerial/stm32hardware.h **** 	/*
  50:../Libraries/ROSSerial/stm32hardware.h **** 	 * Method: init
  51:../Libraries/ROSSerial/stm32hardware.h **** 	 * ----------------------------
  52:../Libraries/ROSSerial/stm32hardware.h **** 	 *   Initialize the STM32 hardware specific to ROS like UART
  53:../Libraries/ROSSerial/stm32hardware.h **** 	 *   parameters: none
  54:../Libraries/ROSSerial/stm32hardware.h **** 	 *   returns: none
  55:../Libraries/ROSSerial/stm32hardware.h **** 	 */
  56:../Libraries/ROSSerial/stm32hardware.h **** 	void init(void)
  57:../Libraries/ROSSerial/stm32hardware.h **** 	{
  58:../Libraries/ROSSerial/stm32hardware.h **** 
  59:../Libraries/ROSSerial/stm32hardware.h **** 	}
  60:../Libraries/ROSSerial/stm32hardware.h **** 
  61:../Libraries/ROSSerial/stm32hardware.h **** 	/*
  62:../Libraries/ROSSerial/stm32hardware.h ****      * Method: read
  63:../Libraries/ROSSerial/stm32hardware.h **** 	 * ----------------------------
  64:../Libraries/ROSSerial/stm32hardware.h **** 	 *   Read a byte of data from ROS connection
  65:../Libraries/ROSSerial/stm32hardware.h **** 	 *   parameters: none
  66:../Libraries/ROSSerial/stm32hardware.h **** 	 *   returns: data, or -1 if there are no data
  67:../Libraries/ROSSerial/stm32hardware.h **** 	 */
  68:../Libraries/ROSSerial/stm32hardware.h **** 	int read(void)
  69:../Libraries/ROSSerial/stm32hardware.h **** 	{
  70:../Libraries/ROSSerial/stm32hardware.h **** 		uint8_t ucData = -1;
  71:../Libraries/ROSSerial/stm32hardware.h **** 		if(comGetChar(COM1,&ucData) == 0) {
  72:../Libraries/ROSSerial/stm32hardware.h **** 			return -1;
  73:../Libraries/ROSSerial/stm32hardware.h **** 		}
  74:../Libraries/ROSSerial/stm32hardware.h **** 		//printf("Got %c\n",ucData);
  75:../Libraries/ROSSerial/stm32hardware.h **** 		return ucData;
  76:../Libraries/ROSSerial/stm32hardware.h **** 	}
  77:../Libraries/ROSSerial/stm32hardware.h **** 
ARM GAS  /var/folders/l3/4y5292px21b4835bsnjwqc7w009kq1/T//cc8944ZQ.s 			page 33


  78:../Libraries/ROSSerial/stm32hardware.h **** 	/*
  79:../Libraries/ROSSerial/stm32hardware.h **** 	 * Method: write
  80:../Libraries/ROSSerial/stm32hardware.h ****      * ----------------------------
  81:../Libraries/ROSSerial/stm32hardware.h **** 	 *   Send data to ROS connection
  82:../Libraries/ROSSerial/stm32hardware.h **** 	 *   parameters: pointer to data array, length of data
  83:../Libraries/ROSSerial/stm32hardware.h **** 	 *   returns: none
  84:../Libraries/ROSSerial/stm32hardware.h **** 	 */
  85:../Libraries/ROSSerial/stm32hardware.h **** 	void write(uint8_t* data, uint32_t length)
  86:../Libraries/ROSSerial/stm32hardware.h **** 	{
  87:../Libraries/ROSSerial/stm32hardware.h **** 		comSendBuf(COM1,data,length);
 922              		.loc 6 87 0
 923 0082 AAB2     		uxth	r2, r5
 924 0084 04F50671 		add	r1, r4, #536
 925              	.LVL109:
 926 0088 0020     		movs	r0, #0
 927 008a FFF7FEFF 		bl	comSendBuf
 928              	.LVL110:
 929              	.L44:
 930              	.LBE89:
 931              	.LBE88:
 550:../Libraries/ROSSerial/ros/node_handle.h ****     {
 551:../Libraries/ROSSerial/ros/node_handle.h ****       hardware_.write(message_out, l);
 552:../Libraries/ROSSerial/ros/node_handle.h ****       return l;
 553:../Libraries/ROSSerial/ros/node_handle.h ****     }
 554:../Libraries/ROSSerial/ros/node_handle.h ****     else
 555:../Libraries/ROSSerial/ros/node_handle.h ****     {
 556:../Libraries/ROSSerial/ros/node_handle.h ****       logerror("Message from device dropped: message larger than buffer.");
 557:../Libraries/ROSSerial/ros/node_handle.h ****       return -1;
 558:../Libraries/ROSSerial/ros/node_handle.h ****     }
 559:../Libraries/ROSSerial/ros/node_handle.h ****   }
 932              		.loc 5 559 0
 933 008e 2846     		mov	r0, r5
 934 0090 05B0     		add	sp, sp, #20
 935              	.LCFI12:
 936              		.cfi_remember_state
 937              		.cfi_def_cfa_offset 12
 938              		@ sp needed
 939 0092 30BD     		pop	{r4, r5, pc}
 940              	.LVL111:
 941              	.L49:
 942              	.LCFI13:
 943              		.cfi_restore_state
 944              	.LBB90:
 945              	.LBB91:
 946              	.LBB92:
 947              	.LBB93:
 948              	.LBB94:
  13:../Libraries/ROSSerial/rosserial_msgs/Log.h ****   {
 949              		.loc 3 13 0
 950 0094 084B     		ldr	r3, .L52
 951 0096 0193     		str	r3, [sp, #4]
 952              	.LVL112:
 953              	.LBE94:
 954              	.LBE93:
 560:../Libraries/ROSSerial/ros/node_handle.h **** 
 561:../Libraries/ROSSerial/ros/node_handle.h ****   /********************************************************************
 562:../Libraries/ROSSerial/ros/node_handle.h ****    * Logging
ARM GAS  /var/folders/l3/4y5292px21b4835bsnjwqc7w009kq1/T//cc8944ZQ.s 			page 34


 563:../Libraries/ROSSerial/ros/node_handle.h ****    */
 564:../Libraries/ROSSerial/ros/node_handle.h **** 
 565:../Libraries/ROSSerial/ros/node_handle.h **** private:
 566:../Libraries/ROSSerial/ros/node_handle.h ****   void log(char byte, const char * msg)
 567:../Libraries/ROSSerial/ros/node_handle.h ****   {
 568:../Libraries/ROSSerial/ros/node_handle.h ****     rosserial_msgs::Log l;
 569:../Libraries/ROSSerial/ros/node_handle.h ****     l.level = byte;
 955              		.loc 5 569 0
 956 0098 0323     		movs	r3, #3
 957 009a 8DF80830 		strb	r3, [sp, #8]
 570:../Libraries/ROSSerial/ros/node_handle.h ****     l.msg = (char*)msg;
 958              		.loc 5 570 0
 959 009e 074B     		ldr	r3, .L52+4
 960 00a0 0393     		str	r3, [sp, #12]
 571:../Libraries/ROSSerial/ros/node_handle.h ****     publish1(rosserial_msgs::TopicInfo::ID_LOG, &l);
 961              		.loc 5 571 0
 962 00a2 01AA     		add	r2, sp, #4
 963 00a4 0721     		movs	r1, #7
 964 00a6 2046     		mov	r0, r4
 965 00a8 FFF7FEFF 		bl	_ZN3ros11NodeHandle_I13STM32HardwareLi5ELi5ELi512ELi512EE8publish1EiPKNS_3MsgE
 966              	.LVL113:
 967              	.LBE92:
 968              	.LBE91:
 969              	.LBE90:
 557:../Libraries/ROSSerial/ros/node_handle.h ****     }
 970              		.loc 5 557 0
 971 00ac 4FF0FF35 		mov	r5, #-1
 972              	.LVL114:
 973 00b0 EDE7     		b	.L44
 974              	.LVL115:
 975              	.L50:
 528:../Libraries/ROSSerial/ros/node_handle.h ****     //printf("in nh.publsh2\n");
 976              		.loc 5 528 0
 977 00b2 0025     		movs	r5, #0
 978 00b4 EBE7     		b	.L44
 979              	.L53:
 980 00b6 00BF     		.align	2
 981              	.L52:
 982 00b8 08000000 		.word	_ZTVN14rosserial_msgs3LogE+8
 983 00bc 00000000 		.word	.LC9
 984              		.cfi_endproc
 985              	.LFE479:
 986              		.fnend
 988              		.section	.text._Z19ROS_SpinTaskHandlerPKv,"ax",%progbits
 989              		.align	1
 990              		.global	_Z19ROS_SpinTaskHandlerPKv
 991              		.syntax unified
 992              		.thumb
 993              		.thumb_func
 994              		.fpu fpv4-sp-d16
 996              	_Z19ROS_SpinTaskHandlerPKv:
 997              		.fnstart
 998              	.LFB464:
  16:ROSTasks/Src/spin_task.cpp **** 
 999              		.loc 4 16 0
 1000              		.cfi_startproc
 1001              		@ args = 0, pretend = 0, frame = 48
ARM GAS  /var/folders/l3/4y5292px21b4835bsnjwqc7w009kq1/T//cc8944ZQ.s 			page 35


 1002              		@ frame_needed = 0, uses_anonymous_args = 0
 1003              	.LVL116:
 1004 0000 2DE9F043 		push	{r4, r5, r6, r7, r8, r9, lr}
 1005              		.save {r4, r5, r6, r7, r8, r9, lr}
 1006              	.LCFI14:
 1007              		.cfi_def_cfa_offset 28
 1008              		.cfi_offset 4, -28
 1009              		.cfi_offset 5, -24
 1010              		.cfi_offset 6, -20
 1011              		.cfi_offset 7, -16
 1012              		.cfi_offset 8, -12
 1013              		.cfi_offset 9, -8
 1014              		.cfi_offset 14, -4
 1015              		.pad #52
 1016 0004 8DB0     		sub	sp, sp, #52
 1017              	.LCFI15:
 1018              		.cfi_def_cfa_offset 80
 1019 0006 0AE0     		b	.L124
 1020              	.LVL117:
 1021              	.L128:
 1022              	.LBB247:
 1023              	.LBB248:
 360:../Libraries/ROSSerial/ros/node_handle.h ****     {
 1024              		.loc 5 360 0
 1025 0008 94F85434 		ldrb	r3, [r4, #1108]	@ zero_extendqisi2
 1026 000c 3BB1     		cbz	r3, .L124
 1027 000e D4F85834 		ldr	r3, [r4, #1112]
 1028 0012 EB1A     		subs	r3, r5, r3
 1029 0014 40F6C412 		movw	r2, #2500
 1030 0018 9342     		cmp	r3, r2
 1031 001a 00F2B483 		bhi	.L127
 1032              	.LVL118:
 1033              	.L124:
 1034              	.LBE248:
 1035              	.LBE247:
  25:ROSTasks/Src/spin_task.cpp **** 	nh_->spinOnce1(); //calling spinOnce() directly give stackoverflow
 1036              		.loc 4 25 0 discriminator 1
 1037 001e 4FF47A70 		mov	r0, #1000
 1038 0022 FFF7FEFF 		bl	osDelay
 1039              	.LVL119:
  26:ROSTasks/Src/spin_task.cpp ****   }
 1040              		.loc 4 26 0 discriminator 1
 1041 0026 BC4B     		ldr	r3, .L146
 1042 0028 1C68     		ldr	r4, [r3]
 1043              	.LVL120:
 1044              	.LBB408:
 1045              	.LBB407:
 1046              	.LBB249:
 1047              	.LBB250:
  88:../Libraries/ROSSerial/stm32hardware.h **** 	}
  89:../Libraries/ROSSerial/stm32hardware.h **** 
  90:../Libraries/ROSSerial/stm32hardware.h **** 	/*
  91:../Libraries/ROSSerial/stm32hardware.h **** 	 * Method: time
  92:../Libraries/ROSSerial/stm32hardware.h **** 	 * ----------------------------
  93:../Libraries/ROSSerial/stm32hardware.h ****      *   Returns milliseconds since start of program
  94:../Libraries/ROSSerial/stm32hardware.h **** 	 *   parameters: none
  95:../Libraries/ROSSerial/stm32hardware.h **** 	 *   returns: time in milliseconds
ARM GAS  /var/folders/l3/4y5292px21b4835bsnjwqc7w009kq1/T//cc8944ZQ.s 			page 36


  96:../Libraries/ROSSerial/stm32hardware.h **** 	 */
  97:../Libraries/ROSSerial/stm32hardware.h **** 	uint32_t time(void)
  98:../Libraries/ROSSerial/stm32hardware.h **** 	{
  99:../Libraries/ROSSerial/stm32hardware.h **** 		return (uint32_t) xTaskGetTickCount();
 1048              		.loc 6 99 0 discriminator 1
 1049 002a FFF7FEFF 		bl	xTaskGetTickCount
 1050              	.LVL121:
 1051 002e 0546     		mov	r5, r0
 1052              	.LVL122:
 1053              	.LBE250:
 1054              	.LBE249:
 224:../Libraries/ROSSerial/ros/node_handle.h ****     {
 1055              		.loc 5 224 0 discriminator 1
 1056 0030 D4F85C34 		ldr	r3, [r4, #1116]
 1057 0034 C31A     		subs	r3, r0, r3
 1058 0036 42F6F822 		movw	r2, #11000
 1059 003a 9342     		cmp	r3, r2
 1060 003c 02D9     		bls	.L55
 226:../Libraries/ROSSerial/ros/node_handle.h ****     }
 1061              		.loc 5 226 0
 1062 003e 0023     		movs	r3, #0
 1063 0040 84F85434 		strb	r3, [r4, #1108]
 1064              	.L55:
 230:../Libraries/ROSSerial/ros/node_handle.h ****     {
 1065              		.loc 5 230 0
 1066 0044 D4F84034 		ldr	r3, [r4, #1088]
 1067 0048 BBB1     		cbz	r3, .L57
 232:../Libraries/ROSSerial/ros/node_handle.h ****       {
 1068              		.loc 5 232 0
 1069 004a D4F86034 		ldr	r3, [r4, #1120]
 1070 004e 9D42     		cmp	r5, r3
 1071 0050 13D9     		bls	.L57
 234:../Libraries/ROSSerial/ros/node_handle.h ****       }
 1072              		.loc 5 234 0
 1073 0052 0023     		movs	r3, #0
 1074 0054 C4F84034 		str	r3, [r4, #1088]
 1075 0058 0FE0     		b	.L57
 1076              	.LVL123:
 1077              	.L129:
 1078              	.LBB251:
 260:../Libraries/ROSSerial/ros/node_handle.h ****         bytes_--;
 1079              		.loc 5 260 0
 1080 005a D4F84C34 		ldr	r3, [r4, #1100]
 1081 005e 5A1C     		adds	r2, r3, #1
 1082 0060 C4F84C24 		str	r2, [r4, #1100]
 1083 0064 2344     		add	r3, r3, r4
 1084 0066 1976     		strb	r1, [r3, #24]
 261:../Libraries/ROSSerial/ros/node_handle.h ****         if (bytes_ == 0)                 /* is message complete? if so, checksum */
 1085              		.loc 5 261 0
 1086 0068 D4F84434 		ldr	r3, [r4, #1092]
 1087 006c 013B     		subs	r3, r3, #1
 1088 006e C4F84434 		str	r3, [r4, #1092]
 262:../Libraries/ROSSerial/ros/node_handle.h ****           mode_ = MODE_MSG_CHECKSUM;
 1089              		.loc 5 262 0
 1090 0072 13B9     		cbnz	r3, .L57
 263:../Libraries/ROSSerial/ros/node_handle.h ****       }
 1091              		.loc 5 263 0
ARM GAS  /var/folders/l3/4y5292px21b4835bsnjwqc7w009kq1/T//cc8944ZQ.s 			page 37


 1092 0074 0823     		movs	r3, #8
 1093 0076 C4F84034 		str	r3, [r4, #1088]
 1094              	.LVL124:
 1095              	.L57:
 242:../Libraries/ROSSerial/ros/node_handle.h ****       {
 1096              		.loc 5 242 0
 1097 007a 6369     		ldr	r3, [r4, #20]
 1098 007c 2BB1     		cbz	r3, .L58
 1099              	.LVL125:
 1100              	.LBB252:
 1101              	.LBB253:
 1102              		.loc 6 99 0
 1103 007e FFF7FEFF 		bl	xTaskGetTickCount
 1104              	.LVL126:
 1105              	.LBE253:
 1106              	.LBE252:
 248:../Libraries/ROSSerial/ros/node_handle.h ****         {
 1107              		.loc 5 248 0
 1108 0082 401B     		subs	r0, r0, r5
 1109 0084 6369     		ldr	r3, [r4, #20]
 1110 0086 9842     		cmp	r0, r3
 1111 0088 C9D8     		bhi	.L124
 1112              	.L58:
 1113              	.LVL127:
 1114              	.LBB254:
 1115              	.LBB255:
  70:../Libraries/ROSSerial/stm32hardware.h **** 		if(comGetChar(COM1,&ucData) == 0) {
 1116              		.loc 6 70 0
 1117 008a 0CA9     		add	r1, sp, #48
 1118 008c FF23     		movs	r3, #255
 1119 008e 01F8183D 		strb	r3, [r1, #-24]!
  71:../Libraries/ROSSerial/stm32hardware.h **** 			return -1;
 1120              		.loc 6 71 0
 1121 0092 0020     		movs	r0, #0
 1122 0094 FFF7FEFF 		bl	comGetChar
 1123              	.LVL128:
 1124 0098 0028     		cmp	r0, #0
 1125 009a B5D0     		beq	.L128
  75:../Libraries/ROSSerial/stm32hardware.h **** 	}
 1126              		.loc 6 75 0
 1127 009c 9DF81810 		ldrb	r1, [sp, #24]	@ zero_extendqisi2
 1128              	.LVL129:
 1129              	.LBE255:
 1130              	.LBE254:
 257:../Libraries/ROSSerial/ros/node_handle.h ****       if (mode_ == MODE_MESSAGE)          /* message data being recieved */
 1131              		.loc 5 257 0
 1132 00a0 D4F85024 		ldr	r2, [r4, #1104]
 1133 00a4 0A44     		add	r2, r2, r1
 1134 00a6 C4F85024 		str	r2, [r4, #1104]
 258:../Libraries/ROSSerial/ros/node_handle.h ****       {
 1135              		.loc 5 258 0
 1136 00aa D4F84034 		ldr	r3, [r4, #1088]
 1137 00ae 072B     		cmp	r3, #7
 1138 00b0 D3D0     		beq	.L129
 265:../Libraries/ROSSerial/ros/node_handle.h ****       {
 1139              		.loc 5 265 0
 1140 00b2 A3B9     		cbnz	r3, .L64
ARM GAS  /var/folders/l3/4y5292px21b4835bsnjwqc7w009kq1/T//cc8944ZQ.s 			page 38


 267:../Libraries/ROSSerial/ros/node_handle.h ****         {
 1141              		.loc 5 267 0
 1142 00b4 FF29     		cmp	r1, #255
 1143 00b6 07D1     		bne	.L65
 269:../Libraries/ROSSerial/ros/node_handle.h ****           last_msg_timeout_time = c_time + SERIAL_MSG_TIMEOUT;
 1144              		.loc 5 269 0
 1145 00b8 0133     		adds	r3, r3, #1
 1146 00ba C4F84034 		str	r3, [r4, #1088]
 270:../Libraries/ROSSerial/ros/node_handle.h ****         }
 1147              		.loc 5 270 0
 1148 00be 05F11403 		add	r3, r5, #20
 1149 00c2 C4F86034 		str	r3, [r4, #1120]
 1150 00c6 D8E7     		b	.L57
 1151              	.L65:
 1152              	.LVL130:
 1153              	.LBB256:
 1154              	.LBB257:
 1155              		.loc 6 99 0
 1156 00c8 FFF7FEFF 		bl	xTaskGetTickCount
 1157              	.LVL131:
 1158              	.LBE257:
 1159              	.LBE256:
 272:../Libraries/ROSSerial/ros/node_handle.h ****         {
 1160              		.loc 5 272 0
 1161 00cc 401B     		subs	r0, r0, r5
 1162 00ce 41F28833 		movw	r3, #5000
 1163 00d2 9842     		cmp	r0, r3
 1164 00d4 D1D9     		bls	.L57
 275:../Libraries/ROSSerial/ros/node_handle.h ****           return SPIN_TIMEOUT;
 1165              		.loc 5 275 0
 1166 00d6 0023     		movs	r3, #0
 1167 00d8 84F85434 		strb	r3, [r4, #1108]
 1168 00dc 9FE7     		b	.L124
 1169              	.LVL132:
 1170              	.L64:
 279:../Libraries/ROSSerial/ros/node_handle.h ****       {
 1171              		.loc 5 279 0
 1172 00de 012B     		cmp	r3, #1
 1173 00e0 3AD0     		beq	.L130
 292:../Libraries/ROSSerial/ros/node_handle.h ****       {
 1174              		.loc 5 292 0
 1175 00e2 022B     		cmp	r3, #2
 1176 00e4 00F0D980 		beq	.L131
 299:../Libraries/ROSSerial/ros/node_handle.h ****       {
 1177              		.loc 5 299 0
 1178 00e8 032B     		cmp	r3, #3
 1179 00ea 00F0E180 		beq	.L132
 304:../Libraries/ROSSerial/ros/node_handle.h ****       {
 1180              		.loc 5 304 0
 1181 00ee 042B     		cmp	r3, #4
 1182 00f0 00F0E880 		beq	.L133
 311:../Libraries/ROSSerial/ros/node_handle.h ****       {
 1183              		.loc 5 311 0
 1184 00f4 052B     		cmp	r3, #5
 1185 00f6 00F0F480 		beq	.L134
 317:../Libraries/ROSSerial/ros/node_handle.h ****       {
 1186              		.loc 5 317 0
ARM GAS  /var/folders/l3/4y5292px21b4835bsnjwqc7w009kq1/T//cc8944ZQ.s 			page 39


 1187 00fa 062B     		cmp	r3, #6
 1188 00fc 00F0F980 		beq	.L135
 324:../Libraries/ROSSerial/ros/node_handle.h ****       {
 1189              		.loc 5 324 0
 1190 0100 082B     		cmp	r3, #8
 1191 0102 BAD1     		bne	.L57
 326:../Libraries/ROSSerial/ros/node_handle.h ****         if ((checksum_ % 256) == 255)
 1192              		.loc 5 326 0
 1193 0104 0023     		movs	r3, #0
 1194 0106 C4F84034 		str	r3, [r4, #1088]
 327:../Libraries/ROSSerial/ros/node_handle.h ****         {
 1195              		.loc 5 327 0
 1196 010a 9B1A     		subs	r3, r3, r2
 1197 010c D2B2     		uxtb	r2, r2
 1198 010e DBB2     		uxtb	r3, r3
 1199 0110 58BF     		it	pl
 1200 0112 5A42     		rsbpl	r2, r3, #0
 1201 0114 FF2A     		cmp	r2, #255
 1202 0116 B0D1     		bne	.L57
 329:../Libraries/ROSSerial/ros/node_handle.h ****           {
 1203              		.loc 5 329 0
 1204 0118 D4F84864 		ldr	r6, [r4, #1096]
 1205 011c 002E     		cmp	r6, #0
 1206 011e 00F00381 		beq	.L136
 337:../Libraries/ROSSerial/ros/node_handle.h ****           {
 1207              		.loc 5 337 0
 1208 0122 0A2E     		cmp	r6, #10
 1209 0124 00F05082 		beq	.L137
 341:../Libraries/ROSSerial/ros/node_handle.h ****           {
 1210              		.loc 5 341 0
 1211 0128 062E     		cmp	r6, #6
 1212 012a 00F09382 		beq	.L138
 346:../Libraries/ROSSerial/ros/node_handle.h ****           {
 1213              		.loc 5 346 0
 1214 012e 0B2E     		cmp	r6, #11
 1215 0130 00F02583 		beq	.L139
 352:../Libraries/ROSSerial/ros/node_handle.h ****               subscribers[topic_ - 100]->callback(message_in);
 1216              		.loc 5 352 0
 1217 0134 06F1A602 		add	r2, r6, #166
 1218 0138 04EB8202 		add	r2, r4, r2, lsl #2
 1219 013c 5268     		ldr	r2, [r2, #4]
 1220 013e 002A     		cmp	r2, #0
 1221 0140 9BD0     		beq	.L57
 353:../Libraries/ROSSerial/ros/node_handle.h ****           }
 1222              		.loc 5 353 0
 1223 0142 06F1A603 		add	r3, r6, #166
 1224 0146 04EB8303 		add	r3, r4, r3, lsl #2
 1225 014a 1268     		ldr	r2, [r2]
 1226 014c 1268     		ldr	r2, [r2]
 1227 014e 04F11801 		add	r1, r4, #24
 1228              	.LVL133:
 1229 0152 5868     		ldr	r0, [r3, #4]
 1230 0154 9047     		blx	r2
 1231              	.LVL134:
 1232 0156 90E7     		b	.L57
 1233              	.LVL135:
 1234              	.L130:
ARM GAS  /var/folders/l3/4y5292px21b4835bsnjwqc7w009kq1/T//cc8944ZQ.s 			page 40


 281:../Libraries/ROSSerial/ros/node_handle.h ****         {
 1235              		.loc 5 281 0
 1236 0158 FE29     		cmp	r1, #254
 1237 015a 32D0     		beq	.L140
 287:../Libraries/ROSSerial/ros/node_handle.h ****           if (configured_ == false)
 1238              		.loc 5 287 0
 1239 015c 0023     		movs	r3, #0
 1240 015e C4F84034 		str	r3, [r4, #1088]
 288:../Libraries/ROSSerial/ros/node_handle.h ****             requestSyncTime();  /* send a msg back showing our protocol version */
 1241              		.loc 5 288 0
 1242 0162 94F85434 		ldrb	r3, [r4, #1108]	@ zero_extendqisi2
 1243 0166 002B     		cmp	r3, #0
 1244 0168 87D1     		bne	.L57
 1245              	.LVL136:
 1246              	.LBB258:
 1247              	.LBB259:
 1248              	.LBB260:
 1249              	.LBB261:
  14:../Libraries/ROSSerial/std_msgs/Time.h ****   {
 1250              		.loc 1 14 0
 1251 016a 6C4B     		ldr	r3, .L146+4
 1252 016c 0093     		str	r3, [sp]
 1253              	.LVL137:
 1254              	.LBB262:
 1255              	.LBB263:
 1256              	.LBB264:
 1257              		.file 7 "../Libraries/ROSSerial/ros/time.h"
   1:../Libraries/ROSSerial/ros/time.h **** /*
   2:../Libraries/ROSSerial/ros/time.h ****  * Software License Agreement (BSD License)
   3:../Libraries/ROSSerial/ros/time.h ****  *
   4:../Libraries/ROSSerial/ros/time.h ****  * Copyright (c) 2011, Willow Garage, Inc.
   5:../Libraries/ROSSerial/ros/time.h ****  * All rights reserved.
   6:../Libraries/ROSSerial/ros/time.h ****  *
   7:../Libraries/ROSSerial/ros/time.h ****  * Redistribution and use in source and binary forms, with or without
   8:../Libraries/ROSSerial/ros/time.h ****  * modification, are permitted provided that the following conditions
   9:../Libraries/ROSSerial/ros/time.h ****  * are met:
  10:../Libraries/ROSSerial/ros/time.h ****  *
  11:../Libraries/ROSSerial/ros/time.h ****  *  * Redistributions of source code must retain the above copyright
  12:../Libraries/ROSSerial/ros/time.h ****  *    notice, this list of conditions and the following disclaimer.
  13:../Libraries/ROSSerial/ros/time.h ****  *  * Redistributions in binary form must reproduce the above
  14:../Libraries/ROSSerial/ros/time.h ****  *    copyright notice, this list of conditions and the following
  15:../Libraries/ROSSerial/ros/time.h ****  *    disclaimer in the documentation and/or other materials provided
  16:../Libraries/ROSSerial/ros/time.h ****  *    with the distribution.
  17:../Libraries/ROSSerial/ros/time.h ****  *  * Neither the name of Willow Garage, Inc. nor the names of its
  18:../Libraries/ROSSerial/ros/time.h ****  *    contributors may be used to endorse or promote prducts derived
  19:../Libraries/ROSSerial/ros/time.h ****  *    from this software without specific prior written permission.
  20:../Libraries/ROSSerial/ros/time.h ****  *
  21:../Libraries/ROSSerial/ros/time.h ****  * THIS SOFTWARE IS PROVIDED BY THE COPYRIGHT HOLDERS AND CONTRIBUTORS
  22:../Libraries/ROSSerial/ros/time.h ****  * "AS IS" AND ANY EXPRESS OR IMPLIED WARRANTIES, INCLUDING, BUT NOT
  23:../Libraries/ROSSerial/ros/time.h ****  * LIMITED TO, THE IMPLIED WARRANTIES OF MERCHANTABILITY AND FITNESS
  24:../Libraries/ROSSerial/ros/time.h ****  * FOR A PARTICULAR PURPOSE ARE DISCLAIMED. IN NO EVENT SHALL THE
  25:../Libraries/ROSSerial/ros/time.h ****  * COPYRIGHT OWNER OR CONTRIBUTORS BE LIABLE FOR ANY DIRECT, INDIRECT,
  26:../Libraries/ROSSerial/ros/time.h ****  * INCIDENTAL, SPECIAL, EXEMPLARY, OR CONSEQUENTIAL DAMAGES (INCLUDING,
  27:../Libraries/ROSSerial/ros/time.h ****  * BUT NOT LIMITED TO, PROCUREMENT OF SUBSTITUTE GOODS OR SERVICES;
  28:../Libraries/ROSSerial/ros/time.h ****  * LOSS OF USE, DATA, OR PROFITS; OR BUSINESS INTERRUPTION) HOWEVER
  29:../Libraries/ROSSerial/ros/time.h ****  * CAUSED AND ON ANY THEORY OF LIABILITY, WHETHER IN CONTRACT, STRICT
  30:../Libraries/ROSSerial/ros/time.h ****  * LIABILITY, OR TORT (INCLUDING NEGLIGENCE OR OTHERWISE) ARISING IN
ARM GAS  /var/folders/l3/4y5292px21b4835bsnjwqc7w009kq1/T//cc8944ZQ.s 			page 41


  31:../Libraries/ROSSerial/ros/time.h ****  * ANY WAY OUT OF THE USE OF THIS SOFTWARE, EVEN IF ADVISED OF THE
  32:../Libraries/ROSSerial/ros/time.h ****  * POSSIBILITY OF SUCH DAMAGE.
  33:../Libraries/ROSSerial/ros/time.h ****  */
  34:../Libraries/ROSSerial/ros/time.h **** 
  35:../Libraries/ROSSerial/ros/time.h **** #ifndef ROS_TIME_H_
  36:../Libraries/ROSSerial/ros/time.h **** #define ROS_TIME_H_
  37:../Libraries/ROSSerial/ros/time.h **** 
  38:../Libraries/ROSSerial/ros/time.h **** #include "ros/duration.h"
  39:../Libraries/ROSSerial/ros/time.h **** #include <math.h>
  40:../Libraries/ROSSerial/ros/time.h **** #include <stdint.h>
  41:../Libraries/ROSSerial/ros/time.h **** 
  42:../Libraries/ROSSerial/ros/time.h **** namespace ros
  43:../Libraries/ROSSerial/ros/time.h **** {
  44:../Libraries/ROSSerial/ros/time.h **** void normalizeSecNSec(uint32_t &sec, uint32_t &nsec);
  45:../Libraries/ROSSerial/ros/time.h **** 
  46:../Libraries/ROSSerial/ros/time.h **** class Time
  47:../Libraries/ROSSerial/ros/time.h **** {
  48:../Libraries/ROSSerial/ros/time.h **** public:
  49:../Libraries/ROSSerial/ros/time.h ****   uint32_t sec, nsec;
  50:../Libraries/ROSSerial/ros/time.h **** 
  51:../Libraries/ROSSerial/ros/time.h ****   Time() : sec(0), nsec(0) {}
 1258              		.loc 7 51 0
 1259 016e 0026     		movs	r6, #0
 1260 0170 0196     		str	r6, [sp, #4]
 1261 0172 0296     		str	r6, [sp, #8]
 1262              	.LVL138:
 1263              	.LBE264:
 1264              	.LBE263:
 1265              	.LBE262:
 1266              	.LBE261:
 1267              	.LBE260:
 1268              	.LBB265:
 1269              	.LBB266:
 531:../Libraries/ROSSerial/ros/node_handle.h **** 
 1270              		.loc 5 531 0
 1271 0174 1B68     		ldr	r3, [r3]
 1272 0176 04F21F21 		addw	r1, r4, #543
 1273              	.LVL139:
 1274 017a 6846     		mov	r0, sp
 1275 017c 9847     		blx	r3
 1276              	.LVL140:
 534:../Libraries/ROSSerial/ros/node_handle.h ****     message_out[1] = PROTOCOL_VER;
 1277              		.loc 5 534 0
 1278 017e FF23     		movs	r3, #255
 1279 0180 84F81832 		strb	r3, [r4, #536]
 535:../Libraries/ROSSerial/ros/node_handle.h ****     message_out[2] = (uint8_t)((uint16_t)l & 255);
 1280              		.loc 5 535 0
 1281 0184 FE23     		movs	r3, #254
 1282 0186 84F81932 		strb	r3, [r4, #537]
 536:../Libraries/ROSSerial/ros/node_handle.h ****     message_out[3] = (uint8_t)((uint16_t)l >> 8);
 1283              		.loc 5 536 0
 1284 018a C3B2     		uxtb	r3, r0
 1285 018c 84F81A32 		strb	r3, [r4, #538]
 537:../Libraries/ROSSerial/ros/node_handle.h ****     message_out[4] = 255 - ((message_out[2] + message_out[3]) % 256);
 1286              		.loc 5 537 0
 1287 0190 C0F30722 		ubfx	r2, r0, #8, #8
 1288 0194 84F81B22 		strb	r2, [r4, #539]
ARM GAS  /var/folders/l3/4y5292px21b4835bsnjwqc7w009kq1/T//cc8944ZQ.s 			page 42


 538:../Libraries/ROSSerial/ros/node_handle.h ****     message_out[5] = (uint8_t)((int16_t)id & 255);
 1289              		.loc 5 538 0
 1290 0198 1344     		add	r3, r3, r2
 1291 019a DBB2     		uxtb	r3, r3
 1292 019c DB43     		mvns	r3, r3
 1293 019e 84F81C32 		strb	r3, [r4, #540]
 539:../Libraries/ROSSerial/ros/node_handle.h ****     message_out[6] = (uint8_t)((int16_t)id >> 8);
 1294              		.loc 5 539 0
 1295 01a2 0A23     		movs	r3, #10
 1296 01a4 84F81D32 		strb	r3, [r4, #541]
 540:../Libraries/ROSSerial/ros/node_handle.h **** 
 1297              		.loc 5 540 0
 1298 01a8 84F81E62 		strb	r6, [r4, #542]
 1299              	.LVL141:
 1300              	.LBB267:
 544:../Libraries/ROSSerial/ros/node_handle.h ****       chk += message_out[i];
 1301              		.loc 5 544 0
 1302 01ac 0522     		movs	r2, #5
 1303              	.LBE267:
 543:../Libraries/ROSSerial/ros/node_handle.h ****     for (int i = 5; i < l + 7; i++)
 1304              		.loc 5 543 0
 1305 01ae 3346     		mov	r3, r6
 1306              	.LVL142:
 1307              	.L69:
 1308              	.LBB268:
 544:../Libraries/ROSSerial/ros/node_handle.h ****       chk += message_out[i];
 1309              		.loc 5 544 0
 1310 01b0 C11D     		adds	r1, r0, #7
 1311 01b2 9142     		cmp	r1, r2
 1312 01b4 09DD     		ble	.L68
 545:../Libraries/ROSSerial/ros/node_handle.h ****     l += 7;
 1313              		.loc 5 545 0
 1314 01b6 A118     		adds	r1, r4, r2
 1315 01b8 91F81812 		ldrb	r1, [r1, #536]	@ zero_extendqisi2
 1316 01bc 0B44     		add	r3, r3, r1
 1317              	.LVL143:
 544:../Libraries/ROSSerial/ros/node_handle.h ****       chk += message_out[i];
 1318              		.loc 5 544 0
 1319 01be 0132     		adds	r2, r2, #1
 1320              	.LVL144:
 1321 01c0 F6E7     		b	.L69
 1322              	.LVL145:
 1323              	.L140:
 1324              	.LBE268:
 1325              	.LBE266:
 1326              	.LBE265:
 1327              	.LBE259:
 1328              	.LBE258:
 283:../Libraries/ROSSerial/ros/node_handle.h ****         }
 1329              		.loc 5 283 0
 1330 01c2 0133     		adds	r3, r3, #1
 1331 01c4 C4F84034 		str	r3, [r4, #1088]
 1332 01c8 57E7     		b	.L57
 1333              	.LVL146:
 1334              	.L68:
 1335              	.LBB293:
 1336              	.LBB292:
ARM GAS  /var/folders/l3/4y5292px21b4835bsnjwqc7w009kq1/T//cc8944ZQ.s 			page 43


 1337              	.LBB288:
 1338              	.LBB286:
 547:../Libraries/ROSSerial/ros/node_handle.h ****     //printf("Sending message - %s\n",message_out);
 1339              		.loc 5 547 0
 1340 01ca 5A42     		rsbs	r2, r3, #0
 1341              	.LVL147:
 1342 01cc DBB2     		uxtb	r3, r3
 1343              	.LVL148:
 1344 01ce D2B2     		uxtb	r2, r2
 1345 01d0 58BF     		it	pl
 1346 01d2 5342     		rsbpl	r3, r2, #0
 1347 01d4 00F10802 		add	r2, r0, #8
 1348              	.LVL149:
 1349 01d8 DB43     		mvns	r3, r3
 1350 01da 2144     		add	r1, r1, r4
 1351 01dc 81F81832 		strb	r3, [r1, #536]
 549:../Libraries/ROSSerial/ros/node_handle.h ****     {
 1352              		.loc 5 549 0
 1353 01e0 B2F5007F 		cmp	r2, #512
 1354 01e4 09DC     		bgt	.L70
 1355              	.LVL150:
 1356              	.LBB269:
 1357              	.LBB270:
  87:../Libraries/ROSSerial/stm32hardware.h **** 	}
 1358              		.loc 6 87 0
 1359 01e6 92B2     		uxth	r2, r2
 1360              	.LVL151:
 1361 01e8 04F50671 		add	r1, r4, #536
 1362              	.LVL152:
 1363 01ec 0020     		movs	r0, #0
 1364              	.LVL153:
 1365 01ee FFF7FEFF 		bl	comSendBuf
 1366              	.LVL154:
 1367              	.L71:
 1368              	.LBE270:
 1369              	.LBE269:
 1370              	.LBE286:
 1371              	.LBE288:
 1372              	.LBB289:
 1373              	.LBB290:
 1374              		.loc 6 99 0
 1375 01f2 FFF7FEFF 		bl	xTaskGetTickCount
 1376              	.LVL155:
 1377              	.LBE290:
 1378              	.LBE289:
 384:../Libraries/ROSSerial/ros/node_handle.h ****   }
 1379              		.loc 5 384 0
 1380 01f6 A060     		str	r0, [r4, #8]
 1381 01f8 3FE7     		b	.L57
 1382              	.LVL156:
 1383              	.L70:
 1384              	.LBB291:
 1385              	.LBB287:
 1386              	.LBB271:
 1387              	.LBB272:
 1388              	.LBB273:
 1389              	.LBB274:
ARM GAS  /var/folders/l3/4y5292px21b4835bsnjwqc7w009kq1/T//cc8944ZQ.s 			page 44


 1390              	.LBB275:
  13:../Libraries/ROSSerial/rosserial_msgs/Log.h ****   {
 1391              		.loc 3 13 0
 1392 01fa 494B     		ldr	r3, .L146+8
 1393 01fc 0393     		str	r3, [sp, #12]
 1394              	.LVL157:
 1395              	.LBE275:
 1396              	.LBE274:
 569:../Libraries/ROSSerial/ros/node_handle.h ****     l.msg = (char*)msg;
 1397              		.loc 5 569 0
 1398 01fe 0322     		movs	r2, #3
 1399              	.LVL158:
 1400 0200 8DF81020 		strb	r2, [sp, #16]
 570:../Libraries/ROSSerial/ros/node_handle.h ****     publish1(rosserial_msgs::TopicInfo::ID_LOG, &l);
 1401              		.loc 5 570 0
 1402 0204 474A     		ldr	r2, .L146+12
 1403 0206 0592     		str	r2, [sp, #20]
 1404              	.LVL159:
 1405              	.LBB276:
 1406              	.LBB277:
 531:../Libraries/ROSSerial/ros/node_handle.h **** 
 1407              		.loc 5 531 0
 1408 0208 1B68     		ldr	r3, [r3]
 1409 020a 04F21F21 		addw	r1, r4, #543
 1410 020e 03A8     		add	r0, sp, #12
 1411              	.LVL160:
 1412 0210 9847     		blx	r3
 1413              	.LVL161:
 534:../Libraries/ROSSerial/ros/node_handle.h ****     message_out[1] = PROTOCOL_VER;
 1414              		.loc 5 534 0
 1415 0212 FF23     		movs	r3, #255
 1416 0214 84F81832 		strb	r3, [r4, #536]
 535:../Libraries/ROSSerial/ros/node_handle.h ****     message_out[2] = (uint8_t)((uint16_t)l & 255);
 1417              		.loc 5 535 0
 1418 0218 FE23     		movs	r3, #254
 1419 021a 84F81932 		strb	r3, [r4, #537]
 536:../Libraries/ROSSerial/ros/node_handle.h ****     message_out[3] = (uint8_t)((uint16_t)l >> 8);
 1420              		.loc 5 536 0
 1421 021e C3B2     		uxtb	r3, r0
 1422 0220 84F81A32 		strb	r3, [r4, #538]
 537:../Libraries/ROSSerial/ros/node_handle.h ****     message_out[4] = 255 - ((message_out[2] + message_out[3]) % 256);
 1423              		.loc 5 537 0
 1424 0224 C0F30722 		ubfx	r2, r0, #8, #8
 1425 0228 84F81B22 		strb	r2, [r4, #539]
 538:../Libraries/ROSSerial/ros/node_handle.h ****     message_out[5] = (uint8_t)((int16_t)id & 255);
 1426              		.loc 5 538 0
 1427 022c 1344     		add	r3, r3, r2
 1428 022e DBB2     		uxtb	r3, r3
 1429 0230 DB43     		mvns	r3, r3
 1430 0232 84F81C32 		strb	r3, [r4, #540]
 539:../Libraries/ROSSerial/ros/node_handle.h ****     message_out[6] = (uint8_t)((int16_t)id >> 8);
 1431              		.loc 5 539 0
 1432 0236 0723     		movs	r3, #7
 1433 0238 84F81D32 		strb	r3, [r4, #541]
 540:../Libraries/ROSSerial/ros/node_handle.h **** 
 1434              		.loc 5 540 0
 1435 023c 0023     		movs	r3, #0
ARM GAS  /var/folders/l3/4y5292px21b4835bsnjwqc7w009kq1/T//cc8944ZQ.s 			page 45


 1436 023e 84F81E32 		strb	r3, [r4, #542]
 1437              	.LVL162:
 1438              	.LBB278:
 544:../Libraries/ROSSerial/ros/node_handle.h ****       chk += message_out[i];
 1439              		.loc 5 544 0
 1440 0242 0522     		movs	r2, #5
 1441              	.LVL163:
 1442              	.L73:
 1443 0244 C11D     		adds	r1, r0, #7
 1444 0246 9142     		cmp	r1, r2
 1445 0248 05DD     		ble	.L72
 545:../Libraries/ROSSerial/ros/node_handle.h ****     l += 7;
 1446              		.loc 5 545 0
 1447 024a A118     		adds	r1, r4, r2
 1448 024c 91F81812 		ldrb	r1, [r1, #536]	@ zero_extendqisi2
 1449 0250 0B44     		add	r3, r3, r1
 1450              	.LVL164:
 544:../Libraries/ROSSerial/ros/node_handle.h ****       chk += message_out[i];
 1451              		.loc 5 544 0
 1452 0252 0132     		adds	r2, r2, #1
 1453              	.LVL165:
 1454 0254 F6E7     		b	.L73
 1455              	.L72:
 1456              	.LVL166:
 1457              	.LBE278:
 547:../Libraries/ROSSerial/ros/node_handle.h ****     //printf("Sending message - %s\n",message_out);
 1458              		.loc 5 547 0
 1459 0256 5A42     		rsbs	r2, r3, #0
 1460              	.LVL167:
 1461 0258 DBB2     		uxtb	r3, r3
 1462              	.LVL168:
 1463 025a D2B2     		uxtb	r2, r2
 1464 025c 58BF     		it	pl
 1465 025e 5342     		rsbpl	r3, r2, #0
 1466 0260 00F10802 		add	r2, r0, #8
 1467              	.LVL169:
 1468 0264 DB43     		mvns	r3, r3
 1469 0266 2144     		add	r1, r1, r4
 1470 0268 81F81832 		strb	r3, [r1, #536]
 549:../Libraries/ROSSerial/ros/node_handle.h ****     {
 1471              		.loc 5 549 0
 1472 026c B2F5007F 		cmp	r2, #512
 1473 0270 06DC     		bgt	.L74
 1474              	.LVL170:
 1475              	.LBB279:
 1476              	.LBB280:
  87:../Libraries/ROSSerial/stm32hardware.h **** 	}
 1477              		.loc 6 87 0
 1478 0272 92B2     		uxth	r2, r2
 1479              	.LVL171:
 1480 0274 04F50671 		add	r1, r4, #536
 1481              	.LVL172:
 1482 0278 0020     		movs	r0, #0
 1483              	.LVL173:
 1484 027a FFF7FEFF 		bl	comSendBuf
 1485              	.LVL174:
 1486 027e B8E7     		b	.L71
ARM GAS  /var/folders/l3/4y5292px21b4835bsnjwqc7w009kq1/T//cc8944ZQ.s 			page 46


 1487              	.LVL175:
 1488              	.L74:
 1489              	.LBE280:
 1490              	.LBE279:
 1491              	.LBB281:
 1492              	.LBB282:
 1493              	.LBB283:
 1494              	.LBB284:
 1495              	.LBB285:
  13:../Libraries/ROSSerial/rosserial_msgs/Log.h ****   {
 1496              		.loc 3 13 0
 1497 0280 274B     		ldr	r3, .L146+8
 1498 0282 0693     		str	r3, [sp, #24]
 1499              	.LVL176:
 1500              	.LBE285:
 1501              	.LBE284:
 569:../Libraries/ROSSerial/ros/node_handle.h ****     l.msg = (char*)msg;
 1502              		.loc 5 569 0
 1503 0284 0323     		movs	r3, #3
 1504 0286 8DF81C30 		strb	r3, [sp, #28]
 570:../Libraries/ROSSerial/ros/node_handle.h ****     publish1(rosserial_msgs::TopicInfo::ID_LOG, &l);
 1505              		.loc 5 570 0
 1506 028a 264B     		ldr	r3, .L146+12
 1507 028c 0893     		str	r3, [sp, #32]
 1508              		.loc 5 571 0
 1509 028e 06AA     		add	r2, sp, #24
 1510              	.LVL177:
 1511 0290 0721     		movs	r1, #7
 1512 0292 2046     		mov	r0, r4
 1513              	.LVL178:
 1514 0294 FFF7FEFF 		bl	_ZN3ros11NodeHandle_I13STM32HardwareLi5ELi5ELi512ELi512EE8publish1EiPKNS_3MsgE
 1515              	.LVL179:
 1516 0298 ABE7     		b	.L71
 1517              	.LVL180:
 1518              	.L131:
 1519              	.LBE283:
 1520              	.LBE282:
 1521              	.LBE281:
 1522              	.LBE277:
 1523              	.LBE276:
 1524              	.LBE273:
 1525              	.LBE272:
 1526              	.LBE271:
 1527              	.LBE287:
 1528              	.LBE291:
 1529              	.LBE292:
 1530              	.LBE293:
 294:../Libraries/ROSSerial/ros/node_handle.h ****         index_ = 0;
 1531              		.loc 5 294 0
 1532 029a C4F84414 		str	r1, [r4, #1092]
 295:../Libraries/ROSSerial/ros/node_handle.h ****         mode_++;
 1533              		.loc 5 295 0
 1534 029e 0022     		movs	r2, #0
 1535 02a0 C4F84C24 		str	r2, [r4, #1100]
 296:../Libraries/ROSSerial/ros/node_handle.h ****         checksum_ = data;               /* first byte for calculating size checksum */
 1536              		.loc 5 296 0
 1537 02a4 0133     		adds	r3, r3, #1
ARM GAS  /var/folders/l3/4y5292px21b4835bsnjwqc7w009kq1/T//cc8944ZQ.s 			page 47


 1538 02a6 C4F84034 		str	r3, [r4, #1088]
 297:../Libraries/ROSSerial/ros/node_handle.h ****       }
 1539              		.loc 5 297 0
 1540 02aa C4F85014 		str	r1, [r4, #1104]
 1541 02ae E4E6     		b	.L57
 1542              	.L132:
 301:../Libraries/ROSSerial/ros/node_handle.h ****         mode_++;
 1543              		.loc 5 301 0
 1544 02b0 D4F84424 		ldr	r2, [r4, #1092]
 1545 02b4 02EB0121 		add	r1, r2, r1, lsl #8
 1546              	.LVL181:
 1547 02b8 C4F84414 		str	r1, [r4, #1092]
 302:../Libraries/ROSSerial/ros/node_handle.h ****       }
 1548              		.loc 5 302 0
 1549 02bc 0133     		adds	r3, r3, #1
 1550 02be C4F84034 		str	r3, [r4, #1088]
 1551 02c2 DAE6     		b	.L57
 1552              	.LVL182:
 1553              	.L133:
 306:../Libraries/ROSSerial/ros/node_handle.h ****           mode_++;
 1554              		.loc 5 306 0
 1555 02c4 5142     		rsbs	r1, r2, #0
 1556              	.LVL183:
 1557 02c6 D2B2     		uxtb	r2, r2
 1558 02c8 C9B2     		uxtb	r1, r1
 1559 02ca 58BF     		it	pl
 1560 02cc 4A42     		rsbpl	r2, r1, #0
 1561 02ce FF2A     		cmp	r2, #255
 1562 02d0 03D0     		beq	.L141
 309:../Libraries/ROSSerial/ros/node_handle.h ****       }
 1563              		.loc 5 309 0
 1564 02d2 0023     		movs	r3, #0
 1565 02d4 C4F84034 		str	r3, [r4, #1088]
 1566 02d8 CFE6     		b	.L57
 1567              	.L141:
 307:../Libraries/ROSSerial/ros/node_handle.h ****         else
 1568              		.loc 5 307 0
 1569 02da 0133     		adds	r3, r3, #1
 1570 02dc C4F84034 		str	r3, [r4, #1088]
 1571 02e0 CBE6     		b	.L57
 1572              	.LVL184:
 1573              	.L134:
 313:../Libraries/ROSSerial/ros/node_handle.h ****         mode_++;
 1574              		.loc 5 313 0
 1575 02e2 C4F84814 		str	r1, [r4, #1096]
 314:../Libraries/ROSSerial/ros/node_handle.h ****         checksum_ = data;               /* first byte included in checksum */
 1576              		.loc 5 314 0
 1577 02e6 0133     		adds	r3, r3, #1
 1578 02e8 C4F84034 		str	r3, [r4, #1088]
 315:../Libraries/ROSSerial/ros/node_handle.h ****       }
 1579              		.loc 5 315 0
 1580 02ec C4F85014 		str	r1, [r4, #1104]
 1581 02f0 C3E6     		b	.L57
 1582              	.L135:
 319:../Libraries/ROSSerial/ros/node_handle.h ****         mode_ = MODE_MESSAGE;
 1583              		.loc 5 319 0
 1584 02f2 D4F84834 		ldr	r3, [r4, #1096]
ARM GAS  /var/folders/l3/4y5292px21b4835bsnjwqc7w009kq1/T//cc8944ZQ.s 			page 48


 1585 02f6 03EB0123 		add	r3, r3, r1, lsl #8
 1586 02fa C4F84834 		str	r3, [r4, #1096]
 320:../Libraries/ROSSerial/ros/node_handle.h ****         if (bytes_ == 0)
 1587              		.loc 5 320 0
 1588 02fe 0723     		movs	r3, #7
 1589 0300 C4F84034 		str	r3, [r4, #1088]
 321:../Libraries/ROSSerial/ros/node_handle.h ****           mode_ = MODE_MSG_CHECKSUM;
 1590              		.loc 5 321 0
 1591 0304 D4F84434 		ldr	r3, [r4, #1092]
 1592 0308 002B     		cmp	r3, #0
 1593 030a 7FF4B6AE 		bne	.L57
 322:../Libraries/ROSSerial/ros/node_handle.h ****       }
 1594              		.loc 5 322 0
 1595 030e 0823     		movs	r3, #8
 1596 0310 C4F84034 		str	r3, [r4, #1088]
 1597 0314 B1E6     		b	.L57
 1598              	.L147:
 1599 0316 00BF     		.align	2
 1600              	.L146:
 1601 0318 00000000 		.word	.LANCHOR0
 1602 031c 08000000 		.word	_ZTVN8std_msgs4TimeE+8
 1603 0320 08000000 		.word	_ZTVN14rosserial_msgs3LogE+8
 1604 0324 00000000 		.word	.LC9
 1605              	.L136:
 1606              	.LVL185:
 1607              	.LBB294:
 1608              	.LBB295:
 1609              	.LBB296:
 1610              	.LBB297:
  14:../Libraries/ROSSerial/std_msgs/Time.h ****   {
 1611              		.loc 1 14 0
 1612 0328 A34B     		ldr	r3, .L148
 1613 032a 0393     		str	r3, [sp, #12]
 1614              	.LVL186:
 1615              	.LBB298:
 1616              	.LBB299:
 1617              	.LBB300:
 1618              		.loc 7 51 0
 1619 032c 0027     		movs	r7, #0
 1620 032e 0497     		str	r7, [sp, #16]
 1621 0330 0597     		str	r7, [sp, #20]
 1622              	.LVL187:
 1623              	.LBE300:
 1624              	.LBE299:
 1625              	.LBE298:
 1626              	.LBE297:
 1627              	.LBE296:
 1628              	.LBB301:
 1629              	.LBB302:
 531:../Libraries/ROSSerial/ros/node_handle.h **** 
 1630              		.loc 5 531 0
 1631 0332 1B68     		ldr	r3, [r3]
 1632 0334 04F21F21 		addw	r1, r4, #543
 1633              	.LVL188:
 1634 0338 03A8     		add	r0, sp, #12
 1635              	.LVL189:
 1636 033a 9847     		blx	r3
ARM GAS  /var/folders/l3/4y5292px21b4835bsnjwqc7w009kq1/T//cc8944ZQ.s 			page 49


 1637              	.LVL190:
 534:../Libraries/ROSSerial/ros/node_handle.h ****     message_out[1] = PROTOCOL_VER;
 1638              		.loc 5 534 0
 1639 033c FF23     		movs	r3, #255
 1640 033e 84F81832 		strb	r3, [r4, #536]
 535:../Libraries/ROSSerial/ros/node_handle.h ****     message_out[2] = (uint8_t)((uint16_t)l & 255);
 1641              		.loc 5 535 0
 1642 0342 FE23     		movs	r3, #254
 1643 0344 84F81932 		strb	r3, [r4, #537]
 536:../Libraries/ROSSerial/ros/node_handle.h ****     message_out[3] = (uint8_t)((uint16_t)l >> 8);
 1644              		.loc 5 536 0
 1645 0348 C3B2     		uxtb	r3, r0
 1646 034a 84F81A32 		strb	r3, [r4, #538]
 537:../Libraries/ROSSerial/ros/node_handle.h ****     message_out[4] = 255 - ((message_out[2] + message_out[3]) % 256);
 1647              		.loc 5 537 0
 1648 034e C0F30722 		ubfx	r2, r0, #8, #8
 1649 0352 84F81B22 		strb	r2, [r4, #539]
 538:../Libraries/ROSSerial/ros/node_handle.h ****     message_out[5] = (uint8_t)((int16_t)id & 255);
 1650              		.loc 5 538 0
 1651 0356 1344     		add	r3, r3, r2
 1652 0358 DBB2     		uxtb	r3, r3
 1653 035a DB43     		mvns	r3, r3
 1654 035c 84F81C32 		strb	r3, [r4, #540]
 539:../Libraries/ROSSerial/ros/node_handle.h ****     message_out[6] = (uint8_t)((int16_t)id >> 8);
 1655              		.loc 5 539 0
 1656 0360 0A23     		movs	r3, #10
 1657 0362 84F81D32 		strb	r3, [r4, #541]
 540:../Libraries/ROSSerial/ros/node_handle.h **** 
 1658              		.loc 5 540 0
 1659 0366 84F81E72 		strb	r7, [r4, #542]
 1660              	.LVL191:
 543:../Libraries/ROSSerial/ros/node_handle.h ****     for (int i = 5; i < l + 7; i++)
 1661              		.loc 5 543 0
 1662 036a 3346     		mov	r3, r6
 1663              	.LBB303:
 544:../Libraries/ROSSerial/ros/node_handle.h ****       chk += message_out[i];
 1664              		.loc 5 544 0
 1665 036c 0527     		movs	r7, #5
 1666              	.LVL192:
 1667              	.L84:
 1668 036e C11D     		adds	r1, r0, #7
 1669 0370 B942     		cmp	r1, r7
 1670 0372 05DD     		ble	.L83
 545:../Libraries/ROSSerial/ros/node_handle.h ****     l += 7;
 1671              		.loc 5 545 0
 1672 0374 E219     		adds	r2, r4, r7
 1673 0376 92F81822 		ldrb	r2, [r2, #536]	@ zero_extendqisi2
 1674 037a 1344     		add	r3, r3, r2
 1675              	.LVL193:
 544:../Libraries/ROSSerial/ros/node_handle.h ****       chk += message_out[i];
 1676              		.loc 5 544 0
 1677 037c 0137     		adds	r7, r7, #1
 1678              	.LVL194:
 1679 037e F6E7     		b	.L84
 1680              	.L83:
 1681              	.LVL195:
 1682              	.LBE303:
ARM GAS  /var/folders/l3/4y5292px21b4835bsnjwqc7w009kq1/T//cc8944ZQ.s 			page 50


 547:../Libraries/ROSSerial/ros/node_handle.h ****     //printf("Sending message - %s\n",message_out);
 1683              		.loc 5 547 0
 1684 0380 5A42     		rsbs	r2, r3, #0
 1685 0382 DBB2     		uxtb	r3, r3
 1686              	.LVL196:
 1687 0384 D2B2     		uxtb	r2, r2
 1688 0386 58BF     		it	pl
 1689 0388 5342     		rsbpl	r3, r2, #0
 1690 038a 00F10802 		add	r2, r0, #8
 1691              	.LVL197:
 1692 038e DB43     		mvns	r3, r3
 1693 0390 2144     		add	r1, r1, r4
 1694 0392 81F81832 		strb	r3, [r1, #536]
 549:../Libraries/ROSSerial/ros/node_handle.h ****     {
 1695              		.loc 5 549 0
 1696 0396 B2F5007F 		cmp	r2, #512
 1697 039a 0CDC     		bgt	.L85
 1698              	.LVL198:
 1699              	.LBB304:
 1700              	.LBB305:
  87:../Libraries/ROSSerial/stm32hardware.h **** 	}
 1701              		.loc 6 87 0
 1702 039c 92B2     		uxth	r2, r2
 1703              	.LVL199:
 1704 039e 04F50671 		add	r1, r4, #536
 1705              	.LVL200:
 1706 03a2 0020     		movs	r0, #0
 1707              	.LVL201:
 1708 03a4 FFF7FEFF 		bl	comSendBuf
 1709              	.LVL202:
 1710              	.L86:
 1711              	.LBE305:
 1712              	.LBE304:
 1713              	.LBE302:
 1714              	.LBE301:
 1715              	.LBB312:
 1716              	.LBB313:
 1717              		.loc 6 99 0
 1718 03a8 FFF7FEFF 		bl	xTaskGetTickCount
 1719              	.LVL203:
 1720              	.LBE313:
 1721              	.LBE312:
 384:../Libraries/ROSSerial/ros/node_handle.h ****   }
 1722              		.loc 5 384 0
 1723 03ac A060     		str	r0, [r4, #8]
 1724              	.LVL204:
 1725              	.LBE295:
 1726              	.LBE294:
 1727              	.LBB316:
 1728              	.LBB317:
 1729              	.LBB318:
 1730              	.LBB319:
  12:../Libraries/ROSSerial/rosserial_msgs/TopicInfo.h ****   {
 1731              		.loc 2 12 0
 1732 03ae 834B     		ldr	r3, .L148+4
 1733 03b0 0693     		str	r3, [sp, #24]
 1734              	.LVL205:
ARM GAS  /var/folders/l3/4y5292px21b4835bsnjwqc7w009kq1/T//cc8944ZQ.s 			page 51


 1735              	.LBE319:
 1736              	.LBE318:
 492:../Libraries/ROSSerial/ros/node_handle.h ****     {
 1737              		.loc 5 492 0
 1738 03b2 3746     		mov	r7, r6
 1739 03b4 21E0     		b	.L94
 1740              	.LVL206:
 1741              	.L85:
 1742              	.LBE317:
 1743              	.LBE316:
 1744              	.LBB347:
 1745              	.LBB315:
 1746              	.LBB314:
 1747              	.LBB311:
 1748              	.LBB306:
 1749              	.LBB307:
 1750              	.LBB308:
 1751              	.LBB309:
 1752              	.LBB310:
  13:../Libraries/ROSSerial/rosserial_msgs/Log.h ****   {
 1753              		.loc 3 13 0
 1754 03b6 824B     		ldr	r3, .L148+8
 1755 03b8 0693     		str	r3, [sp, #24]
 1756              	.LVL207:
 1757              	.LBE310:
 1758              	.LBE309:
 569:../Libraries/ROSSerial/ros/node_handle.h ****     l.msg = (char*)msg;
 1759              		.loc 5 569 0
 1760 03ba 0323     		movs	r3, #3
 1761 03bc 8DF81C30 		strb	r3, [sp, #28]
 570:../Libraries/ROSSerial/ros/node_handle.h ****     publish1(rosserial_msgs::TopicInfo::ID_LOG, &l);
 1762              		.loc 5 570 0
 1763 03c0 804B     		ldr	r3, .L148+12
 1764 03c2 0893     		str	r3, [sp, #32]
 1765              		.loc 5 571 0
 1766 03c4 06AA     		add	r2, sp, #24
 1767              	.LVL208:
 1768 03c6 0721     		movs	r1, #7
 1769 03c8 2046     		mov	r0, r4
 1770              	.LVL209:
 1771 03ca FFF7FEFF 		bl	_ZN3ros11NodeHandle_I13STM32HardwareLi5ELi5ELi512ELi512EE8publish1EiPKNS_3MsgE
 1772              	.LVL210:
 1773 03ce EBE7     		b	.L86
 1774              	.LVL211:
 1775              	.L91:
 1776              	.LBE308:
 1777              	.LBE307:
 1778              	.LBE306:
 1779              	.LBE311:
 1780              	.LBE314:
 1781              	.LBE315:
 1782              	.LBE347:
 1783              	.LBB348:
 1784              	.LBB346:
 1785              	.LBB320:
 1786              	.LBB321:
 547:../Libraries/ROSSerial/ros/node_handle.h ****     //printf("Sending message - %s\n",message_out);
ARM GAS  /var/folders/l3/4y5292px21b4835bsnjwqc7w009kq1/T//cc8944ZQ.s 			page 52


 1787              		.loc 5 547 0
 1788 03d0 5A42     		rsbs	r2, r3, #0
 1789              	.LVL212:
 1790 03d2 DBB2     		uxtb	r3, r3
 1791              	.LVL213:
 1792 03d4 D2B2     		uxtb	r2, r2
 1793 03d6 58BF     		it	pl
 1794 03d8 5342     		rsbpl	r3, r2, #0
 1795 03da 00F10802 		add	r2, r0, #8
 1796              	.LVL214:
 1797 03de DB43     		mvns	r3, r3
 1798 03e0 2144     		add	r1, r1, r4
 1799 03e2 81F81832 		strb	r3, [r1, #536]
 549:../Libraries/ROSSerial/ros/node_handle.h ****     {
 1800              		.loc 5 549 0
 1801 03e6 B2F5007F 		cmp	r2, #512
 1802 03ea 58DC     		bgt	.L93
 1803              	.LVL215:
 1804              	.LBB322:
 1805              	.LBB323:
  87:../Libraries/ROSSerial/stm32hardware.h **** 	}
 1806              		.loc 6 87 0
 1807 03ec 92B2     		uxth	r2, r2
 1808              	.LVL216:
 1809 03ee 04F50671 		add	r1, r4, #536
 1810              	.LVL217:
 1811 03f2 0020     		movs	r0, #0
 1812              	.LVL218:
 1813 03f4 FFF7FEFF 		bl	comSendBuf
 1814              	.LVL219:
 1815              	.L88:
 1816              	.LBE323:
 1817              	.LBE322:
 1818              	.LBE321:
 1819              	.LBE320:
 492:../Libraries/ROSSerial/ros/node_handle.h ****     {
 1820              		.loc 5 492 0
 1821 03f8 0137     		adds	r7, r7, #1
 1822              	.LVL220:
 1823              	.L94:
 1824 03fa 042F     		cmp	r7, #4
 1825 03fc 5CDC     		bgt	.L125
 494:../Libraries/ROSSerial/ros/node_handle.h ****       {
 1826              		.loc 5 494 0
 1827 03fe 07F58373 		add	r3, r7, #262
 1828 0402 54F82330 		ldr	r3, [r4, r3, lsl #2]
 1829 0406 002B     		cmp	r3, #0
 1830 0408 F6D0     		beq	.L88
 496:../Libraries/ROSSerial/ros/node_handle.h ****         ti.topic_name = (char *) publishers[i]->topic_;
 1831              		.loc 5 496 0
 1832 040a 9A68     		ldr	r2, [r3, #8]
 1833 040c ADF81C20 		strh	r2, [sp, #28]	@ movhi
 497:../Libraries/ROSSerial/ros/node_handle.h ****         ti.message_type = (char *) publishers[i]->msg_->getType();
 1834              		.loc 5 497 0
 1835 0410 1A68     		ldr	r2, [r3]
 1836 0412 0892     		str	r2, [sp, #32]
 498:../Libraries/ROSSerial/ros/node_handle.h ****         ti.md5sum = (char *) publishers[i]->msg_->getMD5();
ARM GAS  /var/folders/l3/4y5292px21b4835bsnjwqc7w009kq1/T//cc8944ZQ.s 			page 53


 1837              		.loc 5 498 0
 1838 0414 5868     		ldr	r0, [r3, #4]
 1839 0416 0368     		ldr	r3, [r0]
 1840 0418 9B68     		ldr	r3, [r3, #8]
 1841 041a 9847     		blx	r3
 1842              	.LVL221:
 1843 041c 0990     		str	r0, [sp, #36]
 499:../Libraries/ROSSerial/ros/node_handle.h ****         ti.buffer_size = OUTPUT_SIZE;
 1844              		.loc 5 499 0
 1845 041e 07F58378 		add	r8, r7, #262
 1846 0422 54F82830 		ldr	r3, [r4, r8, lsl #2]
 1847 0426 5868     		ldr	r0, [r3, #4]
 1848 0428 0368     		ldr	r3, [r0]
 1849 042a DB68     		ldr	r3, [r3, #12]
 1850 042c 9847     		blx	r3
 1851              	.LVL222:
 1852 042e 0A90     		str	r0, [sp, #40]
 500:../Libraries/ROSSerial/ros/node_handle.h ****         publish1(publishers[i]->getEndpointType(), &ti);
 1853              		.loc 5 500 0
 1854 0430 4FF40073 		mov	r3, #512
 1855 0434 0B93     		str	r3, [sp, #44]
 501:../Libraries/ROSSerial/ros/node_handle.h ****       }
 1856              		.loc 5 501 0
 1857 0436 54F82830 		ldr	r3, [r4, r8, lsl #2]
 1858              	.LVL223:
 1859              	.LBB331:
 1860              	.LBB332:
 1861              		.file 8 "../Libraries/ROSSerial/ros/publisher.h"
   1:../Libraries/ROSSerial/ros/publisher.h **** /*
   2:../Libraries/ROSSerial/ros/publisher.h ****  * Software License Agreement (BSD License)
   3:../Libraries/ROSSerial/ros/publisher.h ****  *
   4:../Libraries/ROSSerial/ros/publisher.h ****  * Copyright (c) 2011, Willow Garage, Inc.
   5:../Libraries/ROSSerial/ros/publisher.h ****  * All rights reserved.
   6:../Libraries/ROSSerial/ros/publisher.h ****  *
   7:../Libraries/ROSSerial/ros/publisher.h ****  * Redistribution and use in source and binary forms, with or without
   8:../Libraries/ROSSerial/ros/publisher.h ****  * modification, are permitted provided that the following conditions
   9:../Libraries/ROSSerial/ros/publisher.h ****  * are met:
  10:../Libraries/ROSSerial/ros/publisher.h ****  *
  11:../Libraries/ROSSerial/ros/publisher.h ****  *  * Redistributions of source code must retain the above copyright
  12:../Libraries/ROSSerial/ros/publisher.h ****  *    notice, this list of conditions and the following disclaimer.
  13:../Libraries/ROSSerial/ros/publisher.h ****  *  * Redistributions in binary form must reproduce the above
  14:../Libraries/ROSSerial/ros/publisher.h ****  *    copyright notice, this list of conditions and the following
  15:../Libraries/ROSSerial/ros/publisher.h ****  *    disclaimer in the documentation and/or other materials provided
  16:../Libraries/ROSSerial/ros/publisher.h ****  *    with the distribution.
  17:../Libraries/ROSSerial/ros/publisher.h ****  *  * Neither the name of Willow Garage, Inc. nor the names of its
  18:../Libraries/ROSSerial/ros/publisher.h ****  *    contributors may be used to endorse or promote prducts derived
  19:../Libraries/ROSSerial/ros/publisher.h ****  *    from this software without specific prior written permission.
  20:../Libraries/ROSSerial/ros/publisher.h ****  *
  21:../Libraries/ROSSerial/ros/publisher.h ****  * THIS SOFTWARE IS PROVIDED BY THE COPYRIGHT HOLDERS AND CONTRIBUTORS
  22:../Libraries/ROSSerial/ros/publisher.h ****  * "AS IS" AND ANY EXPRESS OR IMPLIED WARRANTIES, INCLUDING, BUT NOT
  23:../Libraries/ROSSerial/ros/publisher.h ****  * LIMITED TO, THE IMPLIED WARRANTIES OF MERCHANTABILITY AND FITNESS
  24:../Libraries/ROSSerial/ros/publisher.h ****  * FOR A PARTICULAR PURPOSE ARE DISCLAIMED. IN NO EVENT SHALL THE
  25:../Libraries/ROSSerial/ros/publisher.h ****  * COPYRIGHT OWNER OR CONTRIBUTORS BE LIABLE FOR ANY DIRECT, INDIRECT,
  26:../Libraries/ROSSerial/ros/publisher.h ****  * INCIDENTAL, SPECIAL, EXEMPLARY, OR CONSEQUENTIAL DAMAGES (INCLUDING,
  27:../Libraries/ROSSerial/ros/publisher.h ****  * BUT NOT LIMITED TO, PROCUREMENT OF SUBSTITUTE GOODS OR SERVICES;
  28:../Libraries/ROSSerial/ros/publisher.h ****  * LOSS OF USE, DATA, OR PROFITS; OR BUSINESS INTERRUPTION) HOWEVER
  29:../Libraries/ROSSerial/ros/publisher.h ****  * CAUSED AND ON ANY THEORY OF LIABILITY, WHETHER IN CONTRACT, STRICT
ARM GAS  /var/folders/l3/4y5292px21b4835bsnjwqc7w009kq1/T//cc8944ZQ.s 			page 54


  30:../Libraries/ROSSerial/ros/publisher.h ****  * LIABILITY, OR TORT (INCLUDING NEGLIGENCE OR OTHERWISE) ARISING IN
  31:../Libraries/ROSSerial/ros/publisher.h ****  * ANY WAY OUT OF THE USE OF THIS SOFTWARE, EVEN IF ADVISED OF THE
  32:../Libraries/ROSSerial/ros/publisher.h ****  * POSSIBILITY OF SUCH DAMAGE.
  33:../Libraries/ROSSerial/ros/publisher.h ****  */
  34:../Libraries/ROSSerial/ros/publisher.h **** 
  35:../Libraries/ROSSerial/ros/publisher.h **** #ifndef _ROS_PUBLISHER_H_
  36:../Libraries/ROSSerial/ros/publisher.h **** #define _ROS_PUBLISHER_H_
  37:../Libraries/ROSSerial/ros/publisher.h **** 
  38:../Libraries/ROSSerial/ros/publisher.h **** #include "rosserial_msgs/TopicInfo.h"
  39:../Libraries/ROSSerial/ros/publisher.h **** #include "ros/node_handle.h"
  40:../Libraries/ROSSerial/ros/publisher.h **** 
  41:../Libraries/ROSSerial/ros/publisher.h **** namespace ros
  42:../Libraries/ROSSerial/ros/publisher.h **** {
  43:../Libraries/ROSSerial/ros/publisher.h **** 
  44:../Libraries/ROSSerial/ros/publisher.h **** /* Generic Publisher */
  45:../Libraries/ROSSerial/ros/publisher.h **** class Publisher
  46:../Libraries/ROSSerial/ros/publisher.h **** {
  47:../Libraries/ROSSerial/ros/publisher.h **** public:
  48:../Libraries/ROSSerial/ros/publisher.h ****   Publisher(const char * topic_name, Msg * msg, int endpoint = rosserial_msgs::TopicInfo::ID_PUBLIS
  49:../Libraries/ROSSerial/ros/publisher.h ****     topic_(topic_name),
  50:../Libraries/ROSSerial/ros/publisher.h ****     msg_(msg),
  51:../Libraries/ROSSerial/ros/publisher.h ****     endpoint_(endpoint) {};
  52:../Libraries/ROSSerial/ros/publisher.h **** 
  53:../Libraries/ROSSerial/ros/publisher.h ****   int publish(const Msg * msg)
  54:../Libraries/ROSSerial/ros/publisher.h ****   {
  55:../Libraries/ROSSerial/ros/publisher.h ****     //printf("nh_ = %x, id_ = %d, chatter publishing %s\n",nh_, id_,msg->getType());
  56:../Libraries/ROSSerial/ros/publisher.h ****     return nh_->publish(id_, msg); //this doesn't work so moved to publish_task
  57:../Libraries/ROSSerial/ros/publisher.h ****   };
  58:../Libraries/ROSSerial/ros/publisher.h **** 
  59:../Libraries/ROSSerial/ros/publisher.h ****   int getEndpointType()
  60:../Libraries/ROSSerial/ros/publisher.h ****   {
  61:../Libraries/ROSSerial/ros/publisher.h ****     return endpoint_;
 1862              		.loc 8 61 0
 1863 043a D3F81080 		ldr	r8, [r3, #16]
 1864              	.LVL224:
 1865              	.LBE332:
 1866              	.LBE331:
 1867              	.LBB333:
 1868              	.LBB330:
 527:../Libraries/ROSSerial/ros/node_handle.h ****       return 0;
 1869              		.loc 5 527 0
 1870 043e B8F1630F 		cmp	r8, #99
 1871 0442 03DD     		ble	.L89
 1872 0444 94F85434 		ldrb	r3, [r4, #1108]	@ zero_extendqisi2
 1873 0448 002B     		cmp	r3, #0
 1874 044a D5D0     		beq	.L88
 1875              	.L89:
 531:../Libraries/ROSSerial/ros/node_handle.h **** 
 1876              		.loc 5 531 0
 1877 044c 069B     		ldr	r3, [sp, #24]
 1878 044e 1B68     		ldr	r3, [r3]
 1879 0450 04F21F21 		addw	r1, r4, #543
 1880 0454 06A8     		add	r0, sp, #24
 1881              	.LVL225:
 1882 0456 9847     		blx	r3
 1883              	.LVL226:
 534:../Libraries/ROSSerial/ros/node_handle.h ****     message_out[1] = PROTOCOL_VER;
ARM GAS  /var/folders/l3/4y5292px21b4835bsnjwqc7w009kq1/T//cc8944ZQ.s 			page 55


 1884              		.loc 5 534 0
 1885 0458 FF23     		movs	r3, #255
 1886 045a 84F81832 		strb	r3, [r4, #536]
 535:../Libraries/ROSSerial/ros/node_handle.h ****     message_out[2] = (uint8_t)((uint16_t)l & 255);
 1887              		.loc 5 535 0
 1888 045e FE23     		movs	r3, #254
 1889 0460 84F81932 		strb	r3, [r4, #537]
 536:../Libraries/ROSSerial/ros/node_handle.h ****     message_out[3] = (uint8_t)((uint16_t)l >> 8);
 1890              		.loc 5 536 0
 1891 0464 C3B2     		uxtb	r3, r0
 1892 0466 84F81A32 		strb	r3, [r4, #538]
 537:../Libraries/ROSSerial/ros/node_handle.h ****     message_out[4] = 255 - ((message_out[2] + message_out[3]) % 256);
 1893              		.loc 5 537 0
 1894 046a C0F30722 		ubfx	r2, r0, #8, #8
 1895 046e 84F81B22 		strb	r2, [r4, #539]
 538:../Libraries/ROSSerial/ros/node_handle.h ****     message_out[5] = (uint8_t)((int16_t)id & 255);
 1896              		.loc 5 538 0
 1897 0472 1344     		add	r3, r3, r2
 1898 0474 DBB2     		uxtb	r3, r3
 1899 0476 DB43     		mvns	r3, r3
 1900 0478 84F81C32 		strb	r3, [r4, #540]
 539:../Libraries/ROSSerial/ros/node_handle.h ****     message_out[6] = (uint8_t)((int16_t)id >> 8);
 1901              		.loc 5 539 0
 1902 047c 84F81D82 		strb	r8, [r4, #541]
 540:../Libraries/ROSSerial/ros/node_handle.h **** 
 1903              		.loc 5 540 0
 1904 0480 48F30728 		sbfx	r8, r8, #8, #8
 1905              	.LVL227:
 1906 0484 84F81E82 		strb	r8, [r4, #542]
 1907              	.LVL228:
 543:../Libraries/ROSSerial/ros/node_handle.h ****     for (int i = 5; i < l + 7; i++)
 1908              		.loc 5 543 0
 1909 0488 3346     		mov	r3, r6
 1910              	.LBB324:
 544:../Libraries/ROSSerial/ros/node_handle.h ****       chk += message_out[i];
 1911              		.loc 5 544 0
 1912 048a 0522     		movs	r2, #5
 1913              	.LVL229:
 1914              	.L92:
 1915 048c C11D     		adds	r1, r0, #7
 1916 048e 9142     		cmp	r1, r2
 1917 0490 9EDD     		ble	.L91
 545:../Libraries/ROSSerial/ros/node_handle.h ****     l += 7;
 1918              		.loc 5 545 0
 1919 0492 A118     		adds	r1, r4, r2
 1920 0494 91F81812 		ldrb	r1, [r1, #536]	@ zero_extendqisi2
 1921 0498 0B44     		add	r3, r3, r1
 1922              	.LVL230:
 544:../Libraries/ROSSerial/ros/node_handle.h ****       chk += message_out[i];
 1923              		.loc 5 544 0
 1924 049a 0132     		adds	r2, r2, #1
 1925              	.LVL231:
 1926 049c F6E7     		b	.L92
 1927              	.LVL232:
 1928              	.L93:
 1929              	.LBE324:
 1930              	.LBB325:
ARM GAS  /var/folders/l3/4y5292px21b4835bsnjwqc7w009kq1/T//cc8944ZQ.s 			page 56


 1931              	.LBB326:
 1932              	.LBB327:
 1933              	.LBB328:
 1934              	.LBB329:
  13:../Libraries/ROSSerial/rosserial_msgs/Log.h ****   {
 1935              		.loc 3 13 0
 1936 049e 484B     		ldr	r3, .L148+8
 1937 04a0 0393     		str	r3, [sp, #12]
 1938              	.LVL233:
 1939              	.LBE329:
 1940              	.LBE328:
 569:../Libraries/ROSSerial/ros/node_handle.h ****     l.msg = (char*)msg;
 1941              		.loc 5 569 0
 1942 04a2 0323     		movs	r3, #3
 1943 04a4 8DF81030 		strb	r3, [sp, #16]
 570:../Libraries/ROSSerial/ros/node_handle.h ****     publish1(rosserial_msgs::TopicInfo::ID_LOG, &l);
 1944              		.loc 5 570 0
 1945 04a8 464B     		ldr	r3, .L148+12
 1946 04aa 0593     		str	r3, [sp, #20]
 1947              		.loc 5 571 0
 1948 04ac 03AA     		add	r2, sp, #12
 1949              	.LVL234:
 1950 04ae 0721     		movs	r1, #7
 1951 04b0 2046     		mov	r0, r4
 1952              	.LVL235:
 1953 04b2 FFF7FEFF 		bl	_ZN3ros11NodeHandle_I13STM32HardwareLi5ELi5ELi512ELi512EE8publish1EiPKNS_3MsgE
 1954              	.LVL236:
 1955 04b6 9FE7     		b	.L88
 1956              	.LVL237:
 1957              	.L125:
 1958              	.LBE327:
 1959              	.LBE326:
 1960              	.LBE325:
 1961              	.LBE330:
 1962              	.LBE333:
 504:../Libraries/ROSSerial/ros/node_handle.h ****     {
 1963              		.loc 5 504 0
 1964 04b8 3746     		mov	r7, r6
 1965              	.LVL238:
 1966 04ba 14E0     		b	.L87
 1967              	.LVL239:
 1968              	.L99:
 1969              	.LBB334:
 1970              	.LBB335:
 547:../Libraries/ROSSerial/ros/node_handle.h ****     //printf("Sending message - %s\n",message_out);
 1971              		.loc 5 547 0
 1972 04bc 5A42     		rsbs	r2, r3, #0
 1973              	.LVL240:
 1974 04be DBB2     		uxtb	r3, r3
 1975              	.LVL241:
 1976 04c0 D2B2     		uxtb	r2, r2
 1977 04c2 58BF     		it	pl
 1978 04c4 5342     		rsbpl	r3, r2, #0
 1979 04c6 00F10802 		add	r2, r0, #8
 1980              	.LVL242:
 1981 04ca DB43     		mvns	r3, r3
 1982 04cc 2144     		add	r1, r1, r4
ARM GAS  /var/folders/l3/4y5292px21b4835bsnjwqc7w009kq1/T//cc8944ZQ.s 			page 57


 1983 04ce 81F81832 		strb	r3, [r1, #536]
 549:../Libraries/ROSSerial/ros/node_handle.h ****     {
 1984              		.loc 5 549 0
 1985 04d2 B2F5007F 		cmp	r2, #512
 1986 04d6 5ADC     		bgt	.L101
 1987              	.LVL243:
 1988              	.LBB336:
 1989              	.LBB337:
  87:../Libraries/ROSSerial/stm32hardware.h **** 	}
 1990              		.loc 6 87 0
 1991 04d8 92B2     		uxth	r2, r2
 1992              	.LVL244:
 1993 04da 04F50671 		add	r1, r4, #536
 1994              	.LVL245:
 1995 04de 0020     		movs	r0, #0
 1996              	.LVL246:
 1997 04e0 FFF7FEFF 		bl	comSendBuf
 1998              	.LVL247:
 1999              	.L96:
 2000              	.LBE337:
 2001              	.LBE336:
 2002              	.LBE335:
 2003              	.LBE334:
 504:../Libraries/ROSSerial/ros/node_handle.h ****     {
 2004              		.loc 5 504 0
 2005 04e4 0137     		adds	r7, r7, #1
 2006              	.LVL248:
 2007              	.L87:
 2008 04e6 042F     		cmp	r7, #4
 2009 04e8 5EDC     		bgt	.L95
 506:../Libraries/ROSSerial/ros/node_handle.h ****       {
 2010              		.loc 5 506 0
 2011 04ea 07F58573 		add	r3, r7, #266
 2012 04ee 04EB8303 		add	r3, r4, r3, lsl #2
 2013 04f2 5868     		ldr	r0, [r3, #4]
 2014 04f4 0028     		cmp	r0, #0
 2015 04f6 F5D0     		beq	.L96
 508:../Libraries/ROSSerial/ros/node_handle.h ****         ti.topic_name = (char *) subscribers[i]->topic_;
 2016              		.loc 5 508 0
 2017 04f8 4368     		ldr	r3, [r0, #4]
 2018 04fa ADF81C30 		strh	r3, [sp, #28]	@ movhi
 509:../Libraries/ROSSerial/ros/node_handle.h ****         ti.message_type = (char *) subscribers[i]->getMsgType();
 2019              		.loc 5 509 0
 2020 04fe 8368     		ldr	r3, [r0, #8]
 2021 0500 0893     		str	r3, [sp, #32]
 510:../Libraries/ROSSerial/ros/node_handle.h ****         ti.md5sum = (char *) subscribers[i]->getMsgMD5();
 2022              		.loc 5 510 0
 2023 0502 0368     		ldr	r3, [r0]
 2024 0504 9B68     		ldr	r3, [r3, #8]
 2025 0506 9847     		blx	r3
 2026              	.LVL249:
 2027 0508 0990     		str	r0, [sp, #36]
 511:../Libraries/ROSSerial/ros/node_handle.h ****         ti.buffer_size = INPUT_SIZE;
 2028              		.loc 5 511 0
 2029 050a 07F58578 		add	r8, r7, #266
 2030 050e 04EB8808 		add	r8, r4, r8, lsl #2
 2031 0512 D8F80400 		ldr	r0, [r8, #4]
ARM GAS  /var/folders/l3/4y5292px21b4835bsnjwqc7w009kq1/T//cc8944ZQ.s 			page 58


 2032 0516 0368     		ldr	r3, [r0]
 2033 0518 DB68     		ldr	r3, [r3, #12]
 2034 051a 9847     		blx	r3
 2035              	.LVL250:
 2036 051c 0A90     		str	r0, [sp, #40]
 512:../Libraries/ROSSerial/ros/node_handle.h ****         publish1(subscribers[i]->getEndpointType(), &ti);
 2037              		.loc 5 512 0
 2038 051e 4FF40073 		mov	r3, #512
 2039 0522 0B93     		str	r3, [sp, #44]
 513:../Libraries/ROSSerial/ros/node_handle.h ****       }
 2040              		.loc 5 513 0
 2041 0524 D8F80400 		ldr	r0, [r8, #4]
 2042 0528 0368     		ldr	r3, [r0]
 2043 052a 5B68     		ldr	r3, [r3, #4]
 2044 052c 9847     		blx	r3
 2045              	.LVL251:
 2046 052e 8046     		mov	r8, r0
 2047              	.LVL252:
 2048              	.LBB345:
 2049              	.LBB344:
 527:../Libraries/ROSSerial/ros/node_handle.h ****       return 0;
 2050              		.loc 5 527 0
 2051 0530 6328     		cmp	r0, #99
 2052 0532 03DD     		ble	.L97
 2053 0534 94F85434 		ldrb	r3, [r4, #1108]	@ zero_extendqisi2
 2054 0538 002B     		cmp	r3, #0
 2055 053a D3D0     		beq	.L96
 2056              	.L97:
 531:../Libraries/ROSSerial/ros/node_handle.h **** 
 2057              		.loc 5 531 0
 2058 053c 069B     		ldr	r3, [sp, #24]
 2059 053e 1B68     		ldr	r3, [r3]
 2060 0540 04F21F21 		addw	r1, r4, #543
 2061 0544 06A8     		add	r0, sp, #24
 2062              	.LVL253:
 2063 0546 9847     		blx	r3
 2064              	.LVL254:
 534:../Libraries/ROSSerial/ros/node_handle.h ****     message_out[1] = PROTOCOL_VER;
 2065              		.loc 5 534 0
 2066 0548 FF23     		movs	r3, #255
 2067 054a 84F81832 		strb	r3, [r4, #536]
 535:../Libraries/ROSSerial/ros/node_handle.h ****     message_out[2] = (uint8_t)((uint16_t)l & 255);
 2068              		.loc 5 535 0
 2069 054e FE23     		movs	r3, #254
 2070 0550 84F81932 		strb	r3, [r4, #537]
 536:../Libraries/ROSSerial/ros/node_handle.h ****     message_out[3] = (uint8_t)((uint16_t)l >> 8);
 2071              		.loc 5 536 0
 2072 0554 C3B2     		uxtb	r3, r0
 2073 0556 84F81A32 		strb	r3, [r4, #538]
 537:../Libraries/ROSSerial/ros/node_handle.h ****     message_out[4] = 255 - ((message_out[2] + message_out[3]) % 256);
 2074              		.loc 5 537 0
 2075 055a C0F30722 		ubfx	r2, r0, #8, #8
 2076 055e 84F81B22 		strb	r2, [r4, #539]
 538:../Libraries/ROSSerial/ros/node_handle.h ****     message_out[5] = (uint8_t)((int16_t)id & 255);
 2077              		.loc 5 538 0
 2078 0562 1344     		add	r3, r3, r2
 2079 0564 DBB2     		uxtb	r3, r3
ARM GAS  /var/folders/l3/4y5292px21b4835bsnjwqc7w009kq1/T//cc8944ZQ.s 			page 59


 2080 0566 DB43     		mvns	r3, r3
 2081 0568 84F81C32 		strb	r3, [r4, #540]
 539:../Libraries/ROSSerial/ros/node_handle.h ****     message_out[6] = (uint8_t)((int16_t)id >> 8);
 2082              		.loc 5 539 0
 2083 056c 84F81D82 		strb	r8, [r4, #541]
 540:../Libraries/ROSSerial/ros/node_handle.h **** 
 2084              		.loc 5 540 0
 2085 0570 48F30728 		sbfx	r8, r8, #8, #8
 2086              	.LVL255:
 2087 0574 84F81E82 		strb	r8, [r4, #542]
 2088              	.LVL256:
 543:../Libraries/ROSSerial/ros/node_handle.h ****     for (int i = 5; i < l + 7; i++)
 2089              		.loc 5 543 0
 2090 0578 3346     		mov	r3, r6
 2091              	.LBB338:
 544:../Libraries/ROSSerial/ros/node_handle.h ****       chk += message_out[i];
 2092              		.loc 5 544 0
 2093 057a 0522     		movs	r2, #5
 2094              	.LVL257:
 2095              	.L100:
 2096 057c C11D     		adds	r1, r0, #7
 2097 057e 9142     		cmp	r1, r2
 2098 0580 9CDD     		ble	.L99
 545:../Libraries/ROSSerial/ros/node_handle.h ****     l += 7;
 2099              		.loc 5 545 0
 2100 0582 A118     		adds	r1, r4, r2
 2101 0584 91F81812 		ldrb	r1, [r1, #536]	@ zero_extendqisi2
 2102 0588 0B44     		add	r3, r3, r1
 2103              	.LVL258:
 544:../Libraries/ROSSerial/ros/node_handle.h ****       chk += message_out[i];
 2104              		.loc 5 544 0
 2105 058a 0132     		adds	r2, r2, #1
 2106              	.LVL259:
 2107 058c F6E7     		b	.L100
 2108              	.LVL260:
 2109              	.L101:
 2110              	.LBE338:
 2111              	.LBB339:
 2112              	.LBB340:
 2113              	.LBB341:
 2114              	.LBB342:
 2115              	.LBB343:
  13:../Libraries/ROSSerial/rosserial_msgs/Log.h ****   {
 2116              		.loc 3 13 0
 2117 058e 0C4B     		ldr	r3, .L148+8
 2118 0590 0393     		str	r3, [sp, #12]
 2119              	.LVL261:
 2120              	.LBE343:
 2121              	.LBE342:
 569:../Libraries/ROSSerial/ros/node_handle.h ****     l.msg = (char*)msg;
 2122              		.loc 5 569 0
 2123 0592 0323     		movs	r3, #3
 2124 0594 8DF81030 		strb	r3, [sp, #16]
 570:../Libraries/ROSSerial/ros/node_handle.h ****     publish1(rosserial_msgs::TopicInfo::ID_LOG, &l);
 2125              		.loc 5 570 0
 2126 0598 0A4B     		ldr	r3, .L148+12
 2127 059a 0593     		str	r3, [sp, #20]
ARM GAS  /var/folders/l3/4y5292px21b4835bsnjwqc7w009kq1/T//cc8944ZQ.s 			page 60


 2128              		.loc 5 571 0
 2129 059c 03AA     		add	r2, sp, #12
 2130              	.LVL262:
 2131 059e 0721     		movs	r1, #7
 2132 05a0 2046     		mov	r0, r4
 2133              	.LVL263:
 2134 05a2 FFF7FEFF 		bl	_ZN3ros11NodeHandle_I13STM32HardwareLi5ELi5ELi512ELi512EE8publish1EiPKNS_3MsgE
 2135              	.LVL264:
 2136 05a6 9DE7     		b	.L96
 2137              	.LVL265:
 2138              	.L95:
 2139              	.LBE341:
 2140              	.LBE340:
 2141              	.LBE339:
 2142              	.LBE344:
 2143              	.LBE345:
 516:../Libraries/ROSSerial/ros/node_handle.h ****   }
 2144              		.loc 5 516 0
 2145 05a8 0123     		movs	r3, #1
 2146 05aa 84F85434 		strb	r3, [r4, #1108]
 2147              	.LVL266:
 2148              	.LBE346:
 2149              	.LBE348:
 333:../Libraries/ROSSerial/ros/node_handle.h ****             last_sync_receive_time = c_time;
 2150              		.loc 5 333 0
 2151 05ae C4F85854 		str	r5, [r4, #1112]
 334:../Libraries/ROSSerial/ros/node_handle.h ****             return SPIN_ERR;
 2152              		.loc 5 334 0
 2153 05b2 C4F85C54 		str	r5, [r4, #1116]
 2154 05b6 32E5     		b	.L124
 2155              	.L149:
 2156              		.align	2
 2157              	.L148:
 2158 05b8 08000000 		.word	_ZTVN8std_msgs4TimeE+8
 2159 05bc 08000000 		.word	_ZTVN14rosserial_msgs9TopicInfoE+8
 2160 05c0 08000000 		.word	_ZTVN14rosserial_msgs3LogE+8
 2161 05c4 00000000 		.word	.LC9
 2162              	.LVL267:
 2163              	.L137:
 339:../Libraries/ROSSerial/ros/node_handle.h ****           }
 2164              		.loc 5 339 0
 2165 05c8 04F11806 		add	r6, r4, #24
 2166              	.LVL268:
 2167              	.LBB349:
 2168              	.LBB350:
 2169              	.LBB351:
 2170              	.LBB352:
 2171              		.loc 6 99 0
 2172 05cc FFF7FEFF 		bl	xTaskGetTickCount
 2173              	.LVL269:
 2174              	.LBE352:
 2175              	.LBE351:
 390:../Libraries/ROSSerial/ros/node_handle.h **** 
 2176              		.loc 5 390 0
 2177 05d0 A368     		ldr	r3, [r4, #8]
 2178 05d2 C01A     		subs	r0, r0, r3
 2179              	.LVL270:
ARM GAS  /var/folders/l3/4y5292px21b4835bsnjwqc7w009kq1/T//cc8944ZQ.s 			page 61


 2180              	.LBB353:
 2181              	.LBB354:
  38:../Libraries/ROSSerial/std_msgs/Time.h ****       this->data.sec |= ((uint32_t) (*(inbuffer + offset + 1))) << (8 * 1);
 2182              		.loc 1 38 0
 2183 05d4 237E     		ldrb	r3, [r4, #24]	@ zero_extendqisi2
  39:../Libraries/ROSSerial/std_msgs/Time.h ****       this->data.sec |= ((uint32_t) (*(inbuffer + offset + 2))) << (8 * 2);
 2184              		.loc 1 39 0
 2185 05d6 3246     		mov	r2, r6
 2186 05d8 7178     		ldrb	r1, [r6, #1]	@ zero_extendqisi2
 2187 05da 43EA0123 		orr	r3, r3, r1, lsl #8
  40:../Libraries/ROSSerial/std_msgs/Time.h ****       this->data.sec |= ((uint32_t) (*(inbuffer + offset + 3))) << (8 * 3);
 2188              		.loc 1 40 0
 2189 05de B178     		ldrb	r1, [r6, #2]	@ zero_extendqisi2
 2190 05e0 43EA0143 		orr	r3, r3, r1, lsl #16
  41:../Libraries/ROSSerial/std_msgs/Time.h ****       offset += sizeof(this->data.sec);
 2191              		.loc 1 41 0
 2192 05e4 F178     		ldrb	r1, [r6, #3]	@ zero_extendqisi2
 2193 05e6 43EA0163 		orr	r3, r3, r1, lsl #24
 2194 05ea 0793     		str	r3, [sp, #28]
 2195              	.LVL271:
  43:../Libraries/ROSSerial/std_msgs/Time.h ****       this->data.nsec |= ((uint32_t) (*(inbuffer + offset + 1))) << (8 * 1);
 2196              		.loc 1 43 0
 2197 05ec 3179     		ldrb	r1, [r6, #4]	@ zero_extendqisi2
  44:../Libraries/ROSSerial/std_msgs/Time.h ****       this->data.nsec |= ((uint32_t) (*(inbuffer + offset + 2))) << (8 * 2);
 2198              		.loc 1 44 0
 2199 05ee 7679     		ldrb	r6, [r6, #5]	@ zero_extendqisi2
 2200 05f0 41EA0621 		orr	r1, r1, r6, lsl #8
  45:../Libraries/ROSSerial/std_msgs/Time.h ****       this->data.nsec |= ((uint32_t) (*(inbuffer + offset + 3))) << (8 * 3);
 2201              		.loc 1 45 0
 2202 05f4 9679     		ldrb	r6, [r2, #6]	@ zero_extendqisi2
 2203 05f6 41EA0641 		orr	r1, r1, r6, lsl #16
  46:../Libraries/ROSSerial/std_msgs/Time.h ****       offset += sizeof(this->data.nsec);
 2204              		.loc 1 46 0
 2205 05fa D279     		ldrb	r2, [r2, #7]	@ zero_extendqisi2
 2206 05fc 41EA0261 		orr	r1, r1, r2, lsl #24
 2207              	.LVL272:
 2208              	.LBE354:
 2209              	.LBE353:
 393:../Libraries/ROSSerial/ros/node_handle.h ****     t.data.nsec += (offset % 1000) * 1000000UL;
 2210              		.loc 5 393 0
 2211 0600 AC4E     		ldr	r6, .L150
 2212 0602 A6FB0072 		umull	r7, r2, r6, r0
 2213 0606 9209     		lsrs	r2, r2, #6
 2214 0608 1344     		add	r3, r3, r2
 2215 060a 0793     		str	r3, [sp, #28]
 394:../Libraries/ROSSerial/ros/node_handle.h **** 
 2216              		.loc 5 394 0
 2217 060c 4FF47A78 		mov	r8, #1000
 2218 0610 08FB1203 		mls	r3, r8, r2, r0
 2219 0614 A84F     		ldr	r7, .L150+4
 2220 0616 07FB0313 		mla	r3, r7, r3, r1
 2221 061a 0893     		str	r3, [sp, #32]
 2222              	.LVL273:
 2223              	.LBB355:
 2224              	.LBB356:
 2225              	.LBB357:
 2226              	.LBB358:
ARM GAS  /var/folders/l3/4y5292px21b4835bsnjwqc7w009kq1/T//cc8944ZQ.s 			page 62


 2227              		.loc 6 99 0
 2228 061c FFF7FEFF 		bl	xTaskGetTickCount
 2229              	.LVL274:
 2230              	.LBE358:
 2231              	.LBE357:
 413:../Libraries/ROSSerial/ros/node_handle.h ****     nsec_offset = new_now.nsec - (ms % 1000) * 1000000UL + 1000000000UL;
 2232              		.loc 5 413 0
 2233 0620 A6FB0023 		umull	r2, r3, r6, r0
 2234 0624 9B09     		lsrs	r3, r3, #6
 2235 0626 079A     		ldr	r2, [sp, #28]
 2236 0628 D21A     		subs	r2, r2, r3
 2237 062a 013A     		subs	r2, r2, #1
 2238 062c E260     		str	r2, [r4, #12]
 414:../Libraries/ROSSerial/ros/node_handle.h ****     normalizeSecNSec(sec_offset, nsec_offset);
 2239              		.loc 5 414 0
 2240 062e 08FB1303 		mls	r3, r8, r3, r0
 2241 0632 089A     		ldr	r2, [sp, #32]
 2242 0634 07FB1323 		mls	r3, r7, r3, r2
 2243 0638 A04A     		ldr	r2, .L150+8
 2244 063a 1A44     		add	r2, r2, r3
 2245 063c 2146     		mov	r1, r4
 2246 063e 41F8102F 		str	r2, [r1, #16]!
 415:../Libraries/ROSSerial/ros/node_handle.h ****   }
 2247              		.loc 5 415 0
 2248 0642 04F10C00 		add	r0, r4, #12
 2249              	.LVL275:
 2250 0646 FFF7FEFF 		bl	_ZN3ros16normalizeSecNSecERmS0_
 2251              	.LVL276:
 2252              	.LBE356:
 2253              	.LBE355:
 2254              	.LBB359:
 2255              	.LBB360:
 2256              		.loc 6 99 0
 2257 064a FFF7FEFF 		bl	xTaskGetTickCount
 2258              	.LVL277:
 2259              	.LBE360:
 2260              	.LBE359:
 397:../Libraries/ROSSerial/ros/node_handle.h ****   }
 2261              		.loc 5 397 0
 2262 064e C4F85C04 		str	r0, [r4, #1116]
 2263 0652 12E5     		b	.L57
 2264              	.LVL278:
 2265              	.L138:
 2266              	.LBE350:
 2267              	.LBE349:
 343:../Libraries/ROSSerial/ros/node_handle.h ****             param_recieved = true;
 2268              		.loc 5 343 0
 2269 0654 04F58D68 		add	r8, r4, #1128
 2270 0658 04F11807 		add	r7, r4, #24
 2271              	.LVL279:
 2272              	.LBB361:
 2273              	.LBB362:
 2274              		.file 9 "../Libraries/ROSSerial/rosserial_msgs/RequestParam.h"
   1:../Libraries/ROSSerial/rosserial_msgs/RequestParam.h **** #ifndef _ROS_SERVICE_RequestParam_h
   2:../Libraries/ROSSerial/rosserial_msgs/RequestParam.h **** #define _ROS_SERVICE_RequestParam_h
   3:../Libraries/ROSSerial/rosserial_msgs/RequestParam.h **** 
   4:../Libraries/ROSSerial/rosserial_msgs/RequestParam.h **** #include <stdint.h>
ARM GAS  /var/folders/l3/4y5292px21b4835bsnjwqc7w009kq1/T//cc8944ZQ.s 			page 63


   5:../Libraries/ROSSerial/rosserial_msgs/RequestParam.h **** #include <string.h>
   6:../Libraries/ROSSerial/rosserial_msgs/RequestParam.h **** #include <stdlib.h>
   7:../Libraries/ROSSerial/rosserial_msgs/RequestParam.h **** #include "ros/msg.h"
   8:../Libraries/ROSSerial/rosserial_msgs/RequestParam.h **** 
   9:../Libraries/ROSSerial/rosserial_msgs/RequestParam.h **** 
  10:../Libraries/ROSSerial/rosserial_msgs/RequestParam.h **** namespace rosserial_msgs
  11:../Libraries/ROSSerial/rosserial_msgs/RequestParam.h **** {
  12:../Libraries/ROSSerial/rosserial_msgs/RequestParam.h **** 
  13:../Libraries/ROSSerial/rosserial_msgs/RequestParam.h **** static const char REQUESTPARAM[] = "rosserial_msgs/RequestParam";
  14:../Libraries/ROSSerial/rosserial_msgs/RequestParam.h **** 
  15:../Libraries/ROSSerial/rosserial_msgs/RequestParam.h ****   class RequestParamRequest : public ros::Msg
  16:../Libraries/ROSSerial/rosserial_msgs/RequestParam.h ****   {
  17:../Libraries/ROSSerial/rosserial_msgs/RequestParam.h ****     public:
  18:../Libraries/ROSSerial/rosserial_msgs/RequestParam.h ****       const char* name;
  19:../Libraries/ROSSerial/rosserial_msgs/RequestParam.h **** 
  20:../Libraries/ROSSerial/rosserial_msgs/RequestParam.h ****     virtual int serialize(unsigned char *outbuffer) const
  21:../Libraries/ROSSerial/rosserial_msgs/RequestParam.h ****     {
  22:../Libraries/ROSSerial/rosserial_msgs/RequestParam.h ****       int offset = 0;
  23:../Libraries/ROSSerial/rosserial_msgs/RequestParam.h ****       uint32_t length_name = strlen(this->name);
  24:../Libraries/ROSSerial/rosserial_msgs/RequestParam.h ****       memcpy(outbuffer + offset, &length_name, sizeof(uint32_t));
  25:../Libraries/ROSSerial/rosserial_msgs/RequestParam.h ****       offset += 4;
  26:../Libraries/ROSSerial/rosserial_msgs/RequestParam.h ****       memcpy(outbuffer + offset, this->name, length_name);
  27:../Libraries/ROSSerial/rosserial_msgs/RequestParam.h ****       offset += length_name;
  28:../Libraries/ROSSerial/rosserial_msgs/RequestParam.h ****       return offset;
  29:../Libraries/ROSSerial/rosserial_msgs/RequestParam.h ****     }
  30:../Libraries/ROSSerial/rosserial_msgs/RequestParam.h **** 
  31:../Libraries/ROSSerial/rosserial_msgs/RequestParam.h ****     virtual int deserialize(unsigned char *inbuffer)
  32:../Libraries/ROSSerial/rosserial_msgs/RequestParam.h ****     {
  33:../Libraries/ROSSerial/rosserial_msgs/RequestParam.h ****       int offset = 0;
  34:../Libraries/ROSSerial/rosserial_msgs/RequestParam.h ****       uint32_t length_name;
  35:../Libraries/ROSSerial/rosserial_msgs/RequestParam.h ****       memcpy(&length_name, (inbuffer + offset), sizeof(uint32_t));
  36:../Libraries/ROSSerial/rosserial_msgs/RequestParam.h ****       offset += 4;
  37:../Libraries/ROSSerial/rosserial_msgs/RequestParam.h ****       for(unsigned int k= offset; k< offset+length_name; ++k){
  38:../Libraries/ROSSerial/rosserial_msgs/RequestParam.h ****           inbuffer[k-1]=inbuffer[k];
  39:../Libraries/ROSSerial/rosserial_msgs/RequestParam.h ****       }
  40:../Libraries/ROSSerial/rosserial_msgs/RequestParam.h ****       inbuffer[offset+length_name-1]=0;
  41:../Libraries/ROSSerial/rosserial_msgs/RequestParam.h ****       this->name = (char *)(inbuffer + offset-1);
  42:../Libraries/ROSSerial/rosserial_msgs/RequestParam.h ****       offset += length_name;
  43:../Libraries/ROSSerial/rosserial_msgs/RequestParam.h ****      return offset;
  44:../Libraries/ROSSerial/rosserial_msgs/RequestParam.h ****     }
  45:../Libraries/ROSSerial/rosserial_msgs/RequestParam.h **** 
  46:../Libraries/ROSSerial/rosserial_msgs/RequestParam.h ****     const char * getType(){ return REQUESTPARAM; };
  47:../Libraries/ROSSerial/rosserial_msgs/RequestParam.h ****     const char * getMD5(){ return "c1f3d28f1b044c871e6eff2e9fc3c667"; };
  48:../Libraries/ROSSerial/rosserial_msgs/RequestParam.h **** 
  49:../Libraries/ROSSerial/rosserial_msgs/RequestParam.h ****   };
  50:../Libraries/ROSSerial/rosserial_msgs/RequestParam.h **** 
  51:../Libraries/ROSSerial/rosserial_msgs/RequestParam.h ****   class RequestParamResponse : public ros::Msg
  52:../Libraries/ROSSerial/rosserial_msgs/RequestParam.h ****   {
  53:../Libraries/ROSSerial/rosserial_msgs/RequestParam.h ****     public:
  54:../Libraries/ROSSerial/rosserial_msgs/RequestParam.h ****       uint8_t ints_length;
  55:../Libraries/ROSSerial/rosserial_msgs/RequestParam.h ****       int32_t st_ints;
  56:../Libraries/ROSSerial/rosserial_msgs/RequestParam.h ****       int32_t * ints;
  57:../Libraries/ROSSerial/rosserial_msgs/RequestParam.h ****       uint8_t floats_length;
  58:../Libraries/ROSSerial/rosserial_msgs/RequestParam.h ****       float st_floats;
  59:../Libraries/ROSSerial/rosserial_msgs/RequestParam.h ****       float * floats;
  60:../Libraries/ROSSerial/rosserial_msgs/RequestParam.h ****       uint8_t strings_length;
  61:../Libraries/ROSSerial/rosserial_msgs/RequestParam.h ****       char* st_strings;
ARM GAS  /var/folders/l3/4y5292px21b4835bsnjwqc7w009kq1/T//cc8944ZQ.s 			page 64


  62:../Libraries/ROSSerial/rosserial_msgs/RequestParam.h ****       char* * strings;
  63:../Libraries/ROSSerial/rosserial_msgs/RequestParam.h **** 
  64:../Libraries/ROSSerial/rosserial_msgs/RequestParam.h ****     virtual int serialize(unsigned char *outbuffer) const
  65:../Libraries/ROSSerial/rosserial_msgs/RequestParam.h ****     {
  66:../Libraries/ROSSerial/rosserial_msgs/RequestParam.h ****       int offset = 0;
  67:../Libraries/ROSSerial/rosserial_msgs/RequestParam.h ****       *(outbuffer + offset++) = ints_length;
  68:../Libraries/ROSSerial/rosserial_msgs/RequestParam.h ****       *(outbuffer + offset++) = 0;
  69:../Libraries/ROSSerial/rosserial_msgs/RequestParam.h ****       *(outbuffer + offset++) = 0;
  70:../Libraries/ROSSerial/rosserial_msgs/RequestParam.h ****       *(outbuffer + offset++) = 0;
  71:../Libraries/ROSSerial/rosserial_msgs/RequestParam.h ****       for( uint8_t i = 0; i < ints_length; i++){
  72:../Libraries/ROSSerial/rosserial_msgs/RequestParam.h ****       union {
  73:../Libraries/ROSSerial/rosserial_msgs/RequestParam.h ****         int32_t real;
  74:../Libraries/ROSSerial/rosserial_msgs/RequestParam.h ****         uint32_t base;
  75:../Libraries/ROSSerial/rosserial_msgs/RequestParam.h ****       } u_intsi;
  76:../Libraries/ROSSerial/rosserial_msgs/RequestParam.h ****       u_intsi.real = this->ints[i];
  77:../Libraries/ROSSerial/rosserial_msgs/RequestParam.h ****       *(outbuffer + offset + 0) = (u_intsi.base >> (8 * 0)) & 0xFF;
  78:../Libraries/ROSSerial/rosserial_msgs/RequestParam.h ****       *(outbuffer + offset + 1) = (u_intsi.base >> (8 * 1)) & 0xFF;
  79:../Libraries/ROSSerial/rosserial_msgs/RequestParam.h ****       *(outbuffer + offset + 2) = (u_intsi.base >> (8 * 2)) & 0xFF;
  80:../Libraries/ROSSerial/rosserial_msgs/RequestParam.h ****       *(outbuffer + offset + 3) = (u_intsi.base >> (8 * 3)) & 0xFF;
  81:../Libraries/ROSSerial/rosserial_msgs/RequestParam.h ****       offset += sizeof(this->ints[i]);
  82:../Libraries/ROSSerial/rosserial_msgs/RequestParam.h ****       }
  83:../Libraries/ROSSerial/rosserial_msgs/RequestParam.h ****       *(outbuffer + offset++) = floats_length;
  84:../Libraries/ROSSerial/rosserial_msgs/RequestParam.h ****       *(outbuffer + offset++) = 0;
  85:../Libraries/ROSSerial/rosserial_msgs/RequestParam.h ****       *(outbuffer + offset++) = 0;
  86:../Libraries/ROSSerial/rosserial_msgs/RequestParam.h ****       *(outbuffer + offset++) = 0;
  87:../Libraries/ROSSerial/rosserial_msgs/RequestParam.h ****       for( uint8_t i = 0; i < floats_length; i++){
  88:../Libraries/ROSSerial/rosserial_msgs/RequestParam.h ****       union {
  89:../Libraries/ROSSerial/rosserial_msgs/RequestParam.h ****         float real;
  90:../Libraries/ROSSerial/rosserial_msgs/RequestParam.h ****         uint32_t base;
  91:../Libraries/ROSSerial/rosserial_msgs/RequestParam.h ****       } u_floatsi;
  92:../Libraries/ROSSerial/rosserial_msgs/RequestParam.h ****       u_floatsi.real = this->floats[i];
  93:../Libraries/ROSSerial/rosserial_msgs/RequestParam.h ****       *(outbuffer + offset + 0) = (u_floatsi.base >> (8 * 0)) & 0xFF;
  94:../Libraries/ROSSerial/rosserial_msgs/RequestParam.h ****       *(outbuffer + offset + 1) = (u_floatsi.base >> (8 * 1)) & 0xFF;
  95:../Libraries/ROSSerial/rosserial_msgs/RequestParam.h ****       *(outbuffer + offset + 2) = (u_floatsi.base >> (8 * 2)) & 0xFF;
  96:../Libraries/ROSSerial/rosserial_msgs/RequestParam.h ****       *(outbuffer + offset + 3) = (u_floatsi.base >> (8 * 3)) & 0xFF;
  97:../Libraries/ROSSerial/rosserial_msgs/RequestParam.h ****       offset += sizeof(this->floats[i]);
  98:../Libraries/ROSSerial/rosserial_msgs/RequestParam.h ****       }
  99:../Libraries/ROSSerial/rosserial_msgs/RequestParam.h ****       *(outbuffer + offset++) = strings_length;
 100:../Libraries/ROSSerial/rosserial_msgs/RequestParam.h ****       *(outbuffer + offset++) = 0;
 101:../Libraries/ROSSerial/rosserial_msgs/RequestParam.h ****       *(outbuffer + offset++) = 0;
 102:../Libraries/ROSSerial/rosserial_msgs/RequestParam.h ****       *(outbuffer + offset++) = 0;
 103:../Libraries/ROSSerial/rosserial_msgs/RequestParam.h ****       for( uint8_t i = 0; i < strings_length; i++){
 104:../Libraries/ROSSerial/rosserial_msgs/RequestParam.h ****       uint32_t length_stringsi = strlen(this->strings[i]);
 105:../Libraries/ROSSerial/rosserial_msgs/RequestParam.h ****       memcpy(outbuffer + offset, &length_stringsi, sizeof(uint32_t));
 106:../Libraries/ROSSerial/rosserial_msgs/RequestParam.h ****       offset += 4;
 107:../Libraries/ROSSerial/rosserial_msgs/RequestParam.h ****       memcpy(outbuffer + offset, this->strings[i], length_stringsi);
 108:../Libraries/ROSSerial/rosserial_msgs/RequestParam.h ****       offset += length_stringsi;
 109:../Libraries/ROSSerial/rosserial_msgs/RequestParam.h ****       }
 110:../Libraries/ROSSerial/rosserial_msgs/RequestParam.h ****       return offset;
 111:../Libraries/ROSSerial/rosserial_msgs/RequestParam.h ****     }
 112:../Libraries/ROSSerial/rosserial_msgs/RequestParam.h **** 
 113:../Libraries/ROSSerial/rosserial_msgs/RequestParam.h ****     virtual int deserialize(unsigned char *inbuffer)
 114:../Libraries/ROSSerial/rosserial_msgs/RequestParam.h ****     {
 115:../Libraries/ROSSerial/rosserial_msgs/RequestParam.h ****       int offset = 0;
 116:../Libraries/ROSSerial/rosserial_msgs/RequestParam.h ****       uint8_t ints_lengthT = *(inbuffer + offset++);
 2275              		.loc 9 116 0
 2276 065c 267E     		ldrb	r6, [r4, #24]	@ zero_extendqisi2
ARM GAS  /var/folders/l3/4y5292px21b4835bsnjwqc7w009kq1/T//cc8944ZQ.s 			page 65


 2277              	.LVL280:
 117:../Libraries/ROSSerial/rosserial_msgs/RequestParam.h ****       if(ints_lengthT > ints_length)
 2278              		.loc 9 117 0
 2279 065e 98F80430 		ldrb	r3, [r8, #4]	@ zero_extendqisi2
 2280 0662 9E42     		cmp	r6, r3
 2281 0664 1ED8     		bhi	.L142
 2282              	.LVL281:
 2283              	.L104:
 118:../Libraries/ROSSerial/rosserial_msgs/RequestParam.h ****         this->ints = (int32_t*)realloc(this->ints, ints_lengthT * sizeof(int32_t));
 119:../Libraries/ROSSerial/rosserial_msgs/RequestParam.h ****       offset += 3;
 120:../Libraries/ROSSerial/rosserial_msgs/RequestParam.h ****       ints_length = ints_lengthT;
 2284              		.loc 9 120 0
 2285 0666 88F80460 		strb	r6, [r8, #4]
 2286              	.LVL282:
 2287              	.LBB363:
 121:../Libraries/ROSSerial/rosserial_msgs/RequestParam.h ****       for( uint8_t i = 0; i < ints_length; i++){
 2288              		.loc 9 121 0
 2289 066a 0022     		movs	r2, #0
 2290              	.LBE363:
 119:../Libraries/ROSSerial/rosserial_msgs/RequestParam.h ****       ints_length = ints_lengthT;
 2291              		.loc 9 119 0
 2292 066c 0426     		movs	r6, #4
 2293              	.LVL283:
 2294              	.L106:
 2295              	.LBB365:
 2296              		.loc 9 121 0
 2297 066e 98F80430 		ldrb	r3, [r8, #4]	@ zero_extendqisi2
 2298 0672 9342     		cmp	r3, r2
 2299 0674 1ED9     		bls	.L105
 2300              	.LBB364:
 122:../Libraries/ROSSerial/rosserial_msgs/RequestParam.h ****       union {
 123:../Libraries/ROSSerial/rosserial_msgs/RequestParam.h ****         int32_t real;
 124:../Libraries/ROSSerial/rosserial_msgs/RequestParam.h ****         uint32_t base;
 125:../Libraries/ROSSerial/rosserial_msgs/RequestParam.h ****       } u_st_ints;
 126:../Libraries/ROSSerial/rosserial_msgs/RequestParam.h ****       u_st_ints.base = 0;
 127:../Libraries/ROSSerial/rosserial_msgs/RequestParam.h ****       u_st_ints.base |= ((uint32_t) (*(inbuffer + offset + 0))) << (8 * 0);
 2301              		.loc 9 127 0
 2302 0676 BB5D     		ldrb	r3, [r7, r6]	@ zero_extendqisi2
 128:../Libraries/ROSSerial/rosserial_msgs/RequestParam.h ****       u_st_ints.base |= ((uint32_t) (*(inbuffer + offset + 1))) << (8 * 1);
 2303              		.loc 9 128 0
 2304 0678 711C     		adds	r1, r6, #1
 2305 067a 795C     		ldrb	r1, [r7, r1]	@ zero_extendqisi2
 2306 067c 43EA0123 		orr	r3, r3, r1, lsl #8
 129:../Libraries/ROSSerial/rosserial_msgs/RequestParam.h ****       u_st_ints.base |= ((uint32_t) (*(inbuffer + offset + 2))) << (8 * 2);
 2307              		.loc 9 129 0
 2308 0680 B11C     		adds	r1, r6, #2
 2309 0682 795C     		ldrb	r1, [r7, r1]	@ zero_extendqisi2
 2310 0684 43EA0143 		orr	r3, r3, r1, lsl #16
 130:../Libraries/ROSSerial/rosserial_msgs/RequestParam.h ****       u_st_ints.base |= ((uint32_t) (*(inbuffer + offset + 3))) << (8 * 3);
 2311              		.loc 9 130 0
 2312 0688 F11C     		adds	r1, r6, #3
 2313 068a 795C     		ldrb	r1, [r7, r1]	@ zero_extendqisi2
 2314 068c 43EA0163 		orr	r3, r3, r1, lsl #24
 131:../Libraries/ROSSerial/rosserial_msgs/RequestParam.h ****       this->st_ints = u_st_ints.real;
 2315              		.loc 9 131 0
 2316 0690 C8F80830 		str	r3, [r8, #8]
 132:../Libraries/ROSSerial/rosserial_msgs/RequestParam.h ****       offset += sizeof(this->st_ints);
ARM GAS  /var/folders/l3/4y5292px21b4835bsnjwqc7w009kq1/T//cc8944ZQ.s 			page 66


 2317              		.loc 9 132 0
 2318 0694 0436     		adds	r6, r6, #4
 2319              	.LVL284:
 133:../Libraries/ROSSerial/rosserial_msgs/RequestParam.h ****         memcpy( &(this->ints[i]), &(this->st_ints), sizeof(int32_t));
 2320              		.loc 9 133 0
 2321 0696 D8F80C10 		ldr	r1, [r8, #12]
 2322 069a 41F82230 		str	r3, [r1, r2, lsl #2]	@ unaligned
 2323              	.LBE364:
 121:../Libraries/ROSSerial/rosserial_msgs/RequestParam.h ****       union {
 2324              		.loc 9 121 0
 2325 069e 0132     		adds	r2, r2, #1
 2326              	.LVL285:
 2327 06a0 D2B2     		uxtb	r2, r2
 2328              	.LVL286:
 2329 06a2 E4E7     		b	.L106
 2330              	.LVL287:
 2331              	.L142:
 2332              	.LBE365:
 118:../Libraries/ROSSerial/rosserial_msgs/RequestParam.h ****       offset += 3;
 2333              		.loc 9 118 0
 2334 06a4 B100     		lsls	r1, r6, #2
 2335              	.LVL288:
 2336 06a6 D8F80C00 		ldr	r0, [r8, #12]
 2337 06aa FFF7FEFF 		bl	realloc
 2338              	.LVL289:
 2339 06ae C8F80C00 		str	r0, [r8, #12]
 2340 06b2 D8E7     		b	.L104
 2341              	.LVL290:
 2342              	.L105:
 134:../Libraries/ROSSerial/rosserial_msgs/RequestParam.h ****       }
 135:../Libraries/ROSSerial/rosserial_msgs/RequestParam.h ****       uint8_t floats_lengthT = *(inbuffer + offset++);
 2343              		.loc 9 135 0
 2344 06b4 17F80690 		ldrb	r9, [r7, r6]	@ zero_extendqisi2
 2345              	.LVL291:
 136:../Libraries/ROSSerial/rosserial_msgs/RequestParam.h ****       if(floats_lengthT > floats_length)
 2346              		.loc 9 136 0
 2347 06b8 98F81030 		ldrb	r3, [r8, #16]	@ zero_extendqisi2
 2348 06bc 9945     		cmp	r9, r3
 2349 06be 1ED8     		bhi	.L143
 2350              	.LVL292:
 2351              	.L107:
 137:../Libraries/ROSSerial/rosserial_msgs/RequestParam.h ****         this->floats = (float*)realloc(this->floats, floats_lengthT * sizeof(float));
 138:../Libraries/ROSSerial/rosserial_msgs/RequestParam.h ****       offset += 3;
 2352              		.loc 9 138 0
 2353 06c0 0436     		adds	r6, r6, #4
 2354              	.LVL293:
 139:../Libraries/ROSSerial/rosserial_msgs/RequestParam.h ****       floats_length = floats_lengthT;
 2355              		.loc 9 139 0
 2356 06c2 88F81090 		strb	r9, [r8, #16]
 2357              	.LVL294:
 2358              	.LBB366:
 140:../Libraries/ROSSerial/rosserial_msgs/RequestParam.h ****       for( uint8_t i = 0; i < floats_length; i++){
 2359              		.loc 9 140 0
 2360 06c6 0022     		movs	r2, #0
 2361              	.LVL295:
 2362              	.L109:
 2363 06c8 98F81030 		ldrb	r3, [r8, #16]	@ zero_extendqisi2
ARM GAS  /var/folders/l3/4y5292px21b4835bsnjwqc7w009kq1/T//cc8944ZQ.s 			page 67


 2364 06cc 9342     		cmp	r3, r2
 2365 06ce 1FD9     		bls	.L108
 2366              	.LBB367:
 141:../Libraries/ROSSerial/rosserial_msgs/RequestParam.h ****       union {
 142:../Libraries/ROSSerial/rosserial_msgs/RequestParam.h ****         float real;
 143:../Libraries/ROSSerial/rosserial_msgs/RequestParam.h ****         uint32_t base;
 144:../Libraries/ROSSerial/rosserial_msgs/RequestParam.h ****       } u_st_floats;
 145:../Libraries/ROSSerial/rosserial_msgs/RequestParam.h ****       u_st_floats.base = 0;
 146:../Libraries/ROSSerial/rosserial_msgs/RequestParam.h ****       u_st_floats.base |= ((uint32_t) (*(inbuffer + offset + 0))) << (8 * 0);
 2367              		.loc 9 146 0
 2368 06d0 BB5D     		ldrb	r3, [r7, r6]	@ zero_extendqisi2
 147:../Libraries/ROSSerial/rosserial_msgs/RequestParam.h ****       u_st_floats.base |= ((uint32_t) (*(inbuffer + offset + 1))) << (8 * 1);
 2369              		.loc 9 147 0
 2370 06d2 711C     		adds	r1, r6, #1
 2371 06d4 795C     		ldrb	r1, [r7, r1]	@ zero_extendqisi2
 2372 06d6 43EA0123 		orr	r3, r3, r1, lsl #8
 148:../Libraries/ROSSerial/rosserial_msgs/RequestParam.h ****       u_st_floats.base |= ((uint32_t) (*(inbuffer + offset + 2))) << (8 * 2);
 2373              		.loc 9 148 0
 2374 06da B11C     		adds	r1, r6, #2
 2375 06dc 795C     		ldrb	r1, [r7, r1]	@ zero_extendqisi2
 2376 06de 43EA0143 		orr	r3, r3, r1, lsl #16
 149:../Libraries/ROSSerial/rosserial_msgs/RequestParam.h ****       u_st_floats.base |= ((uint32_t) (*(inbuffer + offset + 3))) << (8 * 3);
 2377              		.loc 9 149 0
 2378 06e2 F11C     		adds	r1, r6, #3
 2379 06e4 795C     		ldrb	r1, [r7, r1]	@ zero_extendqisi2
 2380 06e6 43EA0163 		orr	r3, r3, r1, lsl #24
 150:../Libraries/ROSSerial/rosserial_msgs/RequestParam.h ****       this->st_floats = u_st_floats.real;
 2381              		.loc 9 150 0
 2382 06ea C8F81430 		str	r3, [r8, #20]	@ float
 151:../Libraries/ROSSerial/rosserial_msgs/RequestParam.h ****       offset += sizeof(this->st_floats);
 2383              		.loc 9 151 0
 2384 06ee 0436     		adds	r6, r6, #4
 2385              	.LVL296:
 152:../Libraries/ROSSerial/rosserial_msgs/RequestParam.h ****         memcpy( &(this->floats[i]), &(this->st_floats), sizeof(float));
 2386              		.loc 9 152 0
 2387 06f0 D8F81810 		ldr	r1, [r8, #24]
 2388 06f4 41F82230 		str	r3, [r1, r2, lsl #2]	@ unaligned
 2389              	.LBE367:
 140:../Libraries/ROSSerial/rosserial_msgs/RequestParam.h ****       union {
 2390              		.loc 9 140 0
 2391 06f8 0132     		adds	r2, r2, #1
 2392              	.LVL297:
 2393 06fa D2B2     		uxtb	r2, r2
 2394              	.LVL298:
 2395 06fc E4E7     		b	.L109
 2396              	.LVL299:
 2397              	.L143:
 2398              	.LBE366:
 137:../Libraries/ROSSerial/rosserial_msgs/RequestParam.h ****       offset += 3;
 2399              		.loc 9 137 0
 2400 06fe 4FEA8901 		lsl	r1, r9, #2
 2401 0702 D8F81800 		ldr	r0, [r8, #24]
 2402 0706 FFF7FEFF 		bl	realloc
 2403              	.LVL300:
 2404 070a C8F81800 		str	r0, [r8, #24]
 2405 070e D7E7     		b	.L107
 2406              	.LVL301:
ARM GAS  /var/folders/l3/4y5292px21b4835bsnjwqc7w009kq1/T//cc8944ZQ.s 			page 68


 2407              	.L108:
 153:../Libraries/ROSSerial/rosserial_msgs/RequestParam.h ****       }
 154:../Libraries/ROSSerial/rosserial_msgs/RequestParam.h ****       uint8_t strings_lengthT = *(inbuffer + offset++);
 2408              		.loc 9 154 0
 2409 0710 17F80690 		ldrb	r9, [r7, r6]	@ zero_extendqisi2
 2410              	.LVL302:
 155:../Libraries/ROSSerial/rosserial_msgs/RequestParam.h ****       if(strings_lengthT > strings_length)
 2411              		.loc 9 155 0
 2412 0714 98F81C30 		ldrb	r3, [r8, #28]	@ zero_extendqisi2
 2413 0718 9945     		cmp	r9, r3
 2414 071a 05D8     		bhi	.L144
 2415              	.LVL303:
 2416              	.L110:
 156:../Libraries/ROSSerial/rosserial_msgs/RequestParam.h ****         this->strings = (char**)realloc(this->strings, strings_lengthT * sizeof(char*));
 157:../Libraries/ROSSerial/rosserial_msgs/RequestParam.h ****       offset += 3;
 2417              		.loc 9 157 0
 2418 071c 321D     		adds	r2, r6, #4
 2419              	.LVL304:
 158:../Libraries/ROSSerial/rosserial_msgs/RequestParam.h ****       strings_length = strings_lengthT;
 2420              		.loc 9 158 0
 2421 071e 88F81C90 		strb	r9, [r8, #28]
 2422              	.LVL305:
 2423              	.LBB368:
 159:../Libraries/ROSSerial/rosserial_msgs/RequestParam.h ****       for( uint8_t i = 0; i < strings_length; i++){
 2424              		.loc 9 159 0
 2425 0722 4FF0000C 		mov	ip, #0
 2426 0726 17E0     		b	.L114
 2427              	.LVL306:
 2428              	.L144:
 2429              	.LBE368:
 156:../Libraries/ROSSerial/rosserial_msgs/RequestParam.h ****         this->strings = (char**)realloc(this->strings, strings_lengthT * sizeof(char*));
 2430              		.loc 9 156 0
 2431 0728 4FEA8901 		lsl	r1, r9, #2
 2432 072c D8F82400 		ldr	r0, [r8, #36]
 2433 0730 FFF7FEFF 		bl	realloc
 2434              	.LVL307:
 2435 0734 C8F82400 		str	r0, [r8, #36]
 2436 0738 F0E7     		b	.L110
 2437              	.LVL308:
 2438              	.L112:
 2439              	.LBB372:
 2440              	.LBB369:
 160:../Libraries/ROSSerial/rosserial_msgs/RequestParam.h ****       uint32_t length_st_strings;
 161:../Libraries/ROSSerial/rosserial_msgs/RequestParam.h ****       memcpy(&length_st_strings, (inbuffer + offset), sizeof(uint32_t));
 162:../Libraries/ROSSerial/rosserial_msgs/RequestParam.h ****       offset += 4;
 163:../Libraries/ROSSerial/rosserial_msgs/RequestParam.h ****       for(unsigned int k= offset; k< offset+length_st_strings; ++k){
 164:../Libraries/ROSSerial/rosserial_msgs/RequestParam.h ****           inbuffer[k-1]=inbuffer[k];
 165:../Libraries/ROSSerial/rosserial_msgs/RequestParam.h ****       }
 166:../Libraries/ROSSerial/rosserial_msgs/RequestParam.h ****       inbuffer[offset+length_st_strings-1]=0;
 2441              		.loc 9 166 0
 2442 073a 531E     		subs	r3, r2, #1
 2443              	.LVL309:
 2444 073c 0021     		movs	r1, #0
 2445 073e F954     		strb	r1, [r7, r3]
 167:../Libraries/ROSSerial/rosserial_msgs/RequestParam.h ****       this->st_strings = (char *)(inbuffer + offset-1);
 2446              		.loc 9 167 0
 2447 0740 731E     		subs	r3, r6, #1
ARM GAS  /var/folders/l3/4y5292px21b4835bsnjwqc7w009kq1/T//cc8944ZQ.s 			page 69


 2448 0742 3B44     		add	r3, r3, r7
 2449 0744 C8F82030 		str	r3, [r8, #32]
 2450              	.LVL310:
 168:../Libraries/ROSSerial/rosserial_msgs/RequestParam.h ****       offset += length_st_strings;
 169:../Libraries/ROSSerial/rosserial_msgs/RequestParam.h ****         memcpy( &(this->strings[i]), &(this->st_strings), sizeof(char*));
 2451              		.loc 9 169 0
 2452 0748 D8F82410 		ldr	r1, [r8, #36]
 2453 074c 41F82C30 		str	r3, [r1, ip, lsl #2]	@ unaligned
 2454              	.LVL311:
 2455              	.LBE369:
 159:../Libraries/ROSSerial/rosserial_msgs/RequestParam.h ****       uint32_t length_st_strings;
 2456              		.loc 9 159 0
 2457 0750 0CF1010C 		add	ip, ip, #1
 2458              	.LVL312:
 2459 0754 5FFA8CFC 		uxtb	ip, ip
 2460              	.LVL313:
 2461              	.L114:
 2462 0758 98F81C30 		ldrb	r3, [r8, #28]	@ zero_extendqisi2
 2463 075c 6345     		cmp	r3, ip
 2464 075e 0AD9     		bls	.L111
 2465              	.LBB371:
 161:../Libraries/ROSSerial/rosserial_msgs/RequestParam.h ****       offset += 4;
 2466              		.loc 9 161 0
 2467 0760 B858     		ldr	r0, [r7, r2]	@ unaligned
 2468              	.LVL314:
 162:../Libraries/ROSSerial/rosserial_msgs/RequestParam.h ****       for(unsigned int k= offset; k< offset+length_st_strings; ++k){
 2469              		.loc 9 162 0
 2470 0762 161D     		adds	r6, r2, #4
 2471              	.LVL315:
 2472              	.LBB370:
 163:../Libraries/ROSSerial/rosserial_msgs/RequestParam.h ****           inbuffer[k-1]=inbuffer[k];
 2473              		.loc 9 163 0
 2474 0764 3346     		mov	r3, r6
 2475              	.LVL316:
 2476              	.L113:
 2477 0766 8219     		adds	r2, r0, r6
 2478 0768 9A42     		cmp	r2, r3
 2479 076a E6D9     		bls	.L112
 164:../Libraries/ROSSerial/rosserial_msgs/RequestParam.h ****       }
 2480              		.loc 9 164 0
 2481 076c 5A1E     		subs	r2, r3, #1
 2482 076e F95C     		ldrb	r1, [r7, r3]	@ zero_extendqisi2
 2483 0770 B954     		strb	r1, [r7, r2]
 163:../Libraries/ROSSerial/rosserial_msgs/RequestParam.h ****           inbuffer[k-1]=inbuffer[k];
 2484              		.loc 9 163 0
 2485 0772 0133     		adds	r3, r3, #1
 2486              	.LVL317:
 2487 0774 F7E7     		b	.L113
 2488              	.LVL318:
 2489              	.L111:
 2490              	.LBE370:
 2491              	.LBE371:
 2492              	.LBE372:
 2493              	.LBE362:
 2494              	.LBE361:
 344:../Libraries/ROSSerial/ros/node_handle.h ****           }
 2495              		.loc 5 344 0
ARM GAS  /var/folders/l3/4y5292px21b4835bsnjwqc7w009kq1/T//cc8944ZQ.s 			page 70


 2496 0776 0123     		movs	r3, #1
 2497 0778 84F86434 		strb	r3, [r4, #1124]
 2498 077c 7DE4     		b	.L57
 2499              	.LVL319:
 2500              	.L139:
 348:../Libraries/ROSSerial/ros/node_handle.h ****           }
 2501              		.loc 5 348 0
 2502 077e 0023     		movs	r3, #0
 2503 0780 84F85434 		strb	r3, [r4, #1108]
 2504 0784 79E4     		b	.L57
 2505              	.LVL320:
 2506              	.L127:
 2507              	.LBE251:
 2508              	.LBB373:
 2509              	.LBB374:
 2510              	.LBB375:
 2511              	.LBB376:
  14:../Libraries/ROSSerial/std_msgs/Time.h ****   {
 2512              		.loc 1 14 0
 2513 0786 4E4B     		ldr	r3, .L150+12
 2514 0788 0093     		str	r3, [sp]
 2515              	.LVL321:
 2516              	.LBB377:
 2517              	.LBB378:
 2518              	.LBB379:
 2519              		.loc 7 51 0
 2520 078a 0026     		movs	r6, #0
 2521 078c 0196     		str	r6, [sp, #4]
 2522 078e 0296     		str	r6, [sp, #8]
 2523              	.LVL322:
 2524              	.LBE379:
 2525              	.LBE378:
 2526              	.LBE377:
 2527              	.LBE376:
 2528              	.LBE375:
 2529              	.LBB380:
 2530              	.LBB381:
 531:../Libraries/ROSSerial/ros/node_handle.h **** 
 2531              		.loc 5 531 0
 2532 0790 1B68     		ldr	r3, [r3]
 2533 0792 04F21F21 		addw	r1, r4, #543
 2534 0796 6846     		mov	r0, sp
 2535 0798 9847     		blx	r3
 2536              	.LVL323:
 534:../Libraries/ROSSerial/ros/node_handle.h ****     message_out[1] = PROTOCOL_VER;
 2537              		.loc 5 534 0
 2538 079a FF23     		movs	r3, #255
 2539 079c 84F81832 		strb	r3, [r4, #536]
 535:../Libraries/ROSSerial/ros/node_handle.h ****     message_out[2] = (uint8_t)((uint16_t)l & 255);
 2540              		.loc 5 535 0
 2541 07a0 FE23     		movs	r3, #254
 2542 07a2 84F81932 		strb	r3, [r4, #537]
 536:../Libraries/ROSSerial/ros/node_handle.h ****     message_out[3] = (uint8_t)((uint16_t)l >> 8);
 2543              		.loc 5 536 0
 2544 07a6 C3B2     		uxtb	r3, r0
 2545 07a8 84F81A32 		strb	r3, [r4, #538]
 537:../Libraries/ROSSerial/ros/node_handle.h ****     message_out[4] = 255 - ((message_out[2] + message_out[3]) % 256);
ARM GAS  /var/folders/l3/4y5292px21b4835bsnjwqc7w009kq1/T//cc8944ZQ.s 			page 71


 2546              		.loc 5 537 0
 2547 07ac C0F30722 		ubfx	r2, r0, #8, #8
 2548 07b0 84F81B22 		strb	r2, [r4, #539]
 538:../Libraries/ROSSerial/ros/node_handle.h ****     message_out[5] = (uint8_t)((int16_t)id & 255);
 2549              		.loc 5 538 0
 2550 07b4 1344     		add	r3, r3, r2
 2551 07b6 DBB2     		uxtb	r3, r3
 2552 07b8 DB43     		mvns	r3, r3
 2553 07ba 84F81C32 		strb	r3, [r4, #540]
 539:../Libraries/ROSSerial/ros/node_handle.h ****     message_out[6] = (uint8_t)((int16_t)id >> 8);
 2554              		.loc 5 539 0
 2555 07be 0A23     		movs	r3, #10
 2556 07c0 84F81D32 		strb	r3, [r4, #541]
 540:../Libraries/ROSSerial/ros/node_handle.h **** 
 2557              		.loc 5 540 0
 2558 07c4 84F81E62 		strb	r6, [r4, #542]
 2559              	.LVL324:
 2560              	.LBB382:
 544:../Libraries/ROSSerial/ros/node_handle.h ****       chk += message_out[i];
 2561              		.loc 5 544 0
 2562 07c8 0522     		movs	r2, #5
 2563              	.LBE382:
 543:../Libraries/ROSSerial/ros/node_handle.h ****     for (int i = 5; i < l + 7; i++)
 2564              		.loc 5 543 0
 2565 07ca 3346     		mov	r3, r6
 2566 07cc 04E0     		b	.L117
 2567              	.LVL325:
 2568              	.L145:
 2569              	.LBB383:
 545:../Libraries/ROSSerial/ros/node_handle.h ****     l += 7;
 2570              		.loc 5 545 0
 2571 07ce A118     		adds	r1, r4, r2
 2572 07d0 91F81812 		ldrb	r1, [r1, #536]	@ zero_extendqisi2
 2573 07d4 0B44     		add	r3, r3, r1
 2574              	.LVL326:
 544:../Libraries/ROSSerial/ros/node_handle.h ****       chk += message_out[i];
 2575              		.loc 5 544 0
 2576 07d6 0132     		adds	r2, r2, #1
 2577              	.LVL327:
 2578              	.L117:
 2579 07d8 C11D     		adds	r1, r0, #7
 2580 07da 9142     		cmp	r1, r2
 2581 07dc F7DC     		bgt	.L145
 2582              	.LVL328:
 2583              	.LBE383:
 547:../Libraries/ROSSerial/ros/node_handle.h ****     //printf("Sending message - %s\n",message_out);
 2584              		.loc 5 547 0
 2585 07de 5A42     		rsbs	r2, r3, #0
 2586              	.LVL329:
 2587 07e0 DBB2     		uxtb	r3, r3
 2588              	.LVL330:
 2589 07e2 D2B2     		uxtb	r2, r2
 2590 07e4 58BF     		it	pl
 2591 07e6 5342     		rsbpl	r3, r2, #0
 2592 07e8 00F10802 		add	r2, r0, #8
 2593              	.LVL331:
 2594 07ec DB43     		mvns	r3, r3
ARM GAS  /var/folders/l3/4y5292px21b4835bsnjwqc7w009kq1/T//cc8944ZQ.s 			page 72


 2595 07ee 2144     		add	r1, r1, r4
 2596 07f0 81F81832 		strb	r3, [r1, #536]
 549:../Libraries/ROSSerial/ros/node_handle.h ****     {
 2597              		.loc 5 549 0
 2598 07f4 B2F5007F 		cmp	r2, #512
 2599 07f8 0BDC     		bgt	.L118
 2600              	.LVL332:
 2601              	.LBB384:
 2602              	.LBB385:
  87:../Libraries/ROSSerial/stm32hardware.h **** 	}
 2603              		.loc 6 87 0
 2604 07fa 92B2     		uxth	r2, r2
 2605              	.LVL333:
 2606 07fc 04F50671 		add	r1, r4, #536
 2607              	.LVL334:
 2608 0800 0020     		movs	r0, #0
 2609              	.LVL335:
 2610 0802 FFF7FEFF 		bl	comSendBuf
 2611              	.LVL336:
 2612              	.L119:
 2613              	.LBE385:
 2614              	.LBE384:
 2615              	.LBE381:
 2616              	.LBE380:
 2617              	.LBB402:
 2618              	.LBB403:
 2619              		.loc 6 99 0
 2620 0806 FFF7FEFF 		bl	xTaskGetTickCount
 2621              	.LVL337:
 2622              	.LBE403:
 2623              	.LBE402:
 384:../Libraries/ROSSerial/ros/node_handle.h ****   }
 2624              		.loc 5 384 0
 2625 080a A060     		str	r0, [r4, #8]
 2626              	.LVL338:
 2627              	.LBE374:
 2628              	.LBE373:
 363:../Libraries/ROSSerial/ros/node_handle.h ****     }
 2629              		.loc 5 363 0
 2630 080c C4F85854 		str	r5, [r4, #1112]
 2631 0810 05E4     		b	.L124
 2632              	.LVL339:
 2633              	.L118:
 2634              	.LBB406:
 2635              	.LBB405:
 2636              	.LBB404:
 2637              	.LBB401:
 2638              	.LBB386:
 2639              	.LBB387:
 2640              	.LBB388:
 2641              	.LBB389:
 2642              	.LBB390:
  13:../Libraries/ROSSerial/rosserial_msgs/Log.h ****   {
 2643              		.loc 3 13 0
 2644 0812 2C4B     		ldr	r3, .L150+16
 2645 0814 0393     		str	r3, [sp, #12]
 2646              	.LVL340:
ARM GAS  /var/folders/l3/4y5292px21b4835bsnjwqc7w009kq1/T//cc8944ZQ.s 			page 73


 2647              	.LBE390:
 2648              	.LBE389:
 569:../Libraries/ROSSerial/ros/node_handle.h ****     l.msg = (char*)msg;
 2649              		.loc 5 569 0
 2650 0816 0322     		movs	r2, #3
 2651              	.LVL341:
 2652 0818 8DF81020 		strb	r2, [sp, #16]
 570:../Libraries/ROSSerial/ros/node_handle.h ****     publish1(rosserial_msgs::TopicInfo::ID_LOG, &l);
 2653              		.loc 5 570 0
 2654 081c 2A4A     		ldr	r2, .L150+20
 2655 081e 0592     		str	r2, [sp, #20]
 2656              	.LVL342:
 2657              	.LBB391:
 2658              	.LBB392:
 531:../Libraries/ROSSerial/ros/node_handle.h **** 
 2659              		.loc 5 531 0
 2660 0820 1B68     		ldr	r3, [r3]
 2661 0822 04F21F21 		addw	r1, r4, #543
 2662 0826 03A8     		add	r0, sp, #12
 2663              	.LVL343:
 2664 0828 9847     		blx	r3
 2665              	.LVL344:
 534:../Libraries/ROSSerial/ros/node_handle.h ****     message_out[1] = PROTOCOL_VER;
 2666              		.loc 5 534 0
 2667 082a FF23     		movs	r3, #255
 2668 082c 84F81832 		strb	r3, [r4, #536]
 535:../Libraries/ROSSerial/ros/node_handle.h ****     message_out[2] = (uint8_t)((uint16_t)l & 255);
 2669              		.loc 5 535 0
 2670 0830 FE23     		movs	r3, #254
 2671 0832 84F81932 		strb	r3, [r4, #537]
 536:../Libraries/ROSSerial/ros/node_handle.h ****     message_out[3] = (uint8_t)((uint16_t)l >> 8);
 2672              		.loc 5 536 0
 2673 0836 C3B2     		uxtb	r3, r0
 2674 0838 84F81A32 		strb	r3, [r4, #538]
 537:../Libraries/ROSSerial/ros/node_handle.h ****     message_out[4] = 255 - ((message_out[2] + message_out[3]) % 256);
 2675              		.loc 5 537 0
 2676 083c C0F30722 		ubfx	r2, r0, #8, #8
 2677 0840 84F81B22 		strb	r2, [r4, #539]
 538:../Libraries/ROSSerial/ros/node_handle.h ****     message_out[5] = (uint8_t)((int16_t)id & 255);
 2678              		.loc 5 538 0
 2679 0844 1344     		add	r3, r3, r2
 2680 0846 DBB2     		uxtb	r3, r3
 2681 0848 DB43     		mvns	r3, r3
 2682 084a 84F81C32 		strb	r3, [r4, #540]
 539:../Libraries/ROSSerial/ros/node_handle.h ****     message_out[6] = (uint8_t)((int16_t)id >> 8);
 2683              		.loc 5 539 0
 2684 084e 0723     		movs	r3, #7
 2685 0850 84F81D32 		strb	r3, [r4, #541]
 540:../Libraries/ROSSerial/ros/node_handle.h **** 
 2686              		.loc 5 540 0
 2687 0854 0023     		movs	r3, #0
 2688 0856 84F81E32 		strb	r3, [r4, #542]
 2689              	.LVL345:
 2690              	.LBB393:
 544:../Libraries/ROSSerial/ros/node_handle.h ****       chk += message_out[i];
 2691              		.loc 5 544 0
 2692 085a 0526     		movs	r6, #5
ARM GAS  /var/folders/l3/4y5292px21b4835bsnjwqc7w009kq1/T//cc8944ZQ.s 			page 74


 2693              	.LVL346:
 2694              	.L121:
 2695 085c C11D     		adds	r1, r0, #7
 2696 085e B142     		cmp	r1, r6
 2697 0860 05DD     		ble	.L120
 545:../Libraries/ROSSerial/ros/node_handle.h ****     l += 7;
 2698              		.loc 5 545 0
 2699 0862 A219     		adds	r2, r4, r6
 2700 0864 92F81822 		ldrb	r2, [r2, #536]	@ zero_extendqisi2
 2701 0868 1344     		add	r3, r3, r2
 2702              	.LVL347:
 544:../Libraries/ROSSerial/ros/node_handle.h ****       chk += message_out[i];
 2703              		.loc 5 544 0
 2704 086a 0136     		adds	r6, r6, #1
 2705              	.LVL348:
 2706 086c F6E7     		b	.L121
 2707              	.L120:
 2708              	.LVL349:
 2709              	.LBE393:
 547:../Libraries/ROSSerial/ros/node_handle.h ****     //printf("Sending message - %s\n",message_out);
 2710              		.loc 5 547 0
 2711 086e 5A42     		rsbs	r2, r3, #0
 2712 0870 DBB2     		uxtb	r3, r3
 2713              	.LVL350:
 2714 0872 D2B2     		uxtb	r2, r2
 2715 0874 58BF     		it	pl
 2716 0876 5342     		rsbpl	r3, r2, #0
 2717 0878 00F10802 		add	r2, r0, #8
 2718              	.LVL351:
 2719 087c DB43     		mvns	r3, r3
 2720 087e 2144     		add	r1, r1, r4
 2721 0880 81F81832 		strb	r3, [r1, #536]
 549:../Libraries/ROSSerial/ros/node_handle.h ****     {
 2722              		.loc 5 549 0
 2723 0884 B2F5007F 		cmp	r2, #512
 2724 0888 06DC     		bgt	.L122
 2725              	.LVL352:
 2726              	.LBB394:
 2727              	.LBB395:
  87:../Libraries/ROSSerial/stm32hardware.h **** 	}
 2728              		.loc 6 87 0
 2729 088a 92B2     		uxth	r2, r2
 2730              	.LVL353:
 2731 088c 04F50671 		add	r1, r4, #536
 2732              	.LVL354:
 2733 0890 0020     		movs	r0, #0
 2734              	.LVL355:
 2735 0892 FFF7FEFF 		bl	comSendBuf
 2736              	.LVL356:
 2737 0896 B6E7     		b	.L119
 2738              	.LVL357:
 2739              	.L122:
 2740              	.LBE395:
 2741              	.LBE394:
 2742              	.LBB396:
 2743              	.LBB397:
 2744              	.LBB398:
ARM GAS  /var/folders/l3/4y5292px21b4835bsnjwqc7w009kq1/T//cc8944ZQ.s 			page 75


 2745              	.LBB399:
 2746              	.LBB400:
  13:../Libraries/ROSSerial/rosserial_msgs/Log.h ****   {
 2747              		.loc 3 13 0
 2748 0898 0A4B     		ldr	r3, .L150+16
 2749 089a 0693     		str	r3, [sp, #24]
 2750              	.LVL358:
 2751              	.LBE400:
 2752              	.LBE399:
 569:../Libraries/ROSSerial/ros/node_handle.h ****     l.msg = (char*)msg;
 2753              		.loc 5 569 0
 2754 089c 0323     		movs	r3, #3
 2755 089e 8DF81C30 		strb	r3, [sp, #28]
 570:../Libraries/ROSSerial/ros/node_handle.h ****     publish1(rosserial_msgs::TopicInfo::ID_LOG, &l);
 2756              		.loc 5 570 0
 2757 08a2 094B     		ldr	r3, .L150+20
 2758 08a4 0893     		str	r3, [sp, #32]
 2759              		.loc 5 571 0
 2760 08a6 06AA     		add	r2, sp, #24
 2761              	.LVL359:
 2762 08a8 0721     		movs	r1, #7
 2763 08aa 2046     		mov	r0, r4
 2764              	.LVL360:
 2765 08ac FFF7FEFF 		bl	_ZN3ros11NodeHandle_I13STM32HardwareLi5ELi5ELi512ELi512EE8publish1EiPKNS_3MsgE
 2766              	.LVL361:
 2767 08b0 A9E7     		b	.L119
 2768              	.L151:
 2769 08b2 00BF     		.align	2
 2770              	.L150:
 2771 08b4 D34D6210 		.word	274877907
 2772 08b8 40420F00 		.word	1000000
 2773 08bc 00CA9A3B 		.word	1000000000
 2774 08c0 08000000 		.word	_ZTVN8std_msgs4TimeE+8
 2775 08c4 08000000 		.word	_ZTVN14rosserial_msgs3LogE+8
 2776 08c8 00000000 		.word	.LC9
 2777              	.LBE398:
 2778              	.LBE397:
 2779              	.LBE396:
 2780              	.LBE392:
 2781              	.LBE391:
 2782              	.LBE388:
 2783              	.LBE387:
 2784              	.LBE386:
 2785              	.LBE401:
 2786              	.LBE404:
 2787              	.LBE405:
 2788              	.LBE406:
 2789              	.LBE407:
 2790              	.LBE408:
 2791              		.cfi_endproc
 2792              	.LFE464:
 2793              		.fnend
 2795              		.weak	_ZTVN8std_msgs4TimeE
 2796              		.section	.rodata._ZTVN8std_msgs4TimeE,"aG",%progbits,_ZTVN8std_msgs4TimeE,comdat
 2797              		.align	2
 2800              	_ZTVN8std_msgs4TimeE:
 2801 0000 00000000 		.word	0
ARM GAS  /var/folders/l3/4y5292px21b4835bsnjwqc7w009kq1/T//cc8944ZQ.s 			page 76


 2802 0004 00000000 		.word	0
 2803 0008 00000000 		.word	_ZNK8std_msgs4Time9serializeEPh
 2804 000c 00000000 		.word	_ZN8std_msgs4Time11deserializeEPh
 2805 0010 00000000 		.word	_ZN8std_msgs4Time7getTypeEv
 2806 0014 00000000 		.word	_ZN8std_msgs4Time6getMD5Ev
 2807              		.weak	_ZTVN14rosserial_msgs9TopicInfoE
 2808              		.section	.rodata._ZTVN14rosserial_msgs9TopicInfoE,"aG",%progbits,_ZTVN14rosserial_msgs9TopicInfoE,
 2809              		.align	2
 2812              	_ZTVN14rosserial_msgs9TopicInfoE:
 2813 0000 00000000 		.word	0
 2814 0004 00000000 		.word	0
 2815 0008 00000000 		.word	_ZNK14rosserial_msgs9TopicInfo9serializeEPh
 2816 000c 00000000 		.word	_ZN14rosserial_msgs9TopicInfo11deserializeEPh
 2817 0010 00000000 		.word	_ZN14rosserial_msgs9TopicInfo7getTypeEv
 2818 0014 00000000 		.word	_ZN14rosserial_msgs9TopicInfo6getMD5Ev
 2819              		.weak	_ZTVN14rosserial_msgs3LogE
 2820              		.section	.rodata._ZTVN14rosserial_msgs3LogE,"aG",%progbits,_ZTVN14rosserial_msgs3LogE,comdat
 2821              		.align	2
 2824              	_ZTVN14rosserial_msgs3LogE:
 2825 0000 00000000 		.word	0
 2826 0004 00000000 		.word	0
 2827 0008 00000000 		.word	_ZNK14rosserial_msgs3Log9serializeEPh
 2828 000c 00000000 		.word	_ZN14rosserial_msgs3Log11deserializeEPh
 2829 0010 00000000 		.word	_ZN14rosserial_msgs3Log7getTypeEv
 2830 0014 00000000 		.word	_ZN14rosserial_msgs3Log6getMD5Ev
 2831              		.section	.rodata
 2832              		.align	2
 2833              		.set	.LANCHOR1,. + 0
 2834              	.LC8:
 2835 0000 00000000 		.word	.LC0
 2836 0004 00000000 		.word	_Z19ROS_SpinTaskHandlerPKv
 2837 0008 FDFF     		.short	-3
 2838 000a 0000     		.space	2
 2839 000c 00000000 		.word	0
 2840 0010 80000000 		.word	128
 2841              		.section	.bss._ZL3nh_,"aw",%nobits
 2842              		.align	2
 2843              		.set	.LANCHOR0,. + 0
 2846              	_ZL3nh_:
 2847 0000 00000000 		.space	4
 2848              		.section	.rodata._ZN14rosserial_msgs3Log6getMD5Ev.str1.4,"aMS",%progbits,1
 2849              		.align	2
 2850              	.LC7:
 2851 0000 31316162 		.ascii	"11abd731c25933261cd6183bd12d6295\000"
 2851      64373331 
 2851      63323539 
 2851      33333236 
 2851      31636436 
 2852              		.section	.rodata._ZN14rosserial_msgs3Log7getTypeEv.str1.4,"aMS",%progbits,1
 2853              		.align	2
 2854              	.LC6:
 2855 0000 726F7373 		.ascii	"rosserial_msgs/Log\000"
 2855      65726961 
 2855      6C5F6D73 
 2855      67732F4C 
 2855      6F6700
 2856              		.section	.rodata._ZN14rosserial_msgs9TopicInfo6getMD5Ev.str1.4,"aMS",%progbits,1
ARM GAS  /var/folders/l3/4y5292px21b4835bsnjwqc7w009kq1/T//cc8944ZQ.s 			page 77


 2857              		.align	2
 2858              	.LC5:
 2859 0000 30616435 		.ascii	"0ad51f88fc44892f8c10684077646005\000"
 2859      31663838 
 2859      66633434 
 2859      38393266 
 2859      38633130 
 2860              		.section	.rodata._ZN14rosserial_msgs9TopicInfo7getTypeEv.str1.4,"aMS",%progbits,1
 2861              		.align	2
 2862              	.LC4:
 2863 0000 726F7373 		.ascii	"rosserial_msgs/TopicInfo\000"
 2863      65726961 
 2863      6C5F6D73 
 2863      67732F54 
 2863      6F706963 
 2864              		.section	.rodata._ZN3ros11NodeHandle_I13STM32HardwareLi5ELi5ELi512ELi512EE8publish1EiPKNS_3MsgE.st
 2865              		.align	2
 2866              	.LC9:
 2867 0000 4D657373 		.ascii	"Message from device dropped: message larger than bu"
 2867      61676520 
 2867      66726F6D 
 2867      20646576 
 2867      69636520 
 2868 0033 66666572 		.ascii	"ffer.\000"
 2868      2E00
 2869              		.section	.rodata._ZN8std_msgs4Time6getMD5Ev.str1.4,"aMS",%progbits,1
 2870              		.align	2
 2871              	.LC3:
 2872 0000 63643731 		.ascii	"cd7166c74c552c311fbcc2fe5a7bc289\000"
 2872      36366337 
 2872      34633535 
 2872      32633331 
 2872      31666263 
 2873              		.section	.rodata._ZN8std_msgs4Time7getTypeEv.str1.4,"aMS",%progbits,1
 2874              		.align	2
 2875              	.LC2:
 2876 0000 7374645F 		.ascii	"std_msgs/Time\000"
 2876      6D736773 
 2876      2F54696D 
 2876      6500
 2877              		.section	.rodata.str1.4,"aMS",%progbits,1
 2878              		.align	2
 2879              	.LC0:
 2880 0000 524F535F 		.ascii	"ROS_SpinTask\000"
 2880      5370696E 
 2880      5461736B 
 2880      00
 2881              		.text
 2882              	.Letext0:
 2883              		.file 10 "/usr/local/Cellar/gcc-arm-none-eabi/20180627/arm-none-eabi/include/machine/_default_type
 2884              		.file 11 "/usr/local/Cellar/gcc-arm-none-eabi/20180627/lib/gcc/arm-none-eabi/7.3.1/include/stddef.
 2885              		.file 12 "/usr/local/Cellar/gcc-arm-none-eabi/20180627/arm-none-eabi/include/sys/lock.h"
 2886              		.file 13 "/usr/local/Cellar/gcc-arm-none-eabi/20180627/arm-none-eabi/include/sys/_types.h"
 2887              		.file 14 "/usr/local/Cellar/gcc-arm-none-eabi/20180627/arm-none-eabi/include/sys/reent.h"
 2888              		.file 15 "/usr/local/Cellar/gcc-arm-none-eabi/20180627/arm-none-eabi/include/sys/_stdint.h"
 2889              		.file 16 "../Libraries/CMSIS/CM4/CoreSupport/core_cm4.h"
 2890              		.file 17 "../Libraries/CMSIS/CM4/DeviceSupport/system_at32f4xx.h"
ARM GAS  /var/folders/l3/4y5292px21b4835bsnjwqc7w009kq1/T//cc8944ZQ.s 			page 78


 2891              		.file 18 "Inc/FreeRTOSConfig.h"
 2892              		.file 19 "../Middlewares/FreeRTOS//Source/include/task.h"
 2893              		.file 20 "../Middlewares/FreeRTOS//Source/CMSIS_RTOS/cmsis_os.h"
 2894              		.file 21 "bsp/inc/bsp_uart_fifo.h"
 2895              		.file 22 "/usr/local/Cellar/gcc-arm-none-eabi/20180627/arm-none-eabi/include/c++/7.3.1/cstdlib"
 2896              		.file 23 "/usr/local/Cellar/gcc-arm-none-eabi/20180627/arm-none-eabi/include/c++/7.3.1/cmath"
 2897              		.file 24 "/usr/local/Cellar/gcc-arm-none-eabi/20180627/arm-none-eabi/include/c++/7.3.1/arm-none-ea
 2898              		.file 25 "/usr/local/Cellar/gcc-arm-none-eabi/20180627/arm-none-eabi/include/stdlib.h"
 2899              		.file 26 "/usr/local/Cellar/gcc-arm-none-eabi/20180627/arm-none-eabi/include/c++/7.3.1/stdlib.h"
 2900              		.file 27 "/usr/local/Cellar/gcc-arm-none-eabi/20180627/arm-none-eabi/include/math.h"
 2901              		.file 28 "/usr/local/Cellar/gcc-arm-none-eabi/20180627/arm-none-eabi/include/c++/7.3.1/math.h"
 2902              		.file 29 "<built-in>"
 2903              		.file 30 "../Libraries/ROSSerial/ros/msg.h"
 2904              		.file 31 "../Libraries/ROSSerial/ros/duration.h"
 2905              		.file 32 "../Libraries/ROSSerial/ros.h"
 2906              		.file 33 "/usr/local/Cellar/gcc-arm-none-eabi/20180627/arm-none-eabi/include/string.h"
ARM GAS  /var/folders/l3/4y5292px21b4835bsnjwqc7w009kq1/T//cc8944ZQ.s 			page 79

