ARM GAS  /var/folders/l3/4y5292px21b4835bsnjwqc7w009kq1/T//ccmqzxh6.s 			page 1


   1              		.cpu cortex-m4
   2              		.eabi_attribute 27, 1
   3              		.eabi_attribute 20, 1
   4              		.eabi_attribute 21, 1
   5              		.eabi_attribute 23, 3
   6              		.eabi_attribute 24, 1
   7              		.eabi_attribute 25, 1
   8              		.eabi_attribute 26, 1
   9              		.eabi_attribute 30, 1
  10              		.eabi_attribute 34, 1
  11              		.eabi_attribute 18, 4
  12              		.file	"bsp_delay.c"
  13              		.text
  14              	.Ltext0:
  15              		.cfi_sections	.debug_frame
  16              		.section	.text.Delay_init,"ax",%progbits
  17              		.align	1
  18              		.global	Delay_init
  19              		.syntax unified
  20              		.thumb
  21              		.thumb_func
  22              		.fpu fpv4-sp-d16
  24              	Delay_init:
  25              	.LFB123:
  26              		.file 1 "bsp/src/bsp_delay.c"
   1:bsp/src/bsp_delay.c **** /**
   2:bsp/src/bsp_delay.c **** * bsp_delay.c
   3:bsp/src/bsp_delay.c **** * Contains functions to support delay timers
   4:bsp/src/bsp_delay.c **** **/
   5:bsp/src/bsp_delay.c **** 
   6:bsp/src/bsp_delay.c **** /* Includes ------------------------------------------------------------------*/  
   7:bsp/src/bsp_delay.c **** #include "bsp_delay.h"
   8:bsp/src/bsp_delay.c **** 
   9:bsp/src/bsp_delay.c **** void Delay_init()
  10:bsp/src/bsp_delay.c **** {
  27              		.loc 1 10 0
  28              		.cfi_startproc
  29              		@ args = 0, pretend = 0, frame = 0
  30              		@ frame_needed = 0, uses_anonymous_args = 0
  31 0000 08B5     		push	{r3, lr}
  32              	.LCFI0:
  33              		.cfi_def_cfa_offset 8
  34              		.cfi_offset 3, -8
  35              		.cfi_offset 14, -4
  11:bsp/src/bsp_delay.c ****     /*Config Systick*/
  12:bsp/src/bsp_delay.c ****     SysTick_CLKSourceConfig(SysTick_CLKSource_HCLK_Div8);
  36              		.loc 1 12 0
  37 0002 6FF00400 		mvn	r0, #4
  38 0006 FFF7FEFF 		bl	SysTick_CLKSourceConfig
  39              	.LVL0:
  13:bsp/src/bsp_delay.c ****     fac_us=(float)SystemCoreClock/(192 * 1000000);
  40              		.loc 1 13 0
  41 000a 0B4B     		ldr	r3, .L3
  42 000c D3ED007A 		vldr.32	s15, [r3]	@ int
  43 0010 F8EE677A 		vcvt.f32.u32	s15, s15
  44 0014 DFED096A 		vldr.32	s13, .L3+4
  45 0018 87EEA67A 		vdiv.f32	s14, s15, s13
ARM GAS  /var/folders/l3/4y5292px21b4835bsnjwqc7w009kq1/T//ccmqzxh6.s 			page 2


  46 001c 084B     		ldr	r3, .L3+8
  47 001e 83ED007A 		vstr.32	s14, [r3]
  14:bsp/src/bsp_delay.c ****     fac_ms=fac_us*1000;
  48              		.loc 1 14 0
  49 0022 D3ED007A 		vldr.32	s15, [r3]
  50 0026 9FED077A 		vldr.32	s14, .L3+12
  51 002a 67EE877A 		vmul.f32	s15, s15, s14
  52 002e 064B     		ldr	r3, .L3+16
  53 0030 C3ED007A 		vstr.32	s15, [r3]
  15:bsp/src/bsp_delay.c **** }
  54              		.loc 1 15 0
  55 0034 08BD     		pop	{r3, pc}
  56              	.L4:
  57 0036 00BF     		.align	2
  58              	.L3:
  59 0038 00000000 		.word	SystemCoreClock
  60 003c 001B374D 		.word	1295457024
  61 0040 00000000 		.word	.LANCHOR0
  62 0044 00007A44 		.word	1148846080
  63 0048 00000000 		.word	.LANCHOR1
  64              		.cfi_endproc
  65              	.LFE123:
  67              		.section	.text.Delay_us,"ax",%progbits
  68              		.align	1
  69              		.global	Delay_us
  70              		.syntax unified
  71              		.thumb
  72              		.thumb_func
  73              		.fpu fpv4-sp-d16
  75              	Delay_us:
  76              	.LFB124:
  16:bsp/src/bsp_delay.c **** 
  17:bsp/src/bsp_delay.c **** 
  18:bsp/src/bsp_delay.c **** /**
  19:bsp/src/bsp_delay.c ****   * @brief  Inserts a delay time.
  20:bsp/src/bsp_delay.c ****   * @param  nus: specifies the delay time length, in microsecond.
  21:bsp/src/bsp_delay.c ****   * @retval None
  22:bsp/src/bsp_delay.c ****   */
  23:bsp/src/bsp_delay.c **** void Delay_us(u32 nus)
  24:bsp/src/bsp_delay.c **** {
  77              		.loc 1 24 0
  78              		.cfi_startproc
  79              		@ args = 0, pretend = 0, frame = 0
  80              		@ frame_needed = 0, uses_anonymous_args = 0
  81              		@ link register save eliminated.
  82              	.LVL1:
  25:bsp/src/bsp_delay.c ****     u32 temp;
  26:bsp/src/bsp_delay.c ****     SysTick->LOAD = nus*fac_us;
  83              		.loc 1 26 0
  84 0000 104B     		ldr	r3, .L7
  85 0002 93ED007A 		vldr.32	s14, [r3]
  86 0006 07EE900A 		vmov	s15, r0	@ int
  87 000a F8EE677A 		vcvt.f32.u32	s15, s15
  88 000e 67EE877A 		vmul.f32	s15, s15, s14
  89 0012 FCEEE77A 		vcvt.u32.f32	s15, s15
  90 0016 0C4B     		ldr	r3, .L7+4
  91 0018 C3ED017A 		vstr.32	s15, [r3, #4]	@ int
ARM GAS  /var/folders/l3/4y5292px21b4835bsnjwqc7w009kq1/T//ccmqzxh6.s 			page 3


  27:bsp/src/bsp_delay.c ****     SysTick->VAL = 0x00;
  92              		.loc 1 27 0
  93 001c 0022     		movs	r2, #0
  94 001e 9A60     		str	r2, [r3, #8]
  28:bsp/src/bsp_delay.c ****     SysTick->CTRL |= SysTick_CTRL_ENABLE_Msk ;
  95              		.loc 1 28 0
  96 0020 1A68     		ldr	r2, [r3]
  97 0022 42F00102 		orr	r2, r2, #1
  98 0026 1A60     		str	r2, [r3]
  99              	.L6:
  29:bsp/src/bsp_delay.c ****     do
  30:bsp/src/bsp_delay.c ****     {
  31:bsp/src/bsp_delay.c ****         temp = SysTick->CTRL;
 100              		.loc 1 31 0 discriminator 1
 101 0028 074B     		ldr	r3, .L7+4
 102 002a 1B68     		ldr	r3, [r3]
 103              	.LVL2:
  32:bsp/src/bsp_delay.c ****     }while((temp & 0x01) &&! (temp & (1<<16)));
 104              		.loc 1 32 0 discriminator 1
 105 002c 03F00113 		and	r3, r3, #65537
 106              	.LVL3:
 107 0030 012B     		cmp	r3, #1
 108 0032 F9D0     		beq	.L6
  33:bsp/src/bsp_delay.c **** 
  34:bsp/src/bsp_delay.c ****     SysTick->CTRL &= ~SysTick_CTRL_ENABLE_Msk;
 109              		.loc 1 34 0
 110 0034 044B     		ldr	r3, .L7+4
 111 0036 1A68     		ldr	r2, [r3]
 112 0038 22F00102 		bic	r2, r2, #1
 113 003c 1A60     		str	r2, [r3]
  35:bsp/src/bsp_delay.c ****     SysTick->VAL = 0X00;
 114              		.loc 1 35 0
 115 003e 0022     		movs	r2, #0
 116 0040 9A60     		str	r2, [r3, #8]
  36:bsp/src/bsp_delay.c **** }
 117              		.loc 1 36 0
 118 0042 7047     		bx	lr
 119              	.L8:
 120              		.align	2
 121              	.L7:
 122 0044 00000000 		.word	.LANCHOR0
 123 0048 10E000E0 		.word	-536813552
 124              		.cfi_endproc
 125              	.LFE124:
 127              		.section	.text.Delay_ms,"ax",%progbits
 128              		.align	1
 129              		.global	Delay_ms
 130              		.syntax unified
 131              		.thumb
 132              		.thumb_func
 133              		.fpu fpv4-sp-d16
 135              	Delay_ms:
 136              	.LFB125:
  37:bsp/src/bsp_delay.c **** 
  38:bsp/src/bsp_delay.c **** /**
  39:bsp/src/bsp_delay.c ****   * @brief  Inserts a delay time.
  40:bsp/src/bsp_delay.c ****   * @param  nms: specifies the delay time length, in milliseconds.
ARM GAS  /var/folders/l3/4y5292px21b4835bsnjwqc7w009kq1/T//ccmqzxh6.s 			page 4


  41:bsp/src/bsp_delay.c ****   * @retval None
  42:bsp/src/bsp_delay.c ****   */
  43:bsp/src/bsp_delay.c **** void Delay_ms(u16 nms)
  44:bsp/src/bsp_delay.c **** {
 137              		.loc 1 44 0
 138              		.cfi_startproc
 139              		@ args = 0, pretend = 0, frame = 0
 140              		@ frame_needed = 0, uses_anonymous_args = 0
 141              		@ link register save eliminated.
 142              	.LVL4:
  45:bsp/src/bsp_delay.c ****     u32 temp;
  46:bsp/src/bsp_delay.c ****     while(nms)
 143              		.loc 1 46 0
 144 0000 22E0     		b	.L10
 145              	.L11:
  47:bsp/src/bsp_delay.c ****     {
  48:bsp/src/bsp_delay.c ****         if(nms > STEP_DELAY_MS)
  49:bsp/src/bsp_delay.c ****         {
  50:bsp/src/bsp_delay.c ****             SysTick->LOAD = (u32)STEP_DELAY_MS * fac_ms;
  51:bsp/src/bsp_delay.c ****             nms -= STEP_DELAY_MS;
  52:bsp/src/bsp_delay.c ****         }
  53:bsp/src/bsp_delay.c ****         else
  54:bsp/src/bsp_delay.c ****         {
  55:bsp/src/bsp_delay.c ****             SysTick->LOAD = (u32)nms * fac_ms;
 146              		.loc 1 55 0
 147 0002 1C4B     		ldr	r3, .L16
 148 0004 93ED007A 		vldr.32	s14, [r3]
 149 0008 07EE900A 		vmov	s15, r0	@ int
 150 000c F8EE677A 		vcvt.f32.u32	s15, s15
 151 0010 67EE877A 		vmul.f32	s15, s15, s14
 152 0014 FCEEE77A 		vcvt.u32.f32	s15, s15
 153 0018 174B     		ldr	r3, .L16+4
 154 001a C3ED017A 		vstr.32	s15, [r3, #4]	@ int
 155              	.LVL5:
  56:bsp/src/bsp_delay.c ****             nms = 0;
 156              		.loc 1 56 0
 157 001e 0020     		movs	r0, #0
 158              	.LVL6:
 159              	.L12:
  57:bsp/src/bsp_delay.c ****         }
  58:bsp/src/bsp_delay.c ****         SysTick->VAL = 0x00;
 160              		.loc 1 58 0
 161 0020 154B     		ldr	r3, .L16+4
 162 0022 0022     		movs	r2, #0
 163 0024 9A60     		str	r2, [r3, #8]
  59:bsp/src/bsp_delay.c ****         SysTick->CTRL |= SysTick_CTRL_ENABLE_Msk;
 164              		.loc 1 59 0
 165 0026 1A68     		ldr	r2, [r3]
 166 0028 42F00102 		orr	r2, r2, #1
 167 002c 1A60     		str	r2, [r3]
 168              	.L13:
  60:bsp/src/bsp_delay.c ****         do
  61:bsp/src/bsp_delay.c ****         {
  62:bsp/src/bsp_delay.c ****             temp = SysTick->CTRL;
 169              		.loc 1 62 0 discriminator 1
 170 002e 124B     		ldr	r3, .L16+4
 171 0030 1B68     		ldr	r3, [r3]
ARM GAS  /var/folders/l3/4y5292px21b4835bsnjwqc7w009kq1/T//ccmqzxh6.s 			page 5


 172              	.LVL7:
  63:bsp/src/bsp_delay.c ****         }while( (temp & 0x01) && !(temp & (1<<16)) );
 173              		.loc 1 63 0 discriminator 1
 174 0032 03F00113 		and	r3, r3, #65537
 175              	.LVL8:
 176 0036 012B     		cmp	r3, #1
 177 0038 F9D0     		beq	.L13
  64:bsp/src/bsp_delay.c **** 
  65:bsp/src/bsp_delay.c ****         SysTick->CTRL &= ~SysTick_CTRL_ENABLE_Msk;
 178              		.loc 1 65 0
 179 003a 0F4B     		ldr	r3, .L16+4
 180 003c 1A68     		ldr	r2, [r3]
 181 003e 22F00102 		bic	r2, r2, #1
 182 0042 1A60     		str	r2, [r3]
  66:bsp/src/bsp_delay.c ****         SysTick->VAL = 0X00;
 183              		.loc 1 66 0
 184 0044 0022     		movs	r2, #0
 185 0046 9A60     		str	r2, [r3, #8]
 186              	.L10:
  46:bsp/src/bsp_delay.c ****     {
 187              		.loc 1 46 0
 188 0048 90B1     		cbz	r0, .L15
  48:bsp/src/bsp_delay.c ****         {
 189              		.loc 1 48 0
 190 004a B0F5FA7F 		cmp	r0, #500
 191 004e D8D9     		bls	.L11
  50:bsp/src/bsp_delay.c ****             nms -= STEP_DELAY_MS;
 192              		.loc 1 50 0
 193 0050 084B     		ldr	r3, .L16
 194 0052 D3ED007A 		vldr.32	s15, [r3]
 195 0056 9FED097A 		vldr.32	s14, .L16+8
 196 005a 67EE877A 		vmul.f32	s15, s15, s14
 197 005e FCEEE77A 		vcvt.u32.f32	s15, s15
 198 0062 054B     		ldr	r3, .L16+4
 199 0064 C3ED017A 		vstr.32	s15, [r3, #4]	@ int
  51:bsp/src/bsp_delay.c ****         }
 200              		.loc 1 51 0
 201 0068 A0F5FA70 		sub	r0, r0, #500
 202              	.LVL9:
 203 006c 80B2     		uxth	r0, r0
 204              	.LVL10:
 205 006e D7E7     		b	.L12
 206              	.L15:
  67:bsp/src/bsp_delay.c ****     }
  68:bsp/src/bsp_delay.c **** }
 207              		.loc 1 68 0
 208 0070 7047     		bx	lr
 209              	.L17:
 210 0072 00BF     		.align	2
 211              	.L16:
 212 0074 00000000 		.word	.LANCHOR1
 213 0078 10E000E0 		.word	-536813552
 214 007c 0000FA43 		.word	1140457472
 215              		.cfi_endproc
 216              	.LFE125:
 218              		.section	.text.Delay_sec,"ax",%progbits
 219              		.align	1
ARM GAS  /var/folders/l3/4y5292px21b4835bsnjwqc7w009kq1/T//ccmqzxh6.s 			page 6


 220              		.global	Delay_sec
 221              		.syntax unified
 222              		.thumb
 223              		.thumb_func
 224              		.fpu fpv4-sp-d16
 226              	Delay_sec:
 227              	.LFB126:
  69:bsp/src/bsp_delay.c **** 
  70:bsp/src/bsp_delay.c **** /**
  71:bsp/src/bsp_delay.c ****   * @brief  Inserts a delay time.
  72:bsp/src/bsp_delay.c ****   * @param  sec: specifies the delay time length, in seconds.
  73:bsp/src/bsp_delay.c ****   * @retval None
  74:bsp/src/bsp_delay.c ****   */
  75:bsp/src/bsp_delay.c **** void Delay_sec(u16 sec)
  76:bsp/src/bsp_delay.c **** {
 228              		.loc 1 76 0
 229              		.cfi_startproc
 230              		@ args = 0, pretend = 0, frame = 0
 231              		@ frame_needed = 0, uses_anonymous_args = 0
 232              	.LVL11:
 233 0000 38B5     		push	{r3, r4, r5, lr}
 234              	.LCFI1:
 235              		.cfi_def_cfa_offset 16
 236              		.cfi_offset 3, -16
 237              		.cfi_offset 4, -12
 238              		.cfi_offset 5, -8
 239              		.cfi_offset 14, -4
 240 0002 0546     		mov	r5, r0
 241              	.LVL12:
  77:bsp/src/bsp_delay.c ****     u16 i;
  78:bsp/src/bsp_delay.c ****     for(i=0; i<sec; i++)
 242              		.loc 1 78 0
 243 0004 0024     		movs	r4, #0
 244 0006 09E0     		b	.L19
 245              	.LVL13:
 246              	.L20:
  79:bsp/src/bsp_delay.c ****     {
  80:bsp/src/bsp_delay.c ****         Delay_ms(500);
 247              		.loc 1 80 0 discriminator 3
 248 0008 4FF4FA70 		mov	r0, #500
 249 000c FFF7FEFF 		bl	Delay_ms
 250              	.LVL14:
  81:bsp/src/bsp_delay.c ****         Delay_ms(500);
 251              		.loc 1 81 0 discriminator 3
 252 0010 4FF4FA70 		mov	r0, #500
 253 0014 FFF7FEFF 		bl	Delay_ms
 254              	.LVL15:
  78:bsp/src/bsp_delay.c ****     {
 255              		.loc 1 78 0 discriminator 3
 256 0018 0134     		adds	r4, r4, #1
 257              	.LVL16:
 258 001a A4B2     		uxth	r4, r4
 259              	.LVL17:
 260              	.L19:
  78:bsp/src/bsp_delay.c ****     {
 261              		.loc 1 78 0 is_stmt 0 discriminator 1
 262 001c AC42     		cmp	r4, r5
ARM GAS  /var/folders/l3/4y5292px21b4835bsnjwqc7w009kq1/T//ccmqzxh6.s 			page 7


 263 001e F3D3     		bcc	.L20
  82:bsp/src/bsp_delay.c ****     }
  83:bsp/src/bsp_delay.c **** }...
 264              		.loc 1 83 0 is_stmt 1
 265 0020 38BD     		pop	{r3, r4, r5, pc}
 266              		.cfi_endproc
 267              	.LFE126:
 269              		.section	.bss.fac_ms,"aw",%nobits
 270              		.align	2
 271              		.set	.LANCHOR1,. + 0
 274              	fac_ms:
 275 0000 00000000 		.space	4
 276              		.section	.bss.fac_us,"aw",%nobits
 277              		.align	2
 278              		.set	.LANCHOR0,. + 0
 281              	fac_us:
 282 0000 00000000 		.space	4
 283              		.text
 284              	.Letext0:
 285              		.file 2 "/usr/local/Cellar/gcc-arm-none-eabi/20180627/arm-none-eabi/include/machine/_default_types
 286              		.file 3 "/usr/local/Cellar/gcc-arm-none-eabi/20180627/arm-none-eabi/include/sys/_stdint.h"
 287              		.file 4 "../Libraries/CMSIS/CM4/CoreSupport/core_cm4.h"
 288              		.file 5 "../Libraries/CMSIS/CM4/DeviceSupport/system_at32f4xx.h"
 289              		.file 6 "../Libraries/CMSIS/CM4/DeviceSupport/at32f4xx.h"
 290              		.file 7 "bsp/inc/bsp_delay.h"
 291              		.file 8 "../Libraries/AT32F4xx_StdPeriph_Driver/inc/misc.h"
ARM GAS  /var/folders/l3/4y5292px21b4835bsnjwqc7w009kq1/T//ccmqzxh6.s 			page 8

