ARM GAS  /var/folders/l3/4y5292px21b4835bsnjwqc7w009kq1/T//ccREIAOo.s 			page 1


   1              		.cpu cortex-m4
   2              		.eabi_attribute 27, 1
   3              		.eabi_attribute 20, 1
   4              		.eabi_attribute 21, 1
   5              		.eabi_attribute 23, 3
   6              		.eabi_attribute 24, 1
   7              		.eabi_attribute 25, 1
   8              		.eabi_attribute 26, 1
   9              		.eabi_attribute 30, 1
  10              		.eabi_attribute 34, 1
  11              		.eabi_attribute 18, 4
  12              		.file	"main.c"
  13              		.text
  14              	.Ltext0:
  15              		.cfi_sections	.debug_frame
  16              		.section	.text.Delay_init,"ax",%progbits
  17              		.align	1
  18              		.global	Delay_init
  19              		.syntax unified
  20              		.thumb
  21              		.thumb_func
  22              		.fpu fpv4-sp-d16
  24              	Delay_init:
  25              	.LFB127:
  26              		.file 1 "Src/main.c"
   1:Src/main.c    **** /**
   2:Src/main.c    ****  * UART read/write on two cop ports, with one used for ROS
   3:Src/main.c    ****  **/ 
   4:Src/main.c    ****   
   5:Src/main.c    **** /* Includes ------------------------------------------------------------------*/
   6:Src/main.c    **** //#include "comms.h"
   7:Src/main.c    **** 
   8:Src/main.c    **** #include "bsp_uart_fifo.h"
   9:Src/main.c    **** #include <stdio.h>
  10:Src/main.c    **** #include <string.h>
  11:Src/main.c    **** 
  12:Src/main.c    ****  /*delay macros*/
  13:Src/main.c    **** #define STEP_DELAY_MS	500
  14:Src/main.c    **** /*delay variable*/
  15:Src/main.c    **** static __IO float fac_us;
  16:Src/main.c    **** static __IO float fac_ms;
  17:Src/main.c    **** void Delay_ms(u16 nms);
  18:Src/main.c    **** void Delay_init();
  19:Src/main.c    **** void uart_write(char *buf);
  20:Src/main.c    **** 
  21:Src/main.c    **** int main(void)
  22:Src/main.c    **** {  
  23:Src/main.c    **** 
  24:Src/main.c    ****   Delay_init();
  25:Src/main.c    ****   /* Setup USART */
  26:Src/main.c    ****   bsp_InitUart();
  27:Src/main.c    **** 
  28:Src/main.c    **** #define TESTCOM COM3
  29:Src/main.c    **** 
  30:Src/main.c    ****   int i=0;
  31:Src/main.c    ****   char buf[512];
  32:Src/main.c    ****   uint8_t ch;
ARM GAS  /var/folders/l3/4y5292px21b4835bsnjwqc7w009kq1/T//ccREIAOo.s 			page 2


  33:Src/main.c    ****   while (1)
  34:Src/main.c    ****   {
  35:Src/main.c    ****     Delay_ms(1000);
  36:Src/main.c    ****     i++;
  37:Src/main.c    ****     sprintf(buf,"Testing %d\n",i);
  38:Src/main.c    ****     comSendBuf(TESTCOM, buf, strlen(buf));
  39:Src/main.c    ****     while(comGetChar(TESTCOM, &ch) == 1) {
  40:Src/main.c    ****       comSendChar(TESTCOM, ch);
  41:Src/main.c    ****     }
  42:Src/main.c    **** 
  43:Src/main.c    ****     comSendChar(TESTCOM,'\n');
  44:Src/main.c    ****   }
  45:Src/main.c    **** 
  46:Src/main.c    **** }
  47:Src/main.c    **** 
  48:Src/main.c    **** void Delay_init()
  49:Src/main.c    **** {
  27              		.loc 1 49 0
  28              		.cfi_startproc
  29              		@ args = 0, pretend = 0, frame = 0
  30              		@ frame_needed = 0, uses_anonymous_args = 0
  31 0000 08B5     		push	{r3, lr}
  32              	.LCFI0:
  33              		.cfi_def_cfa_offset 8
  34              		.cfi_offset 3, -8
  35              		.cfi_offset 14, -4
  50:Src/main.c    ****     /*Config Systick*/
  51:Src/main.c    ****     SysTick_CLKSourceConfig(SysTick_CLKSource_HCLK_Div8);
  36              		.loc 1 51 0
  37 0002 6FF00400 		mvn	r0, #4
  38 0006 FFF7FEFF 		bl	SysTick_CLKSourceConfig
  39              	.LVL0:
  52:Src/main.c    ****     fac_us=(float)SystemCoreClock/(192 * 1000000);
  40              		.loc 1 52 0
  41 000a 0B4B     		ldr	r3, .L3
  42 000c D3ED007A 		vldr.32	s15, [r3]	@ int
  43 0010 F8EE677A 		vcvt.f32.u32	s15, s15
  44 0014 DFED096A 		vldr.32	s13, .L3+4
  45 0018 87EEA67A 		vdiv.f32	s14, s15, s13
  46 001c 084B     		ldr	r3, .L3+8
  47 001e 83ED007A 		vstr.32	s14, [r3]
  53:Src/main.c    ****     fac_ms=fac_us*1000;
  48              		.loc 1 53 0
  49 0022 D3ED007A 		vldr.32	s15, [r3]
  50 0026 9FED077A 		vldr.32	s14, .L3+12
  51 002a 67EE877A 		vmul.f32	s15, s15, s14
  52 002e 064B     		ldr	r3, .L3+16
  53 0030 C3ED007A 		vstr.32	s15, [r3]
  54:Src/main.c    **** }
  54              		.loc 1 54 0
  55 0034 08BD     		pop	{r3, pc}
  56              	.L4:
  57 0036 00BF     		.align	2
  58              	.L3:
  59 0038 00000000 		.word	SystemCoreClock
  60 003c 001B374D 		.word	1295457024
  61 0040 00000000 		.word	.LANCHOR0
ARM GAS  /var/folders/l3/4y5292px21b4835bsnjwqc7w009kq1/T//ccREIAOo.s 			page 3


  62 0044 00007A44 		.word	1148846080
  63 0048 00000000 		.word	.LANCHOR1
  64              		.cfi_endproc
  65              	.LFE127:
  67              		.section	.text.Delay_us,"ax",%progbits
  68              		.align	1
  69              		.global	Delay_us
  70              		.syntax unified
  71              		.thumb
  72              		.thumb_func
  73              		.fpu fpv4-sp-d16
  75              	Delay_us:
  76              	.LFB128:
  55:Src/main.c    **** 
  56:Src/main.c    **** 
  57:Src/main.c    **** /**
  58:Src/main.c    ****   * @brief  Inserts a delay time.
  59:Src/main.c    ****   * @param  nus: specifies the delay time length, in microsecond.
  60:Src/main.c    ****   * @retval None
  61:Src/main.c    ****   */
  62:Src/main.c    **** void Delay_us(u32 nus)
  63:Src/main.c    **** {
  77              		.loc 1 63 0
  78              		.cfi_startproc
  79              		@ args = 0, pretend = 0, frame = 0
  80              		@ frame_needed = 0, uses_anonymous_args = 0
  81              		@ link register save eliminated.
  82              	.LVL1:
  64:Src/main.c    ****     u32 temp;
  65:Src/main.c    ****     SysTick->LOAD = nus*fac_us;
  83              		.loc 1 65 0
  84 0000 104B     		ldr	r3, .L7
  85 0002 93ED007A 		vldr.32	s14, [r3]
  86 0006 07EE900A 		vmov	s15, r0	@ int
  87 000a F8EE677A 		vcvt.f32.u32	s15, s15
  88 000e 67EE877A 		vmul.f32	s15, s15, s14
  89 0012 FCEEE77A 		vcvt.u32.f32	s15, s15
  90 0016 0C4B     		ldr	r3, .L7+4
  91 0018 C3ED017A 		vstr.32	s15, [r3, #4]	@ int
  66:Src/main.c    ****     SysTick->VAL = 0x00;
  92              		.loc 1 66 0
  93 001c 0022     		movs	r2, #0
  94 001e 9A60     		str	r2, [r3, #8]
  67:Src/main.c    ****     SysTick->CTRL |= SysTick_CTRL_ENABLE_Msk ;
  95              		.loc 1 67 0
  96 0020 1A68     		ldr	r2, [r3]
  97 0022 42F00102 		orr	r2, r2, #1
  98 0026 1A60     		str	r2, [r3]
  99              	.L6:
  68:Src/main.c    ****     do
  69:Src/main.c    ****     {
  70:Src/main.c    ****         temp = SysTick->CTRL;
 100              		.loc 1 70 0 discriminator 1
 101 0028 074B     		ldr	r3, .L7+4
 102 002a 1B68     		ldr	r3, [r3]
 103              	.LVL2:
  71:Src/main.c    ****     }while((temp & 0x01) &&! (temp & (1<<16)));
ARM GAS  /var/folders/l3/4y5292px21b4835bsnjwqc7w009kq1/T//ccREIAOo.s 			page 4


 104              		.loc 1 71 0 discriminator 1
 105 002c 03F00113 		and	r3, r3, #65537
 106              	.LVL3:
 107 0030 012B     		cmp	r3, #1
 108 0032 F9D0     		beq	.L6
  72:Src/main.c    **** 
  73:Src/main.c    ****     SysTick->CTRL &= ~SysTick_CTRL_ENABLE_Msk;
 109              		.loc 1 73 0
 110 0034 044B     		ldr	r3, .L7+4
 111 0036 1A68     		ldr	r2, [r3]
 112 0038 22F00102 		bic	r2, r2, #1
 113 003c 1A60     		str	r2, [r3]
  74:Src/main.c    ****     SysTick->VAL = 0X00;
 114              		.loc 1 74 0
 115 003e 0022     		movs	r2, #0
 116 0040 9A60     		str	r2, [r3, #8]
  75:Src/main.c    **** }
 117              		.loc 1 75 0
 118 0042 7047     		bx	lr
 119              	.L8:
 120              		.align	2
 121              	.L7:
 122 0044 00000000 		.word	.LANCHOR0
 123 0048 10E000E0 		.word	-536813552
 124              		.cfi_endproc
 125              	.LFE128:
 127              		.section	.text.Delay_ms,"ax",%progbits
 128              		.align	1
 129              		.global	Delay_ms
 130              		.syntax unified
 131              		.thumb
 132              		.thumb_func
 133              		.fpu fpv4-sp-d16
 135              	Delay_ms:
 136              	.LFB129:
  76:Src/main.c    **** 
  77:Src/main.c    **** /**
  78:Src/main.c    ****   * @brief  Inserts a delay time.
  79:Src/main.c    ****   * @param  nms: specifies the delay time length, in milliseconds.
  80:Src/main.c    ****   * @retval None
  81:Src/main.c    ****   */
  82:Src/main.c    **** void Delay_ms(u16 nms)
  83:Src/main.c    **** {
 137              		.loc 1 83 0
 138              		.cfi_startproc
 139              		@ args = 0, pretend = 0, frame = 0
 140              		@ frame_needed = 0, uses_anonymous_args = 0
 141              		@ link register save eliminated.
 142              	.LVL4:
  84:Src/main.c    ****     u32 temp;
  85:Src/main.c    ****     while(nms)
 143              		.loc 1 85 0
 144 0000 22E0     		b	.L10
 145              	.L11:
  86:Src/main.c    ****     {
  87:Src/main.c    ****         if(nms > STEP_DELAY_MS)
  88:Src/main.c    ****         {
ARM GAS  /var/folders/l3/4y5292px21b4835bsnjwqc7w009kq1/T//ccREIAOo.s 			page 5


  89:Src/main.c    ****             SysTick->LOAD = (u32)STEP_DELAY_MS * fac_ms;
  90:Src/main.c    ****             nms -= STEP_DELAY_MS;
  91:Src/main.c    ****         }
  92:Src/main.c    ****         else
  93:Src/main.c    ****         {
  94:Src/main.c    ****             SysTick->LOAD = (u32)nms * fac_ms;
 146              		.loc 1 94 0
 147 0002 1C4B     		ldr	r3, .L16
 148 0004 93ED007A 		vldr.32	s14, [r3]
 149 0008 07EE900A 		vmov	s15, r0	@ int
 150 000c F8EE677A 		vcvt.f32.u32	s15, s15
 151 0010 67EE877A 		vmul.f32	s15, s15, s14
 152 0014 FCEEE77A 		vcvt.u32.f32	s15, s15
 153 0018 174B     		ldr	r3, .L16+4
 154 001a C3ED017A 		vstr.32	s15, [r3, #4]	@ int
 155              	.LVL5:
  95:Src/main.c    ****             nms = 0;
 156              		.loc 1 95 0
 157 001e 0020     		movs	r0, #0
 158              	.LVL6:
 159              	.L12:
  96:Src/main.c    ****         }
  97:Src/main.c    ****         SysTick->VAL = 0x00;
 160              		.loc 1 97 0
 161 0020 154B     		ldr	r3, .L16+4
 162 0022 0022     		movs	r2, #0
 163 0024 9A60     		str	r2, [r3, #8]
  98:Src/main.c    ****         SysTick->CTRL |= SysTick_CTRL_ENABLE_Msk;
 164              		.loc 1 98 0
 165 0026 1A68     		ldr	r2, [r3]
 166 0028 42F00102 		orr	r2, r2, #1
 167 002c 1A60     		str	r2, [r3]
 168              	.L13:
  99:Src/main.c    ****         do
 100:Src/main.c    ****         {
 101:Src/main.c    ****             temp = SysTick->CTRL;
 169              		.loc 1 101 0 discriminator 1
 170 002e 124B     		ldr	r3, .L16+4
 171 0030 1B68     		ldr	r3, [r3]
 172              	.LVL7:
 102:Src/main.c    ****         }while( (temp & 0x01) && !(temp & (1<<16)) );
 173              		.loc 1 102 0 discriminator 1
 174 0032 03F00113 		and	r3, r3, #65537
 175              	.LVL8:
 176 0036 012B     		cmp	r3, #1
 177 0038 F9D0     		beq	.L13
 103:Src/main.c    **** 
 104:Src/main.c    ****         SysTick->CTRL &= ~SysTick_CTRL_ENABLE_Msk;
 178              		.loc 1 104 0
 179 003a 0F4B     		ldr	r3, .L16+4
 180 003c 1A68     		ldr	r2, [r3]
 181 003e 22F00102 		bic	r2, r2, #1
 182 0042 1A60     		str	r2, [r3]
 105:Src/main.c    ****         SysTick->VAL = 0X00;
 183              		.loc 1 105 0
 184 0044 0022     		movs	r2, #0
 185 0046 9A60     		str	r2, [r3, #8]
ARM GAS  /var/folders/l3/4y5292px21b4835bsnjwqc7w009kq1/T//ccREIAOo.s 			page 6


 186              	.L10:
  85:Src/main.c    ****     {
 187              		.loc 1 85 0
 188 0048 90B1     		cbz	r0, .L15
  87:Src/main.c    ****         {
 189              		.loc 1 87 0
 190 004a B0F5FA7F 		cmp	r0, #500
 191 004e D8D9     		bls	.L11
  89:Src/main.c    ****             nms -= STEP_DELAY_MS;
 192              		.loc 1 89 0
 193 0050 084B     		ldr	r3, .L16
 194 0052 D3ED007A 		vldr.32	s15, [r3]
 195 0056 9FED097A 		vldr.32	s14, .L16+8
 196 005a 67EE877A 		vmul.f32	s15, s15, s14
 197 005e FCEEE77A 		vcvt.u32.f32	s15, s15
 198 0062 054B     		ldr	r3, .L16+4
 199 0064 C3ED017A 		vstr.32	s15, [r3, #4]	@ int
  90:Src/main.c    ****         }
 200              		.loc 1 90 0
 201 0068 A0F5FA70 		sub	r0, r0, #500
 202              	.LVL9:
 203 006c 80B2     		uxth	r0, r0
 204              	.LVL10:
 205 006e D7E7     		b	.L12
 206              	.L15:
 106:Src/main.c    ****     }
 107:Src/main.c    **** }
 207              		.loc 1 107 0
 208 0070 7047     		bx	lr
 209              	.L17:
 210 0072 00BF     		.align	2
 211              	.L16:
 212 0074 00000000 		.word	.LANCHOR1
 213 0078 10E000E0 		.word	-536813552
 214 007c 0000FA43 		.word	1140457472
 215              		.cfi_endproc
 216              	.LFE129:
 218              		.section	.text.main,"ax",%progbits
 219              		.align	1
 220              		.global	main
 221              		.syntax unified
 222              		.thumb
 223              		.thumb_func
 224              		.fpu fpv4-sp-d16
 226              	main:
 227              	.LFB126:
  22:Src/main.c    **** 
 228              		.loc 1 22 0
 229              		.cfi_startproc
 230              		@ args = 0, pretend = 0, frame = 520
 231              		@ frame_needed = 0, uses_anonymous_args = 0
 232 0000 10B5     		push	{r4, lr}
 233              	.LCFI1:
 234              		.cfi_def_cfa_offset 8
 235              		.cfi_offset 4, -8
 236              		.cfi_offset 14, -4
 237 0002 ADF5027D 		sub	sp, sp, #520
ARM GAS  /var/folders/l3/4y5292px21b4835bsnjwqc7w009kq1/T//ccREIAOo.s 			page 7


 238              	.LCFI2:
 239              		.cfi_def_cfa_offset 528
  24:Src/main.c    ****   /* Setup USART */
 240              		.loc 1 24 0
 241 0006 FFF7FEFF 		bl	Delay_init
 242              	.LVL11:
  26:Src/main.c    **** 
 243              		.loc 1 26 0
 244 000a FFF7FEFF 		bl	bsp_InitUart
 245              	.LVL12:
  30:Src/main.c    ****   char buf[512];
 246              		.loc 1 30 0
 247 000e 0024     		movs	r4, #0
 248 0010 0FE0     		b	.L21
 249              	.LVL13:
 250              	.L20:
  40:Src/main.c    ****     }
 251              		.loc 1 40 0
 252 0012 9DF80710 		ldrb	r1, [sp, #7]	@ zero_extendqisi2
 253 0016 0220     		movs	r0, #2
 254 0018 FFF7FEFF 		bl	comSendChar
 255              	.LVL14:
 256              	.L19:
  39:Src/main.c    ****       comSendChar(TESTCOM, ch);
 257              		.loc 1 39 0
 258 001c 0DF10701 		add	r1, sp, #7
 259 0020 0220     		movs	r0, #2
 260 0022 FFF7FEFF 		bl	comGetChar
 261              	.LVL15:
 262 0026 0128     		cmp	r0, #1
 263 0028 F3D0     		beq	.L20
  43:Src/main.c    ****   }
 264              		.loc 1 43 0
 265 002a 0A21     		movs	r1, #10
 266 002c 0220     		movs	r0, #2
 267 002e FFF7FEFF 		bl	comSendChar
 268              	.LVL16:
 269              	.L21:
  35:Src/main.c    ****     i++;
 270              		.loc 1 35 0
 271 0032 4FF47A70 		mov	r0, #1000
 272 0036 FFF7FEFF 		bl	Delay_ms
 273              	.LVL17:
  36:Src/main.c    ****     sprintf(buf,"Testing %d\n",i);
 274              		.loc 1 36 0
 275 003a 0134     		adds	r4, r4, #1
 276              	.LVL18:
  37:Src/main.c    ****     comSendBuf(TESTCOM, buf, strlen(buf));
 277              		.loc 1 37 0
 278 003c 2246     		mov	r2, r4
 279 003e 0649     		ldr	r1, .L23
 280 0040 02A8     		add	r0, sp, #8
 281 0042 FFF7FEFF 		bl	sprintf
 282              	.LVL19:
  38:Src/main.c    ****     while(comGetChar(TESTCOM, &ch) == 1) {
 283              		.loc 1 38 0
 284 0046 02A8     		add	r0, sp, #8
ARM GAS  /var/folders/l3/4y5292px21b4835bsnjwqc7w009kq1/T//ccREIAOo.s 			page 8


 285 0048 FFF7FEFF 		bl	strlen
 286              	.LVL20:
 287 004c 82B2     		uxth	r2, r0
 288 004e 02A9     		add	r1, sp, #8
 289 0050 0220     		movs	r0, #2
 290 0052 FFF7FEFF 		bl	comSendBuf
 291              	.LVL21:
  39:Src/main.c    ****       comSendChar(TESTCOM, ch);
 292              		.loc 1 39 0
 293 0056 E1E7     		b	.L19
 294              	.L24:
 295              		.align	2
 296              	.L23:
 297 0058 00000000 		.word	.LC0
 298              		.cfi_endproc
 299              	.LFE126:
 301              		.section	.text.Delay_sec,"ax",%progbits
 302              		.align	1
 303              		.global	Delay_sec
 304              		.syntax unified
 305              		.thumb
 306              		.thumb_func
 307              		.fpu fpv4-sp-d16
 309              	Delay_sec:
 310              	.LFB130:
 108:Src/main.c    **** 
 109:Src/main.c    **** /**
 110:Src/main.c    ****   * @brief  Inserts a delay time.
 111:Src/main.c    ****   * @param  sec: specifies the delay time length, in seconds.
 112:Src/main.c    ****   * @retval None
 113:Src/main.c    ****   */
 114:Src/main.c    **** void Delay_sec(u16 sec)
 115:Src/main.c    **** {
 311              		.loc 1 115 0
 312              		.cfi_startproc
 313              		@ args = 0, pretend = 0, frame = 0
 314              		@ frame_needed = 0, uses_anonymous_args = 0
 315              	.LVL22:
 316 0000 38B5     		push	{r3, r4, r5, lr}
 317              	.LCFI3:
 318              		.cfi_def_cfa_offset 16
 319              		.cfi_offset 3, -16
 320              		.cfi_offset 4, -12
 321              		.cfi_offset 5, -8
 322              		.cfi_offset 14, -4
 323 0002 0546     		mov	r5, r0
 324              	.LVL23:
 116:Src/main.c    ****     u16 i;
 117:Src/main.c    ****     for(i=0; i<sec; i++)
 325              		.loc 1 117 0
 326 0004 0024     		movs	r4, #0
 327 0006 09E0     		b	.L26
 328              	.LVL24:
 329              	.L27:
 118:Src/main.c    ****     {
 119:Src/main.c    ****         Delay_ms(500);
 330              		.loc 1 119 0 discriminator 3
ARM GAS  /var/folders/l3/4y5292px21b4835bsnjwqc7w009kq1/T//ccREIAOo.s 			page 9


 331 0008 4FF4FA70 		mov	r0, #500
 332 000c FFF7FEFF 		bl	Delay_ms
 333              	.LVL25:
 120:Src/main.c    ****         Delay_ms(500);
 334              		.loc 1 120 0 discriminator 3
 335 0010 4FF4FA70 		mov	r0, #500
 336 0014 FFF7FEFF 		bl	Delay_ms
 337              	.LVL26:
 117:Src/main.c    ****     {
 338              		.loc 1 117 0 discriminator 3
 339 0018 0134     		adds	r4, r4, #1
 340              	.LVL27:
 341 001a A4B2     		uxth	r4, r4
 342              	.LVL28:
 343              	.L26:
 117:Src/main.c    ****     {
 344              		.loc 1 117 0 is_stmt 0 discriminator 1
 345 001c AC42     		cmp	r4, r5
 346 001e F3D3     		bcc	.L27
 121:Src/main.c    ****     }
 122:Src/main.c    **** }...
 347              		.loc 1 122 0 is_stmt 1
 348 0020 38BD     		pop	{r3, r4, r5, pc}
 349              		.cfi_endproc
 350              	.LFE130:
 352              		.section	.bss.fac_ms,"aw",%nobits
 353              		.align	2
 354              		.set	.LANCHOR1,. + 0
 357              	fac_ms:
 358 0000 00000000 		.space	4
 359              		.section	.bss.fac_us,"aw",%nobits
 360              		.align	2
 361              		.set	.LANCHOR0,. + 0
 364              	fac_us:
 365 0000 00000000 		.space	4
 366              		.section	.rodata.main.str1.4,"aMS",%progbits,1
 367              		.align	2
 368              	.LC0:
 369 0000 54657374 		.ascii	"Testing %d\012\000"
 369      696E6720 
 369      25640A00 
 370              		.text
 371              	.Letext0:
 372              		.file 2 "/usr/local/Cellar/gcc-arm-none-eabi/20180627/arm-none-eabi/include/machine/_default_types
 373              		.file 3 "/usr/local/Cellar/gcc-arm-none-eabi/20180627/arm-none-eabi/include/sys/_stdint.h"
 374              		.file 4 "../Libraries/CMSIS/CM4/CoreSupport/core_cm4.h"
 375              		.file 5 "../Libraries/CMSIS/CM4/DeviceSupport/system_at32f4xx.h"
 376              		.file 6 "../Libraries/CMSIS/CM4/DeviceSupport/at32f4xx.h"
 377              		.file 7 "/usr/local/Cellar/gcc-arm-none-eabi/20180627/arm-none-eabi/include/sys/lock.h"
 378              		.file 8 "/usr/local/Cellar/gcc-arm-none-eabi/20180627/arm-none-eabi/include/sys/_types.h"
 379              		.file 9 "/usr/local/Cellar/gcc-arm-none-eabi/20180627/lib/gcc/arm-none-eabi/7.3.1/include/stddef.h
 380              		.file 10 "/usr/local/Cellar/gcc-arm-none-eabi/20180627/arm-none-eabi/include/sys/reent.h"
 381              		.file 11 "../Libraries/AT32F4xx_StdPeriph_Driver/inc/misc.h"
 382              		.file 12 "bsp/inc/bsp_uart_fifo.h"
 383              		.file 13 "/usr/local/Cellar/gcc-arm-none-eabi/20180627/arm-none-eabi/include/stdio.h"
 384              		.file 14 "/usr/local/Cellar/gcc-arm-none-eabi/20180627/arm-none-eabi/include/string.h"
ARM GAS  /var/folders/l3/4y5292px21b4835bsnjwqc7w009kq1/T//ccREIAOo.s 			page 10


DEFINED SYMBOLS
                            *ABS*:0000000000000000 main.c
/var/folders/l3/4y5292px21b4835bsnjwqc7w009kq1/T//ccREIAOo.s:17     .text.Delay_init:0000000000000000 $t
/var/folders/l3/4y5292px21b4835bsnjwqc7w009kq1/T//ccREIAOo.s:24     .text.Delay_init:0000000000000000 Delay_init
/var/folders/l3/4y5292px21b4835bsnjwqc7w009kq1/T//ccREIAOo.s:59     .text.Delay_init:0000000000000038 $d
/var/folders/l3/4y5292px21b4835bsnjwqc7w009kq1/T//ccREIAOo.s:68     .text.Delay_us:0000000000000000 $t
/var/folders/l3/4y5292px21b4835bsnjwqc7w009kq1/T//ccREIAOo.s:75     .text.Delay_us:0000000000000000 Delay_us
/var/folders/l3/4y5292px21b4835bsnjwqc7w009kq1/T//ccREIAOo.s:122    .text.Delay_us:0000000000000044 $d
/var/folders/l3/4y5292px21b4835bsnjwqc7w009kq1/T//ccREIAOo.s:128    .text.Delay_ms:0000000000000000 $t
/var/folders/l3/4y5292px21b4835bsnjwqc7w009kq1/T//ccREIAOo.s:135    .text.Delay_ms:0000000000000000 Delay_ms
/var/folders/l3/4y5292px21b4835bsnjwqc7w009kq1/T//ccREIAOo.s:212    .text.Delay_ms:0000000000000074 $d
/var/folders/l3/4y5292px21b4835bsnjwqc7w009kq1/T//ccREIAOo.s:219    .text.main:0000000000000000 $t
/var/folders/l3/4y5292px21b4835bsnjwqc7w009kq1/T//ccREIAOo.s:226    .text.main:0000000000000000 main
/var/folders/l3/4y5292px21b4835bsnjwqc7w009kq1/T//ccREIAOo.s:297    .text.main:0000000000000058 $d
/var/folders/l3/4y5292px21b4835bsnjwqc7w009kq1/T//ccREIAOo.s:302    .text.Delay_sec:0000000000000000 $t
/var/folders/l3/4y5292px21b4835bsnjwqc7w009kq1/T//ccREIAOo.s:309    .text.Delay_sec:0000000000000000 Delay_sec
/var/folders/l3/4y5292px21b4835bsnjwqc7w009kq1/T//ccREIAOo.s:353    .bss.fac_ms:0000000000000000 $d
/var/folders/l3/4y5292px21b4835bsnjwqc7w009kq1/T//ccREIAOo.s:357    .bss.fac_ms:0000000000000000 fac_ms
/var/folders/l3/4y5292px21b4835bsnjwqc7w009kq1/T//ccREIAOo.s:360    .bss.fac_us:0000000000000000 $d
/var/folders/l3/4y5292px21b4835bsnjwqc7w009kq1/T//ccREIAOo.s:364    .bss.fac_us:0000000000000000 fac_us
/var/folders/l3/4y5292px21b4835bsnjwqc7w009kq1/T//ccREIAOo.s:367    .rodata.main.str1.4:0000000000000000 $d

UNDEFINED SYMBOLS
SysTick_CLKSourceConfig
SystemCoreClock
bsp_InitUart
comSendChar
comGetChar
sprintf
strlen
comSendBuf
