ARM GAS  /var/folders/l3/4y5292px21b4835bsnjwqc7w009kq1/T//ccOXyXY5.s 			page 1


   1              		.cpu cortex-m4
   2              		.eabi_attribute 27, 1
   3              		.eabi_attribute 20, 1
   4              		.eabi_attribute 21, 1
   5              		.eabi_attribute 23, 3
   6              		.eabi_attribute 24, 1
   7              		.eabi_attribute 25, 1
   8              		.eabi_attribute 26, 1
   9              		.eabi_attribute 30, 1
  10              		.eabi_attribute 34, 1
  11              		.eabi_attribute 18, 4
  12              		.file	"ros.cpp"
  13              		.text
  14              	.Ltext0:
  15              		.cfi_sections	.debug_frame
  16              		.section	.text._ZNK8std_msgs4Time9serializeEPh,"axG",%progbits,_ZNK8std_msgs4Time9serializeEPh,com
  17              		.align	1
  18              		.weak	_ZNK8std_msgs4Time9serializeEPh
  19              		.syntax unified
  20              		.thumb
  21              		.thumb_func
  22              		.fpu fpv4-sp-d16
  24              	_ZNK8std_msgs4Time9serializeEPh:
  25              		.fnstart
  26              	.LFB378:
  27              		.file 1 "ROSSerial/std_msgs/Time.h"
   1:ROSSerial/std_msgs/Time.h **** #ifndef _ROS_std_msgs_Time_h
   2:ROSSerial/std_msgs/Time.h **** #define _ROS_std_msgs_Time_h
   3:ROSSerial/std_msgs/Time.h **** 
   4:ROSSerial/std_msgs/Time.h **** #include <stdint.h>
   5:ROSSerial/std_msgs/Time.h **** #include <string.h>
   6:ROSSerial/std_msgs/Time.h **** #include <stdlib.h>
   7:ROSSerial/std_msgs/Time.h **** #include "ros/msg.h"
   8:ROSSerial/std_msgs/Time.h **** #include "ros/time.h"
   9:ROSSerial/std_msgs/Time.h **** 
  10:ROSSerial/std_msgs/Time.h **** 
  11:ROSSerial/std_msgs/Time.h **** namespace std_msgs
  12:ROSSerial/std_msgs/Time.h **** {
  13:ROSSerial/std_msgs/Time.h **** 
  14:ROSSerial/std_msgs/Time.h ****   class Time : public ros::Msg
  15:ROSSerial/std_msgs/Time.h ****   {
  16:ROSSerial/std_msgs/Time.h ****     public:
  17:ROSSerial/std_msgs/Time.h ****       ros::Time data;
  18:ROSSerial/std_msgs/Time.h **** 
  19:ROSSerial/std_msgs/Time.h ****     virtual int serialize(unsigned char *outbuffer) const
  28              		.loc 1 19 0
  29              		.cfi_startproc
  30              		@ args = 0, pretend = 0, frame = 0
  31              		@ frame_needed = 0, uses_anonymous_args = 0
  32              		@ link register save eliminated.
  33              	.LVL0:
  20:ROSSerial/std_msgs/Time.h ****     {
  21:ROSSerial/std_msgs/Time.h ****       int offset = 0;
  22:ROSSerial/std_msgs/Time.h ****       *(outbuffer + offset + 0) = (this->data.sec >> (8 * 0)) & 0xFF;
  34              		.loc 1 22 0
  35 0000 4368     		ldr	r3, [r0, #4]
  36 0002 0B70     		strb	r3, [r1]
ARM GAS  /var/folders/l3/4y5292px21b4835bsnjwqc7w009kq1/T//ccOXyXY5.s 			page 2


  23:ROSSerial/std_msgs/Time.h ****       *(outbuffer + offset + 1) = (this->data.sec >> (8 * 1)) & 0xFF;
  37              		.loc 1 23 0
  38 0004 4368     		ldr	r3, [r0, #4]
  39 0006 1B0A     		lsrs	r3, r3, #8
  40 0008 4B70     		strb	r3, [r1, #1]
  24:ROSSerial/std_msgs/Time.h ****       *(outbuffer + offset + 2) = (this->data.sec >> (8 * 2)) & 0xFF;
  41              		.loc 1 24 0
  42 000a C388     		ldrh	r3, [r0, #6]
  43 000c 8B70     		strb	r3, [r1, #2]
  25:ROSSerial/std_msgs/Time.h ****       *(outbuffer + offset + 3) = (this->data.sec >> (8 * 3)) & 0xFF;
  44              		.loc 1 25 0
  45 000e C379     		ldrb	r3, [r0, #7]	@ zero_extendqisi2
  46 0010 CB70     		strb	r3, [r1, #3]
  47              	.LVL1:
  26:ROSSerial/std_msgs/Time.h ****       offset += sizeof(this->data.sec);
  27:ROSSerial/std_msgs/Time.h ****       *(outbuffer + offset + 0) = (this->data.nsec >> (8 * 0)) & 0xFF;
  48              		.loc 1 27 0
  49 0012 8368     		ldr	r3, [r0, #8]
  50 0014 0B71     		strb	r3, [r1, #4]
  28:ROSSerial/std_msgs/Time.h ****       *(outbuffer + offset + 1) = (this->data.nsec >> (8 * 1)) & 0xFF;
  51              		.loc 1 28 0
  52 0016 8368     		ldr	r3, [r0, #8]
  53 0018 1B0A     		lsrs	r3, r3, #8
  54 001a 4B71     		strb	r3, [r1, #5]
  29:ROSSerial/std_msgs/Time.h ****       *(outbuffer + offset + 2) = (this->data.nsec >> (8 * 2)) & 0xFF;
  55              		.loc 1 29 0
  56 001c 4389     		ldrh	r3, [r0, #10]
  57 001e 8B71     		strb	r3, [r1, #6]
  30:ROSSerial/std_msgs/Time.h ****       *(outbuffer + offset + 3) = (this->data.nsec >> (8 * 3)) & 0xFF;
  58              		.loc 1 30 0
  59 0020 C37A     		ldrb	r3, [r0, #11]	@ zero_extendqisi2
  60 0022 CB71     		strb	r3, [r1, #7]
  61              	.LVL2:
  31:ROSSerial/std_msgs/Time.h ****       offset += sizeof(this->data.nsec);
  32:ROSSerial/std_msgs/Time.h ****       return offset;
  33:ROSSerial/std_msgs/Time.h ****     }
  62              		.loc 1 33 0
  63 0024 0820     		movs	r0, #8
  64              	.LVL3:
  65 0026 7047     		bx	lr
  66              		.cfi_endproc
  67              	.LFE378:
  68              		.cantunwind
  69              		.fnend
  71              		.section	.text._ZN8std_msgs4Time11deserializeEPh,"axG",%progbits,_ZN8std_msgs4Time11deserializeEPh
  72              		.align	1
  73              		.weak	_ZN8std_msgs4Time11deserializeEPh
  74              		.syntax unified
  75              		.thumb
  76              		.thumb_func
  77              		.fpu fpv4-sp-d16
  79              	_ZN8std_msgs4Time11deserializeEPh:
  80              		.fnstart
  81              	.LFB379:
  34:ROSSerial/std_msgs/Time.h **** 
  35:ROSSerial/std_msgs/Time.h ****     virtual int deserialize(unsigned char *inbuffer)
  82              		.loc 1 35 0
ARM GAS  /var/folders/l3/4y5292px21b4835bsnjwqc7w009kq1/T//ccOXyXY5.s 			page 3


  83              		.cfi_startproc
  84              		@ args = 0, pretend = 0, frame = 0
  85              		@ frame_needed = 0, uses_anonymous_args = 0
  86              		@ link register save eliminated.
  87              	.LVL4:
  36:ROSSerial/std_msgs/Time.h ****     {
  37:ROSSerial/std_msgs/Time.h ****       int offset = 0;
  38:ROSSerial/std_msgs/Time.h ****       this->data.sec =  ((uint32_t) (*(inbuffer + offset)));
  88              		.loc 1 38 0
  89 0000 0B78     		ldrb	r3, [r1]	@ zero_extendqisi2
  90 0002 4360     		str	r3, [r0, #4]
  39:ROSSerial/std_msgs/Time.h ****       this->data.sec |= ((uint32_t) (*(inbuffer + offset + 1))) << (8 * 1);
  91              		.loc 1 39 0
  92 0004 4A78     		ldrb	r2, [r1, #1]	@ zero_extendqisi2
  93 0006 43EA0223 		orr	r3, r3, r2, lsl #8
  94 000a 4360     		str	r3, [r0, #4]
  40:ROSSerial/std_msgs/Time.h ****       this->data.sec |= ((uint32_t) (*(inbuffer + offset + 2))) << (8 * 2);
  95              		.loc 1 40 0
  96 000c 8A78     		ldrb	r2, [r1, #2]	@ zero_extendqisi2
  97 000e 43EA0243 		orr	r3, r3, r2, lsl #16
  98 0012 4360     		str	r3, [r0, #4]
  41:ROSSerial/std_msgs/Time.h ****       this->data.sec |= ((uint32_t) (*(inbuffer + offset + 3))) << (8 * 3);
  99              		.loc 1 41 0
 100 0014 CA78     		ldrb	r2, [r1, #3]	@ zero_extendqisi2
 101 0016 43EA0263 		orr	r3, r3, r2, lsl #24
 102 001a 4360     		str	r3, [r0, #4]
 103              	.LVL5:
  42:ROSSerial/std_msgs/Time.h ****       offset += sizeof(this->data.sec);
  43:ROSSerial/std_msgs/Time.h ****       this->data.nsec =  ((uint32_t) (*(inbuffer + offset)));
 104              		.loc 1 43 0
 105 001c 0B79     		ldrb	r3, [r1, #4]	@ zero_extendqisi2
 106 001e 8360     		str	r3, [r0, #8]
  44:ROSSerial/std_msgs/Time.h ****       this->data.nsec |= ((uint32_t) (*(inbuffer + offset + 1))) << (8 * 1);
 107              		.loc 1 44 0
 108 0020 4A79     		ldrb	r2, [r1, #5]	@ zero_extendqisi2
 109 0022 43EA0223 		orr	r3, r3, r2, lsl #8
 110 0026 8360     		str	r3, [r0, #8]
  45:ROSSerial/std_msgs/Time.h ****       this->data.nsec |= ((uint32_t) (*(inbuffer + offset + 2))) << (8 * 2);
 111              		.loc 1 45 0
 112 0028 8A79     		ldrb	r2, [r1, #6]	@ zero_extendqisi2
 113 002a 43EA0243 		orr	r3, r3, r2, lsl #16
 114 002e 8360     		str	r3, [r0, #8]
  46:ROSSerial/std_msgs/Time.h ****       this->data.nsec |= ((uint32_t) (*(inbuffer + offset + 3))) << (8 * 3);
 115              		.loc 1 46 0
 116 0030 CA79     		ldrb	r2, [r1, #7]	@ zero_extendqisi2
 117 0032 43EA0263 		orr	r3, r3, r2, lsl #24
 118 0036 8360     		str	r3, [r0, #8]
 119              	.LVL6:
  47:ROSSerial/std_msgs/Time.h ****       offset += sizeof(this->data.nsec);
  48:ROSSerial/std_msgs/Time.h ****      return offset;
  49:ROSSerial/std_msgs/Time.h ****     }
 120              		.loc 1 49 0
 121 0038 0820     		movs	r0, #8
 122              	.LVL7:
 123 003a 7047     		bx	lr
 124              		.cfi_endproc
 125              	.LFE379:
ARM GAS  /var/folders/l3/4y5292px21b4835bsnjwqc7w009kq1/T//ccOXyXY5.s 			page 4


 126              		.cantunwind
 127              		.fnend
 129              		.section	.text._ZN8std_msgs4Time7getTypeEv,"axG",%progbits,_ZN8std_msgs4Time7getTypeEv,comdat
 130              		.align	1
 131              		.weak	_ZN8std_msgs4Time7getTypeEv
 132              		.syntax unified
 133              		.thumb
 134              		.thumb_func
 135              		.fpu fpv4-sp-d16
 137              	_ZN8std_msgs4Time7getTypeEv:
 138              		.fnstart
 139              	.LFB380:
  50:ROSSerial/std_msgs/Time.h **** 
  51:ROSSerial/std_msgs/Time.h ****     const char * getType(){ return "std_msgs/Time"; };
 140              		.loc 1 51 0
 141              		.cfi_startproc
 142              		@ args = 0, pretend = 0, frame = 0
 143              		@ frame_needed = 0, uses_anonymous_args = 0
 144              		@ link register save eliminated.
 145              	.LVL8:
 146              		.loc 1 51 0
 147 0000 0048     		ldr	r0, .L4
 148              	.LVL9:
 149 0002 7047     		bx	lr
 150              	.L5:
 151              		.align	2
 152              	.L4:
 153 0004 00000000 		.word	.LC0
 154              		.cfi_endproc
 155              	.LFE380:
 156              		.cantunwind
 157              		.fnend
 159              		.section	.text._ZN8std_msgs4Time6getMD5Ev,"axG",%progbits,_ZN8std_msgs4Time6getMD5Ev,comdat
 160              		.align	1
 161              		.weak	_ZN8std_msgs4Time6getMD5Ev
 162              		.syntax unified
 163              		.thumb
 164              		.thumb_func
 165              		.fpu fpv4-sp-d16
 167              	_ZN8std_msgs4Time6getMD5Ev:
 168              		.fnstart
 169              	.LFB381:
  52:ROSSerial/std_msgs/Time.h ****     const char * getMD5(){ return "cd7166c74c552c311fbcc2fe5a7bc289"; };
 170              		.loc 1 52 0
 171              		.cfi_startproc
 172              		@ args = 0, pretend = 0, frame = 0
 173              		@ frame_needed = 0, uses_anonymous_args = 0
 174              		@ link register save eliminated.
 175              	.LVL10:
 176              		.loc 1 52 0
 177 0000 0048     		ldr	r0, .L7
 178              	.LVL11:
 179 0002 7047     		bx	lr
 180              	.L8:
 181              		.align	2
 182              	.L7:
 183 0004 00000000 		.word	.LC1
ARM GAS  /var/folders/l3/4y5292px21b4835bsnjwqc7w009kq1/T//ccOXyXY5.s 			page 5


 184              		.cfi_endproc
 185              	.LFE381:
 186              		.cantunwind
 187              		.fnend
 189              		.section	.text._ZN14rosserial_msgs9TopicInfo11deserializeEPh,"axG",%progbits,_ZN14rosserial_msgs9T
 190              		.align	1
 191              		.weak	_ZN14rosserial_msgs9TopicInfo11deserializeEPh
 192              		.syntax unified
 193              		.thumb
 194              		.thumb_func
 195              		.fpu fpv4-sp-d16
 197              	_ZN14rosserial_msgs9TopicInfo11deserializeEPh:
 198              		.fnstart
 199              	.LFB383:
 200              		.file 2 "ROSSerial/rosserial_msgs/TopicInfo.h"
   1:ROSSerial/rosserial_msgs/TopicInfo.h **** #ifndef _ROS_rosserial_msgs_TopicInfo_h
   2:ROSSerial/rosserial_msgs/TopicInfo.h **** #define _ROS_rosserial_msgs_TopicInfo_h
   3:ROSSerial/rosserial_msgs/TopicInfo.h **** 
   4:ROSSerial/rosserial_msgs/TopicInfo.h **** #include <stdint.h>
   5:ROSSerial/rosserial_msgs/TopicInfo.h **** #include <string.h>
   6:ROSSerial/rosserial_msgs/TopicInfo.h **** #include <stdlib.h>
   7:ROSSerial/rosserial_msgs/TopicInfo.h **** #include "ros/msg.h"
   8:ROSSerial/rosserial_msgs/TopicInfo.h **** 
   9:ROSSerial/rosserial_msgs/TopicInfo.h **** namespace rosserial_msgs
  10:ROSSerial/rosserial_msgs/TopicInfo.h **** {
  11:ROSSerial/rosserial_msgs/TopicInfo.h **** 
  12:ROSSerial/rosserial_msgs/TopicInfo.h ****   class TopicInfo : public ros::Msg
  13:ROSSerial/rosserial_msgs/TopicInfo.h ****   {
  14:ROSSerial/rosserial_msgs/TopicInfo.h ****     public:
  15:ROSSerial/rosserial_msgs/TopicInfo.h ****       uint16_t topic_id;
  16:ROSSerial/rosserial_msgs/TopicInfo.h ****       const char* topic_name;
  17:ROSSerial/rosserial_msgs/TopicInfo.h ****       const char* message_type;
  18:ROSSerial/rosserial_msgs/TopicInfo.h ****       const char* md5sum;
  19:ROSSerial/rosserial_msgs/TopicInfo.h ****       int32_t buffer_size;
  20:ROSSerial/rosserial_msgs/TopicInfo.h ****       enum { ID_PUBLISHER = 0 };
  21:ROSSerial/rosserial_msgs/TopicInfo.h ****       enum { ID_SUBSCRIBER = 1 };
  22:ROSSerial/rosserial_msgs/TopicInfo.h ****       enum { ID_SERVICE_SERVER = 2 };
  23:ROSSerial/rosserial_msgs/TopicInfo.h ****       enum { ID_SERVICE_CLIENT = 4 };
  24:ROSSerial/rosserial_msgs/TopicInfo.h ****       enum { ID_PARAMETER_REQUEST = 6 };
  25:ROSSerial/rosserial_msgs/TopicInfo.h ****       enum { ID_LOG = 7 };
  26:ROSSerial/rosserial_msgs/TopicInfo.h ****       enum { ID_TIME = 10 };
  27:ROSSerial/rosserial_msgs/TopicInfo.h ****       enum { ID_TX_STOP = 11 };
  28:ROSSerial/rosserial_msgs/TopicInfo.h **** 
  29:ROSSerial/rosserial_msgs/TopicInfo.h ****     virtual int serialize(unsigned char *outbuffer) const
  30:ROSSerial/rosserial_msgs/TopicInfo.h ****     {
  31:ROSSerial/rosserial_msgs/TopicInfo.h ****       int offset = 0;
  32:ROSSerial/rosserial_msgs/TopicInfo.h ****       *(outbuffer + offset + 0) = (this->topic_id >> (8 * 0)) & 0xFF;
  33:ROSSerial/rosserial_msgs/TopicInfo.h ****       *(outbuffer + offset + 1) = (this->topic_id >> (8 * 1)) & 0xFF;
  34:ROSSerial/rosserial_msgs/TopicInfo.h ****       offset += sizeof(this->topic_id);
  35:ROSSerial/rosserial_msgs/TopicInfo.h ****       uint32_t length_topic_name = strlen(this->topic_name);
  36:ROSSerial/rosserial_msgs/TopicInfo.h ****       memcpy(outbuffer + offset, &length_topic_name, sizeof(uint32_t));
  37:ROSSerial/rosserial_msgs/TopicInfo.h ****       offset += 4;
  38:ROSSerial/rosserial_msgs/TopicInfo.h ****       memcpy(outbuffer + offset, this->topic_name, length_topic_name);
  39:ROSSerial/rosserial_msgs/TopicInfo.h ****       offset += length_topic_name;
  40:ROSSerial/rosserial_msgs/TopicInfo.h ****       uint32_t length_message_type = strlen(this->message_type);
  41:ROSSerial/rosserial_msgs/TopicInfo.h ****       memcpy(outbuffer + offset, &length_message_type, sizeof(uint32_t));
  42:ROSSerial/rosserial_msgs/TopicInfo.h ****       offset += 4;
ARM GAS  /var/folders/l3/4y5292px21b4835bsnjwqc7w009kq1/T//ccOXyXY5.s 			page 6


  43:ROSSerial/rosserial_msgs/TopicInfo.h ****       memcpy(outbuffer + offset, this->message_type, length_message_type);
  44:ROSSerial/rosserial_msgs/TopicInfo.h ****       offset += length_message_type;
  45:ROSSerial/rosserial_msgs/TopicInfo.h ****       uint32_t length_md5sum = strlen(this->md5sum);
  46:ROSSerial/rosserial_msgs/TopicInfo.h ****       memcpy(outbuffer + offset, &length_md5sum, sizeof(uint32_t));
  47:ROSSerial/rosserial_msgs/TopicInfo.h ****       offset += 4;
  48:ROSSerial/rosserial_msgs/TopicInfo.h ****       memcpy(outbuffer + offset, this->md5sum, length_md5sum);
  49:ROSSerial/rosserial_msgs/TopicInfo.h ****       offset += length_md5sum;
  50:ROSSerial/rosserial_msgs/TopicInfo.h ****       union {
  51:ROSSerial/rosserial_msgs/TopicInfo.h ****         int32_t real;
  52:ROSSerial/rosserial_msgs/TopicInfo.h ****         uint32_t base;
  53:ROSSerial/rosserial_msgs/TopicInfo.h ****       } u_buffer_size;
  54:ROSSerial/rosserial_msgs/TopicInfo.h ****       u_buffer_size.real = this->buffer_size;
  55:ROSSerial/rosserial_msgs/TopicInfo.h ****       *(outbuffer + offset + 0) = (u_buffer_size.base >> (8 * 0)) & 0xFF;
  56:ROSSerial/rosserial_msgs/TopicInfo.h ****       *(outbuffer + offset + 1) = (u_buffer_size.base >> (8 * 1)) & 0xFF;
  57:ROSSerial/rosserial_msgs/TopicInfo.h ****       *(outbuffer + offset + 2) = (u_buffer_size.base >> (8 * 2)) & 0xFF;
  58:ROSSerial/rosserial_msgs/TopicInfo.h ****       *(outbuffer + offset + 3) = (u_buffer_size.base >> (8 * 3)) & 0xFF;
  59:ROSSerial/rosserial_msgs/TopicInfo.h ****       offset += sizeof(this->buffer_size);
  60:ROSSerial/rosserial_msgs/TopicInfo.h ****       return offset;
  61:ROSSerial/rosserial_msgs/TopicInfo.h ****     }
  62:ROSSerial/rosserial_msgs/TopicInfo.h **** 
  63:ROSSerial/rosserial_msgs/TopicInfo.h ****     virtual int deserialize(unsigned char *inbuffer)
 201              		.loc 2 63 0
 202              		.cfi_startproc
 203              		@ args = 0, pretend = 0, frame = 0
 204              		@ frame_needed = 0, uses_anonymous_args = 0
 205              		@ link register save eliminated.
 206              	.LVL12:
 207 0000 70B4     		push	{r4, r5, r6}
 208              	.LCFI0:
 209              		.cfi_def_cfa_offset 12
 210              		.cfi_offset 4, -12
 211              		.cfi_offset 5, -8
 212              		.cfi_offset 6, -4
 213              	.LVL13:
  64:ROSSerial/rosserial_msgs/TopicInfo.h ****     {
  65:ROSSerial/rosserial_msgs/TopicInfo.h ****       int offset = 0;
  66:ROSSerial/rosserial_msgs/TopicInfo.h ****       this->topic_id =  ((uint16_t) (*(inbuffer + offset)));
 214              		.loc 2 66 0
 215 0002 0B78     		ldrb	r3, [r1]	@ zero_extendqisi2
 216 0004 8380     		strh	r3, [r0, #4]	@ movhi
  67:ROSSerial/rosserial_msgs/TopicInfo.h ****       this->topic_id |= ((uint16_t) (*(inbuffer + offset + 1))) << (8 * 1);
 217              		.loc 2 67 0
 218 0006 4A78     		ldrb	r2, [r1, #1]	@ zero_extendqisi2
 219 0008 43EA0223 		orr	r3, r3, r2, lsl #8
 220 000c 8380     		strh	r3, [r0, #4]	@ movhi
 221              	.LVL14:
  68:ROSSerial/rosserial_msgs/TopicInfo.h ****       offset += sizeof(this->topic_id);
  69:ROSSerial/rosserial_msgs/TopicInfo.h ****       uint32_t length_topic_name;
  70:ROSSerial/rosserial_msgs/TopicInfo.h ****       memcpy(&length_topic_name, (inbuffer + offset), sizeof(uint32_t));
 222              		.loc 2 70 0
 223 000e D1F80250 		ldr	r5, [r1, #2]	@ unaligned
 224              	.LVL15:
 225              	.LBB106:
  71:ROSSerial/rosserial_msgs/TopicInfo.h ****       offset += 4;
  72:ROSSerial/rosserial_msgs/TopicInfo.h ****       for(unsigned int k= offset; k< offset+length_topic_name; ++k){
 226              		.loc 2 72 0
 227 0012 0623     		movs	r3, #6
ARM GAS  /var/folders/l3/4y5292px21b4835bsnjwqc7w009kq1/T//ccOXyXY5.s 			page 7


 228              	.LVL16:
 229              	.L11:
 230              		.loc 2 72 0 is_stmt 0 discriminator 3
 231 0014 AA1D     		adds	r2, r5, #6
 232 0016 9A42     		cmp	r2, r3
 233 0018 04D9     		bls	.L10
  73:ROSSerial/rosserial_msgs/TopicInfo.h ****           inbuffer[k-1]=inbuffer[k];
 234              		.loc 2 73 0 is_stmt 1 discriminator 2
 235 001a 5A1E     		subs	r2, r3, #1
 236 001c CC5C     		ldrb	r4, [r1, r3]	@ zero_extendqisi2
 237 001e 8C54     		strb	r4, [r1, r2]
  72:ROSSerial/rosserial_msgs/TopicInfo.h ****           inbuffer[k-1]=inbuffer[k];
 238              		.loc 2 72 0 discriminator 2
 239 0020 0133     		adds	r3, r3, #1
 240              	.LVL17:
 241 0022 F7E7     		b	.L11
 242              	.L10:
 243              	.LBE106:
  74:ROSSerial/rosserial_msgs/TopicInfo.h ****       }
  75:ROSSerial/rosserial_msgs/TopicInfo.h ****       inbuffer[offset+length_topic_name-1]=0;
 244              		.loc 2 75 0
 245 0024 0535     		adds	r5, r5, #5
 246              	.LVL18:
 247 0026 0023     		movs	r3, #0
 248              	.LVL19:
 249 0028 4B55     		strb	r3, [r1, r5]
  76:ROSSerial/rosserial_msgs/TopicInfo.h ****       this->topic_name = (char *)(inbuffer + offset-1);
 250              		.loc 2 76 0
 251 002a 4B1D     		adds	r3, r1, #5
 252 002c 8360     		str	r3, [r0, #8]
 253              	.LVL20:
  77:ROSSerial/rosserial_msgs/TopicInfo.h ****       offset += length_topic_name;
  78:ROSSerial/rosserial_msgs/TopicInfo.h ****       uint32_t length_message_type;
  79:ROSSerial/rosserial_msgs/TopicInfo.h ****       memcpy(&length_message_type, (inbuffer + offset), sizeof(uint32_t));
 254              		.loc 2 79 0
 255 002e 8E58     		ldr	r6, [r1, r2]	@ unaligned
 256              	.LVL21:
  80:ROSSerial/rosserial_msgs/TopicInfo.h ****       offset += 4;
 257              		.loc 2 80 0
 258 0030 141D     		adds	r4, r2, #4
 259              	.LVL22:
 260              	.LBB107:
  81:ROSSerial/rosserial_msgs/TopicInfo.h ****       for(unsigned int k= offset; k< offset+length_message_type; ++k){
 261              		.loc 2 81 0
 262 0032 2346     		mov	r3, r4
 263              	.LVL23:
 264              	.L13:
 265              		.loc 2 81 0 is_stmt 0 discriminator 3
 266 0034 3219     		adds	r2, r6, r4
 267 0036 9A42     		cmp	r2, r3
 268 0038 04D9     		bls	.L12
  82:ROSSerial/rosserial_msgs/TopicInfo.h ****           inbuffer[k-1]=inbuffer[k];
 269              		.loc 2 82 0 is_stmt 1 discriminator 2
 270 003a 5A1E     		subs	r2, r3, #1
 271 003c CD5C     		ldrb	r5, [r1, r3]	@ zero_extendqisi2
 272 003e 8D54     		strb	r5, [r1, r2]
  81:ROSSerial/rosserial_msgs/TopicInfo.h ****       for(unsigned int k= offset; k< offset+length_message_type; ++k){
ARM GAS  /var/folders/l3/4y5292px21b4835bsnjwqc7w009kq1/T//ccOXyXY5.s 			page 8


 273              		.loc 2 81 0 discriminator 2
 274 0040 0133     		adds	r3, r3, #1
 275              	.LVL24:
 276 0042 F7E7     		b	.L13
 277              	.L12:
 278              	.LBE107:
  83:ROSSerial/rosserial_msgs/TopicInfo.h ****       }
  84:ROSSerial/rosserial_msgs/TopicInfo.h ****       inbuffer[offset+length_message_type-1]=0;
 279              		.loc 2 84 0
 280 0044 531E     		subs	r3, r2, #1
 281              	.LVL25:
 282 0046 0025     		movs	r5, #0
 283 0048 CD54     		strb	r5, [r1, r3]
  85:ROSSerial/rosserial_msgs/TopicInfo.h ****       this->message_type = (char *)(inbuffer + offset-1);
 284              		.loc 2 85 0
 285 004a 013C     		subs	r4, r4, #1
 286              	.LVL26:
 287 004c 0C44     		add	r4, r4, r1
 288              	.LVL27:
 289 004e C460     		str	r4, [r0, #12]
 290              	.LVL28:
  86:ROSSerial/rosserial_msgs/TopicInfo.h ****       offset += length_message_type;
  87:ROSSerial/rosserial_msgs/TopicInfo.h ****       uint32_t length_md5sum;
  88:ROSSerial/rosserial_msgs/TopicInfo.h ****       memcpy(&length_md5sum, (inbuffer + offset), sizeof(uint32_t));
 291              		.loc 2 88 0
 292 0050 8E58     		ldr	r6, [r1, r2]	@ unaligned
 293              	.LVL29:
  89:ROSSerial/rosserial_msgs/TopicInfo.h ****       offset += 4;
 294              		.loc 2 89 0
 295 0052 0432     		adds	r2, r2, #4
 296              	.LVL30:
 297              	.LBB108:
  90:ROSSerial/rosserial_msgs/TopicInfo.h ****       for(unsigned int k= offset; k< offset+length_md5sum; ++k){
 298              		.loc 2 90 0
 299 0054 1346     		mov	r3, r2
 300              	.LVL31:
 301              	.L15:
 302              		.loc 2 90 0 is_stmt 0 discriminator 3
 303 0056 B418     		adds	r4, r6, r2
 304 0058 9C42     		cmp	r4, r3
 305 005a 04D9     		bls	.L14
  91:ROSSerial/rosserial_msgs/TopicInfo.h ****           inbuffer[k-1]=inbuffer[k];
 306              		.loc 2 91 0 is_stmt 1 discriminator 2
 307 005c 5C1E     		subs	r4, r3, #1
 308 005e CD5C     		ldrb	r5, [r1, r3]	@ zero_extendqisi2
 309 0060 0D55     		strb	r5, [r1, r4]
  90:ROSSerial/rosserial_msgs/TopicInfo.h ****       for(unsigned int k= offset; k< offset+length_md5sum; ++k){
 310              		.loc 2 90 0 discriminator 2
 311 0062 0133     		adds	r3, r3, #1
 312              	.LVL32:
 313 0064 F7E7     		b	.L15
 314              	.L14:
 315              	.LBE108:
  92:ROSSerial/rosserial_msgs/TopicInfo.h ****       }
  93:ROSSerial/rosserial_msgs/TopicInfo.h ****       inbuffer[offset+length_md5sum-1]=0;
 316              		.loc 2 93 0
 317 0066 631E     		subs	r3, r4, #1
ARM GAS  /var/folders/l3/4y5292px21b4835bsnjwqc7w009kq1/T//ccOXyXY5.s 			page 9


 318              	.LVL33:
 319 0068 0025     		movs	r5, #0
 320 006a CD54     		strb	r5, [r1, r3]
  94:ROSSerial/rosserial_msgs/TopicInfo.h ****       this->md5sum = (char *)(inbuffer + offset-1);
 321              		.loc 2 94 0
 322 006c 013A     		subs	r2, r2, #1
 323 006e 0A44     		add	r2, r2, r1
 324 0070 0261     		str	r2, [r0, #16]
 325              	.LVL34:
  95:ROSSerial/rosserial_msgs/TopicInfo.h ****       offset += length_md5sum;
  96:ROSSerial/rosserial_msgs/TopicInfo.h ****       union {
  97:ROSSerial/rosserial_msgs/TopicInfo.h ****         int32_t real;
  98:ROSSerial/rosserial_msgs/TopicInfo.h ****         uint32_t base;
  99:ROSSerial/rosserial_msgs/TopicInfo.h ****       } u_buffer_size;
 100:ROSSerial/rosserial_msgs/TopicInfo.h ****       u_buffer_size.base = 0;
 101:ROSSerial/rosserial_msgs/TopicInfo.h ****       u_buffer_size.base |= ((uint32_t) (*(inbuffer + offset + 0))) << (8 * 0);
 326              		.loc 2 101 0
 327 0072 0B5D     		ldrb	r3, [r1, r4]	@ zero_extendqisi2
 102:ROSSerial/rosserial_msgs/TopicInfo.h ****       u_buffer_size.base |= ((uint32_t) (*(inbuffer + offset + 1))) << (8 * 1);
 328              		.loc 2 102 0
 329 0074 621C     		adds	r2, r4, #1
 330 0076 8A5C     		ldrb	r2, [r1, r2]	@ zero_extendqisi2
 331 0078 43EA0223 		orr	r3, r3, r2, lsl #8
 103:ROSSerial/rosserial_msgs/TopicInfo.h ****       u_buffer_size.base |= ((uint32_t) (*(inbuffer + offset + 2))) << (8 * 2);
 332              		.loc 2 103 0
 333 007c A21C     		adds	r2, r4, #2
 334 007e 8A5C     		ldrb	r2, [r1, r2]	@ zero_extendqisi2
 335 0080 43EA0243 		orr	r3, r3, r2, lsl #16
 104:ROSSerial/rosserial_msgs/TopicInfo.h ****       u_buffer_size.base |= ((uint32_t) (*(inbuffer + offset + 3))) << (8 * 3);
 336              		.loc 2 104 0
 337 0084 E21C     		adds	r2, r4, #3
 338 0086 8A5C     		ldrb	r2, [r1, r2]	@ zero_extendqisi2
 339 0088 43EA0263 		orr	r3, r3, r2, lsl #24
 105:ROSSerial/rosserial_msgs/TopicInfo.h ****       this->buffer_size = u_buffer_size.real;
 340              		.loc 2 105 0
 341 008c 4361     		str	r3, [r0, #20]
 342              	.LVL35:
 106:ROSSerial/rosserial_msgs/TopicInfo.h ****       offset += sizeof(this->buffer_size);
 107:ROSSerial/rosserial_msgs/TopicInfo.h ****      return offset;
 108:ROSSerial/rosserial_msgs/TopicInfo.h ****     }
 343              		.loc 2 108 0
 344 008e 201D     		adds	r0, r4, #4
 345              	.LVL36:
 346 0090 70BC     		pop	{r4, r5, r6}
 347              	.LCFI1:
 348              		.cfi_restore 6
 349              		.cfi_restore 5
 350              		.cfi_restore 4
 351              		.cfi_def_cfa_offset 0
 352 0092 7047     		bx	lr
 353              		.cfi_endproc
 354              	.LFE383:
 355              		.cantunwind
 356              		.fnend
 358              		.section	.text._ZN14rosserial_msgs9TopicInfo7getTypeEv,"axG",%progbits,_ZN14rosserial_msgs9TopicIn
 359              		.align	1
 360              		.weak	_ZN14rosserial_msgs9TopicInfo7getTypeEv
ARM GAS  /var/folders/l3/4y5292px21b4835bsnjwqc7w009kq1/T//ccOXyXY5.s 			page 10


 361              		.syntax unified
 362              		.thumb
 363              		.thumb_func
 364              		.fpu fpv4-sp-d16
 366              	_ZN14rosserial_msgs9TopicInfo7getTypeEv:
 367              		.fnstart
 368              	.LFB384:
 109:ROSSerial/rosserial_msgs/TopicInfo.h **** 
 110:ROSSerial/rosserial_msgs/TopicInfo.h ****     const char * getType(){ return "rosserial_msgs/TopicInfo"; };
 369              		.loc 2 110 0
 370              		.cfi_startproc
 371              		@ args = 0, pretend = 0, frame = 0
 372              		@ frame_needed = 0, uses_anonymous_args = 0
 373              		@ link register save eliminated.
 374              	.LVL37:
 375              		.loc 2 110 0
 376 0000 0048     		ldr	r0, .L18
 377              	.LVL38:
 378 0002 7047     		bx	lr
 379              	.L19:
 380              		.align	2
 381              	.L18:
 382 0004 00000000 		.word	.LC2
 383              		.cfi_endproc
 384              	.LFE384:
 385              		.cantunwind
 386              		.fnend
 388              		.section	.text._ZN14rosserial_msgs9TopicInfo6getMD5Ev,"axG",%progbits,_ZN14rosserial_msgs9TopicInf
 389              		.align	1
 390              		.weak	_ZN14rosserial_msgs9TopicInfo6getMD5Ev
 391              		.syntax unified
 392              		.thumb
 393              		.thumb_func
 394              		.fpu fpv4-sp-d16
 396              	_ZN14rosserial_msgs9TopicInfo6getMD5Ev:
 397              		.fnstart
 398              	.LFB385:
 111:ROSSerial/rosserial_msgs/TopicInfo.h ****     const char * getMD5(){ return "0ad51f88fc44892f8c10684077646005"; };
 399              		.loc 2 111 0
 400              		.cfi_startproc
 401              		@ args = 0, pretend = 0, frame = 0
 402              		@ frame_needed = 0, uses_anonymous_args = 0
 403              		@ link register save eliminated.
 404              	.LVL39:
 405              		.loc 2 111 0
 406 0000 0048     		ldr	r0, .L21
 407              	.LVL40:
 408 0002 7047     		bx	lr
 409              	.L22:
 410              		.align	2
 411              	.L21:
 412 0004 00000000 		.word	.LC3
 413              		.cfi_endproc
 414              	.LFE385:
 415              		.cantunwind
 416              		.fnend
 418              		.section	.text._ZN14rosserial_msgs3Log11deserializeEPh,"axG",%progbits,_ZN14rosserial_msgs3Log11de
ARM GAS  /var/folders/l3/4y5292px21b4835bsnjwqc7w009kq1/T//ccOXyXY5.s 			page 11


 419              		.align	1
 420              		.weak	_ZN14rosserial_msgs3Log11deserializeEPh
 421              		.syntax unified
 422              		.thumb
 423              		.thumb_func
 424              		.fpu fpv4-sp-d16
 426              	_ZN14rosserial_msgs3Log11deserializeEPh:
 427              		.fnstart
 428              	.LFB387:
 429              		.file 3 "ROSSerial/rosserial_msgs/Log.h"
   1:ROSSerial/rosserial_msgs/Log.h **** #ifndef _ROS_rosserial_msgs_Log_h
   2:ROSSerial/rosserial_msgs/Log.h **** #define _ROS_rosserial_msgs_Log_h
   3:ROSSerial/rosserial_msgs/Log.h **** 
   4:ROSSerial/rosserial_msgs/Log.h **** #include <stdint.h>
   5:ROSSerial/rosserial_msgs/Log.h **** #include <string.h>
   6:ROSSerial/rosserial_msgs/Log.h **** #include <stdlib.h>
   7:ROSSerial/rosserial_msgs/Log.h **** #include "ros/msg.h"
   8:ROSSerial/rosserial_msgs/Log.h **** 
   9:ROSSerial/rosserial_msgs/Log.h **** 
  10:ROSSerial/rosserial_msgs/Log.h **** namespace rosserial_msgs
  11:ROSSerial/rosserial_msgs/Log.h **** {
  12:ROSSerial/rosserial_msgs/Log.h **** 
  13:ROSSerial/rosserial_msgs/Log.h ****   class Log : public ros::Msg
  14:ROSSerial/rosserial_msgs/Log.h ****   {
  15:ROSSerial/rosserial_msgs/Log.h ****     public:
  16:ROSSerial/rosserial_msgs/Log.h ****       uint8_t level;
  17:ROSSerial/rosserial_msgs/Log.h ****       const char* msg;
  18:ROSSerial/rosserial_msgs/Log.h ****       enum { ROSDEBUG = 0 };
  19:ROSSerial/rosserial_msgs/Log.h ****       enum { INFO = 1 };
  20:ROSSerial/rosserial_msgs/Log.h ****       enum { WARN = 2 };
  21:ROSSerial/rosserial_msgs/Log.h ****       enum { ERROR = 3 };
  22:ROSSerial/rosserial_msgs/Log.h ****       enum { FATAL = 4 };
  23:ROSSerial/rosserial_msgs/Log.h **** 
  24:ROSSerial/rosserial_msgs/Log.h ****     virtual int serialize(unsigned char *outbuffer) const
  25:ROSSerial/rosserial_msgs/Log.h ****     {
  26:ROSSerial/rosserial_msgs/Log.h ****       int offset = 0;
  27:ROSSerial/rosserial_msgs/Log.h ****       *(outbuffer + offset + 0) = (this->level >> (8 * 0)) & 0xFF;
  28:ROSSerial/rosserial_msgs/Log.h ****       offset += sizeof(this->level);
  29:ROSSerial/rosserial_msgs/Log.h ****       uint32_t length_msg = strlen(this->msg);
  30:ROSSerial/rosserial_msgs/Log.h ****       memcpy(outbuffer + offset, &length_msg, sizeof(uint32_t));
  31:ROSSerial/rosserial_msgs/Log.h ****       offset += 4;
  32:ROSSerial/rosserial_msgs/Log.h ****       memcpy(outbuffer + offset, this->msg, length_msg);
  33:ROSSerial/rosserial_msgs/Log.h ****       offset += length_msg;
  34:ROSSerial/rosserial_msgs/Log.h ****       return offset;
  35:ROSSerial/rosserial_msgs/Log.h ****     }
  36:ROSSerial/rosserial_msgs/Log.h **** 
  37:ROSSerial/rosserial_msgs/Log.h ****     virtual int deserialize(unsigned char *inbuffer)
 430              		.loc 3 37 0
 431              		.cfi_startproc
 432              		@ args = 0, pretend = 0, frame = 0
 433              		@ frame_needed = 0, uses_anonymous_args = 0
 434              		@ link register save eliminated.
 435              	.LVL41:
 436 0000 30B4     		push	{r4, r5}
 437              	.LCFI2:
 438              		.cfi_def_cfa_offset 8
 439              		.cfi_offset 4, -8
ARM GAS  /var/folders/l3/4y5292px21b4835bsnjwqc7w009kq1/T//ccOXyXY5.s 			page 12


 440              		.cfi_offset 5, -4
 441              	.LVL42:
  38:ROSSerial/rosserial_msgs/Log.h ****     {
  39:ROSSerial/rosserial_msgs/Log.h ****       int offset = 0;
  40:ROSSerial/rosserial_msgs/Log.h ****       this->level =  ((uint8_t) (*(inbuffer + offset)));
 442              		.loc 3 40 0
 443 0002 0B78     		ldrb	r3, [r1]	@ zero_extendqisi2
 444 0004 0371     		strb	r3, [r0, #4]
 445              	.LVL43:
  41:ROSSerial/rosserial_msgs/Log.h ****       offset += sizeof(this->level);
  42:ROSSerial/rosserial_msgs/Log.h ****       uint32_t length_msg;
  43:ROSSerial/rosserial_msgs/Log.h ****       memcpy(&length_msg, (inbuffer + offset), sizeof(uint32_t));
 446              		.loc 3 43 0
 447 0006 D1F80150 		ldr	r5, [r1, #1]	@ unaligned
 448              	.LVL44:
 449              	.LBB109:
  44:ROSSerial/rosserial_msgs/Log.h ****       offset += 4;
  45:ROSSerial/rosserial_msgs/Log.h ****       for(unsigned int k= offset; k< offset+length_msg; ++k){
 450              		.loc 3 45 0
 451 000a 0523     		movs	r3, #5
 452              	.LVL45:
 453              	.L25:
 454              		.loc 3 45 0 is_stmt 0 discriminator 3
 455 000c 6A1D     		adds	r2, r5, #5
 456 000e 9A42     		cmp	r2, r3
 457 0010 04D9     		bls	.L24
  46:ROSSerial/rosserial_msgs/Log.h ****           inbuffer[k-1]=inbuffer[k];
 458              		.loc 3 46 0 is_stmt 1 discriminator 2
 459 0012 5A1E     		subs	r2, r3, #1
 460 0014 CC5C     		ldrb	r4, [r1, r3]	@ zero_extendqisi2
 461 0016 8C54     		strb	r4, [r1, r2]
  45:ROSSerial/rosserial_msgs/Log.h ****           inbuffer[k-1]=inbuffer[k];
 462              		.loc 3 45 0 discriminator 2
 463 0018 0133     		adds	r3, r3, #1
 464              	.LVL46:
 465 001a F7E7     		b	.L25
 466              	.L24:
 467              	.LBE109:
  47:ROSSerial/rosserial_msgs/Log.h ****       }
  48:ROSSerial/rosserial_msgs/Log.h ****       inbuffer[offset+length_msg-1]=0;
 468              		.loc 3 48 0
 469 001c 0435     		adds	r5, r5, #4
 470              	.LVL47:
 471 001e 0023     		movs	r3, #0
 472              	.LVL48:
 473 0020 4B55     		strb	r3, [r1, r5]
  49:ROSSerial/rosserial_msgs/Log.h ****       this->msg = (char *)(inbuffer + offset-1);
 474              		.loc 3 49 0
 475 0022 0431     		adds	r1, r1, #4
 476              	.LVL49:
 477 0024 8160     		str	r1, [r0, #8]
 478              	.LVL50:
  50:ROSSerial/rosserial_msgs/Log.h ****       offset += length_msg;
  51:ROSSerial/rosserial_msgs/Log.h ****      return offset;
  52:ROSSerial/rosserial_msgs/Log.h ****     }
 479              		.loc 3 52 0
 480 0026 1046     		mov	r0, r2
ARM GAS  /var/folders/l3/4y5292px21b4835bsnjwqc7w009kq1/T//ccOXyXY5.s 			page 13


 481              	.LVL51:
 482 0028 30BC     		pop	{r4, r5}
 483              	.LCFI3:
 484              		.cfi_restore 5
 485              		.cfi_restore 4
 486              		.cfi_def_cfa_offset 0
 487 002a 7047     		bx	lr
 488              		.cfi_endproc
 489              	.LFE387:
 490              		.cantunwind
 491              		.fnend
 493              		.section	.text._ZN14rosserial_msgs3Log7getTypeEv,"axG",%progbits,_ZN14rosserial_msgs3Log7getTypeEv
 494              		.align	1
 495              		.weak	_ZN14rosserial_msgs3Log7getTypeEv
 496              		.syntax unified
 497              		.thumb
 498              		.thumb_func
 499              		.fpu fpv4-sp-d16
 501              	_ZN14rosserial_msgs3Log7getTypeEv:
 502              		.fnstart
 503              	.LFB388:
  53:ROSSerial/rosserial_msgs/Log.h **** 
  54:ROSSerial/rosserial_msgs/Log.h ****     const char * getType(){ return "rosserial_msgs/Log"; };
 504              		.loc 3 54 0
 505              		.cfi_startproc
 506              		@ args = 0, pretend = 0, frame = 0
 507              		@ frame_needed = 0, uses_anonymous_args = 0
 508              		@ link register save eliminated.
 509              	.LVL52:
 510              		.loc 3 54 0
 511 0000 0048     		ldr	r0, .L28
 512              	.LVL53:
 513 0002 7047     		bx	lr
 514              	.L29:
 515              		.align	2
 516              	.L28:
 517 0004 00000000 		.word	.LC4
 518              		.cfi_endproc
 519              	.LFE388:
 520              		.cantunwind
 521              		.fnend
 523              		.section	.text._ZN14rosserial_msgs3Log6getMD5Ev,"axG",%progbits,_ZN14rosserial_msgs3Log6getMD5Ev,c
 524              		.align	1
 525              		.weak	_ZN14rosserial_msgs3Log6getMD5Ev
 526              		.syntax unified
 527              		.thumb
 528              		.thumb_func
 529              		.fpu fpv4-sp-d16
 531              	_ZN14rosserial_msgs3Log6getMD5Ev:
 532              		.fnstart
 533              	.LFB389:
  55:ROSSerial/rosserial_msgs/Log.h ****     const char * getMD5(){ return "11abd731c25933261cd6183bd12d6295"; };
 534              		.loc 3 55 0
 535              		.cfi_startproc
 536              		@ args = 0, pretend = 0, frame = 0
 537              		@ frame_needed = 0, uses_anonymous_args = 0
 538              		@ link register save eliminated.
ARM GAS  /var/folders/l3/4y5292px21b4835bsnjwqc7w009kq1/T//ccOXyXY5.s 			page 14


 539              	.LVL54:
 540              		.loc 3 55 0
 541 0000 0048     		ldr	r0, .L31
 542              	.LVL55:
 543 0002 7047     		bx	lr
 544              	.L32:
 545              		.align	2
 546              	.L31:
 547 0004 00000000 		.word	.LC5
 548              		.cfi_endproc
 549              	.LFE389:
 550              		.cantunwind
 551              		.fnend
 553              		.section	.text._ZN14rosserial_msgs20RequestParamResponse7getTypeEv,"axG",%progbits,_ZN14rosserial_
 554              		.align	1
 555              		.weak	_ZN14rosserial_msgs20RequestParamResponse7getTypeEv
 556              		.syntax unified
 557              		.thumb
 558              		.thumb_func
 559              		.fpu fpv4-sp-d16
 561              	_ZN14rosserial_msgs20RequestParamResponse7getTypeEv:
 562              		.fnstart
 563              	.LFB396:
 564              		.file 4 "ROSSerial/rosserial_msgs/RequestParam.h"
   1:ROSSerial/rosserial_msgs/RequestParam.h **** #ifndef _ROS_SERVICE_RequestParam_h
   2:ROSSerial/rosserial_msgs/RequestParam.h **** #define _ROS_SERVICE_RequestParam_h
   3:ROSSerial/rosserial_msgs/RequestParam.h **** 
   4:ROSSerial/rosserial_msgs/RequestParam.h **** #include <stdint.h>
   5:ROSSerial/rosserial_msgs/RequestParam.h **** #include <string.h>
   6:ROSSerial/rosserial_msgs/RequestParam.h **** #include <stdlib.h>
   7:ROSSerial/rosserial_msgs/RequestParam.h **** #include "ros/msg.h"
   8:ROSSerial/rosserial_msgs/RequestParam.h **** 
   9:ROSSerial/rosserial_msgs/RequestParam.h **** 
  10:ROSSerial/rosserial_msgs/RequestParam.h **** namespace rosserial_msgs
  11:ROSSerial/rosserial_msgs/RequestParam.h **** {
  12:ROSSerial/rosserial_msgs/RequestParam.h **** 
  13:ROSSerial/rosserial_msgs/RequestParam.h **** static const char REQUESTPARAM[] = "rosserial_msgs/RequestParam";
  14:ROSSerial/rosserial_msgs/RequestParam.h **** 
  15:ROSSerial/rosserial_msgs/RequestParam.h ****   class RequestParamRequest : public ros::Msg
  16:ROSSerial/rosserial_msgs/RequestParam.h ****   {
  17:ROSSerial/rosserial_msgs/RequestParam.h ****     public:
  18:ROSSerial/rosserial_msgs/RequestParam.h ****       const char* name;
  19:ROSSerial/rosserial_msgs/RequestParam.h **** 
  20:ROSSerial/rosserial_msgs/RequestParam.h ****     virtual int serialize(unsigned char *outbuffer) const
  21:ROSSerial/rosserial_msgs/RequestParam.h ****     {
  22:ROSSerial/rosserial_msgs/RequestParam.h ****       int offset = 0;
  23:ROSSerial/rosserial_msgs/RequestParam.h ****       uint32_t length_name = strlen(this->name);
  24:ROSSerial/rosserial_msgs/RequestParam.h ****       memcpy(outbuffer + offset, &length_name, sizeof(uint32_t));
  25:ROSSerial/rosserial_msgs/RequestParam.h ****       offset += 4;
  26:ROSSerial/rosserial_msgs/RequestParam.h ****       memcpy(outbuffer + offset, this->name, length_name);
  27:ROSSerial/rosserial_msgs/RequestParam.h ****       offset += length_name;
  28:ROSSerial/rosserial_msgs/RequestParam.h ****       return offset;
  29:ROSSerial/rosserial_msgs/RequestParam.h ****     }
  30:ROSSerial/rosserial_msgs/RequestParam.h **** 
  31:ROSSerial/rosserial_msgs/RequestParam.h ****     virtual int deserialize(unsigned char *inbuffer)
  32:ROSSerial/rosserial_msgs/RequestParam.h ****     {
  33:ROSSerial/rosserial_msgs/RequestParam.h ****       int offset = 0;
ARM GAS  /var/folders/l3/4y5292px21b4835bsnjwqc7w009kq1/T//ccOXyXY5.s 			page 15


  34:ROSSerial/rosserial_msgs/RequestParam.h ****       uint32_t length_name;
  35:ROSSerial/rosserial_msgs/RequestParam.h ****       memcpy(&length_name, (inbuffer + offset), sizeof(uint32_t));
  36:ROSSerial/rosserial_msgs/RequestParam.h ****       offset += 4;
  37:ROSSerial/rosserial_msgs/RequestParam.h ****       for(unsigned int k= offset; k< offset+length_name; ++k){
  38:ROSSerial/rosserial_msgs/RequestParam.h ****           inbuffer[k-1]=inbuffer[k];
  39:ROSSerial/rosserial_msgs/RequestParam.h ****       }
  40:ROSSerial/rosserial_msgs/RequestParam.h ****       inbuffer[offset+length_name-1]=0;
  41:ROSSerial/rosserial_msgs/RequestParam.h ****       this->name = (char *)(inbuffer + offset-1);
  42:ROSSerial/rosserial_msgs/RequestParam.h ****       offset += length_name;
  43:ROSSerial/rosserial_msgs/RequestParam.h ****      return offset;
  44:ROSSerial/rosserial_msgs/RequestParam.h ****     }
  45:ROSSerial/rosserial_msgs/RequestParam.h **** 
  46:ROSSerial/rosserial_msgs/RequestParam.h ****     const char * getType(){ return REQUESTPARAM; };
  47:ROSSerial/rosserial_msgs/RequestParam.h ****     const char * getMD5(){ return "c1f3d28f1b044c871e6eff2e9fc3c667"; };
  48:ROSSerial/rosserial_msgs/RequestParam.h **** 
  49:ROSSerial/rosserial_msgs/RequestParam.h ****   };
  50:ROSSerial/rosserial_msgs/RequestParam.h **** 
  51:ROSSerial/rosserial_msgs/RequestParam.h ****   class RequestParamResponse : public ros::Msg
  52:ROSSerial/rosserial_msgs/RequestParam.h ****   {
  53:ROSSerial/rosserial_msgs/RequestParam.h ****     public:
  54:ROSSerial/rosserial_msgs/RequestParam.h ****       uint8_t ints_length;
  55:ROSSerial/rosserial_msgs/RequestParam.h ****       int32_t st_ints;
  56:ROSSerial/rosserial_msgs/RequestParam.h ****       int32_t * ints;
  57:ROSSerial/rosserial_msgs/RequestParam.h ****       uint8_t floats_length;
  58:ROSSerial/rosserial_msgs/RequestParam.h ****       float st_floats;
  59:ROSSerial/rosserial_msgs/RequestParam.h ****       float * floats;
  60:ROSSerial/rosserial_msgs/RequestParam.h ****       uint8_t strings_length;
  61:ROSSerial/rosserial_msgs/RequestParam.h ****       char* st_strings;
  62:ROSSerial/rosserial_msgs/RequestParam.h ****       char* * strings;
  63:ROSSerial/rosserial_msgs/RequestParam.h **** 
  64:ROSSerial/rosserial_msgs/RequestParam.h ****     virtual int serialize(unsigned char *outbuffer) const
  65:ROSSerial/rosserial_msgs/RequestParam.h ****     {
  66:ROSSerial/rosserial_msgs/RequestParam.h ****       int offset = 0;
  67:ROSSerial/rosserial_msgs/RequestParam.h ****       *(outbuffer + offset++) = ints_length;
  68:ROSSerial/rosserial_msgs/RequestParam.h ****       *(outbuffer + offset++) = 0;
  69:ROSSerial/rosserial_msgs/RequestParam.h ****       *(outbuffer + offset++) = 0;
  70:ROSSerial/rosserial_msgs/RequestParam.h ****       *(outbuffer + offset++) = 0;
  71:ROSSerial/rosserial_msgs/RequestParam.h ****       for( uint8_t i = 0; i < ints_length; i++){
  72:ROSSerial/rosserial_msgs/RequestParam.h ****       union {
  73:ROSSerial/rosserial_msgs/RequestParam.h ****         int32_t real;
  74:ROSSerial/rosserial_msgs/RequestParam.h ****         uint32_t base;
  75:ROSSerial/rosserial_msgs/RequestParam.h ****       } u_intsi;
  76:ROSSerial/rosserial_msgs/RequestParam.h ****       u_intsi.real = this->ints[i];
  77:ROSSerial/rosserial_msgs/RequestParam.h ****       *(outbuffer + offset + 0) = (u_intsi.base >> (8 * 0)) & 0xFF;
  78:ROSSerial/rosserial_msgs/RequestParam.h ****       *(outbuffer + offset + 1) = (u_intsi.base >> (8 * 1)) & 0xFF;
  79:ROSSerial/rosserial_msgs/RequestParam.h ****       *(outbuffer + offset + 2) = (u_intsi.base >> (8 * 2)) & 0xFF;
  80:ROSSerial/rosserial_msgs/RequestParam.h ****       *(outbuffer + offset + 3) = (u_intsi.base >> (8 * 3)) & 0xFF;
  81:ROSSerial/rosserial_msgs/RequestParam.h ****       offset += sizeof(this->ints[i]);
  82:ROSSerial/rosserial_msgs/RequestParam.h ****       }
  83:ROSSerial/rosserial_msgs/RequestParam.h ****       *(outbuffer + offset++) = floats_length;
  84:ROSSerial/rosserial_msgs/RequestParam.h ****       *(outbuffer + offset++) = 0;
  85:ROSSerial/rosserial_msgs/RequestParam.h ****       *(outbuffer + offset++) = 0;
  86:ROSSerial/rosserial_msgs/RequestParam.h ****       *(outbuffer + offset++) = 0;
  87:ROSSerial/rosserial_msgs/RequestParam.h ****       for( uint8_t i = 0; i < floats_length; i++){
  88:ROSSerial/rosserial_msgs/RequestParam.h ****       union {
  89:ROSSerial/rosserial_msgs/RequestParam.h ****         float real;
  90:ROSSerial/rosserial_msgs/RequestParam.h ****         uint32_t base;
ARM GAS  /var/folders/l3/4y5292px21b4835bsnjwqc7w009kq1/T//ccOXyXY5.s 			page 16


  91:ROSSerial/rosserial_msgs/RequestParam.h ****       } u_floatsi;
  92:ROSSerial/rosserial_msgs/RequestParam.h ****       u_floatsi.real = this->floats[i];
  93:ROSSerial/rosserial_msgs/RequestParam.h ****       *(outbuffer + offset + 0) = (u_floatsi.base >> (8 * 0)) & 0xFF;
  94:ROSSerial/rosserial_msgs/RequestParam.h ****       *(outbuffer + offset + 1) = (u_floatsi.base >> (8 * 1)) & 0xFF;
  95:ROSSerial/rosserial_msgs/RequestParam.h ****       *(outbuffer + offset + 2) = (u_floatsi.base >> (8 * 2)) & 0xFF;
  96:ROSSerial/rosserial_msgs/RequestParam.h ****       *(outbuffer + offset + 3) = (u_floatsi.base >> (8 * 3)) & 0xFF;
  97:ROSSerial/rosserial_msgs/RequestParam.h ****       offset += sizeof(this->floats[i]);
  98:ROSSerial/rosserial_msgs/RequestParam.h ****       }
  99:ROSSerial/rosserial_msgs/RequestParam.h ****       *(outbuffer + offset++) = strings_length;
 100:ROSSerial/rosserial_msgs/RequestParam.h ****       *(outbuffer + offset++) = 0;
 101:ROSSerial/rosserial_msgs/RequestParam.h ****       *(outbuffer + offset++) = 0;
 102:ROSSerial/rosserial_msgs/RequestParam.h ****       *(outbuffer + offset++) = 0;
 103:ROSSerial/rosserial_msgs/RequestParam.h ****       for( uint8_t i = 0; i < strings_length; i++){
 104:ROSSerial/rosserial_msgs/RequestParam.h ****       uint32_t length_stringsi = strlen(this->strings[i]);
 105:ROSSerial/rosserial_msgs/RequestParam.h ****       memcpy(outbuffer + offset, &length_stringsi, sizeof(uint32_t));
 106:ROSSerial/rosserial_msgs/RequestParam.h ****       offset += 4;
 107:ROSSerial/rosserial_msgs/RequestParam.h ****       memcpy(outbuffer + offset, this->strings[i], length_stringsi);
 108:ROSSerial/rosserial_msgs/RequestParam.h ****       offset += length_stringsi;
 109:ROSSerial/rosserial_msgs/RequestParam.h ****       }
 110:ROSSerial/rosserial_msgs/RequestParam.h ****       return offset;
 111:ROSSerial/rosserial_msgs/RequestParam.h ****     }
 112:ROSSerial/rosserial_msgs/RequestParam.h **** 
 113:ROSSerial/rosserial_msgs/RequestParam.h ****     virtual int deserialize(unsigned char *inbuffer)
 114:ROSSerial/rosserial_msgs/RequestParam.h ****     {
 115:ROSSerial/rosserial_msgs/RequestParam.h ****       int offset = 0;
 116:ROSSerial/rosserial_msgs/RequestParam.h ****       uint8_t ints_lengthT = *(inbuffer + offset++);
 117:ROSSerial/rosserial_msgs/RequestParam.h ****       if(ints_lengthT > ints_length)
 118:ROSSerial/rosserial_msgs/RequestParam.h ****         this->ints = (int32_t*)realloc(this->ints, ints_lengthT * sizeof(int32_t));
 119:ROSSerial/rosserial_msgs/RequestParam.h ****       offset += 3;
 120:ROSSerial/rosserial_msgs/RequestParam.h ****       ints_length = ints_lengthT;
 121:ROSSerial/rosserial_msgs/RequestParam.h ****       for( uint8_t i = 0; i < ints_length; i++){
 122:ROSSerial/rosserial_msgs/RequestParam.h ****       union {
 123:ROSSerial/rosserial_msgs/RequestParam.h ****         int32_t real;
 124:ROSSerial/rosserial_msgs/RequestParam.h ****         uint32_t base;
 125:ROSSerial/rosserial_msgs/RequestParam.h ****       } u_st_ints;
 126:ROSSerial/rosserial_msgs/RequestParam.h ****       u_st_ints.base = 0;
 127:ROSSerial/rosserial_msgs/RequestParam.h ****       u_st_ints.base |= ((uint32_t) (*(inbuffer + offset + 0))) << (8 * 0);
 128:ROSSerial/rosserial_msgs/RequestParam.h ****       u_st_ints.base |= ((uint32_t) (*(inbuffer + offset + 1))) << (8 * 1);
 129:ROSSerial/rosserial_msgs/RequestParam.h ****       u_st_ints.base |= ((uint32_t) (*(inbuffer + offset + 2))) << (8 * 2);
 130:ROSSerial/rosserial_msgs/RequestParam.h ****       u_st_ints.base |= ((uint32_t) (*(inbuffer + offset + 3))) << (8 * 3);
 131:ROSSerial/rosserial_msgs/RequestParam.h ****       this->st_ints = u_st_ints.real;
 132:ROSSerial/rosserial_msgs/RequestParam.h ****       offset += sizeof(this->st_ints);
 133:ROSSerial/rosserial_msgs/RequestParam.h ****         memcpy( &(this->ints[i]), &(this->st_ints), sizeof(int32_t));
 134:ROSSerial/rosserial_msgs/RequestParam.h ****       }
 135:ROSSerial/rosserial_msgs/RequestParam.h ****       uint8_t floats_lengthT = *(inbuffer + offset++);
 136:ROSSerial/rosserial_msgs/RequestParam.h ****       if(floats_lengthT > floats_length)
 137:ROSSerial/rosserial_msgs/RequestParam.h ****         this->floats = (float*)realloc(this->floats, floats_lengthT * sizeof(float));
 138:ROSSerial/rosserial_msgs/RequestParam.h ****       offset += 3;
 139:ROSSerial/rosserial_msgs/RequestParam.h ****       floats_length = floats_lengthT;
 140:ROSSerial/rosserial_msgs/RequestParam.h ****       for( uint8_t i = 0; i < floats_length; i++){
 141:ROSSerial/rosserial_msgs/RequestParam.h ****       union {
 142:ROSSerial/rosserial_msgs/RequestParam.h ****         float real;
 143:ROSSerial/rosserial_msgs/RequestParam.h ****         uint32_t base;
 144:ROSSerial/rosserial_msgs/RequestParam.h ****       } u_st_floats;
 145:ROSSerial/rosserial_msgs/RequestParam.h ****       u_st_floats.base = 0;
 146:ROSSerial/rosserial_msgs/RequestParam.h ****       u_st_floats.base |= ((uint32_t) (*(inbuffer + offset + 0))) << (8 * 0);
 147:ROSSerial/rosserial_msgs/RequestParam.h ****       u_st_floats.base |= ((uint32_t) (*(inbuffer + offset + 1))) << (8 * 1);
ARM GAS  /var/folders/l3/4y5292px21b4835bsnjwqc7w009kq1/T//ccOXyXY5.s 			page 17


 148:ROSSerial/rosserial_msgs/RequestParam.h ****       u_st_floats.base |= ((uint32_t) (*(inbuffer + offset + 2))) << (8 * 2);
 149:ROSSerial/rosserial_msgs/RequestParam.h ****       u_st_floats.base |= ((uint32_t) (*(inbuffer + offset + 3))) << (8 * 3);
 150:ROSSerial/rosserial_msgs/RequestParam.h ****       this->st_floats = u_st_floats.real;
 151:ROSSerial/rosserial_msgs/RequestParam.h ****       offset += sizeof(this->st_floats);
 152:ROSSerial/rosserial_msgs/RequestParam.h ****         memcpy( &(this->floats[i]), &(this->st_floats), sizeof(float));
 153:ROSSerial/rosserial_msgs/RequestParam.h ****       }
 154:ROSSerial/rosserial_msgs/RequestParam.h ****       uint8_t strings_lengthT = *(inbuffer + offset++);
 155:ROSSerial/rosserial_msgs/RequestParam.h ****       if(strings_lengthT > strings_length)
 156:ROSSerial/rosserial_msgs/RequestParam.h ****         this->strings = (char**)realloc(this->strings, strings_lengthT * sizeof(char*));
 157:ROSSerial/rosserial_msgs/RequestParam.h ****       offset += 3;
 158:ROSSerial/rosserial_msgs/RequestParam.h ****       strings_length = strings_lengthT;
 159:ROSSerial/rosserial_msgs/RequestParam.h ****       for( uint8_t i = 0; i < strings_length; i++){
 160:ROSSerial/rosserial_msgs/RequestParam.h ****       uint32_t length_st_strings;
 161:ROSSerial/rosserial_msgs/RequestParam.h ****       memcpy(&length_st_strings, (inbuffer + offset), sizeof(uint32_t));
 162:ROSSerial/rosserial_msgs/RequestParam.h ****       offset += 4;
 163:ROSSerial/rosserial_msgs/RequestParam.h ****       for(unsigned int k= offset; k< offset+length_st_strings; ++k){
 164:ROSSerial/rosserial_msgs/RequestParam.h ****           inbuffer[k-1]=inbuffer[k];
 165:ROSSerial/rosserial_msgs/RequestParam.h ****       }
 166:ROSSerial/rosserial_msgs/RequestParam.h ****       inbuffer[offset+length_st_strings-1]=0;
 167:ROSSerial/rosserial_msgs/RequestParam.h ****       this->st_strings = (char *)(inbuffer + offset-1);
 168:ROSSerial/rosserial_msgs/RequestParam.h ****       offset += length_st_strings;
 169:ROSSerial/rosserial_msgs/RequestParam.h ****         memcpy( &(this->strings[i]), &(this->st_strings), sizeof(char*));
 170:ROSSerial/rosserial_msgs/RequestParam.h ****       }
 171:ROSSerial/rosserial_msgs/RequestParam.h ****      return offset;
 172:ROSSerial/rosserial_msgs/RequestParam.h ****     }
 173:ROSSerial/rosserial_msgs/RequestParam.h **** 
 174:ROSSerial/rosserial_msgs/RequestParam.h ****     const char * getType(){ return REQUESTPARAM; };
 565              		.loc 4 174 0
 566              		.cfi_startproc
 567              		@ args = 0, pretend = 0, frame = 0
 568              		@ frame_needed = 0, uses_anonymous_args = 0
 569              		@ link register save eliminated.
 570              	.LVL56:
 571              		.loc 4 174 0
 572 0000 0048     		ldr	r0, .L34
 573              	.LVL57:
 574 0002 7047     		bx	lr
 575              	.L35:
 576              		.align	2
 577              	.L34:
 578 0004 00000000 		.word	.LANCHOR0
 579              		.cfi_endproc
 580              	.LFE396:
 581              		.cantunwind
 582              		.fnend
 584              		.section	.text._ZN14rosserial_msgs20RequestParamResponse6getMD5Ev,"axG",%progbits,_ZN14rosserial_m
 585              		.align	1
 586              		.weak	_ZN14rosserial_msgs20RequestParamResponse6getMD5Ev
 587              		.syntax unified
 588              		.thumb
 589              		.thumb_func
 590              		.fpu fpv4-sp-d16
 592              	_ZN14rosserial_msgs20RequestParamResponse6getMD5Ev:
 593              		.fnstart
 594              	.LFB397:
 175:ROSSerial/rosserial_msgs/RequestParam.h ****     const char * getMD5(){ return "9f0e98bda65981986ddf53afa7a40e49"; };
 595              		.loc 4 175 0
ARM GAS  /var/folders/l3/4y5292px21b4835bsnjwqc7w009kq1/T//ccOXyXY5.s 			page 18


 596              		.cfi_startproc
 597              		@ args = 0, pretend = 0, frame = 0
 598              		@ frame_needed = 0, uses_anonymous_args = 0
 599              		@ link register save eliminated.
 600              	.LVL58:
 601              		.loc 4 175 0
 602 0000 0048     		ldr	r0, .L37
 603              	.LVL59:
 604 0002 7047     		bx	lr
 605              	.L38:
 606              		.align	2
 607              	.L37:
 608 0004 00000000 		.word	.LC6
 609              		.cfi_endproc
 610              	.LFE397:
 611              		.cantunwind
 612              		.fnend
 614              		.section	.text._ZN8std_msgs6String11deserializeEPh,"axG",%progbits,_ZN8std_msgs6String11deserializ
 615              		.align	1
 616              		.weak	_ZN8std_msgs6String11deserializeEPh
 617              		.syntax unified
 618              		.thumb
 619              		.thumb_func
 620              		.fpu fpv4-sp-d16
 622              	_ZN8std_msgs6String11deserializeEPh:
 623              		.fnstart
 624              	.LFB404:
 625              		.file 5 "ROSSerial/std_msgs/ROSString.h"
   1:ROSSerial/std_msgs/ROSString.h **** #ifndef _ROS_std_msgs_String_h
   2:ROSSerial/std_msgs/ROSString.h **** #define _ROS_std_msgs_String_h
   3:ROSSerial/std_msgs/ROSString.h **** 
   4:ROSSerial/std_msgs/ROSString.h **** #include <cstring>
   5:ROSSerial/std_msgs/ROSString.h **** #include <stdint.h>
   6:ROSSerial/std_msgs/ROSString.h **** #include <string.h>
   7:ROSSerial/std_msgs/ROSString.h **** #include <stdlib.h>
   8:ROSSerial/std_msgs/ROSString.h **** #include "ros/msg.h"
   9:ROSSerial/std_msgs/ROSString.h **** 
  10:ROSSerial/std_msgs/ROSString.h **** namespace std_msgs
  11:ROSSerial/std_msgs/ROSString.h **** {
  12:ROSSerial/std_msgs/ROSString.h **** 
  13:ROSSerial/std_msgs/ROSString.h ****   class String : public ros::Msg
  14:ROSSerial/std_msgs/ROSString.h ****   {
  15:ROSSerial/std_msgs/ROSString.h ****     public:
  16:ROSSerial/std_msgs/ROSString.h ****       const char* data;
  17:ROSSerial/std_msgs/ROSString.h **** 
  18:ROSSerial/std_msgs/ROSString.h ****     virtual int serialize(unsigned char *outbuffer) const
  19:ROSSerial/std_msgs/ROSString.h ****     {
  20:ROSSerial/std_msgs/ROSString.h ****       int offset = 0;
  21:ROSSerial/std_msgs/ROSString.h ****       uint32_t length_data = strlen(this->data);
  22:ROSSerial/std_msgs/ROSString.h ****       memcpy(outbuffer + offset, &length_data, sizeof(uint32_t));
  23:ROSSerial/std_msgs/ROSString.h ****       offset += 4;
  24:ROSSerial/std_msgs/ROSString.h ****       memcpy(outbuffer + offset, this->data, length_data);
  25:ROSSerial/std_msgs/ROSString.h ****       offset += length_data;
  26:ROSSerial/std_msgs/ROSString.h ****       return offset;
  27:ROSSerial/std_msgs/ROSString.h ****     }
  28:ROSSerial/std_msgs/ROSString.h **** 
  29:ROSSerial/std_msgs/ROSString.h ****     virtual int deserialize(unsigned char *inbuffer)
ARM GAS  /var/folders/l3/4y5292px21b4835bsnjwqc7w009kq1/T//ccOXyXY5.s 			page 19


 626              		.loc 5 29 0
 627              		.cfi_startproc
 628              		@ args = 0, pretend = 0, frame = 0
 629              		@ frame_needed = 0, uses_anonymous_args = 0
 630              		@ link register save eliminated.
 631              	.LVL60:
 632 0000 30B4     		push	{r4, r5}
 633              	.LCFI4:
 634              		.cfi_def_cfa_offset 8
 635              		.cfi_offset 4, -8
 636              		.cfi_offset 5, -4
 637              	.LVL61:
  30:ROSSerial/std_msgs/ROSString.h ****     {
  31:ROSSerial/std_msgs/ROSString.h ****       int offset = 0;
  32:ROSSerial/std_msgs/ROSString.h ****       uint32_t length_data;
  33:ROSSerial/std_msgs/ROSString.h ****       memcpy(&length_data, (inbuffer + offset), sizeof(uint32_t));
 638              		.loc 5 33 0
 639 0002 0D68     		ldr	r5, [r1]	@ unaligned
 640              	.LVL62:
 641              	.LBB110:
  34:ROSSerial/std_msgs/ROSString.h ****       offset += 4;
  35:ROSSerial/std_msgs/ROSString.h ****       for(unsigned int k= offset; k< offset+length_data; ++k){
 642              		.loc 5 35 0
 643 0004 0423     		movs	r3, #4
 644              	.LVL63:
 645              	.L41:
 646              		.loc 5 35 0 is_stmt 0 discriminator 3
 647 0006 2A1D     		adds	r2, r5, #4
 648 0008 9A42     		cmp	r2, r3
 649 000a 04D9     		bls	.L40
  36:ROSSerial/std_msgs/ROSString.h ****           inbuffer[k-1]=inbuffer[k];
 650              		.loc 5 36 0 is_stmt 1 discriminator 2
 651 000c 5A1E     		subs	r2, r3, #1
 652 000e CC5C     		ldrb	r4, [r1, r3]	@ zero_extendqisi2
 653 0010 8C54     		strb	r4, [r1, r2]
  35:ROSSerial/std_msgs/ROSString.h ****           inbuffer[k-1]=inbuffer[k];
 654              		.loc 5 35 0 discriminator 2
 655 0012 0133     		adds	r3, r3, #1
 656              	.LVL64:
 657 0014 F7E7     		b	.L41
 658              	.L40:
 659              	.LBE110:
  37:ROSSerial/std_msgs/ROSString.h ****       }
  38:ROSSerial/std_msgs/ROSString.h ****       inbuffer[offset+length_data-1]=0;
 660              		.loc 5 38 0
 661 0016 0335     		adds	r5, r5, #3
 662              	.LVL65:
 663 0018 0023     		movs	r3, #0
 664              	.LVL66:
 665 001a 4B55     		strb	r3, [r1, r5]
  39:ROSSerial/std_msgs/ROSString.h ****       this->data = (char *)(inbuffer + offset-1);
 666              		.loc 5 39 0
 667 001c 0331     		adds	r1, r1, #3
 668              	.LVL67:
 669 001e 4160     		str	r1, [r0, #4]
 670              	.LVL68:
  40:ROSSerial/std_msgs/ROSString.h ****       offset += length_data;
ARM GAS  /var/folders/l3/4y5292px21b4835bsnjwqc7w009kq1/T//ccOXyXY5.s 			page 20


  41:ROSSerial/std_msgs/ROSString.h ****      return offset;
  42:ROSSerial/std_msgs/ROSString.h ****     }
 671              		.loc 5 42 0
 672 0020 1046     		mov	r0, r2
 673              	.LVL69:
 674 0022 30BC     		pop	{r4, r5}
 675              	.LCFI5:
 676              		.cfi_restore 5
 677              		.cfi_restore 4
 678              		.cfi_def_cfa_offset 0
 679 0024 7047     		bx	lr
 680              		.cfi_endproc
 681              	.LFE404:
 682              		.cantunwind
 683              		.fnend
 685              		.section	.text._ZN8std_msgs6String7getTypeEv,"axG",%progbits,_ZN8std_msgs6String7getTypeEv,comdat
 686              		.align	1
 687              		.weak	_ZN8std_msgs6String7getTypeEv
 688              		.syntax unified
 689              		.thumb
 690              		.thumb_func
 691              		.fpu fpv4-sp-d16
 693              	_ZN8std_msgs6String7getTypeEv:
 694              		.fnstart
 695              	.LFB405:
  43:ROSSerial/std_msgs/ROSString.h **** 
  44:ROSSerial/std_msgs/ROSString.h ****     const char * getType(){ return "std_msgs/String"; };
 696              		.loc 5 44 0
 697              		.cfi_startproc
 698              		@ args = 0, pretend = 0, frame = 0
 699              		@ frame_needed = 0, uses_anonymous_args = 0
 700              		@ link register save eliminated.
 701              	.LVL70:
 702              		.loc 5 44 0
 703 0000 0048     		ldr	r0, .L44
 704              	.LVL71:
 705 0002 7047     		bx	lr
 706              	.L45:
 707              		.align	2
 708              	.L44:
 709 0004 00000000 		.word	.LC7
 710              		.cfi_endproc
 711              	.LFE405:
 712              		.cantunwind
 713              		.fnend
 715              		.section	.text._ZN8std_msgs6String6getMD5Ev,"axG",%progbits,_ZN8std_msgs6String6getMD5Ev,comdat
 716              		.align	1
 717              		.weak	_ZN8std_msgs6String6getMD5Ev
 718              		.syntax unified
 719              		.thumb
 720              		.thumb_func
 721              		.fpu fpv4-sp-d16
 723              	_ZN8std_msgs6String6getMD5Ev:
 724              		.fnstart
 725              	.LFB406:
  45:ROSSerial/std_msgs/ROSString.h ****     const char * getMD5(){ return "992ce8a1687cec8c8bd883ec73ca41d1"; };
 726              		.loc 5 45 0
ARM GAS  /var/folders/l3/4y5292px21b4835bsnjwqc7w009kq1/T//ccOXyXY5.s 			page 21


 727              		.cfi_startproc
 728              		@ args = 0, pretend = 0, frame = 0
 729              		@ frame_needed = 0, uses_anonymous_args = 0
 730              		@ link register save eliminated.
 731              	.LVL72:
 732              		.loc 5 45 0
 733 0000 0048     		ldr	r0, .L47
 734              	.LVL73:
 735 0002 7047     		bx	lr
 736              	.L48:
 737              		.align	2
 738              	.L47:
 739 0004 00000000 		.word	.LC8
 740              		.cfi_endproc
 741              	.LFE406:
 742              		.cantunwind
 743              		.fnend
 745              		.section	.text._Z41__static_initialization_and_destruction_0ii,"ax",%progbits
 746              		.align	1
 747              		.syntax unified
 748              		.thumb
 749              		.thumb_func
 750              		.fpu fpv4-sp-d16
 752              	_Z41__static_initialization_and_destruction_0ii:
 753              		.fnstart
 754              	.LFB510:
 755              		.file 6 "./Src/ros.cpp"
   1:./Src/ros.cpp **** /*
   2:./Src/ros.cpp **** * Implement all ROS functions here.
   3:./Src/ros.cpp **** */
   4:./Src/ros.cpp **** 
   5:./Src/ros.cpp **** #include "ros.h"
   6:./Src/ros.cpp **** #include "std_msgs/ROSString.h"
   7:./Src/ros.cpp **** 
   8:./Src/ros.cpp **** ros::NodeHandle nh; /* ROS node handle */
   9:./Src/ros.cpp **** 
  10:./Src/ros.cpp **** ros::PublisherType *chatter;
  11:./Src/ros.cpp **** 
  12:./Src/ros.cpp **** void ros_init()
  13:./Src/ros.cpp **** {
  14:./Src/ros.cpp ****     /* ROS init, we can start UART hear in not in bsp */ 
  15:./Src/ros.cpp ****     //nh_ = &nh;
  16:./Src/ros.cpp ****     nh.initNode();
  17:./Src/ros.cpp **** 
  18:./Src/ros.cpp ****     /* Register Publisher Chatter */
  19:./Src/ros.cpp ****     std_msgs::String str_msg;
  20:./Src/ros.cpp ****     chatter = nh.addPublisher("chatter", &str_msg);
  21:./Src/ros.cpp **** }
  22:./Src/ros.cpp **** 
  23:./Src/ros.cpp **** void ros_run()
  24:./Src/ros.cpp **** {
  25:./Src/ros.cpp ****     nh.spinOnce1();
  26:./Src/ros.cpp **** 
  27:./Src/ros.cpp ****     //Note: If Msg is declared outside function/globally publish1 doesn't work.
  28:./Src/ros.cpp ****     //may be constructor is not getting called.
  29:./Src/ros.cpp ****     std_msgs::String str_msg;
  30:./Src/ros.cpp **** 
ARM GAS  /var/folders/l3/4y5292px21b4835bsnjwqc7w009kq1/T//ccOXyXY5.s 			page 22


  31:./Src/ros.cpp ****     char buf[512];
  32:./Src/ros.cpp ****     sprintf(buf,"Millis %d",millis());
  33:./Src/ros.cpp ****     str_msg.data = buf;
  34:./Src/ros.cpp ****     
  35:./Src/ros.cpp ****     nh.publish1(chatter->topic_id, &str_msg); 
  36:./Src/ros.cpp **** 
  37:./Src/ros.cpp **** }...
 756              		.loc 6 37 0
 757              		.cfi_startproc
 758              		@ args = 0, pretend = 0, frame = 0
 759              		@ frame_needed = 0, uses_anonymous_args = 0
 760              		@ link register save eliminated.
 761              	.LVL74:
 762              		.loc 6 37 0
 763 0000 0128     		cmp	r0, #1
 764 0002 00D0     		beq	.L59
 765              	.LVL75:
 766              	.L49:
 767 0004 7047     		bx	lr
 768              	.LVL76:
 769              	.L59:
 770              		.loc 6 37 0 is_stmt 0 discriminator 1
 771 0006 4FF6FF73 		movw	r3, #65535
 772 000a 9942     		cmp	r1, r3
 773 000c FAD1     		bne	.L49
 774              	.LVL77:
 775              	.LBB124:
 776              	.LBB125:
 777              	.LBB126:
 778              		.file 7 "ROSSerial/ros/node_handle.h"
   1:ROSSerial/ros/node_handle.h **** /*
   2:ROSSerial/ros/node_handle.h ****  * Software License Agreement (BSD License)
   3:ROSSerial/ros/node_handle.h ****  *
   4:ROSSerial/ros/node_handle.h ****  * Copyright (c) 2011, Willow Garage, Inc.
   5:ROSSerial/ros/node_handle.h ****  * All rights reserved.
   6:ROSSerial/ros/node_handle.h ****  *
   7:ROSSerial/ros/node_handle.h ****  * Redistribution and use in source and binary forms, with or without
   8:ROSSerial/ros/node_handle.h ****  * modification, are permitted provided that the following conditions
   9:ROSSerial/ros/node_handle.h ****  * are met:
  10:ROSSerial/ros/node_handle.h ****  *
  11:ROSSerial/ros/node_handle.h ****  *  * Redistributions of source code must retain the above copyright
  12:ROSSerial/ros/node_handle.h ****  *    notice, this list of conditions and the following disclaimer.
  13:ROSSerial/ros/node_handle.h ****  *  * Redistributions in binary form must reproduce the above
  14:ROSSerial/ros/node_handle.h ****  *    copyright notice, this list of conditions and the following
  15:ROSSerial/ros/node_handle.h ****  *    disclaimer in the documentation and/or other materials provided
  16:ROSSerial/ros/node_handle.h ****  *    with the distribution.
  17:ROSSerial/ros/node_handle.h ****  *  * Neither the name of Willow Garage, Inc. nor the names of its
  18:ROSSerial/ros/node_handle.h ****  *    contributors may be used to endorse or promote prducts derived
  19:ROSSerial/ros/node_handle.h ****  *    from this software without specific prior written permission.
  20:ROSSerial/ros/node_handle.h ****  *
  21:ROSSerial/ros/node_handle.h ****  * THIS SOFTWARE IS PROVIDED BY THE COPYRIGHT HOLDERS AND CONTRIBUTORS
  22:ROSSerial/ros/node_handle.h ****  * "AS IS" AND ANY EXPRESS OR IMPLIED WARRANTIES, INCLUDING, BUT NOT
  23:ROSSerial/ros/node_handle.h ****  * LIMITED TO, THE IMPLIED WARRANTIES OF MERCHANTABILITY AND FITNESS
  24:ROSSerial/ros/node_handle.h ****  * FOR A PARTICULAR PURPOSE ARE DISCLAIMED. IN NO EVENT SHALL THE
  25:ROSSerial/ros/node_handle.h ****  * COPYRIGHT OWNER OR CONTRIBUTORS BE LIABLE FOR ANY DIRECT, INDIRECT,
  26:ROSSerial/ros/node_handle.h ****  * INCIDENTAL, SPECIAL, EXEMPLARY, OR CONSEQUENTIAL DAMAGES (INCLUDING,
  27:ROSSerial/ros/node_handle.h ****  * BUT NOT LIMITED TO, PROCUREMENT OF SUBSTITUTE GOODS OR SERVICES;
ARM GAS  /var/folders/l3/4y5292px21b4835bsnjwqc7w009kq1/T//ccOXyXY5.s 			page 23


  28:ROSSerial/ros/node_handle.h ****  * LOSS OF USE, DATA, OR PROFITS; OR BUSINESS INTERRUPTION) HOWEVER
  29:ROSSerial/ros/node_handle.h ****  * CAUSED AND ON ANY THEORY OF LIABILITY, WHETHER IN CONTRACT, STRICT
  30:ROSSerial/ros/node_handle.h ****  * LIABILITY, OR TORT (INCLUDING NEGLIGENCE OR OTHERWISE) ARISING IN
  31:ROSSerial/ros/node_handle.h ****  * ANY WAY OUT OF THE USE OF THIS SOFTWARE, EVEN IF ADVISED OF THE
  32:ROSSerial/ros/node_handle.h ****  * POSSIBILITY OF SUCH DAMAGE.
  33:ROSSerial/ros/node_handle.h ****  */
  34:ROSSerial/ros/node_handle.h **** 
  35:ROSSerial/ros/node_handle.h **** #ifndef ROS_NODE_HANDLE_H_
  36:ROSSerial/ros/node_handle.h **** #define ROS_NODE_HANDLE_H_
  37:ROSSerial/ros/node_handle.h **** 
  38:ROSSerial/ros/node_handle.h **** #include <stdint.h>
  39:ROSSerial/ros/node_handle.h **** 
  40:ROSSerial/ros/node_handle.h **** #include "std_msgs/Time.h"
  41:ROSSerial/ros/node_handle.h **** #include "rosserial_msgs/TopicInfo.h"
  42:ROSSerial/ros/node_handle.h **** #include "rosserial_msgs/Log.h"
  43:ROSSerial/ros/node_handle.h **** #include "rosserial_msgs/RequestParam.h"
  44:ROSSerial/ros/node_handle.h **** #include "std_msgs/ROSString.h"
  45:ROSSerial/ros/node_handle.h **** #include "ros/msg.h"
  46:ROSSerial/ros/node_handle.h **** 
  47:ROSSerial/ros/node_handle.h **** namespace ros
  48:ROSSerial/ros/node_handle.h **** {
  49:ROSSerial/ros/node_handle.h **** 
  50:ROSSerial/ros/node_handle.h **** class NodeHandleBase_
  51:ROSSerial/ros/node_handle.h **** {
  52:ROSSerial/ros/node_handle.h **** public:
  53:ROSSerial/ros/node_handle.h ****   virtual int publish(int id, const Msg* msg) = 0;
  54:ROSSerial/ros/node_handle.h ****   virtual int spinOnce() = 0;
  55:ROSSerial/ros/node_handle.h ****   virtual bool connected() = 0;
  56:ROSSerial/ros/node_handle.h **** };
  57:ROSSerial/ros/node_handle.h **** }
  58:ROSSerial/ros/node_handle.h **** 
  59:ROSSerial/ros/node_handle.h **** #include "ros/publisher.h"
  60:ROSSerial/ros/node_handle.h **** #include "ros/subscriber.h"
  61:ROSSerial/ros/node_handle.h **** #include "ros/service_server.h"
  62:ROSSerial/ros/node_handle.h **** #include "ros/service_client.h"
  63:ROSSerial/ros/node_handle.h **** #include "std_msgs/UInt16.h"
  64:ROSSerial/ros/node_handle.h **** 
  65:ROSSerial/ros/node_handle.h **** namespace ros
  66:ROSSerial/ros/node_handle.h **** {
  67:ROSSerial/ros/node_handle.h **** 
  68:ROSSerial/ros/node_handle.h **** const int SPIN_OK = 0;
  69:ROSSerial/ros/node_handle.h **** const int SPIN_ERR = -1;
  70:ROSSerial/ros/node_handle.h **** const int SPIN_TIMEOUT = -2;
  71:ROSSerial/ros/node_handle.h **** 
  72:ROSSerial/ros/node_handle.h **** const uint8_t SYNC_SECONDS  = 5;
  73:ROSSerial/ros/node_handle.h **** const uint8_t MODE_FIRST_FF = 0;
  74:ROSSerial/ros/node_handle.h **** 
  75:ROSSerial/ros/node_handle.h **** /*
  76:ROSSerial/ros/node_handle.h ****  * The second sync byte is a protocol version. It's value is 0xff for the first
  77:ROSSerial/ros/node_handle.h ****  * version of the rosserial protocol (used up to hydro), 0xfe for the second version
  78:ROSSerial/ros/node_handle.h ****  * (introduced in hydro), 0xfd for the next, and so on. Its purpose is to enable
  79:ROSSerial/ros/node_handle.h ****  * detection of mismatched protocol versions (e.g. hydro rosserial_python with groovy
  80:ROSSerial/ros/node_handle.h ****  * rosserial_arduino. It must be changed in both this file and in
  81:ROSSerial/ros/node_handle.h ****  * rosserial_python/src/rosserial_python/SerialClient.py
  82:ROSSerial/ros/node_handle.h ****  */
  83:ROSSerial/ros/node_handle.h **** const uint8_t MODE_PROTOCOL_VER   = 1;
  84:ROSSerial/ros/node_handle.h **** const uint8_t PROTOCOL_VER1       = 0xff; // through groovy
ARM GAS  /var/folders/l3/4y5292px21b4835bsnjwqc7w009kq1/T//ccOXyXY5.s 			page 24


  85:ROSSerial/ros/node_handle.h **** const uint8_t PROTOCOL_VER2       = 0xfe; // in hydro
  86:ROSSerial/ros/node_handle.h **** const uint8_t PROTOCOL_VER        = PROTOCOL_VER2;
  87:ROSSerial/ros/node_handle.h **** const uint8_t MODE_SIZE_L         = 2;
  88:ROSSerial/ros/node_handle.h **** const uint8_t MODE_SIZE_H         = 3;
  89:ROSSerial/ros/node_handle.h **** const uint8_t MODE_SIZE_CHECKSUM  = 4;    // checksum for msg size received from size L and H
  90:ROSSerial/ros/node_handle.h **** const uint8_t MODE_TOPIC_L        = 5;    // waiting for topic id
  91:ROSSerial/ros/node_handle.h **** const uint8_t MODE_TOPIC_H        = 6;
  92:ROSSerial/ros/node_handle.h **** const uint8_t MODE_MESSAGE        = 7;
  93:ROSSerial/ros/node_handle.h **** const uint8_t MODE_MSG_CHECKSUM   = 8;    // checksum for msg and topic id
  94:ROSSerial/ros/node_handle.h **** 
  95:ROSSerial/ros/node_handle.h **** 
  96:ROSSerial/ros/node_handle.h **** const uint8_t SERIAL_MSG_TIMEOUT  = 20;   // 20 milliseconds to recieve all of message data
  97:ROSSerial/ros/node_handle.h **** 
  98:ROSSerial/ros/node_handle.h **** using rosserial_msgs::TopicInfo;
  99:ROSSerial/ros/node_handle.h **** 
 100:ROSSerial/ros/node_handle.h **** typedef struct
 101:ROSSerial/ros/node_handle.h **** {
 102:ROSSerial/ros/node_handle.h ****     uint16_t topic_id;
 103:ROSSerial/ros/node_handle.h ****     const char* topic_name;
 104:ROSSerial/ros/node_handle.h ****     const char* message_type;
 105:ROSSerial/ros/node_handle.h ****     const char* md5sum;
 106:ROSSerial/ros/node_handle.h ****     void (*callback)(const Msg& );
 107:ROSSerial/ros/node_handle.h **** } SubscriberType;
 108:ROSSerial/ros/node_handle.h **** 
 109:ROSSerial/ros/node_handle.h **** typedef struct
 110:ROSSerial/ros/node_handle.h **** {
 111:ROSSerial/ros/node_handle.h ****     uint16_t topic_id;
 112:ROSSerial/ros/node_handle.h ****     const char* topic_name;
 113:ROSSerial/ros/node_handle.h ****     const Msg* msg; 
 114:ROSSerial/ros/node_handle.h ****     const char* message_type;
 115:ROSSerial/ros/node_handle.h ****     const char* md5sum;
 116:ROSSerial/ros/node_handle.h **** } PublisherType;
 117:ROSSerial/ros/node_handle.h **** 
 118:ROSSerial/ros/node_handle.h **** /* Node Handle */
 119:ROSSerial/ros/node_handle.h **** template<class Hardware,
 120:ROSSerial/ros/node_handle.h ****          int MAX_SUBSCRIBERS = 25,
 121:ROSSerial/ros/node_handle.h ****          int MAX_PUBLISHERS = 25,
 122:ROSSerial/ros/node_handle.h ****          int INPUT_SIZE = 512,
 123:ROSSerial/ros/node_handle.h ****          int OUTPUT_SIZE = 512>
 124:ROSSerial/ros/node_handle.h **** class NodeHandle_ : public NodeHandleBase_
 125:ROSSerial/ros/node_handle.h **** {
 126:ROSSerial/ros/node_handle.h **** protected:
 127:ROSSerial/ros/node_handle.h ****   Hardware hardware_;
 128:ROSSerial/ros/node_handle.h **** 
 129:ROSSerial/ros/node_handle.h ****   /* time used for syncing */
 130:ROSSerial/ros/node_handle.h ****   uint32_t rt_time;
 131:ROSSerial/ros/node_handle.h **** 
 132:ROSSerial/ros/node_handle.h ****   /* used for computing current time */
 133:ROSSerial/ros/node_handle.h ****   uint32_t sec_offset, nsec_offset;
 134:ROSSerial/ros/node_handle.h **** 
 135:ROSSerial/ros/node_handle.h ****   /* Spinonce maximum work timeout */
 136:ROSSerial/ros/node_handle.h ****   uint32_t spin_timeout_;
 137:ROSSerial/ros/node_handle.h **** 
 138:ROSSerial/ros/node_handle.h ****   uint8_t message_in[INPUT_SIZE];
 139:ROSSerial/ros/node_handle.h ****   uint8_t message_out[OUTPUT_SIZE];
 140:ROSSerial/ros/node_handle.h **** 
 141:ROSSerial/ros/node_handle.h ****   Publisher * publishers[MAX_PUBLISHERS];
ARM GAS  /var/folders/l3/4y5292px21b4835bsnjwqc7w009kq1/T//ccOXyXY5.s 			page 25


 142:ROSSerial/ros/node_handle.h ****   PublisherType publishers2[MAX_PUBLISHERS];
 143:ROSSerial/ros/node_handle.h ****   Subscriber_ * subscribers[MAX_SUBSCRIBERS];
 144:ROSSerial/ros/node_handle.h ****   SubscriberType subscribers2[MAX_SUBSCRIBERS];
 145:ROSSerial/ros/node_handle.h **** 
 146:ROSSerial/ros/node_handle.h ****   /*
 147:ROSSerial/ros/node_handle.h ****    * Setup Functions
 148:ROSSerial/ros/node_handle.h ****    */
 149:ROSSerial/ros/node_handle.h **** public:
 150:ROSSerial/ros/node_handle.h ****   NodeHandle_() : configured_(false)
 779              		.loc 7 150 0 is_stmt 1
 780 000e 244A     		ldr	r2, .L60
 781 0010 244B     		ldr	r3, .L60+4
 782 0012 1360     		str	r3, [r2]
 783 0014 0023     		movs	r3, #0
 784 0016 82F81C35 		strb	r3, [r2, #1308]
 785              	.LVL78:
 786              	.LBB127:
 787              	.LBB128:
  51:ROSSerial/rosserial_msgs/RequestParam.h ****   {
 788              		.loc 4 51 0
 789 001a 2349     		ldr	r1, .L60+8
 790              	.LVL79:
 791 001c C2F83015 		str	r1, [r2, #1328]
 792              	.LVL80:
 793              	.L52:
 794              	.LBE128:
 795              	.LBE127:
 796              	.LBB129:
 797              	.LBB130:
 151:ROSSerial/ros/node_handle.h ****   {
 152:ROSSerial/ros/node_handle.h **** 
 153:ROSSerial/ros/node_handle.h ****     for (unsigned int i = 0; i < MAX_PUBLISHERS; i++) {
 798              		.loc 7 153 0
 799 0020 042B     		cmp	r3, #4
 800 0022 0CD8     		bhi	.L56
 154:ROSSerial/ros/node_handle.h ****       publishers[i] = 0;
 801              		.loc 7 154 0
 802 0024 1E48     		ldr	r0, .L60
 803 0026 03F58372 		add	r2, r3, #262
 804 002a 0021     		movs	r1, #0
 805 002c 40F82210 		str	r1, [r0, r2, lsl #2]
 155:ROSSerial/ros/node_handle.h ****       publishers2[i].topic_id = 0;
 806              		.loc 7 155 0
 807 0030 1422     		movs	r2, #20
 808 0032 02FB0302 		mla	r2, r2, r3, r0
 809 0036 A2F82C14 		strh	r1, [r2, #1068]	@ movhi
 153:ROSSerial/ros/node_handle.h ****       publishers[i] = 0;
 810              		.loc 7 153 0
 811 003a 0133     		adds	r3, r3, #1
 812              	.LVL81:
 813 003c F0E7     		b	.L52
 814              	.L56:
 815              	.LBE130:
 816              	.LBB131:
 156:ROSSerial/ros/node_handle.h ****     }
 157:ROSSerial/ros/node_handle.h **** 
 158:ROSSerial/ros/node_handle.h ****     for (unsigned int i = 0; i < MAX_SUBSCRIBERS; i++) {
ARM GAS  /var/folders/l3/4y5292px21b4835bsnjwqc7w009kq1/T//ccOXyXY5.s 			page 26


 817              		.loc 7 158 0
 818 003e 0023     		movs	r3, #0
 819              	.LVL82:
 820              	.L51:
 821 0040 042B     		cmp	r3, #4
 822 0042 0CD8     		bhi	.L57
 159:ROSSerial/ros/node_handle.h ****       subscribers[i] = 0;
 823              		.loc 7 159 0
 824 0044 1648     		ldr	r0, .L60
 825 0046 03F59272 		add	r2, r3, #292
 826 004a 0021     		movs	r1, #0
 827 004c 40F82210 		str	r1, [r0, r2, lsl #2]
 160:ROSSerial/ros/node_handle.h ****       subscribers2[i].topic_id = 0;
 828              		.loc 7 160 0
 829 0050 1422     		movs	r2, #20
 830 0052 02FB0302 		mla	r2, r2, r3, r0
 831 0056 A2F8A414 		strh	r1, [r2, #1188]	@ movhi
 158:ROSSerial/ros/node_handle.h ****       subscribers[i] = 0;
 832              		.loc 7 158 0
 833 005a 0133     		adds	r3, r3, #1
 834              	.LVL83:
 835 005c F0E7     		b	.L51
 836              	.L57:
 837              	.LBE131:
 838              	.LBB132:
 161:ROSSerial/ros/node_handle.h ****     }
 162:ROSSerial/ros/node_handle.h **** 
 163:ROSSerial/ros/node_handle.h ****     for (unsigned int i = 0; i < INPUT_SIZE; i++)
 839              		.loc 7 163 0
 840 005e 0023     		movs	r3, #0
 841              	.LVL84:
 842              	.L53:
 843 0060 B3F5007F 		cmp	r3, #512
 844 0064 05D2     		bcs	.L58
 164:ROSSerial/ros/node_handle.h ****       message_in[i] = 0;
 845              		.loc 7 164 0
 846 0066 0E4A     		ldr	r2, .L60
 847 0068 1A44     		add	r2, r2, r3
 848 006a 0021     		movs	r1, #0
 849 006c 1176     		strb	r1, [r2, #24]
 163:ROSSerial/ros/node_handle.h ****       message_in[i] = 0;
 850              		.loc 7 163 0
 851 006e 0133     		adds	r3, r3, #1
 852              	.LVL85:
 853 0070 F6E7     		b	.L53
 854              	.L58:
 855              	.LBE132:
 856              	.LBB133:
 165:ROSSerial/ros/node_handle.h **** 
 166:ROSSerial/ros/node_handle.h ****     for (unsigned int i = 0; i < OUTPUT_SIZE; i++)
 857              		.loc 7 166 0
 858 0072 0023     		movs	r3, #0
 859              	.LVL86:
 860              	.L54:
 861 0074 B3F5007F 		cmp	r3, #512
 862 0078 06D2     		bcs	.L55
 167:ROSSerial/ros/node_handle.h ****       message_out[i] = 0;
ARM GAS  /var/folders/l3/4y5292px21b4835bsnjwqc7w009kq1/T//ccOXyXY5.s 			page 27


 863              		.loc 7 167 0
 864 007a 094A     		ldr	r2, .L60
 865 007c 1A44     		add	r2, r2, r3
 866 007e 0021     		movs	r1, #0
 867 0080 82F81812 		strb	r1, [r2, #536]
 166:ROSSerial/ros/node_handle.h ****       message_out[i] = 0;
 868              		.loc 7 166 0
 869 0084 0133     		adds	r3, r3, #1
 870              	.LVL87:
 871 0086 F5E7     		b	.L54
 872              	.L55:
 873              	.LBE133:
 168:ROSSerial/ros/node_handle.h **** 
 169:ROSSerial/ros/node_handle.h ****     req_param_resp.ints_length = 0;
 874              		.loc 7 169 0
 875 0088 054B     		ldr	r3, .L60
 876              	.LVL88:
 877 008a 0022     		movs	r2, #0
 878 008c 83F83425 		strb	r2, [r3, #1332]
 170:ROSSerial/ros/node_handle.h ****     req_param_resp.ints = NULL;
 879              		.loc 7 170 0
 880 0090 C3F83C25 		str	r2, [r3, #1340]
 171:ROSSerial/ros/node_handle.h ****     req_param_resp.floats_length = 0;
 881              		.loc 7 171 0
 882 0094 83F84025 		strb	r2, [r3, #1344]
 172:ROSSerial/ros/node_handle.h ****     req_param_resp.floats = NULL;
 883              		.loc 7 172 0
 884 0098 C3F84825 		str	r2, [r3, #1352]
 173:ROSSerial/ros/node_handle.h ****     req_param_resp.ints_length = 0;
 174:ROSSerial/ros/node_handle.h ****     req_param_resp.ints = NULL;
 175:ROSSerial/ros/node_handle.h **** 
 176:ROSSerial/ros/node_handle.h ****     spin_timeout_ = 0;
 885              		.loc 7 176 0
 886 009c 5A61     		str	r2, [r3, #20]
 887              	.LBE129:
 888              	.LBE126:
 889              	.LBE125:
 890              	.LBE124:
 891              		.loc 6 37 0
 892 009e B1E7     		b	.L49
 893              	.L61:
 894              		.align	2
 895              	.L60:
 896 00a0 00000000 		.word	.LANCHOR1
 897 00a4 08000000 		.word	_ZTVN3ros11NodeHandle_I13STM32HardwareLi5ELi5ELi512ELi512EEE+8
 898 00a8 08000000 		.word	_ZTVN14rosserial_msgs20RequestParamResponseE+8
 899              		.cfi_endproc
 900              	.LFE510:
 901              		.cantunwind
 902              		.fnend
 904              		.section	.text._ZN3ros11NodeHandle_I13STM32HardwareLi5ELi5ELi512ELi512EE7publishEiPKNS_3MsgE,"axG"
 905              		.align	1
 906              		.weak	_ZN3ros11NodeHandle_I13STM32HardwareLi5ELi5ELi512ELi512EE7publishEiPKNS_3MsgE
 907              		.syntax unified
 908              		.thumb
 909              		.thumb_func
 910              		.fpu fpv4-sp-d16
ARM GAS  /var/folders/l3/4y5292px21b4835bsnjwqc7w009kq1/T//ccOXyXY5.s 			page 28


 912              	_ZN3ros11NodeHandle_I13STM32HardwareLi5ELi5ELi512ELi512EE7publishEiPKNS_3MsgE:
 913              		.fnstart
 914              	.LFB511:
 177:ROSSerial/ros/node_handle.h ****   }
 178:ROSSerial/ros/node_handle.h **** 
 179:ROSSerial/ros/node_handle.h ****   Hardware* getHardware()
 180:ROSSerial/ros/node_handle.h ****   {
 181:ROSSerial/ros/node_handle.h ****     return &hardware_;
 182:ROSSerial/ros/node_handle.h ****   }
 183:ROSSerial/ros/node_handle.h **** 
 184:ROSSerial/ros/node_handle.h ****   /* Start serial, initialize buffers */
 185:ROSSerial/ros/node_handle.h ****   void initNode()
 186:ROSSerial/ros/node_handle.h ****   {
 187:ROSSerial/ros/node_handle.h ****     hardware_.init();
 188:ROSSerial/ros/node_handle.h ****     mode_ = 0;
 189:ROSSerial/ros/node_handle.h ****     bytes_ = 0;
 190:ROSSerial/ros/node_handle.h ****     index_ = 0;
 191:ROSSerial/ros/node_handle.h ****     topic_ = 0;
 192:ROSSerial/ros/node_handle.h ****     //printf("Node init\n");
 193:ROSSerial/ros/node_handle.h ****   };
 194:ROSSerial/ros/node_handle.h **** 
 195:ROSSerial/ros/node_handle.h ****   /* Start a named port, which may be network server IP, initialize buffers */
 196:ROSSerial/ros/node_handle.h ****   void initNode(char *portName)
 197:ROSSerial/ros/node_handle.h ****   {
 198:ROSSerial/ros/node_handle.h ****     hardware_.init(portName);
 199:ROSSerial/ros/node_handle.h ****     mode_ = 0;
 200:ROSSerial/ros/node_handle.h ****     bytes_ = 0;
 201:ROSSerial/ros/node_handle.h ****     index_ = 0;
 202:ROSSerial/ros/node_handle.h ****     topic_ = 0;
 203:ROSSerial/ros/node_handle.h ****   };
 204:ROSSerial/ros/node_handle.h **** 
 205:ROSSerial/ros/node_handle.h ****   /**
 206:ROSSerial/ros/node_handle.h ****    * @brief Sets the maximum time in millisconds that spinOnce() can work.
 207:ROSSerial/ros/node_handle.h ****    * This will not effect the processing of the buffer, as spinOnce processes
 208:ROSSerial/ros/node_handle.h ****    * one byte at a time. It simply sets the maximum time that one call can
 209:ROSSerial/ros/node_handle.h ****    * process for. You can choose to clear the buffer if that is beneficial if
 210:ROSSerial/ros/node_handle.h ****    * SPIN_TIMEOUT is returned from spinOnce().
 211:ROSSerial/ros/node_handle.h ****    * @param timeout The timeout in milliseconds that spinOnce will function.
 212:ROSSerial/ros/node_handle.h ****    */
 213:ROSSerial/ros/node_handle.h ****   void setSpinTimeout(const uint32_t& timeout)
 214:ROSSerial/ros/node_handle.h ****   {
 215:ROSSerial/ros/node_handle.h ****      spin_timeout_ = timeout;
 216:ROSSerial/ros/node_handle.h ****   }
 217:ROSSerial/ros/node_handle.h **** 
 218:ROSSerial/ros/node_handle.h **** protected:
 219:ROSSerial/ros/node_handle.h ****   //State machine variables for spinOnce
 220:ROSSerial/ros/node_handle.h ****   int mode_;
 221:ROSSerial/ros/node_handle.h ****   int bytes_;
 222:ROSSerial/ros/node_handle.h ****   int topic_;
 223:ROSSerial/ros/node_handle.h ****   int index_;
 224:ROSSerial/ros/node_handle.h ****   int checksum_;
 225:ROSSerial/ros/node_handle.h **** 
 226:ROSSerial/ros/node_handle.h ****   bool configured_;
 227:ROSSerial/ros/node_handle.h **** 
 228:ROSSerial/ros/node_handle.h ****   /* used for syncing the time */
 229:ROSSerial/ros/node_handle.h ****   uint32_t last_sync_time;
 230:ROSSerial/ros/node_handle.h ****   uint32_t last_sync_receive_time;
ARM GAS  /var/folders/l3/4y5292px21b4835bsnjwqc7w009kq1/T//ccOXyXY5.s 			page 29


 231:ROSSerial/ros/node_handle.h ****   uint32_t last_msg_timeout_time;
 232:ROSSerial/ros/node_handle.h **** 
 233:ROSSerial/ros/node_handle.h **** public:
 234:ROSSerial/ros/node_handle.h ****   /* This function goes in your loop() function, it handles
 235:ROSSerial/ros/node_handle.h ****    *  serial input and callbacks for subscribers.
 236:ROSSerial/ros/node_handle.h ****    */
 237:ROSSerial/ros/node_handle.h **** 
 238:ROSSerial/ros/node_handle.h ****   virtual int spinOnce() {
 239:ROSSerial/ros/node_handle.h ****     return spinOnce1();
 240:ROSSerial/ros/node_handle.h ****   }
 241:ROSSerial/ros/node_handle.h **** 
 242:ROSSerial/ros/node_handle.h **** //calling spinOnce() directly from spin_task gives stackoverflow
 243:ROSSerial/ros/node_handle.h ****   int spinOnce1()
 244:ROSSerial/ros/node_handle.h ****   {
 245:ROSSerial/ros/node_handle.h ****     static void (*s_CallBack)(char *);
 246:ROSSerial/ros/node_handle.h ****     
 247:ROSSerial/ros/node_handle.h ****     //printf("spinOnce\n");
 248:ROSSerial/ros/node_handle.h ****     /* restart if timed out */
 249:ROSSerial/ros/node_handle.h ****     uint32_t c_time = hardware_.time();
 250:ROSSerial/ros/node_handle.h ****     //printf("spinOnce %ld\n",c_time);
 251:ROSSerial/ros/node_handle.h **** 
 252:ROSSerial/ros/node_handle.h ****     if ((c_time - last_sync_receive_time) > (SYNC_SECONDS * 2200))
 253:ROSSerial/ros/node_handle.h ****     {
 254:ROSSerial/ros/node_handle.h ****       configured_ = false;
 255:ROSSerial/ros/node_handle.h ****     }
 256:ROSSerial/ros/node_handle.h **** 
 257:ROSSerial/ros/node_handle.h ****     /* reset if message has timed out */
 258:ROSSerial/ros/node_handle.h ****     if (mode_ != MODE_FIRST_FF)
 259:ROSSerial/ros/node_handle.h ****     {
 260:ROSSerial/ros/node_handle.h ****       if (c_time > last_msg_timeout_time)
 261:ROSSerial/ros/node_handle.h ****       {
 262:ROSSerial/ros/node_handle.h ****         mode_ = MODE_FIRST_FF;
 263:ROSSerial/ros/node_handle.h ****       }
 264:ROSSerial/ros/node_handle.h ****     }
 265:ROSSerial/ros/node_handle.h **** 
 266:ROSSerial/ros/node_handle.h ****     /* while available buffer, read data */
 267:ROSSerial/ros/node_handle.h ****     while (true)
 268:ROSSerial/ros/node_handle.h ****     {
 269:ROSSerial/ros/node_handle.h ****       // If a timeout has been specified, check how long spinOnce has been running.
 270:ROSSerial/ros/node_handle.h ****       if (spin_timeout_ > 0)
 271:ROSSerial/ros/node_handle.h ****       {
 272:ROSSerial/ros/node_handle.h ****         // If the maximum processing timeout has been exceeded, exit with error.
 273:ROSSerial/ros/node_handle.h ****         // The next spinOnce can continue where it left off, or optionally
 274:ROSSerial/ros/node_handle.h ****         // based on the application in use, the hardware buffer could be flushed
 275:ROSSerial/ros/node_handle.h ****         // and start fresh.
 276:ROSSerial/ros/node_handle.h ****         if ((hardware_.time() - c_time) > spin_timeout_)
 277:ROSSerial/ros/node_handle.h ****         {
 278:ROSSerial/ros/node_handle.h ****           // Exit the spin, processing timeout exceeded.
 279:ROSSerial/ros/node_handle.h ****           return SPIN_TIMEOUT;
 280:ROSSerial/ros/node_handle.h ****         }
 281:ROSSerial/ros/node_handle.h ****       }
 282:ROSSerial/ros/node_handle.h ****       int data = hardware_.read();
 283:ROSSerial/ros/node_handle.h ****       if (data < 0)
 284:ROSSerial/ros/node_handle.h ****         break;
 285:ROSSerial/ros/node_handle.h ****       checksum_ += data;
 286:ROSSerial/ros/node_handle.h ****       if (mode_ == MODE_MESSAGE)          /* message data being recieved */
 287:ROSSerial/ros/node_handle.h ****       {
ARM GAS  /var/folders/l3/4y5292px21b4835bsnjwqc7w009kq1/T//ccOXyXY5.s 			page 30


 288:ROSSerial/ros/node_handle.h ****         message_in[index_++] = data;
 289:ROSSerial/ros/node_handle.h ****         bytes_--;
 290:ROSSerial/ros/node_handle.h ****         if (bytes_ == 0)                 /* is message complete? if so, checksum */
 291:ROSSerial/ros/node_handle.h ****           mode_ = MODE_MSG_CHECKSUM;
 292:ROSSerial/ros/node_handle.h ****       }
 293:ROSSerial/ros/node_handle.h ****       else if (mode_ == MODE_FIRST_FF)
 294:ROSSerial/ros/node_handle.h ****       {
 295:ROSSerial/ros/node_handle.h ****         if (data == 0xff)
 296:ROSSerial/ros/node_handle.h ****         {
 297:ROSSerial/ros/node_handle.h ****           mode_++;
 298:ROSSerial/ros/node_handle.h ****           last_msg_timeout_time = c_time + SERIAL_MSG_TIMEOUT;
 299:ROSSerial/ros/node_handle.h ****         }
 300:ROSSerial/ros/node_handle.h ****         else if (hardware_.time() - c_time > (SYNC_SECONDS * 1000))
 301:ROSSerial/ros/node_handle.h ****         {
 302:ROSSerial/ros/node_handle.h ****           /* We have been stuck in spinOnce too long, return error */
 303:ROSSerial/ros/node_handle.h ****           configured_ = false;
 304:ROSSerial/ros/node_handle.h ****           return SPIN_TIMEOUT;
 305:ROSSerial/ros/node_handle.h ****         }
 306:ROSSerial/ros/node_handle.h ****       }
 307:ROSSerial/ros/node_handle.h ****       else if (mode_ == MODE_PROTOCOL_VER)
 308:ROSSerial/ros/node_handle.h ****       {
 309:ROSSerial/ros/node_handle.h ****         if (data == PROTOCOL_VER)
 310:ROSSerial/ros/node_handle.h ****         {
 311:ROSSerial/ros/node_handle.h ****           mode_++;
 312:ROSSerial/ros/node_handle.h ****         }
 313:ROSSerial/ros/node_handle.h ****         else
 314:ROSSerial/ros/node_handle.h ****         {
 315:ROSSerial/ros/node_handle.h ****           mode_ = MODE_FIRST_FF;
 316:ROSSerial/ros/node_handle.h ****           if (configured_ == false)
 317:ROSSerial/ros/node_handle.h ****             requestSyncTime();  /* send a msg back showing our protocol version */
 318:ROSSerial/ros/node_handle.h ****         }
 319:ROSSerial/ros/node_handle.h ****       }
 320:ROSSerial/ros/node_handle.h ****       else if (mode_ == MODE_SIZE_L)      /* bottom half of message size */
 321:ROSSerial/ros/node_handle.h ****       {
 322:ROSSerial/ros/node_handle.h ****         bytes_ = data;
 323:ROSSerial/ros/node_handle.h ****         index_ = 0;
 324:ROSSerial/ros/node_handle.h ****         mode_++;
 325:ROSSerial/ros/node_handle.h ****         checksum_ = data;               /* first byte for calculating size checksum */
 326:ROSSerial/ros/node_handle.h ****       }
 327:ROSSerial/ros/node_handle.h ****       else if (mode_ == MODE_SIZE_H)      /* top half of message size */
 328:ROSSerial/ros/node_handle.h ****       {
 329:ROSSerial/ros/node_handle.h ****         bytes_ += data << 8;
 330:ROSSerial/ros/node_handle.h ****         mode_++;
 331:ROSSerial/ros/node_handle.h ****       }
 332:ROSSerial/ros/node_handle.h ****       else if (mode_ == MODE_SIZE_CHECKSUM)
 333:ROSSerial/ros/node_handle.h ****       {
 334:ROSSerial/ros/node_handle.h ****         if ((checksum_ % 256) == 255)
 335:ROSSerial/ros/node_handle.h ****           mode_++;
 336:ROSSerial/ros/node_handle.h ****         else
 337:ROSSerial/ros/node_handle.h ****           mode_ = MODE_FIRST_FF;          /* Abandon the frame if the msg len is wrong */
 338:ROSSerial/ros/node_handle.h ****       }
 339:ROSSerial/ros/node_handle.h ****       else if (mode_ == MODE_TOPIC_L)     /* bottom half of topic id */
 340:ROSSerial/ros/node_handle.h ****       {
 341:ROSSerial/ros/node_handle.h ****         topic_ = data;
 342:ROSSerial/ros/node_handle.h ****         mode_++;
 343:ROSSerial/ros/node_handle.h ****         checksum_ = data;               /* first byte included in checksum */
 344:ROSSerial/ros/node_handle.h ****       }
ARM GAS  /var/folders/l3/4y5292px21b4835bsnjwqc7w009kq1/T//ccOXyXY5.s 			page 31


 345:ROSSerial/ros/node_handle.h ****       else if (mode_ == MODE_TOPIC_H)     /* top half of topic id */
 346:ROSSerial/ros/node_handle.h ****       {
 347:ROSSerial/ros/node_handle.h ****         topic_ += data << 8;
 348:ROSSerial/ros/node_handle.h ****         mode_ = MODE_MESSAGE;
 349:ROSSerial/ros/node_handle.h ****         if (bytes_ == 0)
 350:ROSSerial/ros/node_handle.h ****           mode_ = MODE_MSG_CHECKSUM;
 351:ROSSerial/ros/node_handle.h ****       }
 352:ROSSerial/ros/node_handle.h ****       else if (mode_ == MODE_MSG_CHECKSUM)    /* do checksum */
 353:ROSSerial/ros/node_handle.h ****       {
 354:ROSSerial/ros/node_handle.h ****         mode_ = MODE_FIRST_FF;
 355:ROSSerial/ros/node_handle.h ****         if ((checksum_ % 256) == 255)
 356:ROSSerial/ros/node_handle.h ****         {
 357:ROSSerial/ros/node_handle.h ****           if (topic_ == TopicInfo::ID_PUBLISHER)
 358:ROSSerial/ros/node_handle.h ****           {
 359:ROSSerial/ros/node_handle.h ****             requestSyncTime();
 360:ROSSerial/ros/node_handle.h ****             negotiateTopics();
 361:ROSSerial/ros/node_handle.h ****             last_sync_time = c_time;
 362:ROSSerial/ros/node_handle.h ****             last_sync_receive_time = c_time;
 363:ROSSerial/ros/node_handle.h ****             return SPIN_ERR;
 364:ROSSerial/ros/node_handle.h ****           }
 365:ROSSerial/ros/node_handle.h ****           else if (topic_ == TopicInfo::ID_TIME)
 366:ROSSerial/ros/node_handle.h ****           {
 367:ROSSerial/ros/node_handle.h ****             syncTime(message_in);
 368:ROSSerial/ros/node_handle.h ****           }
 369:ROSSerial/ros/node_handle.h ****           else if (topic_ == TopicInfo::ID_PARAMETER_REQUEST)
 370:ROSSerial/ros/node_handle.h ****           {
 371:ROSSerial/ros/node_handle.h ****             req_param_resp.deserialize(message_in);
 372:ROSSerial/ros/node_handle.h ****             param_recieved = true;
 373:ROSSerial/ros/node_handle.h ****           }
 374:ROSSerial/ros/node_handle.h ****           else if (topic_ == TopicInfo::ID_TX_STOP)
 375:ROSSerial/ros/node_handle.h ****           {
 376:ROSSerial/ros/node_handle.h ****             configured_ = false;
 377:ROSSerial/ros/node_handle.h ****           }
 378:ROSSerial/ros/node_handle.h ****           else
 379:ROSSerial/ros/node_handle.h ****           {
 380:ROSSerial/ros/node_handle.h ****             if (subscribers2[topic_ - 100].topic_id != 0) {
 381:ROSSerial/ros/node_handle.h ****               s_CallBack = (void (*)(char*))subscribers2[topic_ - 100].callback;
 382:ROSSerial/ros/node_handle.h ****               s_CallBack(message_in);
 383:ROSSerial/ros/node_handle.h ****             }
 384:ROSSerial/ros/node_handle.h ****           }
 385:ROSSerial/ros/node_handle.h ****         }
 386:ROSSerial/ros/node_handle.h ****       }
 387:ROSSerial/ros/node_handle.h ****     }
 388:ROSSerial/ros/node_handle.h **** 
 389:ROSSerial/ros/node_handle.h ****     /* occasionally sync time */
 390:ROSSerial/ros/node_handle.h ****     if (configured_ && ((c_time - last_sync_time) > (SYNC_SECONDS * 500)))
 391:ROSSerial/ros/node_handle.h ****     {
 392:ROSSerial/ros/node_handle.h ****       requestSyncTime();
 393:ROSSerial/ros/node_handle.h ****       last_sync_time = c_time;
 394:ROSSerial/ros/node_handle.h ****     }
 395:ROSSerial/ros/node_handle.h **** 
 396:ROSSerial/ros/node_handle.h ****     return SPIN_OK;
 397:ROSSerial/ros/node_handle.h ****   }
 398:ROSSerial/ros/node_handle.h **** 
 399:ROSSerial/ros/node_handle.h **** 
 400:ROSSerial/ros/node_handle.h ****   /* Are we connected to the PC? */
 401:ROSSerial/ros/node_handle.h ****   virtual bool connected()
ARM GAS  /var/folders/l3/4y5292px21b4835bsnjwqc7w009kq1/T//ccOXyXY5.s 			page 32


 402:ROSSerial/ros/node_handle.h ****   {
 403:ROSSerial/ros/node_handle.h ****     return configured_;
 404:ROSSerial/ros/node_handle.h ****   };
 405:ROSSerial/ros/node_handle.h **** 
 406:ROSSerial/ros/node_handle.h ****   /********************************************************************
 407:ROSSerial/ros/node_handle.h ****    * Time functions
 408:ROSSerial/ros/node_handle.h ****    */
 409:ROSSerial/ros/node_handle.h **** 
 410:ROSSerial/ros/node_handle.h ****   void requestSyncTime()
 411:ROSSerial/ros/node_handle.h ****   {
 412:ROSSerial/ros/node_handle.h ****     std_msgs::Time t;
 413:ROSSerial/ros/node_handle.h ****     publish1(TopicInfo::ID_TIME, &t);
 414:ROSSerial/ros/node_handle.h ****     rt_time = hardware_.time();
 415:ROSSerial/ros/node_handle.h ****   }
 416:ROSSerial/ros/node_handle.h **** 
 417:ROSSerial/ros/node_handle.h ****   void syncTime(uint8_t * data)
 418:ROSSerial/ros/node_handle.h ****   {
 419:ROSSerial/ros/node_handle.h ****     std_msgs::Time t;
 420:ROSSerial/ros/node_handle.h ****     uint32_t offset = hardware_.time() - rt_time;
 421:ROSSerial/ros/node_handle.h **** 
 422:ROSSerial/ros/node_handle.h ****     t.deserialize(data);
 423:ROSSerial/ros/node_handle.h ****     t.data.sec += offset / 1000;
 424:ROSSerial/ros/node_handle.h ****     t.data.nsec += (offset % 1000) * 1000000UL;
 425:ROSSerial/ros/node_handle.h **** 
 426:ROSSerial/ros/node_handle.h ****     this->setNow(t.data);
 427:ROSSerial/ros/node_handle.h ****     last_sync_receive_time = hardware_.time();
 428:ROSSerial/ros/node_handle.h ****   }
 429:ROSSerial/ros/node_handle.h **** 
 430:ROSSerial/ros/node_handle.h ****   Time now()
 431:ROSSerial/ros/node_handle.h ****   {
 432:ROSSerial/ros/node_handle.h ****     uint32_t ms = hardware_.time();
 433:ROSSerial/ros/node_handle.h ****     Time current_time;
 434:ROSSerial/ros/node_handle.h ****     current_time.sec = ms / 1000 + sec_offset;
 435:ROSSerial/ros/node_handle.h ****     current_time.nsec = (ms % 1000) * 1000000UL + nsec_offset;
 436:ROSSerial/ros/node_handle.h ****     normalizeSecNSec(current_time.sec, current_time.nsec);
 437:ROSSerial/ros/node_handle.h ****     return current_time;
 438:ROSSerial/ros/node_handle.h ****   }
 439:ROSSerial/ros/node_handle.h **** 
 440:ROSSerial/ros/node_handle.h ****   void setNow(Time & new_now)
 441:ROSSerial/ros/node_handle.h ****   {
 442:ROSSerial/ros/node_handle.h ****     uint32_t ms = hardware_.time();
 443:ROSSerial/ros/node_handle.h ****     sec_offset = new_now.sec - ms / 1000 - 1;
 444:ROSSerial/ros/node_handle.h ****     nsec_offset = new_now.nsec - (ms % 1000) * 1000000UL + 1000000000UL;
 445:ROSSerial/ros/node_handle.h ****     normalizeSecNSec(sec_offset, nsec_offset);
 446:ROSSerial/ros/node_handle.h ****   }
 447:ROSSerial/ros/node_handle.h **** 
 448:ROSSerial/ros/node_handle.h ****   /********************************************************************
 449:ROSSerial/ros/node_handle.h ****    * Topic Management
 450:ROSSerial/ros/node_handle.h ****    */
 451:ROSSerial/ros/node_handle.h **** 
 452:ROSSerial/ros/node_handle.h ****    /* Register a new publisher without C++ template */
 453:ROSSerial/ros/node_handle.h ****   PublisherType* addPublisher(char * topic_name, Msg * msg)
 454:ROSSerial/ros/node_handle.h ****   {
 455:ROSSerial/ros/node_handle.h ****     for (int i = 0; i < MAX_PUBLISHERS; i++)
 456:ROSSerial/ros/node_handle.h ****     {
 457:ROSSerial/ros/node_handle.h ****       if (publishers2[i].topic_id == 0) {// empty slot}
 458:ROSSerial/ros/node_handle.h **** 
ARM GAS  /var/folders/l3/4y5292px21b4835bsnjwqc7w009kq1/T//ccOXyXY5.s 			page 33


 459:ROSSerial/ros/node_handle.h ****         publishers2[i].topic_id = i + 100 + MAX_SUBSCRIBERS;
 460:ROSSerial/ros/node_handle.h ****         publishers2[i].topic_name = topic_name;
 461:ROSSerial/ros/node_handle.h ****         publishers2[i].msg = msg;
 462:ROSSerial/ros/node_handle.h ****         publishers2[i].message_type = msg->getType();
 463:ROSSerial/ros/node_handle.h ****         publishers2[i].md5sum = msg->getMD5();
 464:ROSSerial/ros/node_handle.h **** 
 465:ROSSerial/ros/node_handle.h ****         return &publishers2[i];
 466:ROSSerial/ros/node_handle.h ****       }
 467:ROSSerial/ros/node_handle.h ****     }
 468:ROSSerial/ros/node_handle.h ****     return ;
 469:ROSSerial/ros/node_handle.h ****   }
 470:ROSSerial/ros/node_handle.h **** 
 471:ROSSerial/ros/node_handle.h ****   /* Register a new publisher */
 472:ROSSerial/ros/node_handle.h ****   bool advertise(Publisher & p)
 473:ROSSerial/ros/node_handle.h ****   {
 474:ROSSerial/ros/node_handle.h ****     for (int i = 0; i < MAX_PUBLISHERS; i++)
 475:ROSSerial/ros/node_handle.h ****     {
 476:ROSSerial/ros/node_handle.h ****       if (publishers[i] == 0) // empty slot
 477:ROSSerial/ros/node_handle.h ****       {
 478:ROSSerial/ros/node_handle.h ****         publishers[i] = &p;
 479:ROSSerial/ros/node_handle.h ****         p.id_ = i + 100 + MAX_SUBSCRIBERS;
 480:ROSSerial/ros/node_handle.h ****         p.nh_ = this;
 481:ROSSerial/ros/node_handle.h ****         return true;
 482:ROSSerial/ros/node_handle.h ****       }
 483:ROSSerial/ros/node_handle.h ****     }
 484:ROSSerial/ros/node_handle.h ****     return false;
 485:ROSSerial/ros/node_handle.h ****   }
 486:ROSSerial/ros/node_handle.h **** 
 487:ROSSerial/ros/node_handle.h ****   /* Register a new subscriber */
 488:ROSSerial/ros/node_handle.h ****   template<typename SubscriberT>
 489:ROSSerial/ros/node_handle.h ****   bool subscribe(SubscriberT& s)
 490:ROSSerial/ros/node_handle.h ****   {
 491:ROSSerial/ros/node_handle.h ****     for (int i = 0; i < MAX_SUBSCRIBERS; i++)
 492:ROSSerial/ros/node_handle.h ****     {
 493:ROSSerial/ros/node_handle.h ****       if (subscribers[i] == 0) // empty slot
 494:ROSSerial/ros/node_handle.h ****       {
 495:ROSSerial/ros/node_handle.h ****         subscribers[i] = static_cast<Subscriber_*>(&s);
 496:ROSSerial/ros/node_handle.h ****         s.id_ = i + 100;
 497:ROSSerial/ros/node_handle.h ****         return true;
 498:ROSSerial/ros/node_handle.h ****       }
 499:ROSSerial/ros/node_handle.h ****     }
 500:ROSSerial/ros/node_handle.h ****     return false;
 501:ROSSerial/ros/node_handle.h ****   }
 502:ROSSerial/ros/node_handle.h **** 
 503:ROSSerial/ros/node_handle.h ****   bool addSubscriber(SubscriberType sub)
 504:ROSSerial/ros/node_handle.h ****   {
 505:ROSSerial/ros/node_handle.h ****     for (int i = 0; i < MAX_SUBSCRIBERS; i++)
 506:ROSSerial/ros/node_handle.h ****     {
 507:ROSSerial/ros/node_handle.h ****       if (subscribers2[i].topic_id == 0) {// empty slot}
 508:ROSSerial/ros/node_handle.h ****         void * ptr = &subscribers2[i];
 509:ROSSerial/ros/node_handle.h ****         memcpy(ptr, &sub, sizeof(sub));
 510:ROSSerial/ros/node_handle.h ****         subscribers2[i].topic_id = i + 100;
 511:ROSSerial/ros/node_handle.h ****         
 512:ROSSerial/ros/node_handle.h ****         return true;
 513:ROSSerial/ros/node_handle.h ****       }
 514:ROSSerial/ros/node_handle.h ****     }
 515:ROSSerial/ros/node_handle.h ****     return false;
ARM GAS  /var/folders/l3/4y5292px21b4835bsnjwqc7w009kq1/T//ccOXyXY5.s 			page 34


 516:ROSSerial/ros/node_handle.h ****   }
 517:ROSSerial/ros/node_handle.h **** 
 518:ROSSerial/ros/node_handle.h ****   /* Register a new Service Server */
 519:ROSSerial/ros/node_handle.h ****   template<typename MReq, typename MRes, typename ObjT>
 520:ROSSerial/ros/node_handle.h ****   bool advertiseService(ServiceServer<MReq, MRes, ObjT>& srv)
 521:ROSSerial/ros/node_handle.h ****   {
 522:ROSSerial/ros/node_handle.h ****     bool v = advertise(srv.pub);
 523:ROSSerial/ros/node_handle.h ****     for (int i = 0; i < MAX_SUBSCRIBERS; i++)
 524:ROSSerial/ros/node_handle.h ****     {
 525:ROSSerial/ros/node_handle.h ****       if (subscribers[i] == 0) // empty slot
 526:ROSSerial/ros/node_handle.h ****       {
 527:ROSSerial/ros/node_handle.h ****         subscribers[i] = static_cast<Subscriber_*>(&srv);
 528:ROSSerial/ros/node_handle.h ****         srv.id_ = i + 100;
 529:ROSSerial/ros/node_handle.h ****         return v;
 530:ROSSerial/ros/node_handle.h ****       }
 531:ROSSerial/ros/node_handle.h ****     }
 532:ROSSerial/ros/node_handle.h ****     return false;
 533:ROSSerial/ros/node_handle.h ****   }
 534:ROSSerial/ros/node_handle.h **** 
 535:ROSSerial/ros/node_handle.h ****   /* Register a new Service Client */
 536:ROSSerial/ros/node_handle.h ****   template<typename MReq, typename MRes>
 537:ROSSerial/ros/node_handle.h ****   bool serviceClient(ServiceClient<MReq, MRes>& srv)
 538:ROSSerial/ros/node_handle.h ****   {
 539:ROSSerial/ros/node_handle.h ****     bool v = advertise(srv.pub);
 540:ROSSerial/ros/node_handle.h ****     for (int i = 0; i < MAX_SUBSCRIBERS; i++)
 541:ROSSerial/ros/node_handle.h ****     {
 542:ROSSerial/ros/node_handle.h ****       if (subscribers[i] == 0) // empty slot
 543:ROSSerial/ros/node_handle.h ****       {
 544:ROSSerial/ros/node_handle.h ****         subscribers[i] = static_cast<Subscriber_*>(&srv);
 545:ROSSerial/ros/node_handle.h ****         srv.id_ = i + 100;
 546:ROSSerial/ros/node_handle.h ****         return v;
 547:ROSSerial/ros/node_handle.h ****       }
 548:ROSSerial/ros/node_handle.h ****     }
 549:ROSSerial/ros/node_handle.h ****     return false;
 550:ROSSerial/ros/node_handle.h ****   }
 551:ROSSerial/ros/node_handle.h **** 
 552:ROSSerial/ros/node_handle.h ****   void negotiateTopics()
 553:ROSSerial/ros/node_handle.h ****   {
 554:ROSSerial/ros/node_handle.h ****     rosserial_msgs::TopicInfo ti;
 555:ROSSerial/ros/node_handle.h ****     int i;
 556:ROSSerial/ros/node_handle.h ****     for (i = 0; i < MAX_PUBLISHERS; i++)
 557:ROSSerial/ros/node_handle.h ****     {
 558:ROSSerial/ros/node_handle.h ****       if (publishers2[i].topic_id != 0) // non-empty slot
 559:ROSSerial/ros/node_handle.h ****       {
 560:ROSSerial/ros/node_handle.h ****         // ti.topic_id = publishers[i]->id_;
 561:ROSSerial/ros/node_handle.h ****         // ti.topic_name = (char *) publishers[i]->topic_;
 562:ROSSerial/ros/node_handle.h ****         // ti.message_type = (char *) publishers[i]->msg_->getType();
 563:ROSSerial/ros/node_handle.h ****         // ti.md5sum = (char *) publishers[i]->msg_->getMD5();
 564:ROSSerial/ros/node_handle.h ****         // ti.buffer_size = OUTPUT_SIZE;
 565:ROSSerial/ros/node_handle.h ****         // publish1(publishers[i]->getEndpointType(), &ti);
 566:ROSSerial/ros/node_handle.h **** 
 567:ROSSerial/ros/node_handle.h ****         ti.topic_id = publishers2[i].topic_id;
 568:ROSSerial/ros/node_handle.h ****         ti.topic_name = publishers2[i].topic_name;
 569:ROSSerial/ros/node_handle.h ****         ti.message_type = publishers2[i].message_type;
 570:ROSSerial/ros/node_handle.h ****         ti.md5sum = publishers2[i].md5sum;
 571:ROSSerial/ros/node_handle.h ****         ti.buffer_size = OUTPUT_SIZE;
 572:ROSSerial/ros/node_handle.h ****         publish1(TopicInfo::ID_PUBLISHER, &ti);
ARM GAS  /var/folders/l3/4y5292px21b4835bsnjwqc7w009kq1/T//ccOXyXY5.s 			page 35


 573:ROSSerial/ros/node_handle.h ****       }
 574:ROSSerial/ros/node_handle.h ****     }
 575:ROSSerial/ros/node_handle.h ****     for (i = 0; i < MAX_SUBSCRIBERS; i++)
 576:ROSSerial/ros/node_handle.h ****     {
 577:ROSSerial/ros/node_handle.h ****       if (subscribers2[i].topic_id != 0) // non-empty slot
 578:ROSSerial/ros/node_handle.h ****       {
 579:ROSSerial/ros/node_handle.h ****         // ti.topic_id = subscribers[i]->id_;
 580:ROSSerial/ros/node_handle.h ****         // ti.topic_name = "led"; //(char *) subscribers[i]->topic_;
 581:ROSSerial/ros/node_handle.h ****         // ti.message_type = "std_msgs/UInt16" ; //(char *) subscribers[i]->getMsgType();
 582:ROSSerial/ros/node_handle.h ****         // ti.md5sum = "1df79edf208b629fe6b81923a544552d"; // (char *) subscribers[i]->getMsgMD5();
 583:ROSSerial/ros/node_handle.h ****         // ti.buffer_size = INPUT_SIZE;
 584:ROSSerial/ros/node_handle.h ****         // publish1(rosserial_msgs::TopicInfo::ID_SUBSCRIBER, &ti);
 585:ROSSerial/ros/node_handle.h **** 
 586:ROSSerial/ros/node_handle.h ****         ti.topic_id = subscribers2[i].topic_id;
 587:ROSSerial/ros/node_handle.h ****         ti.topic_name = subscribers2[i].topic_name;
 588:ROSSerial/ros/node_handle.h ****         ti.message_type = subscribers2[i].message_type;
 589:ROSSerial/ros/node_handle.h ****         ti.md5sum = subscribers2[i].md5sum;
 590:ROSSerial/ros/node_handle.h ****         ti.buffer_size = INPUT_SIZE;
 591:ROSSerial/ros/node_handle.h ****         publish1(rosserial_msgs::TopicInfo::ID_SUBSCRIBER, &ti);
 592:ROSSerial/ros/node_handle.h ****       }
 593:ROSSerial/ros/node_handle.h ****     }
 594:ROSSerial/ros/node_handle.h ****     configured_ = true;
 595:ROSSerial/ros/node_handle.h ****   }
 596:ROSSerial/ros/node_handle.h **** 
 597:ROSSerial/ros/node_handle.h ****   virtual int publish(int id, const Msg * msg)
 915              		.loc 7 597 0
 916              		.cfi_startproc
 917              		@ args = 0, pretend = 0, frame = 0
 918              		@ frame_needed = 0, uses_anonymous_args = 0
 919              		@ link register save eliminated.
 920              	.LVL89:
 921              	.LVL90:
 598:ROSSerial/ros/node_handle.h ****   {
 599:ROSSerial/ros/node_handle.h ****     //return publish1(id, msg);
 600:ROSSerial/ros/node_handle.h ****   }
 922              		.loc 7 600 0
 923 0000 7047     		bx	lr
 924              		.cfi_endproc
 925              	.LFE511:
 926              		.cantunwind
 927              		.fnend
 929              		.section	.text._ZN3ros11NodeHandle_I13STM32HardwareLi5ELi5ELi512ELi512EE9connectedEv,"axG",%progbi
 930              		.align	1
 931              		.weak	_ZN3ros11NodeHandle_I13STM32HardwareLi5ELi5ELi512ELi512EE9connectedEv
 932              		.syntax unified
 933              		.thumb
 934              		.thumb_func
 935              		.fpu fpv4-sp-d16
 937              	_ZN3ros11NodeHandle_I13STM32HardwareLi5ELi5ELi512ELi512EE9connectedEv:
 938              		.fnstart
 939              	.LFB513:
 401:ROSSerial/ros/node_handle.h ****   {
 940              		.loc 7 401 0
 941              		.cfi_startproc
 942              		@ args = 0, pretend = 0, frame = 0
 943              		@ frame_needed = 0, uses_anonymous_args = 0
 944              		@ link register save eliminated.
ARM GAS  /var/folders/l3/4y5292px21b4835bsnjwqc7w009kq1/T//ccOXyXY5.s 			page 36


 945              	.LVL91:
 404:ROSSerial/ros/node_handle.h **** 
 946              		.loc 7 404 0
 947 0000 90F81C05 		ldrb	r0, [r0, #1308]	@ zero_extendqisi2
 948              	.LVL92:
 949 0004 7047     		bx	lr
 950              		.cfi_endproc
 951              	.LFE513:
 952              		.cantunwind
 953              		.fnend
 955              		.section	.text._ZNK8std_msgs6String9serializeEPh,"axG",%progbits,_ZNK8std_msgs6String9serializeEPh
 956              		.align	1
 957              		.weak	_ZNK8std_msgs6String9serializeEPh
 958              		.syntax unified
 959              		.thumb
 960              		.thumb_func
 961              		.fpu fpv4-sp-d16
 963              	_ZNK8std_msgs6String9serializeEPh:
 964              		.fnstart
 965              	.LFB403:
  18:ROSSerial/std_msgs/ROSString.h ****     {
 966              		.loc 5 18 0
 967              		.cfi_startproc
 968              		@ args = 0, pretend = 0, frame = 0
 969              		@ frame_needed = 0, uses_anonymous_args = 0
 970              	.LVL93:
 971 0000 70B5     		push	{r4, r5, r6, lr}
 972              	.LCFI6:
 973              		.cfi_def_cfa_offset 16
 974              		.cfi_offset 4, -16
 975              		.cfi_offset 5, -12
 976              		.cfi_offset 6, -8
 977              		.cfi_offset 14, -4
 978 0002 0646     		mov	r6, r0
 979 0004 0C46     		mov	r4, r1
 980              	.LVL94:
  21:ROSSerial/std_msgs/ROSString.h ****       memcpy(outbuffer + offset, &length_data, sizeof(uint32_t));
 981              		.loc 5 21 0
 982 0006 4068     		ldr	r0, [r0, #4]
 983              	.LVL95:
 984 0008 FFF7FEFF 		bl	strlen
 985              	.LVL96:
 986 000c 0546     		mov	r5, r0
 987              	.LVL97:
  22:ROSSerial/std_msgs/ROSString.h ****       offset += 4;
 988              		.loc 5 22 0
 989 000e 2046     		mov	r0, r4
 990              	.LVL98:
 991 0010 40F8045B 		str	r5, [r0], #4	@ unaligned
 992              	.LVL99:
  24:ROSSerial/std_msgs/ROSString.h ****       offset += length_data;
 993              		.loc 5 24 0
 994 0014 2A46     		mov	r2, r5
 995 0016 7168     		ldr	r1, [r6, #4]
 996 0018 FFF7FEFF 		bl	memcpy
 997              	.LVL100:
  27:ROSSerial/std_msgs/ROSString.h **** 
ARM GAS  /var/folders/l3/4y5292px21b4835bsnjwqc7w009kq1/T//ccOXyXY5.s 			page 37


 998              		.loc 5 27 0
 999 001c 281D     		adds	r0, r5, #4
 1000              	.LVL101:
 1001 001e 70BD     		pop	{r4, r5, r6, pc}
 1002              		.cfi_endproc
 1003              	.LFE403:
 1004              		.cantunwind
 1005              		.fnend
 1007              		.section	.text._ZNK14rosserial_msgs9TopicInfo9serializeEPh,"axG",%progbits,_ZNK14rosserial_msgs9To
 1008              		.align	1
 1009              		.weak	_ZNK14rosserial_msgs9TopicInfo9serializeEPh
 1010              		.syntax unified
 1011              		.thumb
 1012              		.thumb_func
 1013              		.fpu fpv4-sp-d16
 1015              	_ZNK14rosserial_msgs9TopicInfo9serializeEPh:
 1016              		.fnstart
 1017              	.LFB382:
  29:ROSSerial/rosserial_msgs/TopicInfo.h ****     {
 1018              		.loc 2 29 0
 1019              		.cfi_startproc
 1020              		@ args = 0, pretend = 0, frame = 0
 1021              		@ frame_needed = 0, uses_anonymous_args = 0
 1022              	.LVL102:
 1023 0000 2DE9F041 		push	{r4, r5, r6, r7, r8, lr}
 1024              	.LCFI7:
 1025              		.cfi_def_cfa_offset 24
 1026              		.cfi_offset 4, -24
 1027              		.cfi_offset 5, -20
 1028              		.cfi_offset 6, -16
 1029              		.cfi_offset 7, -12
 1030              		.cfi_offset 8, -8
 1031              		.cfi_offset 14, -4
 1032 0004 0646     		mov	r6, r0
 1033 0006 0C46     		mov	r4, r1
 1034              	.LVL103:
  32:ROSSerial/rosserial_msgs/TopicInfo.h ****       *(outbuffer + offset + 1) = (this->topic_id >> (8 * 1)) & 0xFF;
 1035              		.loc 2 32 0
 1036 0008 8388     		ldrh	r3, [r0, #4]
 1037 000a 0B70     		strb	r3, [r1]
  33:ROSSerial/rosserial_msgs/TopicInfo.h ****       offset += sizeof(this->topic_id);
 1038              		.loc 2 33 0
 1039 000c 8388     		ldrh	r3, [r0, #4]
 1040 000e 1B0A     		lsrs	r3, r3, #8
 1041 0010 4B70     		strb	r3, [r1, #1]
 1042              	.LVL104:
  35:ROSSerial/rosserial_msgs/TopicInfo.h ****       memcpy(outbuffer + offset, &length_topic_name, sizeof(uint32_t));
 1043              		.loc 2 35 0
 1044 0012 8068     		ldr	r0, [r0, #8]
 1045              	.LVL105:
 1046 0014 FFF7FEFF 		bl	strlen
 1047              	.LVL106:
 1048 0018 0746     		mov	r7, r0
 1049              	.LVL107:
  36:ROSSerial/rosserial_msgs/TopicInfo.h ****       offset += 4;
 1050              		.loc 2 36 0
 1051 001a C4F80200 		str	r0, [r4, #2]	@ unaligned
ARM GAS  /var/folders/l3/4y5292px21b4835bsnjwqc7w009kq1/T//ccOXyXY5.s 			page 38


 1052              	.LVL108:
  38:ROSSerial/rosserial_msgs/TopicInfo.h ****       offset += length_topic_name;
 1053              		.loc 2 38 0
 1054 001e 0246     		mov	r2, r0
 1055 0020 B168     		ldr	r1, [r6, #8]
 1056 0022 A01D     		adds	r0, r4, #6
 1057              	.LVL109:
 1058 0024 FFF7FEFF 		bl	memcpy
 1059              	.LVL110:
  39:ROSSerial/rosserial_msgs/TopicInfo.h ****       uint32_t length_message_type = strlen(this->message_type);
 1060              		.loc 2 39 0
 1061 0028 07F10608 		add	r8, r7, #6
 1062              	.LVL111:
  40:ROSSerial/rosserial_msgs/TopicInfo.h ****       memcpy(outbuffer + offset, &length_message_type, sizeof(uint32_t));
 1063              		.loc 2 40 0
 1064 002c F068     		ldr	r0, [r6, #12]
 1065 002e FFF7FEFF 		bl	strlen
 1066              	.LVL112:
 1067 0032 0546     		mov	r5, r0
 1068              	.LVL113:
  41:ROSSerial/rosserial_msgs/TopicInfo.h ****       offset += 4;
 1069              		.loc 2 41 0
 1070 0034 44F80800 		str	r0, [r4, r8]	@ unaligned
  42:ROSSerial/rosserial_msgs/TopicInfo.h ****       memcpy(outbuffer + offset, this->message_type, length_message_type);
 1071              		.loc 2 42 0
 1072 0038 0A37     		adds	r7, r7, #10
 1073              	.LVL114:
  43:ROSSerial/rosserial_msgs/TopicInfo.h ****       offset += length_message_type;
 1074              		.loc 2 43 0
 1075 003a 0246     		mov	r2, r0
 1076 003c F168     		ldr	r1, [r6, #12]
 1077 003e E019     		adds	r0, r4, r7
 1078              	.LVL115:
 1079 0040 FFF7FEFF 		bl	memcpy
 1080              	.LVL116:
  44:ROSSerial/rosserial_msgs/TopicInfo.h ****       uint32_t length_md5sum = strlen(this->md5sum);
 1081              		.loc 2 44 0
 1082 0044 2F44     		add	r7, r7, r5
 1083              	.LVL117:
  45:ROSSerial/rosserial_msgs/TopicInfo.h ****       memcpy(outbuffer + offset, &length_md5sum, sizeof(uint32_t));
 1084              		.loc 2 45 0
 1085 0046 3069     		ldr	r0, [r6, #16]
 1086 0048 FFF7FEFF 		bl	strlen
 1087              	.LVL118:
 1088 004c 0546     		mov	r5, r0
 1089              	.LVL119:
  46:ROSSerial/rosserial_msgs/TopicInfo.h ****       offset += 4;
 1090              		.loc 2 46 0
 1091 004e E051     		str	r0, [r4, r7]	@ unaligned
  47:ROSSerial/rosserial_msgs/TopicInfo.h ****       memcpy(outbuffer + offset, this->md5sum, length_md5sum);
 1092              		.loc 2 47 0
 1093 0050 0437     		adds	r7, r7, #4
 1094              	.LVL120:
  48:ROSSerial/rosserial_msgs/TopicInfo.h ****       offset += length_md5sum;
 1095              		.loc 2 48 0
 1096 0052 0246     		mov	r2, r0
 1097 0054 3169     		ldr	r1, [r6, #16]
ARM GAS  /var/folders/l3/4y5292px21b4835bsnjwqc7w009kq1/T//ccOXyXY5.s 			page 39


 1098 0056 E019     		adds	r0, r4, r7
 1099              	.LVL121:
 1100 0058 FFF7FEFF 		bl	memcpy
 1101              	.LVL122:
  49:ROSSerial/rosserial_msgs/TopicInfo.h ****       union {
 1102              		.loc 2 49 0
 1103 005c E819     		adds	r0, r5, r7
 1104              	.LVL123:
  54:ROSSerial/rosserial_msgs/TopicInfo.h ****       *(outbuffer + offset + 0) = (u_buffer_size.base >> (8 * 0)) & 0xFF;
 1105              		.loc 2 54 0
 1106 005e 7369     		ldr	r3, [r6, #20]
  55:ROSSerial/rosserial_msgs/TopicInfo.h ****       *(outbuffer + offset + 1) = (u_buffer_size.base >> (8 * 1)) & 0xFF;
 1107              		.loc 2 55 0
 1108 0060 2354     		strb	r3, [r4, r0]
  56:ROSSerial/rosserial_msgs/TopicInfo.h ****       *(outbuffer + offset + 2) = (u_buffer_size.base >> (8 * 2)) & 0xFF;
 1109              		.loc 2 56 0
 1110 0062 190A     		lsrs	r1, r3, #8
 1111 0064 421C     		adds	r2, r0, #1
 1112 0066 A154     		strb	r1, [r4, r2]
  57:ROSSerial/rosserial_msgs/TopicInfo.h ****       *(outbuffer + offset + 3) = (u_buffer_size.base >> (8 * 3)) & 0xFF;
 1113              		.loc 2 57 0
 1114 0068 190C     		lsrs	r1, r3, #16
 1115 006a 821C     		adds	r2, r0, #2
 1116 006c A154     		strb	r1, [r4, r2]
  58:ROSSerial/rosserial_msgs/TopicInfo.h ****       offset += sizeof(this->buffer_size);
 1117              		.loc 2 58 0
 1118 006e 1B0E     		lsrs	r3, r3, #24
 1119 0070 C21C     		adds	r2, r0, #3
 1120 0072 A354     		strb	r3, [r4, r2]
 1121              	.LVL124:
  61:ROSSerial/rosserial_msgs/TopicInfo.h **** 
 1122              		.loc 2 61 0
 1123 0074 0430     		adds	r0, r0, #4
 1124              	.LVL125:
 1125 0076 BDE8F081 		pop	{r4, r5, r6, r7, r8, pc}
 1126              		.cfi_endproc
 1127              	.LFE382:
 1128              		.cantunwind
 1129              		.fnend
 1131              		.section	.text._ZNK14rosserial_msgs3Log9serializeEPh,"axG",%progbits,_ZNK14rosserial_msgs3Log9seri
 1132              		.align	1
 1133              		.weak	_ZNK14rosserial_msgs3Log9serializeEPh
 1134              		.syntax unified
 1135              		.thumb
 1136              		.thumb_func
 1137              		.fpu fpv4-sp-d16
 1139              	_ZNK14rosserial_msgs3Log9serializeEPh:
 1140              		.fnstart
 1141              	.LFB386:
  24:ROSSerial/rosserial_msgs/Log.h ****     {
 1142              		.loc 3 24 0
 1143              		.cfi_startproc
 1144              		@ args = 0, pretend = 0, frame = 0
 1145              		@ frame_needed = 0, uses_anonymous_args = 0
 1146              	.LVL126:
 1147 0000 70B5     		push	{r4, r5, r6, lr}
 1148              	.LCFI8:
ARM GAS  /var/folders/l3/4y5292px21b4835bsnjwqc7w009kq1/T//ccOXyXY5.s 			page 40


 1149              		.cfi_def_cfa_offset 16
 1150              		.cfi_offset 4, -16
 1151              		.cfi_offset 5, -12
 1152              		.cfi_offset 6, -8
 1153              		.cfi_offset 14, -4
 1154 0002 0646     		mov	r6, r0
 1155 0004 0D46     		mov	r5, r1
 1156              	.LVL127:
  27:ROSSerial/rosserial_msgs/Log.h ****       offset += sizeof(this->level);
 1157              		.loc 3 27 0
 1158 0006 0379     		ldrb	r3, [r0, #4]	@ zero_extendqisi2
 1159 0008 0B70     		strb	r3, [r1]
 1160              	.LVL128:
  29:ROSSerial/rosserial_msgs/Log.h ****       memcpy(outbuffer + offset, &length_msg, sizeof(uint32_t));
 1161              		.loc 3 29 0
 1162 000a 8068     		ldr	r0, [r0, #8]
 1163              	.LVL129:
 1164 000c FFF7FEFF 		bl	strlen
 1165              	.LVL130:
 1166 0010 0446     		mov	r4, r0
 1167              	.LVL131:
  30:ROSSerial/rosserial_msgs/Log.h ****       offset += 4;
 1168              		.loc 3 30 0
 1169 0012 C5F80100 		str	r0, [r5, #1]	@ unaligned
 1170              	.LVL132:
  32:ROSSerial/rosserial_msgs/Log.h ****       offset += length_msg;
 1171              		.loc 3 32 0
 1172 0016 0246     		mov	r2, r0
 1173 0018 B168     		ldr	r1, [r6, #8]
 1174 001a 681D     		adds	r0, r5, #5
 1175              	.LVL133:
 1176 001c FFF7FEFF 		bl	memcpy
 1177              	.LVL134:
  35:ROSSerial/rosserial_msgs/Log.h **** 
 1178              		.loc 3 35 0
 1179 0020 601D     		adds	r0, r4, #5
 1180              	.LVL135:
 1181 0022 70BD     		pop	{r4, r5, r6, pc}
 1182              		.cfi_endproc
 1183              	.LFE386:
 1184              		.cantunwind
 1185              		.fnend
 1187              		.section	.text._ZNK14rosserial_msgs20RequestParamResponse9serializeEPh,"axG",%progbits,_ZNK14rosse
 1188              		.align	1
 1189              		.weak	_ZNK14rosserial_msgs20RequestParamResponse9serializeEPh
 1190              		.syntax unified
 1191              		.thumb
 1192              		.thumb_func
 1193              		.fpu fpv4-sp-d16
 1195              	_ZNK14rosserial_msgs20RequestParamResponse9serializeEPh:
 1196              		.fnstart
 1197              	.LFB394:
  64:ROSSerial/rosserial_msgs/RequestParam.h ****     {
 1198              		.loc 4 64 0
 1199              		.cfi_startproc
 1200              		@ args = 0, pretend = 0, frame = 0
 1201              		@ frame_needed = 0, uses_anonymous_args = 0
ARM GAS  /var/folders/l3/4y5292px21b4835bsnjwqc7w009kq1/T//ccOXyXY5.s 			page 41


 1202              	.LVL136:
 1203 0000 2DE9F041 		push	{r4, r5, r6, r7, r8, lr}
 1204              	.LCFI9:
 1205              		.cfi_def_cfa_offset 24
 1206              		.cfi_offset 4, -24
 1207              		.cfi_offset 5, -20
 1208              		.cfi_offset 6, -16
 1209              		.cfi_offset 7, -12
 1210              		.cfi_offset 8, -8
 1211              		.cfi_offset 14, -4
 1212 0004 0546     		mov	r5, r0
 1213 0006 0C46     		mov	r4, r1
 1214              	.LVL137:
  67:ROSSerial/rosserial_msgs/RequestParam.h ****       *(outbuffer + offset++) = 0;
 1215              		.loc 4 67 0
 1216 0008 0379     		ldrb	r3, [r0, #4]	@ zero_extendqisi2
 1217 000a 0B70     		strb	r3, [r1]
 1218              	.LVL138:
  68:ROSSerial/rosserial_msgs/RequestParam.h ****       *(outbuffer + offset++) = 0;
 1219              		.loc 4 68 0
 1220 000c 0022     		movs	r2, #0
 1221 000e 4A70     		strb	r2, [r1, #1]
 1222              	.LVL139:
  69:ROSSerial/rosserial_msgs/RequestParam.h ****       *(outbuffer + offset++) = 0;
 1223              		.loc 4 69 0
 1224 0010 8A70     		strb	r2, [r1, #2]
 1225              	.LVL140:
  70:ROSSerial/rosserial_msgs/RequestParam.h ****       for( uint8_t i = 0; i < ints_length; i++){
 1226              		.loc 4 70 0
 1227 0012 CA70     		strb	r2, [r1, #3]
 1228              	.LVL141:
 1229 0014 0423     		movs	r3, #4
 1230              	.LVL142:
 1231              	.L72:
 1232              	.LBB134:
  71:ROSSerial/rosserial_msgs/RequestParam.h ****       union {
 1233              		.loc 4 71 0 discriminator 3
 1234 0016 2979     		ldrb	r1, [r5, #4]	@ zero_extendqisi2
 1235 0018 9142     		cmp	r1, r2
 1236 001a 10D9     		bls	.L71
 1237              	.LBB135:
  76:ROSSerial/rosserial_msgs/RequestParam.h ****       *(outbuffer + offset + 0) = (u_intsi.base >> (8 * 0)) & 0xFF;
 1238              		.loc 4 76 0 discriminator 2
 1239 001c E968     		ldr	r1, [r5, #12]
 1240 001e 51F82210 		ldr	r1, [r1, r2, lsl #2]
  77:ROSSerial/rosserial_msgs/RequestParam.h ****       *(outbuffer + offset + 1) = (u_intsi.base >> (8 * 1)) & 0xFF;
 1241              		.loc 4 77 0 discriminator 2
 1242 0022 E154     		strb	r1, [r4, r3]
  78:ROSSerial/rosserial_msgs/RequestParam.h ****       *(outbuffer + offset + 2) = (u_intsi.base >> (8 * 2)) & 0xFF;
 1243              		.loc 4 78 0 discriminator 2
 1244 0024 0E0A     		lsrs	r6, r1, #8
 1245 0026 581C     		adds	r0, r3, #1
 1246 0028 2654     		strb	r6, [r4, r0]
  79:ROSSerial/rosserial_msgs/RequestParam.h ****       *(outbuffer + offset + 3) = (u_intsi.base >> (8 * 3)) & 0xFF;
 1247              		.loc 4 79 0 discriminator 2
 1248 002a 0E0C     		lsrs	r6, r1, #16
 1249 002c 981C     		adds	r0, r3, #2
ARM GAS  /var/folders/l3/4y5292px21b4835bsnjwqc7w009kq1/T//ccOXyXY5.s 			page 42


 1250 002e 2654     		strb	r6, [r4, r0]
  80:ROSSerial/rosserial_msgs/RequestParam.h ****       offset += sizeof(this->ints[i]);
 1251              		.loc 4 80 0 discriminator 2
 1252 0030 090E     		lsrs	r1, r1, #24
 1253 0032 D81C     		adds	r0, r3, #3
 1254 0034 2154     		strb	r1, [r4, r0]
  81:ROSSerial/rosserial_msgs/RequestParam.h ****       }
 1255              		.loc 4 81 0 discriminator 2
 1256 0036 0433     		adds	r3, r3, #4
 1257              	.LVL143:
 1258              	.LBE135:
  71:ROSSerial/rosserial_msgs/RequestParam.h ****       union {
 1259              		.loc 4 71 0 discriminator 2
 1260 0038 0132     		adds	r2, r2, #1
 1261              	.LVL144:
 1262 003a D2B2     		uxtb	r2, r2
 1263              	.LVL145:
 1264 003c EBE7     		b	.L72
 1265              	.L71:
 1266              	.LBE134:
  83:ROSSerial/rosserial_msgs/RequestParam.h ****       *(outbuffer + offset++) = 0;
 1267              		.loc 4 83 0
 1268 003e 591C     		adds	r1, r3, #1
 1269              	.LVL146:
 1270 0040 2A7C     		ldrb	r2, [r5, #16]	@ zero_extendqisi2
 1271              	.LVL147:
 1272 0042 E254     		strb	r2, [r4, r3]
  84:ROSSerial/rosserial_msgs/RequestParam.h ****       *(outbuffer + offset++) = 0;
 1273              		.loc 4 84 0
 1274 0044 981C     		adds	r0, r3, #2
 1275              	.LVL148:
 1276 0046 0022     		movs	r2, #0
 1277 0048 6254     		strb	r2, [r4, r1]
  85:ROSSerial/rosserial_msgs/RequestParam.h ****       *(outbuffer + offset++) = 0;
 1278              		.loc 4 85 0
 1279 004a D91C     		adds	r1, r3, #3
 1280              	.LVL149:
 1281 004c 2254     		strb	r2, [r4, r0]
  86:ROSSerial/rosserial_msgs/RequestParam.h ****       for( uint8_t i = 0; i < floats_length; i++){
 1282              		.loc 4 86 0
 1283 004e 0433     		adds	r3, r3, #4
 1284              	.LVL150:
 1285 0050 6254     		strb	r2, [r4, r1]
 1286              	.LVL151:
 1287              	.L74:
 1288              	.LBB136:
  87:ROSSerial/rosserial_msgs/RequestParam.h ****       union {
 1289              		.loc 4 87 0 discriminator 3
 1290 0052 297C     		ldrb	r1, [r5, #16]	@ zero_extendqisi2
 1291 0054 9142     		cmp	r1, r2
 1292 0056 10D9     		bls	.L73
 1293              	.LBB137:
  92:ROSSerial/rosserial_msgs/RequestParam.h ****       *(outbuffer + offset + 0) = (u_floatsi.base >> (8 * 0)) & 0xFF;
 1294              		.loc 4 92 0 discriminator 2
 1295 0058 A969     		ldr	r1, [r5, #24]
 1296 005a 51F82210 		ldr	r1, [r1, r2, lsl #2]
  93:ROSSerial/rosserial_msgs/RequestParam.h ****       *(outbuffer + offset + 1) = (u_floatsi.base >> (8 * 1)) & 0xFF;
ARM GAS  /var/folders/l3/4y5292px21b4835bsnjwqc7w009kq1/T//ccOXyXY5.s 			page 43


 1297              		.loc 4 93 0 discriminator 2
 1298 005e E154     		strb	r1, [r4, r3]
  94:ROSSerial/rosserial_msgs/RequestParam.h ****       *(outbuffer + offset + 2) = (u_floatsi.base >> (8 * 2)) & 0xFF;
 1299              		.loc 4 94 0 discriminator 2
 1300 0060 0E0A     		lsrs	r6, r1, #8
 1301 0062 581C     		adds	r0, r3, #1
 1302 0064 2654     		strb	r6, [r4, r0]
  95:ROSSerial/rosserial_msgs/RequestParam.h ****       *(outbuffer + offset + 3) = (u_floatsi.base >> (8 * 3)) & 0xFF;
 1303              		.loc 4 95 0 discriminator 2
 1304 0066 0E0C     		lsrs	r6, r1, #16
 1305 0068 981C     		adds	r0, r3, #2
 1306 006a 2654     		strb	r6, [r4, r0]
  96:ROSSerial/rosserial_msgs/RequestParam.h ****       offset += sizeof(this->floats[i]);
 1307              		.loc 4 96 0 discriminator 2
 1308 006c 090E     		lsrs	r1, r1, #24
 1309 006e D81C     		adds	r0, r3, #3
 1310 0070 2154     		strb	r1, [r4, r0]
  97:ROSSerial/rosserial_msgs/RequestParam.h ****       }
 1311              		.loc 4 97 0 discriminator 2
 1312 0072 0433     		adds	r3, r3, #4
 1313              	.LVL152:
 1314              	.LBE137:
  87:ROSSerial/rosserial_msgs/RequestParam.h ****       union {
 1315              		.loc 4 87 0 discriminator 2
 1316 0074 0132     		adds	r2, r2, #1
 1317              	.LVL153:
 1318 0076 D2B2     		uxtb	r2, r2
 1319              	.LVL154:
 1320 0078 EBE7     		b	.L74
 1321              	.L73:
 1322              	.LBE136:
  99:ROSSerial/rosserial_msgs/RequestParam.h ****       *(outbuffer + offset++) = 0;
 1323              		.loc 4 99 0
 1324 007a 5A1C     		adds	r2, r3, #1
 1325              	.LVL155:
 1326 007c 297F     		ldrb	r1, [r5, #28]	@ zero_extendqisi2
 1327 007e E154     		strb	r1, [r4, r3]
 100:ROSSerial/rosserial_msgs/RequestParam.h ****       *(outbuffer + offset++) = 0;
 1328              		.loc 4 100 0
 1329 0080 991C     		adds	r1, r3, #2
 1330              	.LVL156:
 1331 0082 4FF00008 		mov	r8, #0
 1332 0086 04F80280 		strb	r8, [r4, r2]
 101:ROSSerial/rosserial_msgs/RequestParam.h ****       *(outbuffer + offset++) = 0;
 1333              		.loc 4 101 0
 1334 008a DA1C     		adds	r2, r3, #3
 1335              	.LVL157:
 1336 008c 04F80180 		strb	r8, [r4, r1]
 102:ROSSerial/rosserial_msgs/RequestParam.h ****       for( uint8_t i = 0; i < strings_length; i++){
 1337              		.loc 4 102 0
 1338 0090 1E1D     		adds	r6, r3, #4
 1339              	.LVL158:
 1340 0092 04F80280 		strb	r8, [r4, r2]
 1341              	.LVL159:
 1342              	.L76:
 1343              	.LBB138:
 103:ROSSerial/rosserial_msgs/RequestParam.h ****       uint32_t length_stringsi = strlen(this->strings[i]);
ARM GAS  /var/folders/l3/4y5292px21b4835bsnjwqc7w009kq1/T//ccOXyXY5.s 			page 44


 1344              		.loc 4 103 0 discriminator 3
 1345 0096 2B7F     		ldrb	r3, [r5, #28]	@ zero_extendqisi2
 1346 0098 4345     		cmp	r3, r8
 1347 009a 14D9     		bls	.L70
 1348              	.LBB139:
 104:ROSSerial/rosserial_msgs/RequestParam.h ****       memcpy(outbuffer + offset, &length_stringsi, sizeof(uint32_t));
 1349              		.loc 4 104 0 discriminator 2
 1350 009c 6B6A     		ldr	r3, [r5, #36]
 1351 009e 53F82800 		ldr	r0, [r3, r8, lsl #2]
 1352 00a2 FFF7FEFF 		bl	strlen
 1353              	.LVL160:
 1354 00a6 0746     		mov	r7, r0
 1355              	.LVL161:
 105:ROSSerial/rosserial_msgs/RequestParam.h ****       offset += 4;
 1356              		.loc 4 105 0 discriminator 2
 1357 00a8 A051     		str	r0, [r4, r6]	@ unaligned
 106:ROSSerial/rosserial_msgs/RequestParam.h ****       memcpy(outbuffer + offset, this->strings[i], length_stringsi);
 1358              		.loc 4 106 0 discriminator 2
 1359 00aa 0436     		adds	r6, r6, #4
 1360              	.LVL162:
 107:ROSSerial/rosserial_msgs/RequestParam.h ****       offset += length_stringsi;
 1361              		.loc 4 107 0 discriminator 2
 1362 00ac 6B6A     		ldr	r3, [r5, #36]
 1363 00ae 0246     		mov	r2, r0
 1364 00b0 53F82810 		ldr	r1, [r3, r8, lsl #2]
 1365 00b4 A019     		adds	r0, r4, r6
 1366              	.LVL163:
 1367 00b6 FFF7FEFF 		bl	memcpy
 1368              	.LVL164:
 108:ROSSerial/rosserial_msgs/RequestParam.h ****       }
 1369              		.loc 4 108 0 discriminator 2
 1370 00ba 3E44     		add	r6, r6, r7
 1371              	.LVL165:
 1372              	.LBE139:
 103:ROSSerial/rosserial_msgs/RequestParam.h ****       uint32_t length_stringsi = strlen(this->strings[i]);
 1373              		.loc 4 103 0 discriminator 2
 1374 00bc 08F10108 		add	r8, r8, #1
 1375              	.LVL166:
 1376 00c0 5FFA88F8 		uxtb	r8, r8
 1377              	.LVL167:
 1378 00c4 E7E7     		b	.L76
 1379              	.L70:
 1380              	.LBE138:
 111:ROSSerial/rosserial_msgs/RequestParam.h **** 
 1381              		.loc 4 111 0
 1382 00c6 3046     		mov	r0, r6
 1383 00c8 BDE8F081 		pop	{r4, r5, r6, r7, r8, pc}
 1384              		.cfi_endproc
 1385              	.LFE394:
 1386              		.cantunwind
 1387              		.fnend
 1389              		.section	.text._ZN14rosserial_msgs20RequestParamResponse11deserializeEPh,"axG",%progbits,_ZN14ross
 1390              		.align	1
 1391              		.weak	_ZN14rosserial_msgs20RequestParamResponse11deserializeEPh
 1392              		.syntax unified
 1393              		.thumb
 1394              		.thumb_func
ARM GAS  /var/folders/l3/4y5292px21b4835bsnjwqc7w009kq1/T//ccOXyXY5.s 			page 45


 1395              		.fpu fpv4-sp-d16
 1397              	_ZN14rosserial_msgs20RequestParamResponse11deserializeEPh:
 1398              		.fnstart
 1399              	.LFB395:
 113:ROSSerial/rosserial_msgs/RequestParam.h ****     {
 1400              		.loc 4 113 0
 1401              		.cfi_startproc
 1402              		@ args = 0, pretend = 0, frame = 0
 1403              		@ frame_needed = 0, uses_anonymous_args = 0
 1404              	.LVL168:
 1405 0000 F8B5     		push	{r3, r4, r5, r6, r7, lr}
 1406              	.LCFI10:
 1407              		.cfi_def_cfa_offset 24
 1408              		.cfi_offset 3, -24
 1409              		.cfi_offset 4, -20
 1410              		.cfi_offset 5, -16
 1411              		.cfi_offset 6, -12
 1412              		.cfi_offset 7, -8
 1413              		.cfi_offset 14, -4
 1414 0002 0646     		mov	r6, r0
 1415 0004 0D46     		mov	r5, r1
 1416              	.LVL169:
 116:ROSSerial/rosserial_msgs/RequestParam.h ****       if(ints_lengthT > ints_length)
 1417              		.loc 4 116 0
 1418 0006 0C78     		ldrb	r4, [r1]	@ zero_extendqisi2
 1419              	.LVL170:
 117:ROSSerial/rosserial_msgs/RequestParam.h ****         this->ints = (int32_t*)realloc(this->ints, ints_lengthT * sizeof(int32_t));
 1420              		.loc 4 117 0
 1421 0008 0379     		ldrb	r3, [r0, #4]	@ zero_extendqisi2
 1422 000a A342     		cmp	r3, r4
 1423 000c 1AD3     		bcc	.L91
 1424              	.LVL171:
 1425              	.L79:
 120:ROSSerial/rosserial_msgs/RequestParam.h ****       for( uint8_t i = 0; i < ints_length; i++){
 1426              		.loc 4 120 0
 1427 000e 3471     		strb	r4, [r6, #4]
 1428              	.LVL172:
 1429              	.LBB147:
 121:ROSSerial/rosserial_msgs/RequestParam.h ****       union {
 1430              		.loc 4 121 0
 1431 0010 0022     		movs	r2, #0
 1432              	.LBE147:
 119:ROSSerial/rosserial_msgs/RequestParam.h ****       ints_length = ints_lengthT;
 1433              		.loc 4 119 0
 1434 0012 0424     		movs	r4, #4
 1435              	.LVL173:
 1436              	.L81:
 1437              	.LBB149:
 121:ROSSerial/rosserial_msgs/RequestParam.h ****       union {
 1438              		.loc 4 121 0 discriminator 3
 1439 0014 3379     		ldrb	r3, [r6, #4]	@ zero_extendqisi2
 1440 0016 9342     		cmp	r3, r2
 1441 0018 1AD9     		bls	.L80
 1442              	.LBB148:
 127:ROSSerial/rosserial_msgs/RequestParam.h ****       u_st_ints.base |= ((uint32_t) (*(inbuffer + offset + 1))) << (8 * 1);
 1443              		.loc 4 127 0 discriminator 2
 1444 001a 2B5D     		ldrb	r3, [r5, r4]	@ zero_extendqisi2
ARM GAS  /var/folders/l3/4y5292px21b4835bsnjwqc7w009kq1/T//ccOXyXY5.s 			page 46


 128:ROSSerial/rosserial_msgs/RequestParam.h ****       u_st_ints.base |= ((uint32_t) (*(inbuffer + offset + 2))) << (8 * 2);
 1445              		.loc 4 128 0 discriminator 2
 1446 001c 611C     		adds	r1, r4, #1
 1447 001e 695C     		ldrb	r1, [r5, r1]	@ zero_extendqisi2
 1448 0020 43EA0123 		orr	r3, r3, r1, lsl #8
 129:ROSSerial/rosserial_msgs/RequestParam.h ****       u_st_ints.base |= ((uint32_t) (*(inbuffer + offset + 3))) << (8 * 3);
 1449              		.loc 4 129 0 discriminator 2
 1450 0024 A11C     		adds	r1, r4, #2
 1451 0026 695C     		ldrb	r1, [r5, r1]	@ zero_extendqisi2
 1452 0028 43EA0143 		orr	r3, r3, r1, lsl #16
 130:ROSSerial/rosserial_msgs/RequestParam.h ****       this->st_ints = u_st_ints.real;
 1453              		.loc 4 130 0 discriminator 2
 1454 002c E11C     		adds	r1, r4, #3
 1455 002e 695C     		ldrb	r1, [r5, r1]	@ zero_extendqisi2
 1456 0030 43EA0163 		orr	r3, r3, r1, lsl #24
 131:ROSSerial/rosserial_msgs/RequestParam.h ****       offset += sizeof(this->st_ints);
 1457              		.loc 4 131 0 discriminator 2
 1458 0034 B360     		str	r3, [r6, #8]
 132:ROSSerial/rosserial_msgs/RequestParam.h ****         memcpy( &(this->ints[i]), &(this->st_ints), sizeof(int32_t));
 1459              		.loc 4 132 0 discriminator 2
 1460 0036 0434     		adds	r4, r4, #4
 1461              	.LVL174:
 133:ROSSerial/rosserial_msgs/RequestParam.h ****       }
 1462              		.loc 4 133 0 discriminator 2
 1463 0038 F168     		ldr	r1, [r6, #12]
 1464 003a 41F82230 		str	r3, [r1, r2, lsl #2]	@ unaligned
 1465              	.LBE148:
 121:ROSSerial/rosserial_msgs/RequestParam.h ****       union {
 1466              		.loc 4 121 0 discriminator 2
 1467 003e 0132     		adds	r2, r2, #1
 1468              	.LVL175:
 1469 0040 D2B2     		uxtb	r2, r2
 1470              	.LVL176:
 1471 0042 E7E7     		b	.L81
 1472              	.LVL177:
 1473              	.L91:
 1474              	.LBE149:
 118:ROSSerial/rosserial_msgs/RequestParam.h ****       offset += 3;
 1475              		.loc 4 118 0
 1476 0044 A100     		lsls	r1, r4, #2
 1477              	.LVL178:
 1478 0046 C068     		ldr	r0, [r0, #12]
 1479              	.LVL179:
 1480 0048 FFF7FEFF 		bl	realloc
 1481              	.LVL180:
 1482 004c F060     		str	r0, [r6, #12]
 1483 004e DEE7     		b	.L79
 1484              	.LVL181:
 1485              	.L80:
 135:ROSSerial/rosserial_msgs/RequestParam.h ****       if(floats_lengthT > floats_length)
 1486              		.loc 4 135 0
 1487 0050 2F5D     		ldrb	r7, [r5, r4]	@ zero_extendqisi2
 1488              	.LVL182:
 136:ROSSerial/rosserial_msgs/RequestParam.h ****         this->floats = (float*)realloc(this->floats, floats_lengthT * sizeof(float));
 1489              		.loc 4 136 0
 1490 0052 337C     		ldrb	r3, [r6, #16]	@ zero_extendqisi2
 1491 0054 BB42     		cmp	r3, r7
ARM GAS  /var/folders/l3/4y5292px21b4835bsnjwqc7w009kq1/T//ccOXyXY5.s 			page 47


 1492 0056 1AD3     		bcc	.L92
 1493              	.LVL183:
 1494              	.L82:
 138:ROSSerial/rosserial_msgs/RequestParam.h ****       floats_length = floats_lengthT;
 1495              		.loc 4 138 0
 1496 0058 0434     		adds	r4, r4, #4
 1497              	.LVL184:
 139:ROSSerial/rosserial_msgs/RequestParam.h ****       for( uint8_t i = 0; i < floats_length; i++){
 1498              		.loc 4 139 0
 1499 005a 3774     		strb	r7, [r6, #16]
 1500              	.LVL185:
 1501              	.LBB150:
 140:ROSSerial/rosserial_msgs/RequestParam.h ****       union {
 1502              		.loc 4 140 0
 1503 005c 0022     		movs	r2, #0
 1504              	.LVL186:
 1505              	.L84:
 140:ROSSerial/rosserial_msgs/RequestParam.h ****       union {
 1506              		.loc 4 140 0 is_stmt 0 discriminator 3
 1507 005e 337C     		ldrb	r3, [r6, #16]	@ zero_extendqisi2
 1508 0060 9342     		cmp	r3, r2
 1509 0062 1AD9     		bls	.L83
 1510              	.LBB151:
 146:ROSSerial/rosserial_msgs/RequestParam.h ****       u_st_floats.base |= ((uint32_t) (*(inbuffer + offset + 1))) << (8 * 1);
 1511              		.loc 4 146 0 is_stmt 1 discriminator 2
 1512 0064 2B5D     		ldrb	r3, [r5, r4]	@ zero_extendqisi2
 147:ROSSerial/rosserial_msgs/RequestParam.h ****       u_st_floats.base |= ((uint32_t) (*(inbuffer + offset + 2))) << (8 * 2);
 1513              		.loc 4 147 0 discriminator 2
 1514 0066 611C     		adds	r1, r4, #1
 1515 0068 695C     		ldrb	r1, [r5, r1]	@ zero_extendqisi2
 1516 006a 43EA0123 		orr	r3, r3, r1, lsl #8
 148:ROSSerial/rosserial_msgs/RequestParam.h ****       u_st_floats.base |= ((uint32_t) (*(inbuffer + offset + 3))) << (8 * 3);
 1517              		.loc 4 148 0 discriminator 2
 1518 006e A11C     		adds	r1, r4, #2
 1519 0070 695C     		ldrb	r1, [r5, r1]	@ zero_extendqisi2
 1520 0072 43EA0143 		orr	r3, r3, r1, lsl #16
 149:ROSSerial/rosserial_msgs/RequestParam.h ****       this->st_floats = u_st_floats.real;
 1521              		.loc 4 149 0 discriminator 2
 1522 0076 E11C     		adds	r1, r4, #3
 1523 0078 695C     		ldrb	r1, [r5, r1]	@ zero_extendqisi2
 1524 007a 43EA0163 		orr	r3, r3, r1, lsl #24
 150:ROSSerial/rosserial_msgs/RequestParam.h ****       offset += sizeof(this->st_floats);
 1525              		.loc 4 150 0 discriminator 2
 1526 007e 7361     		str	r3, [r6, #20]	@ float
 151:ROSSerial/rosserial_msgs/RequestParam.h ****         memcpy( &(this->floats[i]), &(this->st_floats), sizeof(float));
 1527              		.loc 4 151 0 discriminator 2
 1528 0080 0434     		adds	r4, r4, #4
 1529              	.LVL187:
 152:ROSSerial/rosserial_msgs/RequestParam.h ****       }
 1530              		.loc 4 152 0 discriminator 2
 1531 0082 B169     		ldr	r1, [r6, #24]
 1532 0084 41F82230 		str	r3, [r1, r2, lsl #2]	@ unaligned
 1533              	.LBE151:
 140:ROSSerial/rosserial_msgs/RequestParam.h ****       union {
 1534              		.loc 4 140 0 discriminator 2
 1535 0088 0132     		adds	r2, r2, #1
 1536              	.LVL188:
ARM GAS  /var/folders/l3/4y5292px21b4835bsnjwqc7w009kq1/T//ccOXyXY5.s 			page 48


 1537 008a D2B2     		uxtb	r2, r2
 1538              	.LVL189:
 1539 008c E7E7     		b	.L84
 1540              	.LVL190:
 1541              	.L92:
 1542              	.LBE150:
 137:ROSSerial/rosserial_msgs/RequestParam.h ****       offset += 3;
 1543              		.loc 4 137 0
 1544 008e B900     		lsls	r1, r7, #2
 1545 0090 B069     		ldr	r0, [r6, #24]
 1546 0092 FFF7FEFF 		bl	realloc
 1547              	.LVL191:
 1548 0096 B061     		str	r0, [r6, #24]
 1549 0098 DEE7     		b	.L82
 1550              	.LVL192:
 1551              	.L83:
 154:ROSSerial/rosserial_msgs/RequestParam.h ****       if(strings_lengthT > strings_length)
 1552              		.loc 4 154 0
 1553 009a 2F5D     		ldrb	r7, [r5, r4]	@ zero_extendqisi2
 1554              	.LVL193:
 155:ROSSerial/rosserial_msgs/RequestParam.h ****         this->strings = (char**)realloc(this->strings, strings_lengthT * sizeof(char*));
 1555              		.loc 4 155 0
 1556 009c 337F     		ldrb	r3, [r6, #28]	@ zero_extendqisi2
 1557 009e BB42     		cmp	r3, r7
 1558 00a0 04D3     		bcc	.L93
 1559              	.LVL194:
 1560              	.L85:
 157:ROSSerial/rosserial_msgs/RequestParam.h ****       strings_length = strings_lengthT;
 1561              		.loc 4 157 0
 1562 00a2 201D     		adds	r0, r4, #4
 1563              	.LVL195:
 158:ROSSerial/rosserial_msgs/RequestParam.h ****       for( uint8_t i = 0; i < strings_length; i++){
 1564              		.loc 4 158 0
 1565 00a4 3777     		strb	r7, [r6, #28]
 1566              	.LVL196:
 1567              	.LBB152:
 159:ROSSerial/rosserial_msgs/RequestParam.h ****       uint32_t length_st_strings;
 1568              		.loc 4 159 0
 1569 00a6 4FF0000C 		mov	ip, #0
 1570 00aa 12E0     		b	.L89
 1571              	.LVL197:
 1572              	.L93:
 1573              	.LBE152:
 156:ROSSerial/rosserial_msgs/RequestParam.h ****       offset += 3;
 1574              		.loc 4 156 0
 1575 00ac B900     		lsls	r1, r7, #2
 1576 00ae 706A     		ldr	r0, [r6, #36]
 1577 00b0 FFF7FEFF 		bl	realloc
 1578              	.LVL198:
 1579 00b4 7062     		str	r0, [r6, #36]
 1580 00b6 F4E7     		b	.L85
 1581              	.LVL199:
 1582              	.L87:
 1583              	.LBB156:
 1584              	.LBB153:
 166:ROSSerial/rosserial_msgs/RequestParam.h ****       this->st_strings = (char *)(inbuffer + offset-1);
 1585              		.loc 4 166 0 discriminator 2
ARM GAS  /var/folders/l3/4y5292px21b4835bsnjwqc7w009kq1/T//ccOXyXY5.s 			page 49


 1586 00b8 431E     		subs	r3, r0, #1
 1587              	.LVL200:
 1588 00ba 0022     		movs	r2, #0
 1589 00bc EA54     		strb	r2, [r5, r3]
 167:ROSSerial/rosserial_msgs/RequestParam.h ****       offset += length_st_strings;
 1590              		.loc 4 167 0 discriminator 2
 1591 00be 013C     		subs	r4, r4, #1
 1592 00c0 2C44     		add	r4, r4, r5
 1593 00c2 3462     		str	r4, [r6, #32]
 1594              	.LVL201:
 169:ROSSerial/rosserial_msgs/RequestParam.h ****       }
 1595              		.loc 4 169 0 discriminator 2
 1596 00c4 736A     		ldr	r3, [r6, #36]
 1597 00c6 43F82C40 		str	r4, [r3, ip, lsl #2]	@ unaligned
 1598              	.LVL202:
 1599              	.LBE153:
 159:ROSSerial/rosserial_msgs/RequestParam.h ****       uint32_t length_st_strings;
 1600              		.loc 4 159 0 discriminator 2
 1601 00ca 0CF1010C 		add	ip, ip, #1
 1602              	.LVL203:
 1603 00ce 5FFA8CFC 		uxtb	ip, ip
 1604              	.LVL204:
 1605              	.L89:
 159:ROSSerial/rosserial_msgs/RequestParam.h ****       uint32_t length_st_strings;
 1606              		.loc 4 159 0 is_stmt 0 discriminator 1
 1607 00d2 337F     		ldrb	r3, [r6, #28]	@ zero_extendqisi2
 1608 00d4 6345     		cmp	r3, ip
 1609 00d6 0AD9     		bls	.L78
 1610              	.LBB155:
 161:ROSSerial/rosserial_msgs/RequestParam.h ****       offset += 4;
 1611              		.loc 4 161 0 is_stmt 1
 1612 00d8 2F58     		ldr	r7, [r5, r0]	@ unaligned
 1613              	.LVL205:
 162:ROSSerial/rosserial_msgs/RequestParam.h ****       for(unsigned int k= offset; k< offset+length_st_strings; ++k){
 1614              		.loc 4 162 0
 1615 00da 041D     		adds	r4, r0, #4
 1616              	.LVL206:
 1617              	.LBB154:
 163:ROSSerial/rosserial_msgs/RequestParam.h ****           inbuffer[k-1]=inbuffer[k];
 1618              		.loc 4 163 0
 1619 00dc 2346     		mov	r3, r4
 1620              	.LVL207:
 1621              	.L88:
 163:ROSSerial/rosserial_msgs/RequestParam.h ****           inbuffer[k-1]=inbuffer[k];
 1622              		.loc 4 163 0 is_stmt 0 discriminator 3
 1623 00de 3819     		adds	r0, r7, r4
 1624 00e0 9842     		cmp	r0, r3
 1625 00e2 E9D9     		bls	.L87
 164:ROSSerial/rosserial_msgs/RequestParam.h ****       }
 1626              		.loc 4 164 0 is_stmt 1 discriminator 2
 1627 00e4 5A1E     		subs	r2, r3, #1
 1628 00e6 E95C     		ldrb	r1, [r5, r3]	@ zero_extendqisi2
 1629 00e8 A954     		strb	r1, [r5, r2]
 163:ROSSerial/rosserial_msgs/RequestParam.h ****           inbuffer[k-1]=inbuffer[k];
 1630              		.loc 4 163 0 discriminator 2
 1631 00ea 0133     		adds	r3, r3, #1
 1632              	.LVL208:
ARM GAS  /var/folders/l3/4y5292px21b4835bsnjwqc7w009kq1/T//ccOXyXY5.s 			page 50


 1633 00ec F7E7     		b	.L88
 1634              	.LVL209:
 1635              	.L78:
 1636              	.LBE154:
 1637              	.LBE155:
 1638              	.LBE156:
 172:ROSSerial/rosserial_msgs/RequestParam.h **** 
 1639              		.loc 4 172 0
 1640 00ee F8BD     		pop	{r3, r4, r5, r6, r7, pc}
 1641              		.cfi_endproc
 1642              	.LFE395:
 1643              		.cantunwind
 1644              		.fnend
 1646              		.section	.text._Z8ros_initv,"ax",%progbits
 1647              		.align	1
 1648              		.global	_Z8ros_initv
 1649              		.syntax unified
 1650              		.thumb
 1651              		.thumb_func
 1652              		.fpu fpv4-sp-d16
 1654              	_Z8ros_initv:
 1655              		.fnstart
 1656              	.LFB474:
  13:./Src/ros.cpp **** {
 1657              		.loc 6 13 0
 1658              		.cfi_startproc
 1659              		@ args = 0, pretend = 0, frame = 8
 1660              		@ frame_needed = 0, uses_anonymous_args = 0
 1661 0000 F0B5     		push	{r4, r5, r6, r7, lr}
 1662              		.save {r4, r5, r6, r7, lr}
 1663              	.LCFI11:
 1664              		.cfi_def_cfa_offset 20
 1665              		.cfi_offset 4, -20
 1666              		.cfi_offset 5, -16
 1667              		.cfi_offset 6, -12
 1668              		.cfi_offset 7, -8
 1669              		.cfi_offset 14, -4
 1670              		.pad #12
 1671 0002 83B0     		sub	sp, sp, #12
 1672              	.LCFI12:
 1673              		.cfi_def_cfa_offset 32
 1674              	.LVL210:
 1675              	.LBB165:
 1676              	.LBB166:
 188:ROSSerial/ros/node_handle.h ****     bytes_ = 0;
 1677              		.loc 7 188 0
 1678 0004 1D4B     		ldr	r3, .L100
 1679 0006 0024     		movs	r4, #0
 1680 0008 C3F80845 		str	r4, [r3, #1288]
 189:ROSSerial/ros/node_handle.h ****     index_ = 0;
 1681              		.loc 7 189 0
 1682 000c C3F80C45 		str	r4, [r3, #1292]
 190:ROSSerial/ros/node_handle.h ****     topic_ = 0;
 1683              		.loc 7 190 0
 1684 0010 C3F81445 		str	r4, [r3, #1300]
 191:ROSSerial/ros/node_handle.h ****     //printf("Node init\n");
 1685              		.loc 7 191 0
ARM GAS  /var/folders/l3/4y5292px21b4835bsnjwqc7w009kq1/T//ccOXyXY5.s 			page 51


 1686 0014 C3F81045 		str	r4, [r3, #1296]
 1687              	.LVL211:
 1688              	.LBE166:
 1689              	.LBE165:
 1690              	.LBB167:
 1691              	.LBB168:
  13:ROSSerial/std_msgs/ROSString.h ****   {
 1692              		.loc 5 13 0
 1693 0018 194B     		ldr	r3, .L100+4
 1694 001a 0093     		str	r3, [sp]
 1695              	.LVL212:
 1696              	.L97:
 1697              	.LBE168:
 1698              	.LBE167:
 1699              	.LBB169:
 1700              	.LBB170:
 455:ROSSerial/ros/node_handle.h ****     {
 1701              		.loc 7 455 0
 1702 001c 042C     		cmp	r4, #4
 1703 001e 29DC     		bgt	.L95
 457:ROSSerial/ros/node_handle.h **** 
 1704              		.loc 7 457 0
 1705 0020 04EB8403 		add	r3, r4, r4, lsl #2
 1706 0024 9A00     		lsls	r2, r3, #2
 1707 0026 154B     		ldr	r3, .L100
 1708 0028 1344     		add	r3, r3, r2
 1709 002a B3F82C34 		ldrh	r3, [r3, #1068]
 1710 002e 0BB1     		cbz	r3, .L99
 455:ROSSerial/ros/node_handle.h ****     {
 1711              		.loc 7 455 0
 1712 0030 0134     		adds	r4, r4, #1
 1713              	.LVL213:
 1714 0032 F3E7     		b	.L97
 1715              	.L99:
 459:ROSSerial/ros/node_handle.h ****         publishers2[i].topic_name = topic_name;
 1716              		.loc 7 459 0
 1717 0034 04F16902 		add	r2, r4, #105
 1718 0038 104D     		ldr	r5, .L100
 1719 003a A700     		lsls	r7, r4, #2
 1720 003c 3B19     		adds	r3, r7, r4
 1721 003e 9E00     		lsls	r6, r3, #2
 1722 0040 2E44     		add	r6, r6, r5
 1723 0042 A6F82C24 		strh	r2, [r6, #1068]	@ movhi
 460:ROSSerial/ros/node_handle.h ****         publishers2[i].msg = msg;
 1724              		.loc 7 460 0
 1725 0046 0F4B     		ldr	r3, .L100+8
 1726 0048 C6F83034 		str	r3, [r6, #1072]
 461:ROSSerial/ros/node_handle.h ****         publishers2[i].message_type = msg->getType();
 1727              		.loc 7 461 0
 1728 004c C6F834D4 		str	sp, [r6, #1076]
 462:ROSSerial/ros/node_handle.h ****         publishers2[i].md5sum = msg->getMD5();
 1729              		.loc 7 462 0
 1730 0050 009B     		ldr	r3, [sp]
 1731 0052 9B68     		ldr	r3, [r3, #8]
 1732 0054 6846     		mov	r0, sp
 1733 0056 9847     		blx	r3
 1734              	.LVL214:
ARM GAS  /var/folders/l3/4y5292px21b4835bsnjwqc7w009kq1/T//ccOXyXY5.s 			page 52


 1735 0058 C6F83804 		str	r0, [r6, #1080]
 463:ROSSerial/ros/node_handle.h **** 
 1736              		.loc 7 463 0
 1737 005c 009B     		ldr	r3, [sp]
 1738 005e DB68     		ldr	r3, [r3, #12]
 1739 0060 6846     		mov	r0, sp
 1740 0062 9847     		blx	r3
 1741              	.LVL215:
 1742 0064 C6F83C04 		str	r0, [r6, #1084]
 465:ROSSerial/ros/node_handle.h ****       }
 1743              		.loc 7 465 0
 1744 0068 3C44     		add	r4, r4, r7
 1745              	.LVL216:
 1746 006a A100     		lsls	r1, r4, #2
 1747 006c 01F58561 		add	r1, r1, #1064
 1748 0070 2944     		add	r1, r1, r5
 1749 0072 0431     		adds	r1, r1, #4
 1750              	.L95:
 1751              	.LVL217:
 1752              	.LBE170:
 1753              	.LBE169:
  20:./Src/ros.cpp ****     chatter = nh.addPublisher("chatter", &str_msg);
 1754              		.loc 6 20 0
 1755 0074 044B     		ldr	r3, .L100+12
 1756 0076 1960     		str	r1, [r3]
  21:./Src/ros.cpp **** }
 1757              		.loc 6 21 0
 1758 0078 03B0     		add	sp, sp, #12
 1759              	.LCFI13:
 1760              		.cfi_def_cfa_offset 20
 1761              		@ sp needed
 1762 007a F0BD     		pop	{r4, r5, r6, r7, pc}
 1763              	.L101:
 1764              		.align	2
 1765              	.L100:
 1766 007c 00000000 		.word	.LANCHOR1
 1767 0080 08000000 		.word	_ZTVN8std_msgs6StringE+8
 1768 0084 00000000 		.word	.LC9
 1769 0088 00000000 		.word	.LANCHOR2
 1770              		.cfi_endproc
 1771              	.LFE474:
 1772              		.fnend
 1774              		.section	.text._ZN3ros11NodeHandle_I13STM32HardwareLi5ELi5ELi512ELi512EE8publish1EiPNS_3MsgE,"axG"
 1775              		.align	1
 1776              		.weak	_ZN3ros11NodeHandle_I13STM32HardwareLi5ELi5ELi512ELi512EE8publish1EiPNS_3MsgE
 1777              		.syntax unified
 1778              		.thumb
 1779              		.thumb_func
 1780              		.fpu fpv4-sp-d16
 1782              	_ZN3ros11NodeHandle_I13STM32HardwareLi5ELi5ELi512ELi512EE8publish1EiPNS_3MsgE:
 1783              		.fnstart
 1784              	.LFB494:
 601:ROSSerial/ros/node_handle.h **** 
 602:ROSSerial/ros/node_handle.h ****   int publish1(int id, Msg * msg)
 1785              		.loc 7 602 0
 1786              		.cfi_startproc
 1787              		@ args = 0, pretend = 0, frame = 16
ARM GAS  /var/folders/l3/4y5292px21b4835bsnjwqc7w009kq1/T//ccOXyXY5.s 			page 53


 1788              		@ frame_needed = 0, uses_anonymous_args = 0
 1789              	.LVL218:
 1790 0000 30B5     		push	{r4, r5, lr}
 1791              		.save {r4, r5, lr}
 1792              	.LCFI14:
 1793              		.cfi_def_cfa_offset 12
 1794              		.cfi_offset 4, -12
 1795              		.cfi_offset 5, -8
 1796              		.cfi_offset 14, -4
 1797              		.pad #20
 1798 0002 85B0     		sub	sp, sp, #20
 1799              	.LCFI15:
 1800              		.cfi_def_cfa_offset 32
 603:ROSSerial/ros/node_handle.h ****   {
 604:ROSSerial/ros/node_handle.h ****     //printf("in nh.publsh %d\n",id);
 605:ROSSerial/ros/node_handle.h ****     if (id >= 100 && !configured_)
 1801              		.loc 7 605 0
 1802 0004 6329     		cmp	r1, #99
 1803 0006 03DD     		ble	.L103
 1804              		.loc 7 605 0 is_stmt 0 discriminator 1
 1805 0008 90F81C35 		ldrb	r3, [r0, #1308]	@ zero_extendqisi2
 1806 000c 002B     		cmp	r3, #0
 1807 000e 50D0     		beq	.L108
 1808              	.L103:
 1809 0010 0D46     		mov	r5, r1
 1810 0012 0446     		mov	r4, r0
 606:ROSSerial/ros/node_handle.h ****       return 0;
 607:ROSSerial/ros/node_handle.h ****     //printf("in nh.publsh %s\n",msg->getType());
 608:ROSSerial/ros/node_handle.h ****     /* serialize message */
 609:ROSSerial/ros/node_handle.h ****     int l = msg->serialize(message_out + 7);
 1811              		.loc 7 609 0 is_stmt 1
 1812 0014 1368     		ldr	r3, [r2]
 1813 0016 1B68     		ldr	r3, [r3]
 1814 0018 00F21F21 		addw	r1, r0, #543
 1815              	.LVL219:
 1816 001c 1046     		mov	r0, r2
 1817              	.LVL220:
 1818 001e 9847     		blx	r3
 1819              	.LVL221:
 610:ROSSerial/ros/node_handle.h **** 
 611:ROSSerial/ros/node_handle.h ****     /* setup the header */
 612:ROSSerial/ros/node_handle.h ****     message_out[0] = 0xff;
 1820              		.loc 7 612 0
 1821 0020 FF23     		movs	r3, #255
 1822 0022 84F81832 		strb	r3, [r4, #536]
 613:ROSSerial/ros/node_handle.h ****     message_out[1] = PROTOCOL_VER;
 1823              		.loc 7 613 0
 1824 0026 FE23     		movs	r3, #254
 1825 0028 84F81932 		strb	r3, [r4, #537]
 614:ROSSerial/ros/node_handle.h ****     message_out[2] = (uint8_t)((uint16_t)l & 255);
 1826              		.loc 7 614 0
 1827 002c C3B2     		uxtb	r3, r0
 1828 002e 84F81A32 		strb	r3, [r4, #538]
 615:ROSSerial/ros/node_handle.h ****     message_out[3] = (uint8_t)((uint16_t)l >> 8);
 1829              		.loc 7 615 0
 1830 0032 C0F30722 		ubfx	r2, r0, #8, #8
 1831 0036 84F81B22 		strb	r2, [r4, #539]
ARM GAS  /var/folders/l3/4y5292px21b4835bsnjwqc7w009kq1/T//ccOXyXY5.s 			page 54


 616:ROSSerial/ros/node_handle.h ****     message_out[4] = 255 - ((message_out[2] + message_out[3]) % 256);
 1832              		.loc 7 616 0
 1833 003a 1344     		add	r3, r3, r2
 1834 003c DBB2     		uxtb	r3, r3
 1835 003e DB43     		mvns	r3, r3
 1836 0040 84F81C32 		strb	r3, [r4, #540]
 617:ROSSerial/ros/node_handle.h ****     message_out[5] = (uint8_t)((int16_t)id & 255);
 1837              		.loc 7 617 0
 1838 0044 84F81D52 		strb	r5, [r4, #541]
 618:ROSSerial/ros/node_handle.h ****     message_out[6] = (uint8_t)((int16_t)id >> 8);
 1839              		.loc 7 618 0
 1840 0048 45F30721 		sbfx	r1, r5, #8, #8
 1841 004c 84F81E12 		strb	r1, [r4, #542]
 1842              	.LVL222:
 1843              	.LBB180:
 619:ROSSerial/ros/node_handle.h **** 
 620:ROSSerial/ros/node_handle.h ****     /* calculate checksum */
 621:ROSSerial/ros/node_handle.h ****     int chk = 0;
 622:ROSSerial/ros/node_handle.h ****     for (int i = 5; i < l + 7; i++)
 1844              		.loc 7 622 0
 1845 0050 0523     		movs	r3, #5
 1846              	.LBE180:
 621:ROSSerial/ros/node_handle.h ****     for (int i = 5; i < l + 7; i++)
 1847              		.loc 7 621 0
 1848 0052 0022     		movs	r2, #0
 1849              	.LVL223:
 1850              	.L106:
 1851              	.LBB181:
 1852              		.loc 7 622 0 discriminator 3
 1853 0054 C11D     		adds	r1, r0, #7
 1854 0056 9942     		cmp	r1, r3
 1855 0058 05DD     		ble	.L105
 623:ROSSerial/ros/node_handle.h ****       chk += message_out[i];
 1856              		.loc 7 623 0 discriminator 2
 1857 005a E118     		adds	r1, r4, r3
 1858 005c 91F81812 		ldrb	r1, [r1, #536]	@ zero_extendqisi2
 1859 0060 0A44     		add	r2, r2, r1
 1860              	.LVL224:
 622:ROSSerial/ros/node_handle.h ****       chk += message_out[i];
 1861              		.loc 7 622 0 discriminator 2
 1862 0062 0133     		adds	r3, r3, #1
 1863              	.LVL225:
 1864 0064 F6E7     		b	.L106
 1865              	.L105:
 1866              	.LVL226:
 1867              	.LBE181:
 624:ROSSerial/ros/node_handle.h ****     l += 7;
 625:ROSSerial/ros/node_handle.h ****     message_out[l++] = 255 - (chk % 256);
 1868              		.loc 7 625 0
 1869 0066 5342     		rsbs	r3, r2, #0
 1870              	.LVL227:
 1871 0068 D2B2     		uxtb	r2, r2
 1872              	.LVL228:
 1873 006a DBB2     		uxtb	r3, r3
 1874 006c 58BF     		it	pl
 1875 006e 5A42     		rsbpl	r2, r3, #0
 1876 0070 00F10805 		add	r5, r0, #8
ARM GAS  /var/folders/l3/4y5292px21b4835bsnjwqc7w009kq1/T//ccOXyXY5.s 			page 55


 1877              	.LVL229:
 1878 0074 D243     		mvns	r2, r2
 1879 0076 2144     		add	r1, r1, r4
 1880 0078 81F81822 		strb	r2, [r1, #536]
 626:ROSSerial/ros/node_handle.h ****     //printf("Sending message - %s\n",msg->getType());
 627:ROSSerial/ros/node_handle.h ****     if (l <= OUTPUT_SIZE)
 1881              		.loc 7 627 0
 1882 007c B5F5007F 		cmp	r5, #512
 1883 0080 08DC     		bgt	.L107
 1884              	.LVL230:
 1885              	.LBB182:
 1886              	.LBB183:
 1887              		.file 8 "ROSSerial/AT32hardware.h"
   1:ROSSerial/AT32hardware.h **** /*
   2:ROSSerial/AT32hardware.h ****  * Software License Agreement (BSD License)
   3:ROSSerial/AT32hardware.h ****  *
   4:ROSSerial/AT32hardware.h ****  * Copyright (c) 2011, Willow Garage, Inc.
   5:ROSSerial/AT32hardware.h ****  * All rights reserved.
   6:ROSSerial/AT32hardware.h ****  *
   7:ROSSerial/AT32hardware.h ****  * Redistribution and use in source and binary forms, with or without
   8:ROSSerial/AT32hardware.h ****  * modification, are permitted provided that the following conditions
   9:ROSSerial/AT32hardware.h ****  * are met:
  10:ROSSerial/AT32hardware.h ****  *
  11:ROSSerial/AT32hardware.h ****  *  * Redistributions of source code must retain the above copyright
  12:ROSSerial/AT32hardware.h ****  *    notice, this list of conditions and the following disclaimer.
  13:ROSSerial/AT32hardware.h ****  *  * Redistributions in binary form must reproduce the above
  14:ROSSerial/AT32hardware.h ****  *    copyright notice, this list of conditions and the following
  15:ROSSerial/AT32hardware.h ****  *    disclaimer in the documentation and/or other materials provided
  16:ROSSerial/AT32hardware.h ****  *    with the distribution.
  17:ROSSerial/AT32hardware.h ****  *  * Neither the name of Willow Garage, Inc. nor the names of its
  18:ROSSerial/AT32hardware.h ****  *    contributors may be used to endorse or promote prducts derived
  19:ROSSerial/AT32hardware.h ****  *    from this software without specific prior written permission.
  20:ROSSerial/AT32hardware.h ****  *
  21:ROSSerial/AT32hardware.h ****  * THIS SOFTWARE IS PROVIDED BY THE COPYRIGHT HOLDERS AND CONTRIBUTORS
  22:ROSSerial/AT32hardware.h ****  * "AS IS" AND ANY EXPRESS OR IMPLIED WARRANTIES, INCLUDING, BUT NOT
  23:ROSSerial/AT32hardware.h ****  * LIMITED TO, THE IMPLIED WARRANTIES OF MERCHANTABILITY AND FITNESS
  24:ROSSerial/AT32hardware.h ****  * FOR A PARTICULAR PURPOSE ARE DISCLAIMED. IN NO EVENT SHALL THE
  25:ROSSerial/AT32hardware.h ****  * COPYRIGHT OWNER OR CONTRIBUTORS BE LIABLE FOR ANY DIRECT, INDIRECT,
  26:ROSSerial/AT32hardware.h ****  * INCIDENTAL, SPECIAL, EXEMPLARY, OR CONSEQUENTIAL DAMAGES (INCLUDING,
  27:ROSSerial/AT32hardware.h ****  * BUT NOT LIMITED TO, PROCUREMENT OF SUBSTITUTE GOODS OR SERVICES;
  28:ROSSerial/AT32hardware.h ****  * LOSS OF USE, DATA, OR PROFITS; OR BUSINESS INTERRUPTION) HOWEVER
  29:ROSSerial/AT32hardware.h ****  * CAUSED AND ON ANY THEORY OF LIABILITY, WHETHER IN CONTRACT, STRICT
  30:ROSSerial/AT32hardware.h ****  * LIABILITY, OR TORT (INCLUDING NEGLIGENCE OR OTHERWISE) ARISING IN
  31:ROSSerial/AT32hardware.h ****  * ANY WAY OUT OF THE USE OF THIS SOFTWARE, EVEN IF ADVISED OF THE
  32:ROSSerial/AT32hardware.h ****  * POSSIBILITY OF SUCH DAMAGE.
  33:ROSSerial/AT32hardware.h ****  */
  34:ROSSerial/AT32hardware.h **** 
  35:ROSSerial/AT32hardware.h **** #ifndef STM32HARDWARE_H_
  36:ROSSerial/AT32hardware.h **** #define STM32HARDWARE_H_
  37:ROSSerial/AT32hardware.h **** 
  38:ROSSerial/AT32hardware.h **** #include "bsp_uart_fifo.h"
  39:ROSSerial/AT32hardware.h **** #include "bsp_timer.h"
  40:ROSSerial/AT32hardware.h **** #include <stdio.h>
  41:ROSSerial/AT32hardware.h **** 
  42:ROSSerial/AT32hardware.h **** extern volatile uint32_t ticks;
  43:ROSSerial/AT32hardware.h **** 
  44:ROSSerial/AT32hardware.h **** class STM32Hardware
ARM GAS  /var/folders/l3/4y5292px21b4835bsnjwqc7w009kq1/T//ccOXyXY5.s 			page 56


  45:ROSSerial/AT32hardware.h **** {
  46:ROSSerial/AT32hardware.h **** public:
  47:ROSSerial/AT32hardware.h **** 	STM32Hardware()
  48:ROSSerial/AT32hardware.h **** 	{
  49:ROSSerial/AT32hardware.h **** 	}
  50:ROSSerial/AT32hardware.h **** 
  51:ROSSerial/AT32hardware.h **** 	/*
  52:ROSSerial/AT32hardware.h **** 	 * Method: init
  53:ROSSerial/AT32hardware.h **** 	 * ----------------------------
  54:ROSSerial/AT32hardware.h **** 	 *   Initialize the STM32 hardware specific to ROS like UART
  55:ROSSerial/AT32hardware.h **** 	 *   parameters: none
  56:ROSSerial/AT32hardware.h **** 	 *   returns: none
  57:ROSSerial/AT32hardware.h **** 	 */
  58:ROSSerial/AT32hardware.h **** 	void init(void)
  59:ROSSerial/AT32hardware.h **** 	{
  60:ROSSerial/AT32hardware.h **** 
  61:ROSSerial/AT32hardware.h **** 	}
  62:ROSSerial/AT32hardware.h **** 
  63:ROSSerial/AT32hardware.h **** 	/*
  64:ROSSerial/AT32hardware.h ****      * Method: read
  65:ROSSerial/AT32hardware.h **** 	 * ----------------------------
  66:ROSSerial/AT32hardware.h **** 	 *   Read a byte of data from ROS connection
  67:ROSSerial/AT32hardware.h **** 	 *   parameters: none
  68:ROSSerial/AT32hardware.h **** 	 *   returns: data, or -1 if there are no data
  69:ROSSerial/AT32hardware.h **** 	 */
  70:ROSSerial/AT32hardware.h **** 	int read(void)
  71:ROSSerial/AT32hardware.h **** 	{
  72:ROSSerial/AT32hardware.h **** 		uint8_t ucData = -1;
  73:ROSSerial/AT32hardware.h **** 		if(comGetChar(COM2,&ucData) == 0) {
  74:ROSSerial/AT32hardware.h **** 			return -1;
  75:ROSSerial/AT32hardware.h **** 		}
  76:ROSSerial/AT32hardware.h **** 		//printf("Got %c\n",ucData);
  77:ROSSerial/AT32hardware.h **** 		return ucData;
  78:ROSSerial/AT32hardware.h **** 	}
  79:ROSSerial/AT32hardware.h **** 
  80:ROSSerial/AT32hardware.h **** 	/*
  81:ROSSerial/AT32hardware.h **** 	 * Method: write
  82:ROSSerial/AT32hardware.h ****      * ----------------------------
  83:ROSSerial/AT32hardware.h **** 	 *   Send data to ROS connection
  84:ROSSerial/AT32hardware.h **** 	 *   parameters: pointer to data array, length of data
  85:ROSSerial/AT32hardware.h **** 	 *   returns: none
  86:ROSSerial/AT32hardware.h **** 	 */
  87:ROSSerial/AT32hardware.h **** 	void write(uint8_t* data, uint32_t length)
  88:ROSSerial/AT32hardware.h **** 	{
  89:ROSSerial/AT32hardware.h **** 		comSendBuf(COM2,data,length);
 1888              		.loc 8 89 0
 1889 0082 AAB2     		uxth	r2, r5
 1890 0084 04F50671 		add	r1, r4, #536
 1891              	.LVL231:
 1892 0088 0120     		movs	r0, #1
 1893 008a FFF7FEFF 		bl	comSendBuf
 1894              	.LVL232:
 1895              	.L102:
 1896              	.LBE183:
 1897              	.LBE182:
 628:ROSSerial/ros/node_handle.h ****     {
 629:ROSSerial/ros/node_handle.h ****       hardware_.write(message_out, l);
ARM GAS  /var/folders/l3/4y5292px21b4835bsnjwqc7w009kq1/T//ccOXyXY5.s 			page 57


 630:ROSSerial/ros/node_handle.h ****       return l;
 631:ROSSerial/ros/node_handle.h ****     }
 632:ROSSerial/ros/node_handle.h ****     else
 633:ROSSerial/ros/node_handle.h ****     {
 634:ROSSerial/ros/node_handle.h ****       logerror("Message from device dropped: message larger than buffer.");
 635:ROSSerial/ros/node_handle.h ****       return -1;
 636:ROSSerial/ros/node_handle.h ****     }
 637:ROSSerial/ros/node_handle.h ****   }
 1898              		.loc 7 637 0
 1899 008e 2846     		mov	r0, r5
 1900 0090 05B0     		add	sp, sp, #20
 1901              	.LCFI16:
 1902              		.cfi_remember_state
 1903              		.cfi_def_cfa_offset 12
 1904              		@ sp needed
 1905 0092 30BD     		pop	{r4, r5, pc}
 1906              	.LVL233:
 1907              	.L107:
 1908              	.LCFI17:
 1909              		.cfi_restore_state
 1910              	.LBB184:
 1911              	.LBB185:
 1912              	.LBB186:
 1913              	.LBB187:
 1914              	.LBB188:
  13:ROSSerial/rosserial_msgs/Log.h ****   {
 1915              		.loc 3 13 0
 1916 0094 084B     		ldr	r3, .L110
 1917 0096 0193     		str	r3, [sp, #4]
 1918              	.LVL234:
 1919              	.LBE188:
 1920              	.LBE187:
 638:ROSSerial/ros/node_handle.h **** 
 639:ROSSerial/ros/node_handle.h ****   /********************************************************************
 640:ROSSerial/ros/node_handle.h ****    * Logging
 641:ROSSerial/ros/node_handle.h ****    */
 642:ROSSerial/ros/node_handle.h **** 
 643:ROSSerial/ros/node_handle.h **** private:
 644:ROSSerial/ros/node_handle.h ****   void log(char byte, const char * msg)
 645:ROSSerial/ros/node_handle.h ****   {
 646:ROSSerial/ros/node_handle.h ****     rosserial_msgs::Log l;
 647:ROSSerial/ros/node_handle.h ****     l.level = byte;
 1921              		.loc 7 647 0
 1922 0098 0323     		movs	r3, #3
 1923 009a 8DF80830 		strb	r3, [sp, #8]
 648:ROSSerial/ros/node_handle.h ****     l.msg = (char*)msg;
 1924              		.loc 7 648 0
 1925 009e 074B     		ldr	r3, .L110+4
 1926 00a0 0393     		str	r3, [sp, #12]
 649:ROSSerial/ros/node_handle.h ****     publish1(rosserial_msgs::TopicInfo::ID_LOG, &l);
 1927              		.loc 7 649 0
 1928 00a2 01AA     		add	r2, sp, #4
 1929 00a4 0721     		movs	r1, #7
 1930 00a6 2046     		mov	r0, r4
 1931 00a8 FFF7FEFF 		bl	_ZN3ros11NodeHandle_I13STM32HardwareLi5ELi5ELi512ELi512EE8publish1EiPNS_3MsgE
 1932              	.LVL235:
 1933              	.LBE186:
ARM GAS  /var/folders/l3/4y5292px21b4835bsnjwqc7w009kq1/T//ccOXyXY5.s 			page 58


 1934              	.LBE185:
 1935              	.LBE184:
 635:ROSSerial/ros/node_handle.h ****     }
 1936              		.loc 7 635 0
 1937 00ac 4FF0FF35 		mov	r5, #-1
 1938              	.LVL236:
 1939 00b0 EDE7     		b	.L102
 1940              	.LVL237:
 1941              	.L108:
 606:ROSSerial/ros/node_handle.h ****     //printf("in nh.publsh %s\n",msg->getType());
 1942              		.loc 7 606 0
 1943 00b2 0025     		movs	r5, #0
 1944 00b4 EBE7     		b	.L102
 1945              	.L111:
 1946 00b6 00BF     		.align	2
 1947              	.L110:
 1948 00b8 08000000 		.word	_ZTVN14rosserial_msgs3LogE+8
 1949 00bc 00000000 		.word	.LC10
 1950              		.cfi_endproc
 1951              	.LFE494:
 1952              		.fnend
 1954              		.section	.text._ZN3ros11NodeHandle_I13STM32HardwareLi5ELi5ELi512ELi512EE15requestSyncTimeEv,"axG",
 1955              		.align	1
 1956              		.weak	_ZN3ros11NodeHandle_I13STM32HardwareLi5ELi5ELi512ELi512EE15requestSyncTimeEv
 1957              		.syntax unified
 1958              		.thumb
 1959              		.thumb_func
 1960              		.fpu fpv4-sp-d16
 1962              	_ZN3ros11NodeHandle_I13STM32HardwareLi5ELi5ELi512ELi512EE15requestSyncTimeEv:
 1963              		.fnstart
 1964              	.LFB495:
 410:ROSSerial/ros/node_handle.h ****   {
 1965              		.loc 7 410 0
 1966              		.cfi_startproc
 1967              		@ args = 0, pretend = 0, frame = 40
 1968              		@ frame_needed = 0, uses_anonymous_args = 0
 1969              	.LVL238:
 1970 0000 30B5     		push	{r4, r5, lr}
 1971              		.save {r4, r5, lr}
 1972              	.LCFI18:
 1973              		.cfi_def_cfa_offset 12
 1974              		.cfi_offset 4, -12
 1975              		.cfi_offset 5, -8
 1976              		.cfi_offset 14, -4
 1977              		.pad #44
 1978 0002 8BB0     		sub	sp, sp, #44
 1979              	.LCFI19:
 1980              		.cfi_def_cfa_offset 56
 1981 0004 0546     		mov	r5, r0
 1982              	.LVL239:
 1983              	.LBB227:
 1984              	.LBB228:
  14:ROSSerial/std_msgs/Time.h ****   {
 1985              		.loc 1 14 0
 1986 0006 4A4B     		ldr	r3, .L122
 1987 0008 0793     		str	r3, [sp, #28]
 1988              	.LVL240:
ARM GAS  /var/folders/l3/4y5292px21b4835bsnjwqc7w009kq1/T//ccOXyXY5.s 			page 59


 1989              	.LBB229:
 1990              	.LBB230:
 1991              	.LBB231:
 1992              		.file 9 "ROSSerial/ros/time.h"
   1:ROSSerial/ros/time.h **** /*
   2:ROSSerial/ros/time.h ****  * Software License Agreement (BSD License)
   3:ROSSerial/ros/time.h ****  *
   4:ROSSerial/ros/time.h ****  * Copyright (c) 2011, Willow Garage, Inc.
   5:ROSSerial/ros/time.h ****  * All rights reserved.
   6:ROSSerial/ros/time.h ****  *
   7:ROSSerial/ros/time.h ****  * Redistribution and use in source and binary forms, with or without
   8:ROSSerial/ros/time.h ****  * modification, are permitted provided that the following conditions
   9:ROSSerial/ros/time.h ****  * are met:
  10:ROSSerial/ros/time.h ****  *
  11:ROSSerial/ros/time.h ****  *  * Redistributions of source code must retain the above copyright
  12:ROSSerial/ros/time.h ****  *    notice, this list of conditions and the following disclaimer.
  13:ROSSerial/ros/time.h ****  *  * Redistributions in binary form must reproduce the above
  14:ROSSerial/ros/time.h ****  *    copyright notice, this list of conditions and the following
  15:ROSSerial/ros/time.h ****  *    disclaimer in the documentation and/or other materials provided
  16:ROSSerial/ros/time.h ****  *    with the distribution.
  17:ROSSerial/ros/time.h ****  *  * Neither the name of Willow Garage, Inc. nor the names of its
  18:ROSSerial/ros/time.h ****  *    contributors may be used to endorse or promote prducts derived
  19:ROSSerial/ros/time.h ****  *    from this software without specific prior written permission.
  20:ROSSerial/ros/time.h ****  *
  21:ROSSerial/ros/time.h ****  * THIS SOFTWARE IS PROVIDED BY THE COPYRIGHT HOLDERS AND CONTRIBUTORS
  22:ROSSerial/ros/time.h ****  * "AS IS" AND ANY EXPRESS OR IMPLIED WARRANTIES, INCLUDING, BUT NOT
  23:ROSSerial/ros/time.h ****  * LIMITED TO, THE IMPLIED WARRANTIES OF MERCHANTABILITY AND FITNESS
  24:ROSSerial/ros/time.h ****  * FOR A PARTICULAR PURPOSE ARE DISCLAIMED. IN NO EVENT SHALL THE
  25:ROSSerial/ros/time.h ****  * COPYRIGHT OWNER OR CONTRIBUTORS BE LIABLE FOR ANY DIRECT, INDIRECT,
  26:ROSSerial/ros/time.h ****  * INCIDENTAL, SPECIAL, EXEMPLARY, OR CONSEQUENTIAL DAMAGES (INCLUDING,
  27:ROSSerial/ros/time.h ****  * BUT NOT LIMITED TO, PROCUREMENT OF SUBSTITUTE GOODS OR SERVICES;
  28:ROSSerial/ros/time.h ****  * LOSS OF USE, DATA, OR PROFITS; OR BUSINESS INTERRUPTION) HOWEVER
  29:ROSSerial/ros/time.h ****  * CAUSED AND ON ANY THEORY OF LIABILITY, WHETHER IN CONTRACT, STRICT
  30:ROSSerial/ros/time.h ****  * LIABILITY, OR TORT (INCLUDING NEGLIGENCE OR OTHERWISE) ARISING IN
  31:ROSSerial/ros/time.h ****  * ANY WAY OUT OF THE USE OF THIS SOFTWARE, EVEN IF ADVISED OF THE
  32:ROSSerial/ros/time.h ****  * POSSIBILITY OF SUCH DAMAGE.
  33:ROSSerial/ros/time.h ****  */
  34:ROSSerial/ros/time.h **** 
  35:ROSSerial/ros/time.h **** #ifndef ROS_TIME_H_
  36:ROSSerial/ros/time.h **** #define ROS_TIME_H_
  37:ROSSerial/ros/time.h **** 
  38:ROSSerial/ros/time.h **** #include "ros/duration.h"
  39:ROSSerial/ros/time.h **** #include <math.h>
  40:ROSSerial/ros/time.h **** #include <stdint.h>
  41:ROSSerial/ros/time.h **** 
  42:ROSSerial/ros/time.h **** namespace ros
  43:ROSSerial/ros/time.h **** {
  44:ROSSerial/ros/time.h **** void normalizeSecNSec(uint32_t &sec, uint32_t &nsec);
  45:ROSSerial/ros/time.h **** 
  46:ROSSerial/ros/time.h **** class Time
  47:ROSSerial/ros/time.h **** {
  48:ROSSerial/ros/time.h **** public:
  49:ROSSerial/ros/time.h ****   uint32_t sec, nsec;
  50:ROSSerial/ros/time.h **** 
  51:ROSSerial/ros/time.h ****   Time() : sec(0), nsec(0) {}
 1993              		.loc 9 51 0
 1994 000a 0024     		movs	r4, #0
ARM GAS  /var/folders/l3/4y5292px21b4835bsnjwqc7w009kq1/T//ccOXyXY5.s 			page 60


 1995 000c 0894     		str	r4, [sp, #32]
 1996 000e 0994     		str	r4, [sp, #36]
 1997              	.LVL241:
 1998              	.LBE231:
 1999              	.LBE230:
 2000              	.LBE229:
 2001              	.LBE228:
 2002              	.LBE227:
 2003              	.LBB232:
 2004              	.LBB233:
 609:ROSSerial/ros/node_handle.h **** 
 2005              		.loc 7 609 0
 2006 0010 1B68     		ldr	r3, [r3]
 2007 0012 00F21F21 		addw	r1, r0, #543
 2008 0016 07A8     		add	r0, sp, #28
 2009              	.LVL242:
 2010 0018 9847     		blx	r3
 2011              	.LVL243:
 612:ROSSerial/ros/node_handle.h ****     message_out[1] = PROTOCOL_VER;
 2012              		.loc 7 612 0
 2013 001a FF23     		movs	r3, #255
 2014 001c 85F81832 		strb	r3, [r5, #536]
 613:ROSSerial/ros/node_handle.h ****     message_out[2] = (uint8_t)((uint16_t)l & 255);
 2015              		.loc 7 613 0
 2016 0020 FE23     		movs	r3, #254
 2017 0022 85F81932 		strb	r3, [r5, #537]
 614:ROSSerial/ros/node_handle.h ****     message_out[3] = (uint8_t)((uint16_t)l >> 8);
 2018              		.loc 7 614 0
 2019 0026 C3B2     		uxtb	r3, r0
 2020 0028 85F81A32 		strb	r3, [r5, #538]
 615:ROSSerial/ros/node_handle.h ****     message_out[4] = 255 - ((message_out[2] + message_out[3]) % 256);
 2021              		.loc 7 615 0
 2022 002c C0F30722 		ubfx	r2, r0, #8, #8
 2023 0030 85F81B22 		strb	r2, [r5, #539]
 616:ROSSerial/ros/node_handle.h ****     message_out[5] = (uint8_t)((int16_t)id & 255);
 2024              		.loc 7 616 0
 2025 0034 1344     		add	r3, r3, r2
 2026 0036 DBB2     		uxtb	r3, r3
 2027 0038 DB43     		mvns	r3, r3
 2028 003a 85F81C32 		strb	r3, [r5, #540]
 617:ROSSerial/ros/node_handle.h ****     message_out[6] = (uint8_t)((int16_t)id >> 8);
 2029              		.loc 7 617 0
 2030 003e 0A23     		movs	r3, #10
 2031 0040 85F81D32 		strb	r3, [r5, #541]
 618:ROSSerial/ros/node_handle.h **** 
 2032              		.loc 7 618 0
 2033 0044 85F81E42 		strb	r4, [r5, #542]
 2034              	.LVL244:
 2035              	.LBB234:
 622:ROSSerial/ros/node_handle.h ****       chk += message_out[i];
 2036              		.loc 7 622 0
 2037 0048 0521     		movs	r1, #5
 2038              	.LBE234:
 621:ROSSerial/ros/node_handle.h ****     for (int i = 5; i < l + 7; i++)
 2039              		.loc 7 621 0
 2040 004a 2346     		mov	r3, r4
 2041              	.LVL245:
ARM GAS  /var/folders/l3/4y5292px21b4835bsnjwqc7w009kq1/T//ccOXyXY5.s 			page 61


 2042              	.L114:
 2043              	.LBB235:
 622:ROSSerial/ros/node_handle.h ****       chk += message_out[i];
 2044              		.loc 7 622 0
 2045 004c C41D     		adds	r4, r0, #7
 2046 004e 8C42     		cmp	r4, r1
 2047 0050 05DD     		ble	.L113
 623:ROSSerial/ros/node_handle.h ****     l += 7;
 2048              		.loc 7 623 0
 2049 0052 6A18     		adds	r2, r5, r1
 2050 0054 92F81822 		ldrb	r2, [r2, #536]	@ zero_extendqisi2
 2051 0058 1344     		add	r3, r3, r2
 2052              	.LVL246:
 622:ROSSerial/ros/node_handle.h ****       chk += message_out[i];
 2053              		.loc 7 622 0
 2054 005a 0131     		adds	r1, r1, #1
 2055              	.LVL247:
 2056 005c F6E7     		b	.L114
 2057              	.L113:
 2058              	.LVL248:
 2059              	.LBE235:
 625:ROSSerial/ros/node_handle.h ****     //printf("Sending message - %s\n",msg->getType());
 2060              		.loc 7 625 0
 2061 005e 5A42     		rsbs	r2, r3, #0
 2062 0060 DBB2     		uxtb	r3, r3
 2063              	.LVL249:
 2064 0062 D2B2     		uxtb	r2, r2
 2065 0064 58BF     		it	pl
 2066 0066 5342     		rsbpl	r3, r2, #0
 2067 0068 00F10802 		add	r2, r0, #8
 2068              	.LVL250:
 2069 006c DB43     		mvns	r3, r3
 2070 006e 2C44     		add	r4, r4, r5
 2071 0070 84F81832 		strb	r3, [r4, #536]
 627:ROSSerial/ros/node_handle.h ****     {
 2072              		.loc 7 627 0
 2073 0074 B2F5007F 		cmp	r2, #512
 2074 0078 0ADC     		bgt	.L115
 2075              	.LVL251:
 2076              	.LBB236:
 2077              	.LBB237:
 2078              		.loc 8 89 0
 2079 007a 92B2     		uxth	r2, r2
 2080              	.LVL252:
 2081 007c 05F50671 		add	r1, r5, #536
 2082              	.LVL253:
 2083 0080 0120     		movs	r0, #1
 2084              	.LVL254:
 2085 0082 FFF7FEFF 		bl	comSendBuf
 2086              	.LVL255:
 2087              	.L116:
 2088              	.LBE237:
 2089              	.LBE236:
 2090              	.LBE233:
 2091              	.LBE232:
 2092              	.LBB254:
 2093              	.LBB255:
ARM GAS  /var/folders/l3/4y5292px21b4835bsnjwqc7w009kq1/T//ccOXyXY5.s 			page 62


  90:ROSSerial/AT32hardware.h **** 	}
  91:ROSSerial/AT32hardware.h **** 
  92:ROSSerial/AT32hardware.h **** 	/*
  93:ROSSerial/AT32hardware.h **** 	 * Method: time
  94:ROSSerial/AT32hardware.h **** 	 * ----------------------------
  95:ROSSerial/AT32hardware.h ****      *   Returns milliseconds since start of program
  96:ROSSerial/AT32hardware.h **** 	 *   parameters: none
  97:ROSSerial/AT32hardware.h **** 	 *   returns: time in milliseconds
  98:ROSSerial/AT32hardware.h **** 	 */
  99:ROSSerial/AT32hardware.h **** 	uint32_t time(void)
 100:ROSSerial/AT32hardware.h **** 	{
 101:ROSSerial/AT32hardware.h **** 		//return (uint32_t) xTaskGetTickCount();
 102:ROSSerial/AT32hardware.h **** 		return millis();
 2094              		.loc 8 102 0
 2095 0086 FFF7FEFF 		bl	millis
 2096              	.LVL256:
 2097              	.LBE255:
 2098              	.LBE254:
 414:ROSSerial/ros/node_handle.h ****   }
 2099              		.loc 7 414 0
 2100 008a A860     		str	r0, [r5, #8]
 415:ROSSerial/ros/node_handle.h **** 
 2101              		.loc 7 415 0
 2102 008c 0BB0     		add	sp, sp, #44
 2103              	.LCFI20:
 2104              		.cfi_remember_state
 2105              		.cfi_def_cfa_offset 12
 2106              		@ sp needed
 2107 008e 30BD     		pop	{r4, r5, pc}
 2108              	.LVL257:
 2109              	.L115:
 2110              	.LCFI21:
 2111              		.cfi_restore_state
 2112              	.LBB256:
 2113              	.LBB253:
 2114              	.LBB238:
 2115              	.LBB239:
 2116              	.LBB240:
 2117              	.LBB241:
 2118              	.LBB242:
  13:ROSSerial/rosserial_msgs/Log.h ****   {
 2119              		.loc 3 13 0
 2120 0090 284B     		ldr	r3, .L122+4
 2121 0092 0193     		str	r3, [sp, #4]
 2122              	.LVL258:
 2123              	.LBE242:
 2124              	.LBE241:
 647:ROSSerial/ros/node_handle.h ****     l.msg = (char*)msg;
 2125              		.loc 7 647 0
 2126 0094 0322     		movs	r2, #3
 2127              	.LVL259:
 2128 0096 8DF80820 		strb	r2, [sp, #8]
 648:ROSSerial/ros/node_handle.h ****     publish1(rosserial_msgs::TopicInfo::ID_LOG, &l);
 2129              		.loc 7 648 0
 2130 009a 274A     		ldr	r2, .L122+8
 2131 009c 0392     		str	r2, [sp, #12]
 2132              	.LVL260:
ARM GAS  /var/folders/l3/4y5292px21b4835bsnjwqc7w009kq1/T//ccOXyXY5.s 			page 63


 2133              	.LBB243:
 2134              	.LBB244:
 609:ROSSerial/ros/node_handle.h **** 
 2135              		.loc 7 609 0
 2136 009e 1B68     		ldr	r3, [r3]
 2137 00a0 05F21F21 		addw	r1, r5, #543
 2138              	.LVL261:
 2139 00a4 01A8     		add	r0, sp, #4
 2140              	.LVL262:
 2141 00a6 9847     		blx	r3
 2142              	.LVL263:
 612:ROSSerial/ros/node_handle.h ****     message_out[1] = PROTOCOL_VER;
 2143              		.loc 7 612 0
 2144 00a8 FF23     		movs	r3, #255
 2145 00aa 85F81832 		strb	r3, [r5, #536]
 613:ROSSerial/ros/node_handle.h ****     message_out[2] = (uint8_t)((uint16_t)l & 255);
 2146              		.loc 7 613 0
 2147 00ae FE23     		movs	r3, #254
 2148 00b0 85F81932 		strb	r3, [r5, #537]
 614:ROSSerial/ros/node_handle.h ****     message_out[3] = (uint8_t)((uint16_t)l >> 8);
 2149              		.loc 7 614 0
 2150 00b4 C3B2     		uxtb	r3, r0
 2151 00b6 85F81A32 		strb	r3, [r5, #538]
 615:ROSSerial/ros/node_handle.h ****     message_out[4] = 255 - ((message_out[2] + message_out[3]) % 256);
 2152              		.loc 7 615 0
 2153 00ba C0F30722 		ubfx	r2, r0, #8, #8
 2154 00be 85F81B22 		strb	r2, [r5, #539]
 616:ROSSerial/ros/node_handle.h ****     message_out[5] = (uint8_t)((int16_t)id & 255);
 2155              		.loc 7 616 0
 2156 00c2 1344     		add	r3, r3, r2
 2157 00c4 DBB2     		uxtb	r3, r3
 2158 00c6 DB43     		mvns	r3, r3
 2159 00c8 85F81C32 		strb	r3, [r5, #540]
 617:ROSSerial/ros/node_handle.h ****     message_out[6] = (uint8_t)((int16_t)id >> 8);
 2160              		.loc 7 617 0
 2161 00cc 0723     		movs	r3, #7
 2162 00ce 85F81D32 		strb	r3, [r5, #541]
 618:ROSSerial/ros/node_handle.h **** 
 2163              		.loc 7 618 0
 2164 00d2 0023     		movs	r3, #0
 2165 00d4 85F81E32 		strb	r3, [r5, #542]
 2166              	.LVL264:
 2167              	.LBB245:
 622:ROSSerial/ros/node_handle.h ****       chk += message_out[i];
 2168              		.loc 7 622 0
 2169 00d8 0522     		movs	r2, #5
 2170              	.LVL265:
 2171              	.L118:
 2172 00da C11D     		adds	r1, r0, #7
 2173 00dc 9142     		cmp	r1, r2
 2174 00de 05DD     		ble	.L117
 623:ROSSerial/ros/node_handle.h ****     l += 7;
 2175              		.loc 7 623 0
 2176 00e0 A918     		adds	r1, r5, r2
 2177 00e2 91F81812 		ldrb	r1, [r1, #536]	@ zero_extendqisi2
 2178 00e6 0B44     		add	r3, r3, r1
 2179              	.LVL266:
ARM GAS  /var/folders/l3/4y5292px21b4835bsnjwqc7w009kq1/T//ccOXyXY5.s 			page 64


 622:ROSSerial/ros/node_handle.h ****       chk += message_out[i];
 2180              		.loc 7 622 0
 2181 00e8 0132     		adds	r2, r2, #1
 2182              	.LVL267:
 2183 00ea F6E7     		b	.L118
 2184              	.L117:
 2185              	.LVL268:
 2186              	.LBE245:
 625:ROSSerial/ros/node_handle.h ****     //printf("Sending message - %s\n",msg->getType());
 2187              		.loc 7 625 0
 2188 00ec 5A42     		rsbs	r2, r3, #0
 2189              	.LVL269:
 2190 00ee DBB2     		uxtb	r3, r3
 2191              	.LVL270:
 2192 00f0 D2B2     		uxtb	r2, r2
 2193 00f2 58BF     		it	pl
 2194 00f4 5342     		rsbpl	r3, r2, #0
 2195 00f6 00F10802 		add	r2, r0, #8
 2196              	.LVL271:
 2197 00fa DB43     		mvns	r3, r3
 2198 00fc 2944     		add	r1, r1, r5
 2199 00fe 81F81832 		strb	r3, [r1, #536]
 627:ROSSerial/ros/node_handle.h ****     {
 2200              		.loc 7 627 0
 2201 0102 B2F5007F 		cmp	r2, #512
 2202 0106 06DC     		bgt	.L119
 2203              	.LVL272:
 2204              	.LBB246:
 2205              	.LBB247:
  89:ROSSerial/AT32hardware.h **** 	}
 2206              		.loc 8 89 0
 2207 0108 92B2     		uxth	r2, r2
 2208              	.LVL273:
 2209 010a 05F50671 		add	r1, r5, #536
 2210              	.LVL274:
 2211 010e 0120     		movs	r0, #1
 2212              	.LVL275:
 2213 0110 FFF7FEFF 		bl	comSendBuf
 2214              	.LVL276:
 2215 0114 B7E7     		b	.L116
 2216              	.LVL277:
 2217              	.L119:
 2218              	.LBE247:
 2219              	.LBE246:
 2220              	.LBB248:
 2221              	.LBB249:
 2222              	.LBB250:
 2223              	.LBB251:
 2224              	.LBB252:
  13:ROSSerial/rosserial_msgs/Log.h ****   {
 2225              		.loc 3 13 0
 2226 0116 074B     		ldr	r3, .L122+4
 2227 0118 0493     		str	r3, [sp, #16]
 2228              	.LVL278:
 2229              	.LBE252:
 2230              	.LBE251:
 647:ROSSerial/ros/node_handle.h ****     l.msg = (char*)msg;
ARM GAS  /var/folders/l3/4y5292px21b4835bsnjwqc7w009kq1/T//ccOXyXY5.s 			page 65


 2231              		.loc 7 647 0
 2232 011a 0323     		movs	r3, #3
 2233 011c 8DF81430 		strb	r3, [sp, #20]
 648:ROSSerial/ros/node_handle.h ****     publish1(rosserial_msgs::TopicInfo::ID_LOG, &l);
 2234              		.loc 7 648 0
 2235 0120 054B     		ldr	r3, .L122+8
 2236 0122 0693     		str	r3, [sp, #24]
 2237              		.loc 7 649 0
 2238 0124 04AA     		add	r2, sp, #16
 2239              	.LVL279:
 2240 0126 0721     		movs	r1, #7
 2241 0128 2846     		mov	r0, r5
 2242              	.LVL280:
 2243 012a FFF7FEFF 		bl	_ZN3ros11NodeHandle_I13STM32HardwareLi5ELi5ELi512ELi512EE8publish1EiPNS_3MsgE
 2244              	.LVL281:
 2245 012e AAE7     		b	.L116
 2246              	.L123:
 2247              		.align	2
 2248              	.L122:
 2249 0130 08000000 		.word	_ZTVN8std_msgs4TimeE+8
 2250 0134 08000000 		.word	_ZTVN14rosserial_msgs3LogE+8
 2251 0138 00000000 		.word	.LC10
 2252              	.LBE250:
 2253              	.LBE249:
 2254              	.LBE248:
 2255              	.LBE244:
 2256              	.LBE243:
 2257              	.LBE240:
 2258              	.LBE239:
 2259              	.LBE238:
 2260              	.LBE253:
 2261              	.LBE256:
 2262              		.cfi_endproc
 2263              	.LFE495:
 2264              		.fnend
 2266              		.section	.text._Z7ros_runv,"ax",%progbits
 2267              		.align	1
 2268              		.global	_Z7ros_runv
 2269              		.syntax unified
 2270              		.thumb
 2271              		.thumb_func
 2272              		.fpu fpv4-sp-d16
 2274              	_Z7ros_runv:
 2275              		.fnstart
 2276              	.LFB481:
  24:./Src/ros.cpp **** {
 2277              		.loc 6 24 0
 2278              		.cfi_startproc
 2279              		@ args = 0, pretend = 0, frame = 560
 2280              		@ frame_needed = 0, uses_anonymous_args = 0
 2281 0000 2DE9F041 		push	{r4, r5, r6, r7, r8, lr}
 2282              		.save {r4, r5, r6, r7, r8, lr}
 2283              	.LCFI22:
 2284              		.cfi_def_cfa_offset 24
 2285              		.cfi_offset 4, -24
 2286              		.cfi_offset 5, -20
 2287              		.cfi_offset 6, -16
ARM GAS  /var/folders/l3/4y5292px21b4835bsnjwqc7w009kq1/T//ccOXyXY5.s 			page 66


 2288              		.cfi_offset 7, -12
 2289              		.cfi_offset 8, -8
 2290              		.cfi_offset 14, -4
 2291              		.pad #560
 2292 0004 ADF50C7D 		sub	sp, sp, #560
 2293              	.LCFI23:
 2294              		.cfi_def_cfa_offset 584
 2295              	.LVL282:
 2296              	.LBB367:
 2297              	.LBB368:
 2298              	.LBB369:
 2299              	.LBB370:
 2300              		.loc 8 102 0
 2301 0008 FFF7FEFF 		bl	millis
 2302              	.LVL283:
 2303 000c 0446     		mov	r4, r0
 2304              	.LVL284:
 2305              	.LBE370:
 2306              	.LBE369:
 252:ROSSerial/ros/node_handle.h ****     {
 2307              		.loc 7 252 0
 2308 000e BD4B     		ldr	r3, .L201
 2309 0010 D3F82435 		ldr	r3, [r3, #1316]
 2310 0014 C31A     		subs	r3, r0, r3
 2311 0016 42F6F822 		movw	r2, #11000
 2312 001a 9342     		cmp	r3, r2
 2313 001c 03D9     		bls	.L125
 254:ROSSerial/ros/node_handle.h ****     }
 2314              		.loc 7 254 0
 2315 001e B94B     		ldr	r3, .L201
 2316 0020 0022     		movs	r2, #0
 2317 0022 83F81C25 		strb	r2, [r3, #1308]
 2318              	.L125:
 258:ROSSerial/ros/node_handle.h ****     {
 2319              		.loc 7 258 0
 2320 0026 B74B     		ldr	r3, .L201
 2321 0028 D3F80835 		ldr	r3, [r3, #1288]
 2322 002c 002B     		cmp	r3, #0
 2323 002e 69D0     		beq	.L127
 260:ROSSerial/ros/node_handle.h ****       {
 2324              		.loc 7 260 0
 2325 0030 B44B     		ldr	r3, .L201
 2326 0032 D3F82835 		ldr	r3, [r3, #1320]
 2327 0036 9C42     		cmp	r4, r3
 2328 0038 64D9     		bls	.L127
 262:ROSSerial/ros/node_handle.h ****       }
 2329              		.loc 7 262 0
 2330 003a B24B     		ldr	r3, .L201
 2331 003c 0022     		movs	r2, #0
 2332 003e C3F80825 		str	r2, [r3, #1288]
 2333 0042 5FE0     		b	.L127
 2334              	.LVL285:
 2335              	.L183:
 390:ROSSerial/ros/node_handle.h ****     {
 2336              		.loc 7 390 0
 2337 0044 AF4B     		ldr	r3, .L201
 2338 0046 93F81C35 		ldrb	r3, [r3, #1308]	@ zero_extendqisi2
ARM GAS  /var/folders/l3/4y5292px21b4835bsnjwqc7w009kq1/T//ccOXyXY5.s 			page 67


 2339 004a 43B1     		cbz	r3, .L129
 2340 004c AD4B     		ldr	r3, .L201
 2341 004e D3F82035 		ldr	r3, [r3, #1312]
 2342 0052 E31A     		subs	r3, r4, r3
 2343 0054 40F6C412 		movw	r2, #2500
 2344 0058 9342     		cmp	r3, r2
 2345 005a 00F2D982 		bhi	.L182
 2346              	.LVL286:
 2347              	.L129:
 2348              	.LBE368:
 2349              	.LBE367:
 2350              	.LBB457:
 2351              	.LBB458:
  13:ROSSerial/std_msgs/ROSString.h ****   {
 2352              		.loc 5 13 0
 2353 005e AA4B     		ldr	r3, .L201+4
 2354 0060 8A93     		str	r3, [sp, #552]
 2355              	.LVL287:
 2356              	.LBE458:
 2357              	.LBE457:
  32:./Src/ros.cpp ****     sprintf(buf,"Millis %d",millis());
 2358              		.loc 6 32 0
 2359 0062 FFF7FEFF 		bl	millis
 2360              	.LVL288:
 2361 0066 0AAC     		add	r4, sp, #40
 2362              	.LVL289:
 2363 0068 0246     		mov	r2, r0
 2364 006a A849     		ldr	r1, .L201+8
 2365 006c 2046     		mov	r0, r4
 2366 006e FFF7FEFF 		bl	sprintf
 2367              	.LVL290:
  33:./Src/ros.cpp ****     str_msg.data = buf;
 2368              		.loc 6 33 0
 2369 0072 8B94     		str	r4, [sp, #556]
  35:./Src/ros.cpp ****     nh.publish1(chatter->topic_id, &str_msg); 
 2370              		.loc 6 35 0
 2371 0074 A64B     		ldr	r3, .L201+12
 2372 0076 1B68     		ldr	r3, [r3]
 2373 0078 1D88     		ldrh	r5, [r3]
 2374              	.LVL291:
 2375              	.LBB459:
 2376              	.LBB460:
 605:ROSSerial/ros/node_handle.h ****       return 0;
 2377              		.loc 7 605 0
 2378 007a 632D     		cmp	r5, #99
 2379 007c 05DD     		ble	.L172
 2380 007e A14B     		ldr	r3, .L201
 2381 0080 93F81C35 		ldrb	r3, [r3, #1308]	@ zero_extendqisi2
 2382 0084 002B     		cmp	r3, #0
 2383 0086 00F02F83 		beq	.L124
 2384              	.L172:
 609:ROSSerial/ros/node_handle.h **** 
 2385              		.loc 7 609 0
 2386 008a 9E4C     		ldr	r4, .L201
 2387 008c 8A9B     		ldr	r3, [sp, #552]
 2388 008e 1B68     		ldr	r3, [r3]
 2389 0090 04F21F21 		addw	r1, r4, #543
ARM GAS  /var/folders/l3/4y5292px21b4835bsnjwqc7w009kq1/T//ccOXyXY5.s 			page 68


 2390 0094 8AA8     		add	r0, sp, #552
 2391              	.LVL292:
 2392 0096 9847     		blx	r3
 2393              	.LVL293:
 612:ROSSerial/ros/node_handle.h ****     message_out[1] = PROTOCOL_VER;
 2394              		.loc 7 612 0
 2395 0098 FF23     		movs	r3, #255
 2396 009a 84F81832 		strb	r3, [r4, #536]
 613:ROSSerial/ros/node_handle.h ****     message_out[2] = (uint8_t)((uint16_t)l & 255);
 2397              		.loc 7 613 0
 2398 009e FE23     		movs	r3, #254
 2399 00a0 84F81932 		strb	r3, [r4, #537]
 614:ROSSerial/ros/node_handle.h ****     message_out[3] = (uint8_t)((uint16_t)l >> 8);
 2400              		.loc 7 614 0
 2401 00a4 C3B2     		uxtb	r3, r0
 2402 00a6 84F81A32 		strb	r3, [r4, #538]
 615:ROSSerial/ros/node_handle.h ****     message_out[4] = 255 - ((message_out[2] + message_out[3]) % 256);
 2403              		.loc 7 615 0
 2404 00aa C0F30722 		ubfx	r2, r0, #8, #8
 2405 00ae 84F81B22 		strb	r2, [r4, #539]
 616:ROSSerial/ros/node_handle.h ****     message_out[5] = (uint8_t)((int16_t)id & 255);
 2406              		.loc 7 616 0
 2407 00b2 1344     		add	r3, r3, r2
 2408 00b4 DBB2     		uxtb	r3, r3
 2409 00b6 DB43     		mvns	r3, r3
 2410 00b8 84F81C32 		strb	r3, [r4, #540]
 617:ROSSerial/ros/node_handle.h ****     message_out[6] = (uint8_t)((int16_t)id >> 8);
 2411              		.loc 7 617 0
 2412 00bc 84F81D52 		strb	r5, [r4, #541]
 618:ROSSerial/ros/node_handle.h **** 
 2413              		.loc 7 618 0
 2414 00c0 45F30725 		sbfx	r5, r5, #8, #8
 2415              	.LVL294:
 2416 00c4 84F81E52 		strb	r5, [r4, #542]
 2417              	.LVL295:
 2418              	.LBB461:
 622:ROSSerial/ros/node_handle.h ****       chk += message_out[i];
 2419              		.loc 7 622 0
 2420 00c8 0523     		movs	r3, #5
 2421              	.LBE461:
 621:ROSSerial/ros/node_handle.h ****     for (int i = 5; i < l + 7; i++)
 2422              		.loc 7 621 0
 2423 00ca 0021     		movs	r1, #0
 2424              	.LVL296:
 2425              	.L175:
 2426              	.LBB462:
 622:ROSSerial/ros/node_handle.h ****       chk += message_out[i];
 2427              		.loc 7 622 0
 2428 00cc C41D     		adds	r4, r0, #7
 2429 00ce 9C42     		cmp	r4, r3
 2430 00d0 40F3F582 		ble	.L174
 623:ROSSerial/ros/node_handle.h ****     l += 7;
 2431              		.loc 7 623 0
 2432 00d4 8B4A     		ldr	r2, .L201
 2433 00d6 1A44     		add	r2, r2, r3
 2434 00d8 92F81822 		ldrb	r2, [r2, #536]	@ zero_extendqisi2
 2435 00dc 1144     		add	r1, r1, r2
ARM GAS  /var/folders/l3/4y5292px21b4835bsnjwqc7w009kq1/T//ccOXyXY5.s 			page 69


 2436              	.LVL297:
 622:ROSSerial/ros/node_handle.h ****       chk += message_out[i];
 2437              		.loc 7 622 0
 2438 00de 0133     		adds	r3, r3, #1
 2439              	.LVL298:
 2440 00e0 F4E7     		b	.L175
 2441              	.LVL299:
 2442              	.L184:
 2443              	.LBE462:
 2444              	.LBE460:
 2445              	.LBE459:
 2446              	.LBB482:
 2447              	.LBB456:
 2448              	.LBB371:
 288:ROSSerial/ros/node_handle.h ****         bytes_--;
 2449              		.loc 7 288 0
 2450 00e2 884B     		ldr	r3, .L201
 2451 00e4 D3F81425 		ldr	r2, [r3, #1300]
 2452 00e8 501C     		adds	r0, r2, #1
 2453 00ea C3F81405 		str	r0, [r3, #1300]
 2454 00ee 1A44     		add	r2, r2, r3
 2455 00f0 1176     		strb	r1, [r2, #24]
 289:ROSSerial/ros/node_handle.h ****         if (bytes_ == 0)                 /* is message complete? if so, checksum */
 2456              		.loc 7 289 0
 2457 00f2 D3F80C25 		ldr	r2, [r3, #1292]
 2458 00f6 013A     		subs	r2, r2, #1
 2459 00f8 C3F80C25 		str	r2, [r3, #1292]
 290:ROSSerial/ros/node_handle.h ****           mode_ = MODE_MSG_CHECKSUM;
 2460              		.loc 7 290 0
 2461 00fc 12B9     		cbnz	r2, .L127
 291:ROSSerial/ros/node_handle.h ****       }
 2462              		.loc 7 291 0
 2463 00fe 0822     		movs	r2, #8
 2464 0100 C3F80825 		str	r2, [r3, #1288]
 2465              	.LVL300:
 2466              	.L127:
 270:ROSSerial/ros/node_handle.h ****       {
 2467              		.loc 7 270 0
 2468 0104 7F4B     		ldr	r3, .L201
 2469 0106 5B69     		ldr	r3, [r3, #20]
 2470 0108 33B1     		cbz	r3, .L128
 2471              	.LVL301:
 2472              	.LBB372:
 2473              	.LBB373:
 2474              		.loc 8 102 0
 2475 010a FFF7FEFF 		bl	millis
 2476              	.LVL302:
 2477              	.LBE373:
 2478              	.LBE372:
 276:ROSSerial/ros/node_handle.h ****         {
 2479              		.loc 7 276 0
 2480 010e 001B     		subs	r0, r0, r4
 2481 0110 7C4B     		ldr	r3, .L201
 2482 0112 5B69     		ldr	r3, [r3, #20]
 2483 0114 9842     		cmp	r0, r3
 2484 0116 A2D8     		bhi	.L129
 2485              	.L128:
ARM GAS  /var/folders/l3/4y5292px21b4835bsnjwqc7w009kq1/T//ccOXyXY5.s 			page 70


 2486              	.LVL303:
 2487              	.LBB374:
 2488              	.LBB375:
  72:ROSSerial/AT32hardware.h **** 		if(comGetChar(COM2,&ucData) == 0) {
 2489              		.loc 8 72 0
 2490 0118 FF23     		movs	r3, #255
 2491 011a 8DF81030 		strb	r3, [sp, #16]
  73:ROSSerial/AT32hardware.h **** 			return -1;
 2492              		.loc 8 73 0
 2493 011e 04A9     		add	r1, sp, #16
 2494 0120 0120     		movs	r0, #1
 2495 0122 FFF7FEFF 		bl	comGetChar
 2496              	.LVL304:
 2497 0126 0028     		cmp	r0, #0
 2498 0128 8CD0     		beq	.L183
  77:ROSSerial/AT32hardware.h **** 	}
 2499              		.loc 8 77 0
 2500 012a 9DF81010 		ldrb	r1, [sp, #16]	@ zero_extendqisi2
 2501              	.LVL305:
 2502              	.LBE375:
 2503              	.LBE374:
 285:ROSSerial/ros/node_handle.h ****       if (mode_ == MODE_MESSAGE)          /* message data being recieved */
 2504              		.loc 7 285 0
 2505 012e 754B     		ldr	r3, .L201
 2506 0130 D3F81825 		ldr	r2, [r3, #1304]
 2507 0134 0A44     		add	r2, r2, r1
 2508 0136 C3F81825 		str	r2, [r3, #1304]
 286:ROSSerial/ros/node_handle.h ****       {
 2509              		.loc 7 286 0
 2510 013a D3F80835 		ldr	r3, [r3, #1288]
 2511 013e 072B     		cmp	r3, #7
 2512 0140 CFD0     		beq	.L184
 293:ROSSerial/ros/node_handle.h ****       {
 2513              		.loc 7 293 0
 2514 0142 B3B9     		cbnz	r3, .L134
 295:ROSSerial/ros/node_handle.h ****         {
 2515              		.loc 7 295 0
 2516 0144 FF29     		cmp	r1, #255
 2517 0146 08D1     		bne	.L135
 297:ROSSerial/ros/node_handle.h ****           last_msg_timeout_time = c_time + SERIAL_MSG_TIMEOUT;
 2518              		.loc 7 297 0
 2519 0148 6E4A     		ldr	r2, .L201
 2520 014a 0133     		adds	r3, r3, #1
 2521 014c C2F80835 		str	r3, [r2, #1288]
 298:ROSSerial/ros/node_handle.h ****         }
 2522              		.loc 7 298 0
 2523 0150 04F11403 		add	r3, r4, #20
 2524 0154 C2F82835 		str	r3, [r2, #1320]
 2525 0158 D4E7     		b	.L127
 2526              	.L135:
 2527              	.LVL306:
 2528              	.LBB376:
 2529              	.LBB377:
 2530              		.loc 8 102 0
 2531 015a FFF7FEFF 		bl	millis
 2532              	.LVL307:
 2533              	.LBE377:
ARM GAS  /var/folders/l3/4y5292px21b4835bsnjwqc7w009kq1/T//ccOXyXY5.s 			page 71


 2534              	.LBE376:
 300:ROSSerial/ros/node_handle.h ****         {
 2535              		.loc 7 300 0
 2536 015e 001B     		subs	r0, r0, r4
 2537 0160 41F28833 		movw	r3, #5000
 2538 0164 9842     		cmp	r0, r3
 2539 0166 CDD9     		bls	.L127
 303:ROSSerial/ros/node_handle.h ****           return SPIN_TIMEOUT;
 2540              		.loc 7 303 0
 2541 0168 664B     		ldr	r3, .L201
 2542 016a 0022     		movs	r2, #0
 2543 016c 83F81C25 		strb	r2, [r3, #1308]
 2544 0170 75E7     		b	.L129
 2545              	.LVL308:
 2546              	.L134:
 307:ROSSerial/ros/node_handle.h ****       {
 2547              		.loc 7 307 0
 2548 0172 012B     		cmp	r3, #1
 2549 0174 3ED0     		beq	.L185
 320:ROSSerial/ros/node_handle.h ****       {
 2550              		.loc 7 320 0
 2551 0176 022B     		cmp	r3, #2
 2552 0178 00F0A180 		beq	.L186
 327:ROSSerial/ros/node_handle.h ****       {
 2553              		.loc 7 327 0
 2554 017c 032B     		cmp	r3, #3
 2555 017e 00F0AA80 		beq	.L187
 332:ROSSerial/ros/node_handle.h ****       {
 2556              		.loc 7 332 0
 2557 0182 042B     		cmp	r3, #4
 2558 0184 00F0B280 		beq	.L188
 339:ROSSerial/ros/node_handle.h ****       {
 2559              		.loc 7 339 0
 2560 0188 052B     		cmp	r3, #5
 2561 018a 00F0D080 		beq	.L189
 345:ROSSerial/ros/node_handle.h ****       {
 2562              		.loc 7 345 0
 2563 018e 062B     		cmp	r3, #6
 2564 0190 00F0D680 		beq	.L190
 352:ROSSerial/ros/node_handle.h ****       {
 2565              		.loc 7 352 0
 2566 0194 082B     		cmp	r3, #8
 2567 0196 B5D1     		bne	.L127
 354:ROSSerial/ros/node_handle.h ****         if ((checksum_ % 256) == 255)
 2568              		.loc 7 354 0
 2569 0198 5A4B     		ldr	r3, .L201
 2570 019a 0021     		movs	r1, #0
 2571              	.LVL309:
 2572 019c C3F80815 		str	r1, [r3, #1288]
 355:ROSSerial/ros/node_handle.h ****         {
 2573              		.loc 7 355 0
 2574 01a0 8B1A     		subs	r3, r1, r2
 2575 01a2 D2B2     		uxtb	r2, r2
 2576 01a4 DBB2     		uxtb	r3, r3
 2577 01a6 58BF     		it	pl
 2578 01a8 5A42     		rsbpl	r2, r3, #0
 2579 01aa FF2A     		cmp	r2, #255
ARM GAS  /var/folders/l3/4y5292px21b4835bsnjwqc7w009kq1/T//ccOXyXY5.s 			page 72


 2580 01ac AAD1     		bne	.L127
 357:ROSSerial/ros/node_handle.h ****           {
 2581              		.loc 7 357 0
 2582 01ae 554B     		ldr	r3, .L201
 2583 01b0 D3F81055 		ldr	r5, [r3, #1296]
 2584 01b4 002D     		cmp	r5, #0
 2585 01b6 00F0D780 		beq	.L191
 365:ROSSerial/ros/node_handle.h ****           {
 2586              		.loc 7 365 0
 2587 01ba 0A2D     		cmp	r5, #10
 2588 01bc 00F02881 		beq	.L192
 369:ROSSerial/ros/node_handle.h ****           {
 2589              		.loc 7 369 0
 2590 01c0 062D     		cmp	r5, #6
 2591 01c2 00F06881 		beq	.L193
 374:ROSSerial/ros/node_handle.h ****           {
 2592              		.loc 7 374 0
 2593 01c6 0B2D     		cmp	r5, #11
 2594 01c8 00F01182 		beq	.L194
 380:ROSSerial/ros/node_handle.h ****               s_CallBack = (void (*)(char*))subscribers2[topic_ - 100].callback;
 2595              		.loc 7 380 0
 2596 01cc 643D     		subs	r5, r5, #100
 2597 01ce 05EB8502 		add	r2, r5, r5, lsl #2
 2598 01d2 4C4B     		ldr	r3, .L201
 2599 01d4 03EB8203 		add	r3, r3, r2, lsl #2
 2600 01d8 B3F8A434 		ldrh	r3, [r3, #1188]
 2601 01dc 002B     		cmp	r3, #0
 2602 01de 91D0     		beq	.L127
 381:ROSSerial/ros/node_handle.h ****               s_CallBack(message_in);
 2603              		.loc 7 381 0
 2604 01e0 4848     		ldr	r0, .L201
 2605 01e2 00EB8205 		add	r5, r0, r2, lsl #2
 2606 01e6 D5F8B434 		ldr	r3, [r5, #1204]
 2607 01ea 4A4A     		ldr	r2, .L201+16
 2608 01ec 1360     		str	r3, [r2]
 382:ROSSerial/ros/node_handle.h ****             }
 2609              		.loc 7 382 0
 2610 01ee 1830     		adds	r0, r0, #24
 2611 01f0 9847     		blx	r3
 2612              	.LVL310:
 2613 01f2 87E7     		b	.L127
 2614              	.LVL311:
 2615              	.L185:
 309:ROSSerial/ros/node_handle.h ****         {
 2616              		.loc 7 309 0
 2617 01f4 FE29     		cmp	r1, #254
 2618 01f6 36D0     		beq	.L195
 315:ROSSerial/ros/node_handle.h ****           if (configured_ == false)
 2619              		.loc 7 315 0
 2620 01f8 424B     		ldr	r3, .L201
 2621 01fa 0022     		movs	r2, #0
 2622 01fc C3F80825 		str	r2, [r3, #1288]
 316:ROSSerial/ros/node_handle.h ****             requestSyncTime();  /* send a msg back showing our protocol version */
 2623              		.loc 7 316 0
 2624 0200 93F81C35 		ldrb	r3, [r3, #1308]	@ zero_extendqisi2
 2625 0204 002B     		cmp	r3, #0
 2626 0206 7FF47DAF 		bne	.L127
ARM GAS  /var/folders/l3/4y5292px21b4835bsnjwqc7w009kq1/T//ccOXyXY5.s 			page 73


 2627              	.LVL312:
 2628              	.LBB378:
 2629              	.LBB379:
 2630              	.LBB380:
 2631              	.LBB381:
  14:ROSSerial/std_msgs/Time.h ****   {
 2632              		.loc 1 14 0
 2633 020a 434B     		ldr	r3, .L201+20
 2634 020c 0193     		str	r3, [sp, #4]
 2635              	.LVL313:
 2636              	.LBB382:
 2637              	.LBB383:
 2638              	.LBB384:
 2639              		.loc 9 51 0
 2640 020e 1546     		mov	r5, r2
 2641 0210 0292     		str	r2, [sp, #8]
 2642 0212 0392     		str	r2, [sp, #12]
 2643              	.LVL314:
 2644              	.LBE384:
 2645              	.LBE383:
 2646              	.LBE382:
 2647              	.LBE381:
 2648              	.LBE380:
 2649              	.LBB385:
 2650              	.LBB386:
 609:ROSSerial/ros/node_handle.h **** 
 2651              		.loc 7 609 0
 2652 0214 3B4E     		ldr	r6, .L201
 2653 0216 1B68     		ldr	r3, [r3]
 2654 0218 06F21F21 		addw	r1, r6, #543
 2655              	.LVL315:
 2656 021c 01A8     		add	r0, sp, #4
 2657              	.LVL316:
 2658 021e 9847     		blx	r3
 2659              	.LVL317:
 612:ROSSerial/ros/node_handle.h ****     message_out[1] = PROTOCOL_VER;
 2660              		.loc 7 612 0
 2661 0220 FF23     		movs	r3, #255
 2662 0222 86F81832 		strb	r3, [r6, #536]
 613:ROSSerial/ros/node_handle.h ****     message_out[2] = (uint8_t)((uint16_t)l & 255);
 2663              		.loc 7 613 0
 2664 0226 FE23     		movs	r3, #254
 2665 0228 86F81932 		strb	r3, [r6, #537]
 614:ROSSerial/ros/node_handle.h ****     message_out[3] = (uint8_t)((uint16_t)l >> 8);
 2666              		.loc 7 614 0
 2667 022c C3B2     		uxtb	r3, r0
 2668 022e 86F81A32 		strb	r3, [r6, #538]
 615:ROSSerial/ros/node_handle.h ****     message_out[4] = 255 - ((message_out[2] + message_out[3]) % 256);
 2669              		.loc 7 615 0
 2670 0232 C0F30722 		ubfx	r2, r0, #8, #8
 2671 0236 86F81B22 		strb	r2, [r6, #539]
 616:ROSSerial/ros/node_handle.h ****     message_out[5] = (uint8_t)((int16_t)id & 255);
 2672              		.loc 7 616 0
 2673 023a 1344     		add	r3, r3, r2
 2674 023c DBB2     		uxtb	r3, r3
 2675 023e DB43     		mvns	r3, r3
 2676 0240 86F81C32 		strb	r3, [r6, #540]
ARM GAS  /var/folders/l3/4y5292px21b4835bsnjwqc7w009kq1/T//ccOXyXY5.s 			page 74


 617:ROSSerial/ros/node_handle.h ****     message_out[6] = (uint8_t)((int16_t)id >> 8);
 2677              		.loc 7 617 0
 2678 0244 0A23     		movs	r3, #10
 2679 0246 86F81D32 		strb	r3, [r6, #541]
 618:ROSSerial/ros/node_handle.h **** 
 2680              		.loc 7 618 0
 2681 024a 86F81E52 		strb	r5, [r6, #542]
 2682              	.LVL318:
 2683              	.LBB387:
 622:ROSSerial/ros/node_handle.h ****       chk += message_out[i];
 2684              		.loc 7 622 0
 2685 024e 0522     		movs	r2, #5
 2686              	.LBE387:
 621:ROSSerial/ros/node_handle.h ****     for (int i = 5; i < l + 7; i++)
 2687              		.loc 7 621 0
 2688 0250 2B46     		mov	r3, r5
 2689              	.LVL319:
 2690              	.L139:
 2691              	.LBB388:
 622:ROSSerial/ros/node_handle.h ****       chk += message_out[i];
 2692              		.loc 7 622 0
 2693 0252 C11D     		adds	r1, r0, #7
 2694 0254 9142     		cmp	r1, r2
 2695 0256 0BDD     		ble	.L138
 623:ROSSerial/ros/node_handle.h ****     l += 7;
 2696              		.loc 7 623 0
 2697 0258 2A49     		ldr	r1, .L201
 2698 025a 1144     		add	r1, r1, r2
 2699 025c 91F81812 		ldrb	r1, [r1, #536]	@ zero_extendqisi2
 2700 0260 0B44     		add	r3, r3, r1
 2701              	.LVL320:
 622:ROSSerial/ros/node_handle.h ****       chk += message_out[i];
 2702              		.loc 7 622 0
 2703 0262 0132     		adds	r2, r2, #1
 2704              	.LVL321:
 2705 0264 F5E7     		b	.L139
 2706              	.LVL322:
 2707              	.L195:
 2708              	.LBE388:
 2709              	.LBE386:
 2710              	.LBE385:
 2711              	.LBE379:
 2712              	.LBE378:
 311:ROSSerial/ros/node_handle.h ****         }
 2713              		.loc 7 311 0
 2714 0266 0133     		adds	r3, r3, #1
 2715 0268 264A     		ldr	r2, .L201
 2716 026a C2F80835 		str	r3, [r2, #1288]
 2717 026e 49E7     		b	.L127
 2718              	.LVL323:
 2719              	.L138:
 2720              	.LBB403:
 2721              	.LBB402:
 2722              	.LBB398:
 2723              	.LBB396:
 625:ROSSerial/ros/node_handle.h ****     //printf("Sending message - %s\n",msg->getType());
 2724              		.loc 7 625 0
ARM GAS  /var/folders/l3/4y5292px21b4835bsnjwqc7w009kq1/T//ccOXyXY5.s 			page 75


 2725 0270 5A42     		rsbs	r2, r3, #0
 2726              	.LVL324:
 2727 0272 DBB2     		uxtb	r3, r3
 2728              	.LVL325:
 2729 0274 D2B2     		uxtb	r2, r2
 2730 0276 58BF     		it	pl
 2731 0278 5342     		rsbpl	r3, r2, #0
 2732 027a 00F10802 		add	r2, r0, #8
 2733              	.LVL326:
 2734 027e DB43     		mvns	r3, r3
 2735 0280 2048     		ldr	r0, .L201
 2736 0282 0144     		add	r1, r1, r0
 2737 0284 81F81832 		strb	r3, [r1, #536]
 627:ROSSerial/ros/node_handle.h ****     {
 2738              		.loc 7 627 0
 2739 0288 B2F5007F 		cmp	r2, #512
 2740 028c 0ADC     		bgt	.L140
 2741              	.LVL327:
 2742              	.LBB389:
 2743              	.LBB390:
  89:ROSSerial/AT32hardware.h **** 	}
 2744              		.loc 8 89 0
 2745 028e 92B2     		uxth	r2, r2
 2746              	.LVL328:
 2747 0290 00F50671 		add	r1, r0, #536
 2748              	.LVL329:
 2749 0294 0120     		movs	r0, #1
 2750 0296 FFF7FEFF 		bl	comSendBuf
 2751              	.LVL330:
 2752              	.L141:
 2753              	.LBE390:
 2754              	.LBE389:
 2755              	.LBE396:
 2756              	.LBE398:
 2757              	.LBB399:
 2758              	.LBB400:
 2759              		.loc 8 102 0
 2760 029a FFF7FEFF 		bl	millis
 2761              	.LVL331:
 2762              	.LBE400:
 2763              	.LBE399:
 414:ROSSerial/ros/node_handle.h ****   }
 2764              		.loc 7 414 0
 2765 029e 194B     		ldr	r3, .L201
 2766 02a0 9860     		str	r0, [r3, #8]
 2767 02a2 2FE7     		b	.L127
 2768              	.LVL332:
 2769              	.L140:
 2770              	.LBB401:
 2771              	.LBB397:
 2772              	.LBB391:
 2773              	.LBB392:
 2774              	.LBB393:
 2775              	.LBB394:
 2776              	.LBB395:
  13:ROSSerial/rosserial_msgs/Log.h ****   {
 2777              		.loc 3 13 0
ARM GAS  /var/folders/l3/4y5292px21b4835bsnjwqc7w009kq1/T//ccOXyXY5.s 			page 76


 2778 02a4 1D4B     		ldr	r3, .L201+24
 2779 02a6 0493     		str	r3, [sp, #16]
 2780              	.LVL333:
 2781              	.LBE395:
 2782              	.LBE394:
 647:ROSSerial/ros/node_handle.h ****     l.msg = (char*)msg;
 2783              		.loc 7 647 0
 2784 02a8 0323     		movs	r3, #3
 2785 02aa 8DF81430 		strb	r3, [sp, #20]
 648:ROSSerial/ros/node_handle.h ****     publish1(rosserial_msgs::TopicInfo::ID_LOG, &l);
 2786              		.loc 7 648 0
 2787 02ae 1C4B     		ldr	r3, .L201+28
 2788 02b0 0693     		str	r3, [sp, #24]
 2789              		.loc 7 649 0
 2790 02b2 04AA     		add	r2, sp, #16
 2791              	.LVL334:
 2792 02b4 0721     		movs	r1, #7
 2793              	.LVL335:
 2794 02b6 1348     		ldr	r0, .L201
 2795 02b8 FFF7FEFF 		bl	_ZN3ros11NodeHandle_I13STM32HardwareLi5ELi5ELi512ELi512EE8publish1EiPNS_3MsgE
 2796              	.LVL336:
 2797 02bc EDE7     		b	.L141
 2798              	.LVL337:
 2799              	.L186:
 2800              	.LBE393:
 2801              	.LBE392:
 2802              	.LBE391:
 2803              	.LBE397:
 2804              	.LBE401:
 2805              	.LBE402:
 2806              	.LBE403:
 322:ROSSerial/ros/node_handle.h ****         index_ = 0;
 2807              		.loc 7 322 0
 2808 02be 114A     		ldr	r2, .L201
 2809 02c0 C2F80C15 		str	r1, [r2, #1292]
 323:ROSSerial/ros/node_handle.h ****         mode_++;
 2810              		.loc 7 323 0
 2811 02c4 0020     		movs	r0, #0
 2812 02c6 C2F81405 		str	r0, [r2, #1300]
 324:ROSSerial/ros/node_handle.h ****         checksum_ = data;               /* first byte for calculating size checksum */
 2813              		.loc 7 324 0
 2814 02ca 0133     		adds	r3, r3, #1
 2815 02cc C2F80835 		str	r3, [r2, #1288]
 325:ROSSerial/ros/node_handle.h ****       }
 2816              		.loc 7 325 0
 2817 02d0 C2F81815 		str	r1, [r2, #1304]
 2818 02d4 16E7     		b	.L127
 2819              	.L187:
 329:ROSSerial/ros/node_handle.h ****         mode_++;
 2820              		.loc 7 329 0
 2821 02d6 0B4A     		ldr	r2, .L201
 2822 02d8 D2F80C05 		ldr	r0, [r2, #1292]
 2823 02dc 00EB0121 		add	r1, r0, r1, lsl #8
 2824              	.LVL338:
 2825 02e0 C2F80C15 		str	r1, [r2, #1292]
 330:ROSSerial/ros/node_handle.h ****       }
 2826              		.loc 7 330 0
ARM GAS  /var/folders/l3/4y5292px21b4835bsnjwqc7w009kq1/T//ccOXyXY5.s 			page 77


 2827 02e4 0133     		adds	r3, r3, #1
 2828 02e6 C2F80835 		str	r3, [r2, #1288]
 2829 02ea 0BE7     		b	.L127
 2830              	.LVL339:
 2831              	.L188:
 334:ROSSerial/ros/node_handle.h ****           mode_++;
 2832              		.loc 7 334 0
 2833 02ec 5142     		rsbs	r1, r2, #0
 2834              	.LVL340:
 2835 02ee D2B2     		uxtb	r2, r2
 2836 02f0 C9B2     		uxtb	r1, r1
 2837 02f2 58BF     		it	pl
 2838 02f4 4A42     		rsbpl	r2, r1, #0
 2839 02f6 FF2A     		cmp	r2, #255
 2840 02f8 14D0     		beq	.L196
 337:ROSSerial/ros/node_handle.h ****       }
 2841              		.loc 7 337 0
 2842 02fa 024B     		ldr	r3, .L201
 2843 02fc 0022     		movs	r2, #0
 2844 02fe C3F80825 		str	r2, [r3, #1288]
 2845 0302 FFE6     		b	.L127
 2846              	.L202:
 2847              		.align	2
 2848              	.L201:
 2849 0304 00000000 		.word	.LANCHOR1
 2850 0308 08000000 		.word	_ZTVN8std_msgs6StringE+8
 2851 030c 00000000 		.word	.LC11
 2852 0310 00000000 		.word	.LANCHOR2
 2853 0314 00000000 		.word	_ZZN3ros11NodeHandle_I13STM32HardwareLi5ELi5ELi512ELi512EE9spinOnce1EvE10s_CallBack
 2854 0318 08000000 		.word	_ZTVN8std_msgs4TimeE+8
 2855 031c 08000000 		.word	_ZTVN14rosserial_msgs3LogE+8
 2856 0320 00000000 		.word	.LC10
 2857              	.L196:
 335:ROSSerial/ros/node_handle.h ****         else
 2858              		.loc 7 335 0
 2859 0324 0133     		adds	r3, r3, #1
 2860 0326 B44A     		ldr	r2, .L203
 2861 0328 C2F80835 		str	r3, [r2, #1288]
 2862 032c EAE6     		b	.L127
 2863              	.LVL341:
 2864              	.L189:
 341:ROSSerial/ros/node_handle.h ****         mode_++;
 2865              		.loc 7 341 0
 2866 032e B24A     		ldr	r2, .L203
 2867 0330 C2F81015 		str	r1, [r2, #1296]
 342:ROSSerial/ros/node_handle.h ****         checksum_ = data;               /* first byte included in checksum */
 2868              		.loc 7 342 0
 2869 0334 0133     		adds	r3, r3, #1
 2870 0336 C2F80835 		str	r3, [r2, #1288]
 343:ROSSerial/ros/node_handle.h ****       }
 2871              		.loc 7 343 0
 2872 033a C2F81815 		str	r1, [r2, #1304]
 2873 033e E1E6     		b	.L127
 2874              	.L190:
 347:ROSSerial/ros/node_handle.h ****         mode_ = MODE_MESSAGE;
 2875              		.loc 7 347 0
 2876 0340 AD4B     		ldr	r3, .L203
ARM GAS  /var/folders/l3/4y5292px21b4835bsnjwqc7w009kq1/T//ccOXyXY5.s 			page 78


 2877 0342 D3F81025 		ldr	r2, [r3, #1296]
 2878 0346 02EB0122 		add	r2, r2, r1, lsl #8
 2879 034a C3F81025 		str	r2, [r3, #1296]
 348:ROSSerial/ros/node_handle.h ****         if (bytes_ == 0)
 2880              		.loc 7 348 0
 2881 034e 0722     		movs	r2, #7
 2882 0350 C3F80825 		str	r2, [r3, #1288]
 349:ROSSerial/ros/node_handle.h ****           mode_ = MODE_MSG_CHECKSUM;
 2883              		.loc 7 349 0
 2884 0354 D3F80C35 		ldr	r3, [r3, #1292]
 2885 0358 002B     		cmp	r3, #0
 2886 035a 7FF4D3AE 		bne	.L127
 350:ROSSerial/ros/node_handle.h ****       }
 2887              		.loc 7 350 0
 2888 035e A64B     		ldr	r3, .L203
 2889 0360 0822     		movs	r2, #8
 2890 0362 C3F80825 		str	r2, [r3, #1288]
 2891 0366 CDE6     		b	.L127
 2892              	.LVL342:
 2893              	.L191:
 359:ROSSerial/ros/node_handle.h ****             negotiateTopics();
 2894              		.loc 7 359 0
 2895 0368 1846     		mov	r0, r3
 2896 036a FFF7FEFF 		bl	_ZN3ros11NodeHandle_I13STM32HardwareLi5ELi5ELi512ELi512EE15requestSyncTimeEv
 2897              	.LVL343:
 2898              	.LBB404:
 2899              	.LBB405:
 2900              	.LBB406:
 2901              	.LBB407:
  12:ROSSerial/rosserial_msgs/TopicInfo.h ****   {
 2902              		.loc 2 12 0
 2903 036e A34B     		ldr	r3, .L203+4
 2904 0370 0493     		str	r3, [sp, #16]
 2905              	.LVL344:
 2906              	.LBE407:
 2907              	.LBE406:
 556:ROSSerial/ros/node_handle.h ****     {
 2908              		.loc 7 556 0
 2909 0372 2E46     		mov	r6, r5
 2910 0374 00E0     		b	.L151
 2911              	.LVL345:
 2912              	.L150:
 2913 0376 0136     		adds	r6, r6, #1
 2914              	.LVL346:
 2915              	.L151:
 2916 0378 042E     		cmp	r6, #4
 2917 037a 1FDC     		bgt	.L149
 558:ROSSerial/ros/node_handle.h ****       {
 2918              		.loc 7 558 0
 2919 037c 06EB8602 		add	r2, r6, r6, lsl #2
 2920 0380 9D4B     		ldr	r3, .L203
 2921 0382 03EB8203 		add	r3, r3, r2, lsl #2
 2922 0386 B3F82C34 		ldrh	r3, [r3, #1068]
 2923 038a 002B     		cmp	r3, #0
 2924 038c F3D0     		beq	.L150
 567:ROSSerial/ros/node_handle.h ****         ti.topic_name = publishers2[i].topic_name;
 2925              		.loc 7 567 0
ARM GAS  /var/folders/l3/4y5292px21b4835bsnjwqc7w009kq1/T//ccOXyXY5.s 			page 79


 2926 038e ADF81430 		strh	r3, [sp, #20]	@ movhi
 568:ROSSerial/ros/node_handle.h ****         ti.message_type = publishers2[i].message_type;
 2927              		.loc 7 568 0
 2928 0392 9948     		ldr	r0, .L203
 2929 0394 00EB8203 		add	r3, r0, r2, lsl #2
 2930 0398 D3F83024 		ldr	r2, [r3, #1072]
 2931 039c 0692     		str	r2, [sp, #24]
 569:ROSSerial/ros/node_handle.h ****         ti.md5sum = publishers2[i].md5sum;
 2932              		.loc 7 569 0
 2933 039e D3F83824 		ldr	r2, [r3, #1080]
 2934 03a2 0792     		str	r2, [sp, #28]
 570:ROSSerial/ros/node_handle.h ****         ti.buffer_size = OUTPUT_SIZE;
 2935              		.loc 7 570 0
 2936 03a4 D3F83C34 		ldr	r3, [r3, #1084]
 2937 03a8 0893     		str	r3, [sp, #32]
 571:ROSSerial/ros/node_handle.h ****         publish1(TopicInfo::ID_PUBLISHER, &ti);
 2938              		.loc 7 571 0
 2939 03aa 4FF40073 		mov	r3, #512
 2940 03ae 0993     		str	r3, [sp, #36]
 572:ROSSerial/ros/node_handle.h ****       }
 2941              		.loc 7 572 0
 2942 03b0 04AA     		add	r2, sp, #16
 2943 03b2 0021     		movs	r1, #0
 2944 03b4 FFF7FEFF 		bl	_ZN3ros11NodeHandle_I13STM32HardwareLi5ELi5ELi512ELi512EE8publish1EiPNS_3MsgE
 2945              	.LVL347:
 2946 03b8 DDE7     		b	.L150
 2947              	.LVL348:
 2948              	.L153:
 575:ROSSerial/ros/node_handle.h ****     {
 2949              		.loc 7 575 0
 2950 03ba 0135     		adds	r5, r5, #1
 2951              	.LVL349:
 2952              	.L149:
 2953 03bc 042D     		cmp	r5, #4
 2954 03be 1EDC     		bgt	.L152
 577:ROSSerial/ros/node_handle.h ****       {
 2955              		.loc 7 577 0
 2956 03c0 05EB8502 		add	r2, r5, r5, lsl #2
 2957 03c4 8C4B     		ldr	r3, .L203
 2958 03c6 03EB8203 		add	r3, r3, r2, lsl #2
 2959 03ca B3F8A434 		ldrh	r3, [r3, #1188]
 2960 03ce 002B     		cmp	r3, #0
 2961 03d0 F3D0     		beq	.L153
 586:ROSSerial/ros/node_handle.h ****         ti.topic_name = subscribers2[i].topic_name;
 2962              		.loc 7 586 0
 2963 03d2 ADF81430 		strh	r3, [sp, #20]	@ movhi
 587:ROSSerial/ros/node_handle.h ****         ti.message_type = subscribers2[i].message_type;
 2964              		.loc 7 587 0
 2965 03d6 8848     		ldr	r0, .L203
 2966 03d8 00EB8203 		add	r3, r0, r2, lsl #2
 2967 03dc D3F8A824 		ldr	r2, [r3, #1192]
 2968 03e0 0692     		str	r2, [sp, #24]
 588:ROSSerial/ros/node_handle.h ****         ti.md5sum = subscribers2[i].md5sum;
 2969              		.loc 7 588 0
 2970 03e2 D3F8AC24 		ldr	r2, [r3, #1196]
 2971 03e6 0792     		str	r2, [sp, #28]
 589:ROSSerial/ros/node_handle.h ****         ti.buffer_size = INPUT_SIZE;
ARM GAS  /var/folders/l3/4y5292px21b4835bsnjwqc7w009kq1/T//ccOXyXY5.s 			page 80


 2972              		.loc 7 589 0
 2973 03e8 D3F8B034 		ldr	r3, [r3, #1200]
 2974 03ec 0893     		str	r3, [sp, #32]
 590:ROSSerial/ros/node_handle.h ****         publish1(rosserial_msgs::TopicInfo::ID_SUBSCRIBER, &ti);
 2975              		.loc 7 590 0
 2976 03ee 4FF40073 		mov	r3, #512
 2977 03f2 0993     		str	r3, [sp, #36]
 591:ROSSerial/ros/node_handle.h ****       }
 2978              		.loc 7 591 0
 2979 03f4 04AA     		add	r2, sp, #16
 2980 03f6 0121     		movs	r1, #1
 2981 03f8 FFF7FEFF 		bl	_ZN3ros11NodeHandle_I13STM32HardwareLi5ELi5ELi512ELi512EE8publish1EiPNS_3MsgE
 2982              	.LVL350:
 2983 03fc DDE7     		b	.L153
 2984              	.L152:
 594:ROSSerial/ros/node_handle.h ****   }
 2985              		.loc 7 594 0
 2986 03fe 7E4B     		ldr	r3, .L203
 2987 0400 0122     		movs	r2, #1
 2988 0402 83F81C25 		strb	r2, [r3, #1308]
 2989              	.LVL351:
 2990              	.LBE405:
 2991              	.LBE404:
 361:ROSSerial/ros/node_handle.h ****             last_sync_receive_time = c_time;
 2992              		.loc 7 361 0
 2993 0406 C3F82045 		str	r4, [r3, #1312]
 362:ROSSerial/ros/node_handle.h ****             return SPIN_ERR;
 2994              		.loc 7 362 0
 2995 040a C3F82445 		str	r4, [r3, #1316]
 2996 040e 26E6     		b	.L129
 2997              	.LVL352:
 2998              	.L192:
 2999              	.LBB408:
 3000              	.LBB409:
 3001              	.LBB410:
 3002              	.LBB411:
 3003              		.loc 8 102 0
 3004 0410 FFF7FEFF 		bl	millis
 3005              	.LVL353:
 3006              	.LBE411:
 3007              	.LBE410:
 420:ROSSerial/ros/node_handle.h **** 
 3008              		.loc 7 420 0
 3009 0414 784D     		ldr	r5, .L203
 3010 0416 AB68     		ldr	r3, [r5, #8]
 3011 0418 C01A     		subs	r0, r0, r3
 3012              	.LVL354:
 3013              	.LBB412:
 3014              	.LBB413:
  38:ROSSerial/std_msgs/Time.h ****       this->data.sec |= ((uint32_t) (*(inbuffer + offset + 1))) << (8 * 1);
 3015              		.loc 1 38 0
 3016 041a 2B7E     		ldrb	r3, [r5, #24]	@ zero_extendqisi2
  39:ROSSerial/std_msgs/Time.h ****       this->data.sec |= ((uint32_t) (*(inbuffer + offset + 2))) << (8 * 2);
 3017              		.loc 1 39 0
 3018 041c 6A7E     		ldrb	r2, [r5, #25]	@ zero_extendqisi2
 3019 041e 43EA0223 		orr	r3, r3, r2, lsl #8
  40:ROSSerial/std_msgs/Time.h ****       this->data.sec |= ((uint32_t) (*(inbuffer + offset + 3))) << (8 * 3);
ARM GAS  /var/folders/l3/4y5292px21b4835bsnjwqc7w009kq1/T//ccOXyXY5.s 			page 81


 3020              		.loc 1 40 0
 3021 0422 AA7E     		ldrb	r2, [r5, #26]	@ zero_extendqisi2
 3022 0424 43EA0243 		orr	r3, r3, r2, lsl #16
  41:ROSSerial/std_msgs/Time.h ****       offset += sizeof(this->data.sec);
 3023              		.loc 1 41 0
 3024 0428 EA7E     		ldrb	r2, [r5, #27]	@ zero_extendqisi2
 3025 042a 43EA0263 		orr	r3, r3, r2, lsl #24
 3026              	.LVL355:
  43:ROSSerial/std_msgs/Time.h ****       this->data.nsec |= ((uint32_t) (*(inbuffer + offset + 1))) << (8 * 1);
 3027              		.loc 1 43 0
 3028 042e 297F     		ldrb	r1, [r5, #28]	@ zero_extendqisi2
  44:ROSSerial/std_msgs/Time.h ****       this->data.nsec |= ((uint32_t) (*(inbuffer + offset + 2))) << (8 * 2);
 3029              		.loc 1 44 0
 3030 0430 6A7F     		ldrb	r2, [r5, #29]	@ zero_extendqisi2
 3031 0432 41EA0221 		orr	r1, r1, r2, lsl #8
  45:ROSSerial/std_msgs/Time.h ****       this->data.nsec |= ((uint32_t) (*(inbuffer + offset + 3))) << (8 * 3);
 3032              		.loc 1 45 0
 3033 0436 AA7F     		ldrb	r2, [r5, #30]	@ zero_extendqisi2
 3034 0438 41EA0241 		orr	r1, r1, r2, lsl #16
  46:ROSSerial/std_msgs/Time.h ****       offset += sizeof(this->data.nsec);
 3035              		.loc 1 46 0
 3036 043c EA7F     		ldrb	r2, [r5, #31]	@ zero_extendqisi2
 3037 043e 41EA0261 		orr	r1, r1, r2, lsl #24
 3038              	.LVL356:
 3039              	.LBE413:
 3040              	.LBE412:
 423:ROSSerial/ros/node_handle.h ****     t.data.nsec += (offset % 1000) * 1000000UL;
 3041              		.loc 7 423 0
 3042 0442 6F4E     		ldr	r6, .L203+8
 3043 0444 A6FB0072 		umull	r7, r2, r6, r0
 3044 0448 9209     		lsrs	r2, r2, #6
 3045 044a 1344     		add	r3, r3, r2
 3046 044c 0593     		str	r3, [sp, #20]
 424:ROSSerial/ros/node_handle.h **** 
 3047              		.loc 7 424 0
 3048 044e 4FF47A78 		mov	r8, #1000
 3049 0452 08FB1203 		mls	r3, r8, r2, r0
 3050 0456 6B4F     		ldr	r7, .L203+12
 3051 0458 07FB0313 		mla	r3, r7, r3, r1
 3052 045c 0693     		str	r3, [sp, #24]
 3053              	.LVL357:
 3054              	.LBB414:
 3055              	.LBB415:
 3056              	.LBB416:
 3057              	.LBB417:
 3058              		.loc 8 102 0
 3059 045e FFF7FEFF 		bl	millis
 3060              	.LVL358:
 3061              	.LBE417:
 3062              	.LBE416:
 443:ROSSerial/ros/node_handle.h ****     nsec_offset = new_now.nsec - (ms % 1000) * 1000000UL + 1000000000UL;
 3063              		.loc 7 443 0
 3064 0462 059A     		ldr	r2, [sp, #20]
 3065 0464 A6FB0013 		umull	r1, r3, r6, r0
 3066 0468 9B09     		lsrs	r3, r3, #6
 3067 046a D21A     		subs	r2, r2, r3
 3068 046c 013A     		subs	r2, r2, #1
ARM GAS  /var/folders/l3/4y5292px21b4835bsnjwqc7w009kq1/T//ccOXyXY5.s 			page 82


 3069 046e EA60     		str	r2, [r5, #12]
 444:ROSSerial/ros/node_handle.h ****     normalizeSecNSec(sec_offset, nsec_offset);
 3070              		.loc 7 444 0
 3071 0470 069A     		ldr	r2, [sp, #24]
 3072 0472 08FB1303 		mls	r3, r8, r3, r0
 3073 0476 07FB1323 		mls	r3, r7, r3, r2
 3074 047a 634A     		ldr	r2, .L203+16
 3075 047c 1A44     		add	r2, r2, r3
 3076 047e 2946     		mov	r1, r5
 3077 0480 41F8102F 		str	r2, [r1, #16]!
 445:ROSSerial/ros/node_handle.h ****   }
 3078              		.loc 7 445 0
 3079 0484 05F10C00 		add	r0, r5, #12
 3080              	.LVL359:
 3081 0488 FFF7FEFF 		bl	_ZN3ros16normalizeSecNSecERmS0_
 3082              	.LVL360:
 3083              	.LBE415:
 3084              	.LBE414:
 3085              	.LBB418:
 3086              	.LBB419:
 3087              		.loc 8 102 0
 3088 048c FFF7FEFF 		bl	millis
 3089              	.LVL361:
 3090              	.LBE419:
 3091              	.LBE418:
 427:ROSSerial/ros/node_handle.h ****   }
 3092              		.loc 7 427 0
 3093 0490 C5F82405 		str	r0, [r5, #1316]
 3094 0494 36E6     		b	.L127
 3095              	.LVL362:
 3096              	.L193:
 3097              	.LBE409:
 3098              	.LBE408:
 3099              	.LBB420:
 3100              	.LBB421:
 116:ROSSerial/rosserial_msgs/RequestParam.h ****       if(ints_lengthT > ints_length)
 3101              		.loc 4 116 0
 3102 0496 584B     		ldr	r3, .L203
 3103 0498 1D7E     		ldrb	r5, [r3, #24]	@ zero_extendqisi2
 3104              	.LVL363:
 117:ROSSerial/rosserial_msgs/RequestParam.h ****         this->ints = (int32_t*)realloc(this->ints, ints_lengthT * sizeof(int32_t));
 3105              		.loc 4 117 0
 3106 049a 93F83435 		ldrb	r3, [r3, #1332]	@ zero_extendqisi2
 3107 049e 9D42     		cmp	r5, r3
 3108 04a0 23D8     		bhi	.L197
 3109              	.LVL364:
 3110              	.L156:
 120:ROSSerial/rosserial_msgs/RequestParam.h ****       for( uint8_t i = 0; i < ints_length; i++){
 3111              		.loc 4 120 0
 3112 04a2 554B     		ldr	r3, .L203
 3113 04a4 83F83455 		strb	r5, [r3, #1332]
 3114              	.LVL365:
 3115              	.LBB422:
 121:ROSSerial/rosserial_msgs/RequestParam.h ****       union {
 3116              		.loc 4 121 0
 3117 04a8 0022     		movs	r2, #0
 3118              	.LBE422:
ARM GAS  /var/folders/l3/4y5292px21b4835bsnjwqc7w009kq1/T//ccOXyXY5.s 			page 83


 119:ROSSerial/rosserial_msgs/RequestParam.h ****       ints_length = ints_lengthT;
 3119              		.loc 4 119 0
 3120 04aa 0425     		movs	r5, #4
 3121              	.LVL366:
 3122              	.L158:
 3123              	.LBB424:
 121:ROSSerial/rosserial_msgs/RequestParam.h ****       union {
 3124              		.loc 4 121 0
 3125 04ac 524B     		ldr	r3, .L203
 3126 04ae 93F83435 		ldrb	r3, [r3, #1332]	@ zero_extendqisi2
 3127 04b2 9342     		cmp	r3, r2
 3128 04b4 22D9     		bls	.L157
 3129              	.LBB423:
 127:ROSSerial/rosserial_msgs/RequestParam.h ****       u_st_ints.base |= ((uint32_t) (*(inbuffer + offset + 1))) << (8 * 1);
 3130              		.loc 4 127 0
 3131 04b6 5048     		ldr	r0, .L203
 3132 04b8 00F11801 		add	r1, r0, #24
 3133 04bc 4B5D     		ldrb	r3, [r1, r5]	@ zero_extendqisi2
 128:ROSSerial/rosserial_msgs/RequestParam.h ****       u_st_ints.base |= ((uint32_t) (*(inbuffer + offset + 2))) << (8 * 2);
 3134              		.loc 4 128 0
 3135 04be 6E1C     		adds	r6, r5, #1
 3136 04c0 8E5D     		ldrb	r6, [r1, r6]	@ zero_extendqisi2
 3137 04c2 43EA0623 		orr	r3, r3, r6, lsl #8
 129:ROSSerial/rosserial_msgs/RequestParam.h ****       u_st_ints.base |= ((uint32_t) (*(inbuffer + offset + 3))) << (8 * 3);
 3138              		.loc 4 129 0
 3139 04c6 AE1C     		adds	r6, r5, #2
 3140 04c8 8E5D     		ldrb	r6, [r1, r6]	@ zero_extendqisi2
 3141 04ca 43EA0643 		orr	r3, r3, r6, lsl #16
 130:ROSSerial/rosserial_msgs/RequestParam.h ****       this->st_ints = u_st_ints.real;
 3142              		.loc 4 130 0
 3143 04ce EE1C     		adds	r6, r5, #3
 3144 04d0 895D     		ldrb	r1, [r1, r6]	@ zero_extendqisi2
 3145 04d2 43EA0163 		orr	r3, r3, r1, lsl #24
 131:ROSSerial/rosserial_msgs/RequestParam.h ****       offset += sizeof(this->st_ints);
 3146              		.loc 4 131 0
 3147 04d6 C0F83835 		str	r3, [r0, #1336]
 132:ROSSerial/rosserial_msgs/RequestParam.h ****         memcpy( &(this->ints[i]), &(this->st_ints), sizeof(int32_t));
 3148              		.loc 4 132 0
 3149 04da 0435     		adds	r5, r5, #4
 3150              	.LVL367:
 133:ROSSerial/rosserial_msgs/RequestParam.h ****       }
 3151              		.loc 4 133 0
 3152 04dc D0F83C15 		ldr	r1, [r0, #1340]
 3153 04e0 41F82230 		str	r3, [r1, r2, lsl #2]	@ unaligned
 3154              	.LBE423:
 121:ROSSerial/rosserial_msgs/RequestParam.h ****       union {
 3155              		.loc 4 121 0
 3156 04e4 0132     		adds	r2, r2, #1
 3157              	.LVL368:
 3158 04e6 D2B2     		uxtb	r2, r2
 3159              	.LVL369:
 3160 04e8 E0E7     		b	.L158
 3161              	.LVL370:
 3162              	.L197:
 3163              	.LBE424:
 118:ROSSerial/rosserial_msgs/RequestParam.h ****       offset += 3;
 3164              		.loc 4 118 0
ARM GAS  /var/folders/l3/4y5292px21b4835bsnjwqc7w009kq1/T//ccOXyXY5.s 			page 84


 3165 04ea 434E     		ldr	r6, .L203
 3166 04ec A900     		lsls	r1, r5, #2
 3167 04ee D6F83C05 		ldr	r0, [r6, #1340]
 3168 04f2 FFF7FEFF 		bl	realloc
 3169              	.LVL371:
 3170 04f6 C6F83C05 		str	r0, [r6, #1340]
 3171 04fa D2E7     		b	.L156
 3172              	.LVL372:
 3173              	.L157:
 135:ROSSerial/rosserial_msgs/RequestParam.h ****       if(floats_lengthT > floats_length)
 3174              		.loc 4 135 0
 3175 04fc 3E4B     		ldr	r3, .L203
 3176 04fe 03F11802 		add	r2, r3, #24
 3177              	.LVL373:
 3178 0502 565D     		ldrb	r6, [r2, r5]	@ zero_extendqisi2
 3179              	.LVL374:
 136:ROSSerial/rosserial_msgs/RequestParam.h ****         this->floats = (float*)realloc(this->floats, floats_lengthT * sizeof(float));
 3180              		.loc 4 136 0
 3181 0504 93F84035 		ldrb	r3, [r3, #1344]	@ zero_extendqisi2
 3182 0508 9E42     		cmp	r6, r3
 3183 050a 24D8     		bhi	.L198
 3184              	.L159:
 138:ROSSerial/rosserial_msgs/RequestParam.h ****       floats_length = floats_lengthT;
 3185              		.loc 4 138 0
 3186 050c 0435     		adds	r5, r5, #4
 3187              	.LVL375:
 139:ROSSerial/rosserial_msgs/RequestParam.h ****       for( uint8_t i = 0; i < floats_length; i++){
 3188              		.loc 4 139 0
 3189 050e 3A4B     		ldr	r3, .L203
 3190 0510 83F84065 		strb	r6, [r3, #1344]
 3191              	.LVL376:
 3192              	.LBB425:
 140:ROSSerial/rosserial_msgs/RequestParam.h ****       union {
 3193              		.loc 4 140 0
 3194 0514 0022     		movs	r2, #0
 3195              	.LVL377:
 3196              	.L161:
 3197 0516 384B     		ldr	r3, .L203
 3198 0518 93F84035 		ldrb	r3, [r3, #1344]	@ zero_extendqisi2
 3199 051c 9342     		cmp	r3, r2
 3200 051e 24D9     		bls	.L160
 3201              	.LBB426:
 146:ROSSerial/rosserial_msgs/RequestParam.h ****       u_st_floats.base |= ((uint32_t) (*(inbuffer + offset + 1))) << (8 * 1);
 3202              		.loc 4 146 0
 3203 0520 3548     		ldr	r0, .L203
 3204 0522 00F11801 		add	r1, r0, #24
 3205 0526 4B5D     		ldrb	r3, [r1, r5]	@ zero_extendqisi2
 147:ROSSerial/rosserial_msgs/RequestParam.h ****       u_st_floats.base |= ((uint32_t) (*(inbuffer + offset + 2))) << (8 * 2);
 3206              		.loc 4 147 0
 3207 0528 6E1C     		adds	r6, r5, #1
 3208 052a 8E5D     		ldrb	r6, [r1, r6]	@ zero_extendqisi2
 3209 052c 43EA0623 		orr	r3, r3, r6, lsl #8
 148:ROSSerial/rosserial_msgs/RequestParam.h ****       u_st_floats.base |= ((uint32_t) (*(inbuffer + offset + 3))) << (8 * 3);
 3210              		.loc 4 148 0
 3211 0530 AE1C     		adds	r6, r5, #2
 3212 0532 8E5D     		ldrb	r6, [r1, r6]	@ zero_extendqisi2
 3213 0534 43EA0643 		orr	r3, r3, r6, lsl #16
ARM GAS  /var/folders/l3/4y5292px21b4835bsnjwqc7w009kq1/T//ccOXyXY5.s 			page 85


 149:ROSSerial/rosserial_msgs/RequestParam.h ****       this->st_floats = u_st_floats.real;
 3214              		.loc 4 149 0
 3215 0538 EE1C     		adds	r6, r5, #3
 3216 053a 895D     		ldrb	r1, [r1, r6]	@ zero_extendqisi2
 3217 053c 43EA0163 		orr	r3, r3, r1, lsl #24
 150:ROSSerial/rosserial_msgs/RequestParam.h ****       offset += sizeof(this->st_floats);
 3218              		.loc 4 150 0
 3219 0540 00F24451 		addw	r1, r0, #1348
 3220 0544 0B60     		str	r3, [r1]	@ float
 151:ROSSerial/rosserial_msgs/RequestParam.h ****         memcpy( &(this->floats[i]), &(this->st_floats), sizeof(float));
 3221              		.loc 4 151 0
 3222 0546 0435     		adds	r5, r5, #4
 3223              	.LVL378:
 152:ROSSerial/rosserial_msgs/RequestParam.h ****       }
 3224              		.loc 4 152 0
 3225 0548 D0F84815 		ldr	r1, [r0, #1352]
 3226 054c 41F82230 		str	r3, [r1, r2, lsl #2]	@ unaligned
 3227              	.LBE426:
 140:ROSSerial/rosserial_msgs/RequestParam.h ****       union {
 3228              		.loc 4 140 0
 3229 0550 0132     		adds	r2, r2, #1
 3230              	.LVL379:
 3231 0552 D2B2     		uxtb	r2, r2
 3232              	.LVL380:
 3233 0554 DFE7     		b	.L161
 3234              	.LVL381:
 3235              	.L198:
 3236              	.LBE425:
 137:ROSSerial/rosserial_msgs/RequestParam.h ****       offset += 3;
 3237              		.loc 4 137 0
 3238 0556 A2F11807 		sub	r7, r2, #24
 3239 055a B100     		lsls	r1, r6, #2
 3240 055c D7F84805 		ldr	r0, [r7, #1352]
 3241 0560 FFF7FEFF 		bl	realloc
 3242              	.LVL382:
 3243 0564 C7F84805 		str	r0, [r7, #1352]
 3244 0568 D0E7     		b	.L159
 3245              	.LVL383:
 3246              	.L160:
 154:ROSSerial/rosserial_msgs/RequestParam.h ****       if(strings_lengthT > strings_length)
 3247              		.loc 4 154 0
 3248 056a 234B     		ldr	r3, .L203
 3249 056c 03F11802 		add	r2, r3, #24
 3250              	.LVL384:
 3251 0570 565D     		ldrb	r6, [r2, r5]	@ zero_extendqisi2
 3252              	.LVL385:
 155:ROSSerial/rosserial_msgs/RequestParam.h ****         this->strings = (char**)realloc(this->strings, strings_lengthT * sizeof(char*));
 3253              		.loc 4 155 0
 3254 0572 93F84C35 		ldrb	r3, [r3, #1356]	@ zero_extendqisi2
 3255 0576 9E42     		cmp	r6, r3
 3256 0578 05D8     		bhi	.L199
 3257              	.L162:
 157:ROSSerial/rosserial_msgs/RequestParam.h ****       strings_length = strings_lengthT;
 3258              		.loc 4 157 0
 3259 057a 2A1D     		adds	r2, r5, #4
 3260              	.LVL386:
 158:ROSSerial/rosserial_msgs/RequestParam.h ****       for( uint8_t i = 0; i < strings_length; i++){
ARM GAS  /var/folders/l3/4y5292px21b4835bsnjwqc7w009kq1/T//ccOXyXY5.s 			page 86


 3261              		.loc 4 158 0
 3262 057c 1E4B     		ldr	r3, .L203
 3263 057e 83F84C65 		strb	r6, [r3, #1356]
 3264              	.LVL387:
 3265              	.LBB427:
 159:ROSSerial/rosserial_msgs/RequestParam.h ****       uint32_t length_st_strings;
 3266              		.loc 4 159 0
 3267 0582 0027     		movs	r7, #0
 3268 0584 19E0     		b	.L166
 3269              	.LVL388:
 3270              	.L199:
 3271              	.LBE427:
 156:ROSSerial/rosserial_msgs/RequestParam.h ****       offset += 3;
 3272              		.loc 4 156 0
 3273 0586 A2F11807 		sub	r7, r2, #24
 3274 058a B100     		lsls	r1, r6, #2
 3275 058c D7F85405 		ldr	r0, [r7, #1364]
 3276 0590 FFF7FEFF 		bl	realloc
 3277              	.LVL389:
 3278 0594 C7F85405 		str	r0, [r7, #1364]
 3279 0598 EFE7     		b	.L162
 3280              	.LVL390:
 3281              	.L164:
 3282              	.LBB431:
 3283              	.LBB428:
 166:ROSSerial/rosserial_msgs/RequestParam.h ****       this->st_strings = (char *)(inbuffer + offset-1);
 3284              		.loc 4 166 0
 3285 059a 1749     		ldr	r1, .L203
 3286 059c 01F11803 		add	r3, r1, #24
 3287              	.LVL391:
 3288 05a0 501E     		subs	r0, r2, #1
 3289 05a2 0026     		movs	r6, #0
 3290              	.LVL392:
 3291 05a4 1E54     		strb	r6, [r3, r0]
 167:ROSSerial/rosserial_msgs/RequestParam.h ****       offset += length_st_strings;
 3292              		.loc 4 167 0
 3293 05a6 013D     		subs	r5, r5, #1
 3294 05a8 1D44     		add	r5, r5, r3
 3295 05aa C1F85055 		str	r5, [r1, #1360]
 3296              	.LVL393:
 169:ROSSerial/rosserial_msgs/RequestParam.h ****       }
 3297              		.loc 4 169 0
 3298 05ae D1F85435 		ldr	r3, [r1, #1364]
 3299 05b2 43F82750 		str	r5, [r3, r7, lsl #2]	@ unaligned
 3300              	.LBE428:
 159:ROSSerial/rosserial_msgs/RequestParam.h ****       uint32_t length_st_strings;
 3301              		.loc 4 159 0
 3302 05b6 0137     		adds	r7, r7, #1
 3303              	.LVL394:
 3304 05b8 FFB2     		uxtb	r7, r7
 3305              	.LVL395:
 3306              	.L166:
 3307 05ba 0F4B     		ldr	r3, .L203
 3308 05bc 93F84C35 		ldrb	r3, [r3, #1356]	@ zero_extendqisi2
 3309 05c0 BB42     		cmp	r3, r7
 3310 05c2 0FD9     		bls	.L163
 3311              	.LBB430:
ARM GAS  /var/folders/l3/4y5292px21b4835bsnjwqc7w009kq1/T//ccOXyXY5.s 			page 87


 161:ROSSerial/rosserial_msgs/RequestParam.h ****       offset += 4;
 3312              		.loc 4 161 0
 3313 05c4 114B     		ldr	r3, .L203+20
 3314 05c6 9E58     		ldr	r6, [r3, r2]	@ unaligned
 3315              	.LVL396:
 162:ROSSerial/rosserial_msgs/RequestParam.h ****       for(unsigned int k= offset; k< offset+length_st_strings; ++k){
 3316              		.loc 4 162 0
 3317 05c8 151D     		adds	r5, r2, #4
 3318              	.LVL397:
 3319              	.LBB429:
 163:ROSSerial/rosserial_msgs/RequestParam.h ****           inbuffer[k-1]=inbuffer[k];
 3320              		.loc 4 163 0
 3321 05ca 2B46     		mov	r3, r5
 3322              	.LVL398:
 3323              	.L165:
 3324 05cc 7219     		adds	r2, r6, r5
 3325 05ce 9A42     		cmp	r2, r3
 3326 05d0 E3D9     		bls	.L164
 164:ROSSerial/rosserial_msgs/RequestParam.h ****       }
 3327              		.loc 4 164 0
 3328 05d2 094A     		ldr	r2, .L203
 3329 05d4 02F11800 		add	r0, r2, #24
 3330 05d8 591E     		subs	r1, r3, #1
 3331 05da 1A44     		add	r2, r2, r3
 3332 05dc 127E     		ldrb	r2, [r2, #24]	@ zero_extendqisi2
 3333 05de 4254     		strb	r2, [r0, r1]
 163:ROSSerial/rosserial_msgs/RequestParam.h ****           inbuffer[k-1]=inbuffer[k];
 3334              		.loc 4 163 0
 3335 05e0 0133     		adds	r3, r3, #1
 3336              	.LVL399:
 3337 05e2 F3E7     		b	.L165
 3338              	.LVL400:
 3339              	.L163:
 3340              	.LBE429:
 3341              	.LBE430:
 3342              	.LBE431:
 3343              	.LBE421:
 3344              	.LBE420:
 372:ROSSerial/ros/node_handle.h ****           }
 3345              		.loc 7 372 0
 3346 05e4 044B     		ldr	r3, .L203
 3347 05e6 0122     		movs	r2, #1
 3348 05e8 83F82C25 		strb	r2, [r3, #1324]
 3349 05ec 8AE5     		b	.L127
 3350              	.LVL401:
 3351              	.L194:
 376:ROSSerial/ros/node_handle.h ****           }
 3352              		.loc 7 376 0
 3353 05ee 024B     		ldr	r3, .L203
 3354 05f0 0022     		movs	r2, #0
 3355 05f2 83F81C25 		strb	r2, [r3, #1308]
 3356 05f6 85E5     		b	.L127
 3357              	.L204:
 3358              		.align	2
 3359              	.L203:
 3360 05f8 00000000 		.word	.LANCHOR1
 3361 05fc 08000000 		.word	_ZTVN14rosserial_msgs9TopicInfoE+8
ARM GAS  /var/folders/l3/4y5292px21b4835bsnjwqc7w009kq1/T//ccOXyXY5.s 			page 88


 3362 0600 D34D6210 		.word	274877907
 3363 0604 40420F00 		.word	1000000
 3364 0608 00CA9A3B 		.word	1000000000
 3365 060c 18000000 		.word	.LANCHOR1+24
 3366              	.LVL402:
 3367              	.L182:
 3368              	.LBE371:
 3369              	.LBB432:
 3370              	.LBB433:
 3371              	.LBB434:
 3372              	.LBB435:
  14:ROSSerial/std_msgs/Time.h ****   {
 3373              		.loc 1 14 0
 3374 0610 614B     		ldr	r3, .L205
 3375 0612 0193     		str	r3, [sp, #4]
 3376              	.LVL403:
 3377              	.LBB436:
 3378              	.LBB437:
 3379              	.LBB438:
 3380              		.loc 9 51 0
 3381 0614 0025     		movs	r5, #0
 3382 0616 0295     		str	r5, [sp, #8]
 3383 0618 0395     		str	r5, [sp, #12]
 3384              	.LVL404:
 3385              	.LBE438:
 3386              	.LBE437:
 3387              	.LBE436:
 3388              	.LBE435:
 3389              	.LBE434:
 3390              	.LBB439:
 3391              	.LBB440:
 609:ROSSerial/ros/node_handle.h **** 
 3392              		.loc 7 609 0
 3393 061a 604E     		ldr	r6, .L205+4
 3394 061c 1B68     		ldr	r3, [r3]
 3395 061e 06F21F21 		addw	r1, r6, #543
 3396 0622 01A8     		add	r0, sp, #4
 3397              	.LVL405:
 3398 0624 9847     		blx	r3
 3399              	.LVL406:
 612:ROSSerial/ros/node_handle.h ****     message_out[1] = PROTOCOL_VER;
 3400              		.loc 7 612 0
 3401 0626 FF23     		movs	r3, #255
 3402 0628 86F81832 		strb	r3, [r6, #536]
 613:ROSSerial/ros/node_handle.h ****     message_out[2] = (uint8_t)((uint16_t)l & 255);
 3403              		.loc 7 613 0
 3404 062c FE23     		movs	r3, #254
 3405 062e 86F81932 		strb	r3, [r6, #537]
 614:ROSSerial/ros/node_handle.h ****     message_out[3] = (uint8_t)((uint16_t)l >> 8);
 3406              		.loc 7 614 0
 3407 0632 C3B2     		uxtb	r3, r0
 3408 0634 86F81A32 		strb	r3, [r6, #538]
 615:ROSSerial/ros/node_handle.h ****     message_out[4] = 255 - ((message_out[2] + message_out[3]) % 256);
 3409              		.loc 7 615 0
 3410 0638 C0F30722 		ubfx	r2, r0, #8, #8
 3411 063c 86F81B22 		strb	r2, [r6, #539]
 616:ROSSerial/ros/node_handle.h ****     message_out[5] = (uint8_t)((int16_t)id & 255);
ARM GAS  /var/folders/l3/4y5292px21b4835bsnjwqc7w009kq1/T//ccOXyXY5.s 			page 89


 3412              		.loc 7 616 0
 3413 0640 1344     		add	r3, r3, r2
 3414 0642 DBB2     		uxtb	r3, r3
 3415 0644 DB43     		mvns	r3, r3
 3416 0646 86F81C32 		strb	r3, [r6, #540]
 617:ROSSerial/ros/node_handle.h ****     message_out[6] = (uint8_t)((int16_t)id >> 8);
 3417              		.loc 7 617 0
 3418 064a 0A23     		movs	r3, #10
 3419 064c 86F81D32 		strb	r3, [r6, #541]
 618:ROSSerial/ros/node_handle.h **** 
 3420              		.loc 7 618 0
 3421 0650 86F81E52 		strb	r5, [r6, #542]
 3422              	.LVL407:
 3423              	.LBB441:
 622:ROSSerial/ros/node_handle.h ****       chk += message_out[i];
 3424              		.loc 7 622 0
 3425 0654 0522     		movs	r2, #5
 3426              	.LBE441:
 621:ROSSerial/ros/node_handle.h ****     for (int i = 5; i < l + 7; i++)
 3427              		.loc 7 621 0
 3428 0656 2B46     		mov	r3, r5
 3429 0658 05E0     		b	.L169
 3430              	.LVL408:
 3431              	.L200:
 3432              	.LBB442:
 623:ROSSerial/ros/node_handle.h ****     l += 7;
 3433              		.loc 7 623 0
 3434 065a 5049     		ldr	r1, .L205+4
 3435 065c 1144     		add	r1, r1, r2
 3436 065e 91F81812 		ldrb	r1, [r1, #536]	@ zero_extendqisi2
 3437 0662 0B44     		add	r3, r3, r1
 3438              	.LVL409:
 622:ROSSerial/ros/node_handle.h ****       chk += message_out[i];
 3439              		.loc 7 622 0
 3440 0664 0132     		adds	r2, r2, #1
 3441              	.LVL410:
 3442              	.L169:
 3443 0666 C11D     		adds	r1, r0, #7
 3444 0668 9142     		cmp	r1, r2
 3445 066a F6DC     		bgt	.L200
 3446              	.LVL411:
 3447              	.LBE442:
 625:ROSSerial/ros/node_handle.h ****     //printf("Sending message - %s\n",msg->getType());
 3448              		.loc 7 625 0
 3449 066c 5A42     		rsbs	r2, r3, #0
 3450              	.LVL412:
 3451 066e DBB2     		uxtb	r3, r3
 3452              	.LVL413:
 3453 0670 D2B2     		uxtb	r2, r2
 3454 0672 58BF     		it	pl
 3455 0674 5342     		rsbpl	r3, r2, #0
 3456 0676 00F10802 		add	r2, r0, #8
 3457              	.LVL414:
 3458 067a DB43     		mvns	r3, r3
 3459 067c 4748     		ldr	r0, .L205+4
 3460 067e 0144     		add	r1, r1, r0
 3461 0680 81F81832 		strb	r3, [r1, #536]
ARM GAS  /var/folders/l3/4y5292px21b4835bsnjwqc7w009kq1/T//ccOXyXY5.s 			page 90


 627:ROSSerial/ros/node_handle.h ****     {
 3462              		.loc 7 627 0
 3463 0684 B2F5007F 		cmp	r2, #512
 3464 0688 0CDC     		bgt	.L170
 3465              	.LVL415:
 3466              	.LBB443:
 3467              	.LBB444:
  89:ROSSerial/AT32hardware.h **** 	}
 3468              		.loc 8 89 0
 3469 068a 92B2     		uxth	r2, r2
 3470              	.LVL416:
 3471 068c 00F50671 		add	r1, r0, #536
 3472              	.LVL417:
 3473 0690 0120     		movs	r0, #1
 3474 0692 FFF7FEFF 		bl	comSendBuf
 3475              	.LVL418:
 3476              	.L171:
 3477              	.LBE444:
 3478              	.LBE443:
 3479              	.LBE440:
 3480              	.LBE439:
 3481              	.LBB451:
 3482              	.LBB452:
 3483              		.loc 8 102 0
 3484 0696 FFF7FEFF 		bl	millis
 3485              	.LVL419:
 3486              	.LBE452:
 3487              	.LBE451:
 414:ROSSerial/ros/node_handle.h ****   }
 3488              		.loc 7 414 0
 3489 069a 404B     		ldr	r3, .L205+4
 3490 069c 9860     		str	r0, [r3, #8]
 3491              	.LVL420:
 3492              	.LBE433:
 3493              	.LBE432:
 393:ROSSerial/ros/node_handle.h ****     }
 3494              		.loc 7 393 0
 3495 069e C3F82045 		str	r4, [r3, #1312]
 3496 06a2 DCE4     		b	.L129
 3497              	.LVL421:
 3498              	.L170:
 3499              	.LBB455:
 3500              	.LBB454:
 3501              	.LBB453:
 3502              	.LBB450:
 3503              	.LBB445:
 3504              	.LBB446:
 3505              	.LBB447:
 3506              	.LBB448:
 3507              	.LBB449:
  13:ROSSerial/rosserial_msgs/Log.h ****   {
 3508              		.loc 3 13 0
 3509 06a4 3E4B     		ldr	r3, .L205+8
 3510 06a6 0493     		str	r3, [sp, #16]
 3511              	.LVL422:
 3512              	.LBE449:
 3513              	.LBE448:
ARM GAS  /var/folders/l3/4y5292px21b4835bsnjwqc7w009kq1/T//ccOXyXY5.s 			page 91


 647:ROSSerial/ros/node_handle.h ****     l.msg = (char*)msg;
 3514              		.loc 7 647 0
 3515 06a8 0323     		movs	r3, #3
 3516 06aa 8DF81430 		strb	r3, [sp, #20]
 648:ROSSerial/ros/node_handle.h ****     publish1(rosserial_msgs::TopicInfo::ID_LOG, &l);
 3517              		.loc 7 648 0
 3518 06ae 3D4B     		ldr	r3, .L205+12
 3519 06b0 0693     		str	r3, [sp, #24]
 3520              		.loc 7 649 0
 3521 06b2 04AA     		add	r2, sp, #16
 3522              	.LVL423:
 3523 06b4 0721     		movs	r1, #7
 3524              	.LVL424:
 3525 06b6 3948     		ldr	r0, .L205+4
 3526 06b8 FFF7FEFF 		bl	_ZN3ros11NodeHandle_I13STM32HardwareLi5ELi5ELi512ELi512EE8publish1EiPNS_3MsgE
 3527              	.LVL425:
 3528 06bc EBE7     		b	.L171
 3529              	.LVL426:
 3530              	.L174:
 3531              	.LBE447:
 3532              	.LBE446:
 3533              	.LBE445:
 3534              	.LBE450:
 3535              	.LBE453:
 3536              	.LBE454:
 3537              	.LBE455:
 3538              	.LBE456:
 3539              	.LBE482:
 3540              	.LBB483:
 3541              	.LBB480:
 625:ROSSerial/ros/node_handle.h ****     //printf("Sending message - %s\n",msg->getType());
 3542              		.loc 7 625 0
 3543 06be 4B42     		rsbs	r3, r1, #0
 3544              	.LVL427:
 3545 06c0 C9B2     		uxtb	r1, r1
 3546              	.LVL428:
 3547 06c2 DBB2     		uxtb	r3, r3
 3548 06c4 58BF     		it	pl
 3549 06c6 5942     		rsbpl	r1, r3, #0
 3550 06c8 00F10802 		add	r2, r0, #8
 3551              	.LVL429:
 3552 06cc C943     		mvns	r1, r1
 3553 06ce 334B     		ldr	r3, .L205+4
 3554 06d0 1C44     		add	r4, r4, r3
 3555 06d2 84F81812 		strb	r1, [r4, #536]
 627:ROSSerial/ros/node_handle.h ****     {
 3556              		.loc 7 627 0
 3557 06d6 B2F5007F 		cmp	r2, #512
 3558 06da 09DC     		bgt	.L176
 3559              	.LVL430:
 3560              	.LBB463:
 3561              	.LBB464:
  89:ROSSerial/AT32hardware.h **** 	}
 3562              		.loc 8 89 0
 3563 06dc 92B2     		uxth	r2, r2
 3564              	.LVL431:
 3565 06de 03F50671 		add	r1, r3, #536
ARM GAS  /var/folders/l3/4y5292px21b4835bsnjwqc7w009kq1/T//ccOXyXY5.s 			page 92


 3566 06e2 0120     		movs	r0, #1
 3567              	.LVL432:
 3568 06e4 FFF7FEFF 		bl	comSendBuf
 3569              	.LVL433:
 3570              	.L124:
 3571              	.LBE464:
 3572              	.LBE463:
 3573              	.LBE480:
 3574              	.LBE483:
 3575              		.loc 6 37 0
 3576 06e8 0DF50C7D 		add	sp, sp, #560
 3577              	.LCFI24:
 3578              		.cfi_remember_state
 3579              		.cfi_def_cfa_offset 24
 3580              		@ sp needed
 3581 06ec BDE8F081 		pop	{r4, r5, r6, r7, r8, pc}
 3582              	.LVL434:
 3583              	.L176:
 3584              	.LCFI25:
 3585              		.cfi_restore_state
 3586              	.LBB484:
 3587              	.LBB481:
 3588              	.LBB465:
 3589              	.LBB466:
 3590              	.LBB467:
 3591              	.LBB468:
 3592              	.LBB469:
  13:ROSSerial/rosserial_msgs/Log.h ****   {
 3593              		.loc 3 13 0
 3594 06f0 2B4B     		ldr	r3, .L205+8
 3595 06f2 0193     		str	r3, [sp, #4]
 3596              	.LVL435:
 3597              	.LBE469:
 3598              	.LBE468:
 647:ROSSerial/ros/node_handle.h ****     l.msg = (char*)msg;
 3599              		.loc 7 647 0
 3600 06f4 0322     		movs	r2, #3
 3601              	.LVL436:
 3602 06f6 8DF80820 		strb	r2, [sp, #8]
 648:ROSSerial/ros/node_handle.h ****     publish1(rosserial_msgs::TopicInfo::ID_LOG, &l);
 3603              		.loc 7 648 0
 3604 06fa 2A4A     		ldr	r2, .L205+12
 3605 06fc 0392     		str	r2, [sp, #12]
 3606              	.LVL437:
 3607              	.LBB470:
 3608              	.LBB471:
 609:ROSSerial/ros/node_handle.h **** 
 3609              		.loc 7 609 0
 3610 06fe 274C     		ldr	r4, .L205+4
 3611 0700 1B68     		ldr	r3, [r3]
 3612 0702 04F21F21 		addw	r1, r4, #543
 3613 0706 01A8     		add	r0, sp, #4
 3614              	.LVL438:
 3615 0708 9847     		blx	r3
 3616              	.LVL439:
 612:ROSSerial/ros/node_handle.h ****     message_out[1] = PROTOCOL_VER;
 3617              		.loc 7 612 0
ARM GAS  /var/folders/l3/4y5292px21b4835bsnjwqc7w009kq1/T//ccOXyXY5.s 			page 93


 3618 070a FF23     		movs	r3, #255
 3619 070c 84F81832 		strb	r3, [r4, #536]
 613:ROSSerial/ros/node_handle.h ****     message_out[2] = (uint8_t)((uint16_t)l & 255);
 3620              		.loc 7 613 0
 3621 0710 FE23     		movs	r3, #254
 3622 0712 84F81932 		strb	r3, [r4, #537]
 614:ROSSerial/ros/node_handle.h ****     message_out[3] = (uint8_t)((uint16_t)l >> 8);
 3623              		.loc 7 614 0
 3624 0716 C3B2     		uxtb	r3, r0
 3625 0718 84F81A32 		strb	r3, [r4, #538]
 615:ROSSerial/ros/node_handle.h ****     message_out[4] = 255 - ((message_out[2] + message_out[3]) % 256);
 3626              		.loc 7 615 0
 3627 071c C0F30722 		ubfx	r2, r0, #8, #8
 3628 0720 84F81B22 		strb	r2, [r4, #539]
 616:ROSSerial/ros/node_handle.h ****     message_out[5] = (uint8_t)((int16_t)id & 255);
 3629              		.loc 7 616 0
 3630 0724 1344     		add	r3, r3, r2
 3631 0726 DBB2     		uxtb	r3, r3
 3632 0728 DB43     		mvns	r3, r3
 3633 072a 84F81C32 		strb	r3, [r4, #540]
 617:ROSSerial/ros/node_handle.h ****     message_out[6] = (uint8_t)((int16_t)id >> 8);
 3634              		.loc 7 617 0
 3635 072e 0723     		movs	r3, #7
 3636 0730 84F81D32 		strb	r3, [r4, #541]
 618:ROSSerial/ros/node_handle.h **** 
 3637              		.loc 7 618 0
 3638 0734 0023     		movs	r3, #0
 3639 0736 84F81E32 		strb	r3, [r4, #542]
 3640              	.LVL440:
 3641              	.LBB472:
 622:ROSSerial/ros/node_handle.h ****       chk += message_out[i];
 3642              		.loc 7 622 0
 3643 073a 0522     		movs	r2, #5
 3644              	.LVL441:
 3645              	.L178:
 3646 073c C11D     		adds	r1, r0, #7
 3647 073e 9142     		cmp	r1, r2
 3648 0740 06DD     		ble	.L177
 623:ROSSerial/ros/node_handle.h ****     l += 7;
 3649              		.loc 7 623 0
 3650 0742 1649     		ldr	r1, .L205+4
 3651 0744 1144     		add	r1, r1, r2
 3652 0746 91F81812 		ldrb	r1, [r1, #536]	@ zero_extendqisi2
 3653 074a 0B44     		add	r3, r3, r1
 3654              	.LVL442:
 622:ROSSerial/ros/node_handle.h ****       chk += message_out[i];
 3655              		.loc 7 622 0
 3656 074c 0132     		adds	r2, r2, #1
 3657              	.LVL443:
 3658 074e F5E7     		b	.L178
 3659              	.L177:
 3660              	.LVL444:
 3661              	.LBE472:
 625:ROSSerial/ros/node_handle.h ****     //printf("Sending message - %s\n",msg->getType());
 3662              		.loc 7 625 0
 3663 0750 5A42     		rsbs	r2, r3, #0
 3664              	.LVL445:
ARM GAS  /var/folders/l3/4y5292px21b4835bsnjwqc7w009kq1/T//ccOXyXY5.s 			page 94


 3665 0752 DBB2     		uxtb	r3, r3
 3666              	.LVL446:
 3667 0754 D2B2     		uxtb	r2, r2
 3668 0756 58BF     		it	pl
 3669 0758 5342     		rsbpl	r3, r2, #0
 3670 075a 00F10802 		add	r2, r0, #8
 3671              	.LVL447:
 3672 075e DB43     		mvns	r3, r3
 3673 0760 0E48     		ldr	r0, .L205+4
 3674 0762 0144     		add	r1, r1, r0
 3675 0764 81F81832 		strb	r3, [r1, #536]
 627:ROSSerial/ros/node_handle.h ****     {
 3676              		.loc 7 627 0
 3677 0768 B2F5007F 		cmp	r2, #512
 3678 076c 06DC     		bgt	.L179
 3679              	.LVL448:
 3680              	.LBB473:
 3681              	.LBB474:
  89:ROSSerial/AT32hardware.h **** 	}
 3682              		.loc 8 89 0
 3683 076e 92B2     		uxth	r2, r2
 3684              	.LVL449:
 3685 0770 00F50671 		add	r1, r0, #536
 3686              	.LVL450:
 3687 0774 0120     		movs	r0, #1
 3688 0776 FFF7FEFF 		bl	comSendBuf
 3689              	.LVL451:
 3690 077a B5E7     		b	.L124
 3691              	.LVL452:
 3692              	.L179:
 3693              	.LBE474:
 3694              	.LBE473:
 3695              	.LBB475:
 3696              	.LBB476:
 3697              	.LBB477:
 3698              	.LBB478:
 3699              	.LBB479:
  13:ROSSerial/rosserial_msgs/Log.h ****   {
 3700              		.loc 3 13 0
 3701 077c 084B     		ldr	r3, .L205+8
 3702 077e 0493     		str	r3, [sp, #16]
 3703              	.LVL453:
 3704              	.LBE479:
 3705              	.LBE478:
 647:ROSSerial/ros/node_handle.h ****     l.msg = (char*)msg;
 3706              		.loc 7 647 0
 3707 0780 0323     		movs	r3, #3
 3708 0782 8DF81430 		strb	r3, [sp, #20]
 648:ROSSerial/ros/node_handle.h ****     publish1(rosserial_msgs::TopicInfo::ID_LOG, &l);
 3709              		.loc 7 648 0
 3710 0786 074B     		ldr	r3, .L205+12
 3711 0788 0693     		str	r3, [sp, #24]
 3712              		.loc 7 649 0
 3713 078a 04AA     		add	r2, sp, #16
 3714              	.LVL454:
 3715 078c 0721     		movs	r1, #7
 3716              	.LVL455:
ARM GAS  /var/folders/l3/4y5292px21b4835bsnjwqc7w009kq1/T//ccOXyXY5.s 			page 95


 3717 078e 0348     		ldr	r0, .L205+4
 3718 0790 FFF7FEFF 		bl	_ZN3ros11NodeHandle_I13STM32HardwareLi5ELi5ELi512ELi512EE8publish1EiPNS_3MsgE
 3719              	.LVL456:
 3720              	.LBE477:
 3721              	.LBE476:
 3722              	.LBE475:
 3723              	.LBE471:
 3724              	.LBE470:
 3725              	.LBE467:
 3726              	.LBE466:
 3727              	.LBE465:
 3728              	.LBE481:
 3729              	.LBE484:
 3730              		.loc 6 37 0
 3731 0794 A8E7     		b	.L124
 3732              	.L206:
 3733 0796 00BF     		.align	2
 3734              	.L205:
 3735 0798 08000000 		.word	_ZTVN8std_msgs4TimeE+8
 3736 079c 00000000 		.word	.LANCHOR1
 3737 07a0 08000000 		.word	_ZTVN14rosserial_msgs3LogE+8
 3738 07a4 00000000 		.word	.LC10
 3739              		.cfi_endproc
 3740              	.LFE481:
 3741              		.fnend
 3743              		.section	.text._ZN3ros11NodeHandle_I13STM32HardwareLi5ELi5ELi512ELi512EE8spinOnceEv,"axG",%progbit
 3744              		.align	1
 3745              		.weak	_ZN3ros11NodeHandle_I13STM32HardwareLi5ELi5ELi512ELi512EE8spinOnceEv
 3746              		.syntax unified
 3747              		.thumb
 3748              		.thumb_func
 3749              		.fpu fpv4-sp-d16
 3751              	_ZN3ros11NodeHandle_I13STM32HardwareLi5ELi5ELi512ELi512EE8spinOnceEv:
 3752              		.fnstart
 3753              	.LFB512:
 238:ROSSerial/ros/node_handle.h ****     return spinOnce1();
 3754              		.loc 7 238 0
 3755              		.cfi_startproc
 3756              		@ args = 0, pretend = 0, frame = 40
 3757              		@ frame_needed = 0, uses_anonymous_args = 0
 3758              	.LVL457:
 3759 0000 2DE9F043 		push	{r4, r5, r6, r7, r8, r9, lr}
 3760              		.save {r4, r5, r6, r7, r8, r9, lr}
 3761              	.LCFI26:
 3762              		.cfi_def_cfa_offset 28
 3763              		.cfi_offset 4, -28
 3764              		.cfi_offset 5, -24
 3765              		.cfi_offset 6, -20
 3766              		.cfi_offset 7, -16
 3767              		.cfi_offset 8, -12
 3768              		.cfi_offset 9, -8
 3769              		.cfi_offset 14, -4
 3770              		.pad #44
 3771 0004 8BB0     		sub	sp, sp, #44
 3772              	.LCFI27:
 3773              		.cfi_def_cfa_offset 72
 3774 0006 0446     		mov	r4, r0
ARM GAS  /var/folders/l3/4y5292px21b4835bsnjwqc7w009kq1/T//ccOXyXY5.s 			page 96


 3775              	.LVL458:
 3776              	.LBB570:
 3777              	.LBB571:
 3778              	.LBB572:
 3779              	.LBB573:
 3780              		.loc 8 102 0
 3781 0008 FFF7FEFF 		bl	millis
 3782              	.LVL459:
 3783 000c 0546     		mov	r5, r0
 3784              	.LVL460:
 3785              	.LBE573:
 3786              	.LBE572:
 252:ROSSerial/ros/node_handle.h ****     {
 3787              		.loc 7 252 0
 3788 000e D4F82435 		ldr	r3, [r4, #1316]
 3789 0012 C31A     		subs	r3, r0, r3
 3790 0014 42F6F822 		movw	r2, #11000
 3791 0018 9342     		cmp	r3, r2
 3792 001a 02D9     		bls	.L208
 254:ROSSerial/ros/node_handle.h ****     }
 3793              		.loc 7 254 0
 3794 001c 0023     		movs	r3, #0
 3795 001e 84F81C35 		strb	r3, [r4, #1308]
 3796              	.L208:
 258:ROSSerial/ros/node_handle.h ****     {
 3797              		.loc 7 258 0
 3798 0022 D4F80835 		ldr	r3, [r4, #1288]
 3799 0026 33B3     		cbz	r3, .L210
 260:ROSSerial/ros/node_handle.h ****       {
 3800              		.loc 7 260 0
 3801 0028 D4F82835 		ldr	r3, [r4, #1320]
 3802 002c 9D42     		cmp	r5, r3
 3803 002e 22D9     		bls	.L210
 262:ROSSerial/ros/node_handle.h ****       }
 3804              		.loc 7 262 0
 3805 0030 0023     		movs	r3, #0
 3806 0032 C4F80835 		str	r3, [r4, #1288]
 3807 0036 1EE0     		b	.L210
 3808              	.LVL461:
 3809              	.L259:
 390:ROSSerial/ros/node_handle.h ****     {
 3810              		.loc 7 390 0
 3811 0038 94F81C35 		ldrb	r3, [r4, #1308]	@ zero_extendqisi2
 3812 003c 002B     		cmp	r3, #0
 3813 003e 00F0C782 		beq	.L207
 3814 0042 D4F82035 		ldr	r3, [r4, #1312]
 3815 0046 EB1A     		subs	r3, r5, r3
 3816 0048 40F6C412 		movw	r2, #2500
 3817 004c 9342     		cmp	r3, r2
 3818 004e 00F26982 		bhi	.L258
 396:ROSSerial/ros/node_handle.h ****   }
 3819              		.loc 7 396 0
 3820 0052 0020     		movs	r0, #0
 3821              	.LVL462:
 3822              	.LBE571:
 3823              	.LBE570:
 239:ROSSerial/ros/node_handle.h ****   }
ARM GAS  /var/folders/l3/4y5292px21b4835bsnjwqc7w009kq1/T//ccOXyXY5.s 			page 97


 3824              		.loc 7 239 0
 3825 0054 BCE2     		b	.L207
 3826              	.LVL463:
 3827              	.L260:
 3828              	.LBB661:
 3829              	.LBB660:
 3830              	.LBB574:
 288:ROSSerial/ros/node_handle.h ****         bytes_--;
 3831              		.loc 7 288 0
 3832 0056 D4F81435 		ldr	r3, [r4, #1300]
 3833 005a 5A1C     		adds	r2, r3, #1
 3834 005c C4F81425 		str	r2, [r4, #1300]
 3835 0060 2344     		add	r3, r3, r4
 3836 0062 1976     		strb	r1, [r3, #24]
 289:ROSSerial/ros/node_handle.h ****         if (bytes_ == 0)                 /* is message complete? if so, checksum */
 3837              		.loc 7 289 0
 3838 0064 D4F80C35 		ldr	r3, [r4, #1292]
 3839 0068 013B     		subs	r3, r3, #1
 3840 006a C4F80C35 		str	r3, [r4, #1292]
 290:ROSSerial/ros/node_handle.h ****           mode_ = MODE_MSG_CHECKSUM;
 3841              		.loc 7 290 0
 3842 006e 13B9     		cbnz	r3, .L210
 291:ROSSerial/ros/node_handle.h ****       }
 3843              		.loc 7 291 0
 3844 0070 0823     		movs	r3, #8
 3845 0072 C4F80835 		str	r3, [r4, #1288]
 3846              	.LVL464:
 3847              	.L210:
 270:ROSSerial/ros/node_handle.h ****       {
 3848              		.loc 7 270 0
 3849 0076 6369     		ldr	r3, [r4, #20]
 3850 0078 33B1     		cbz	r3, .L211
 3851              	.LVL465:
 3852              	.LBB575:
 3853              	.LBB576:
 3854              		.loc 8 102 0
 3855 007a FFF7FEFF 		bl	millis
 3856              	.LVL466:
 3857              	.LBE576:
 3858              	.LBE575:
 276:ROSSerial/ros/node_handle.h ****         {
 3859              		.loc 7 276 0
 3860 007e 401B     		subs	r0, r0, r5
 3861 0080 6369     		ldr	r3, [r4, #20]
 3862 0082 9842     		cmp	r0, r3
 3863 0084 00F2A282 		bhi	.L255
 3864              	.L211:
 3865              	.LVL467:
 3866              	.LBB577:
 3867              	.LBB578:
  72:ROSSerial/AT32hardware.h **** 		if(comGetChar(COM2,&ucData) == 0) {
 3868              		.loc 8 72 0
 3869 0088 0AA9     		add	r1, sp, #40
 3870 008a FF23     		movs	r3, #255
 3871 008c 01F8183D 		strb	r3, [r1, #-24]!
  73:ROSSerial/AT32hardware.h **** 			return -1;
 3872              		.loc 8 73 0
ARM GAS  /var/folders/l3/4y5292px21b4835bsnjwqc7w009kq1/T//ccOXyXY5.s 			page 98


 3873 0090 0120     		movs	r0, #1
 3874 0092 FFF7FEFF 		bl	comGetChar
 3875              	.LVL468:
 3876 0096 0028     		cmp	r0, #0
 3877 0098 CED0     		beq	.L259
  77:ROSSerial/AT32hardware.h **** 	}
 3878              		.loc 8 77 0
 3879 009a 9DF81010 		ldrb	r1, [sp, #16]	@ zero_extendqisi2
 3880              	.LVL469:
 3881              	.LBE578:
 3882              	.LBE577:
 285:ROSSerial/ros/node_handle.h ****       if (mode_ == MODE_MESSAGE)          /* message data being recieved */
 3883              		.loc 7 285 0
 3884 009e D4F81825 		ldr	r2, [r4, #1304]
 3885 00a2 0A44     		add	r2, r2, r1
 3886 00a4 C4F81825 		str	r2, [r4, #1304]
 286:ROSSerial/ros/node_handle.h ****       {
 3887              		.loc 7 286 0
 3888 00a8 D4F80835 		ldr	r3, [r4, #1288]
 3889 00ac 072B     		cmp	r3, #7
 3890 00ae D2D0     		beq	.L260
 293:ROSSerial/ros/node_handle.h ****       {
 3891              		.loc 7 293 0
 3892 00b0 B3B9     		cbnz	r3, .L217
 295:ROSSerial/ros/node_handle.h ****         {
 3893              		.loc 7 295 0
 3894 00b2 FF29     		cmp	r1, #255
 3895 00b4 07D1     		bne	.L218
 297:ROSSerial/ros/node_handle.h ****           last_msg_timeout_time = c_time + SERIAL_MSG_TIMEOUT;
 3896              		.loc 7 297 0
 3897 00b6 0133     		adds	r3, r3, #1
 3898 00b8 C4F80835 		str	r3, [r4, #1288]
 298:ROSSerial/ros/node_handle.h ****         }
 3899              		.loc 7 298 0
 3900 00bc 05F11403 		add	r3, r5, #20
 3901 00c0 C4F82835 		str	r3, [r4, #1320]
 3902 00c4 D7E7     		b	.L210
 3903              	.L218:
 3904              	.LVL470:
 3905              	.LBB579:
 3906              	.LBB580:
 3907              		.loc 8 102 0
 3908 00c6 FFF7FEFF 		bl	millis
 3909              	.LVL471:
 3910              	.LBE580:
 3911              	.LBE579:
 300:ROSSerial/ros/node_handle.h ****         {
 3912              		.loc 7 300 0
 3913 00ca 401B     		subs	r0, r0, r5
 3914 00cc 41F28833 		movw	r3, #5000
 3915 00d0 9842     		cmp	r0, r3
 3916 00d2 D0D9     		bls	.L210
 303:ROSSerial/ros/node_handle.h ****           return SPIN_TIMEOUT;
 3917              		.loc 7 303 0
 3918 00d4 0023     		movs	r3, #0
 3919 00d6 84F81C35 		strb	r3, [r4, #1308]
 304:ROSSerial/ros/node_handle.h ****         }
ARM GAS  /var/folders/l3/4y5292px21b4835bsnjwqc7w009kq1/T//ccOXyXY5.s 			page 99


 3920              		.loc 7 304 0
 3921 00da 6FF00100 		mvn	r0, #1
 3922 00de 77E2     		b	.L207
 3923              	.LVL472:
 3924              	.L217:
 307:ROSSerial/ros/node_handle.h ****       {
 3925              		.loc 7 307 0
 3926 00e0 012B     		cmp	r3, #1
 3927 00e2 3DD0     		beq	.L261
 320:ROSSerial/ros/node_handle.h ****       {
 3928              		.loc 7 320 0
 3929 00e4 022B     		cmp	r3, #2
 3930 00e6 00F09980 		beq	.L262
 327:ROSSerial/ros/node_handle.h ****       {
 3931              		.loc 7 327 0
 3932 00ea 032B     		cmp	r3, #3
 3933 00ec 00F0A180 		beq	.L263
 332:ROSSerial/ros/node_handle.h ****       {
 3934              		.loc 7 332 0
 3935 00f0 042B     		cmp	r3, #4
 3936 00f2 00F0A880 		beq	.L264
 339:ROSSerial/ros/node_handle.h ****       {
 3937              		.loc 7 339 0
 3938 00f6 052B     		cmp	r3, #5
 3939 00f8 00F0B480 		beq	.L265
 345:ROSSerial/ros/node_handle.h ****       {
 3940              		.loc 7 345 0
 3941 00fc 062B     		cmp	r3, #6
 3942 00fe 00F0B980 		beq	.L266
 352:ROSSerial/ros/node_handle.h ****       {
 3943              		.loc 7 352 0
 3944 0102 082B     		cmp	r3, #8
 3945 0104 B7D1     		bne	.L210
 354:ROSSerial/ros/node_handle.h ****         if ((checksum_ % 256) == 255)
 3946              		.loc 7 354 0
 3947 0106 0023     		movs	r3, #0
 3948 0108 C4F80835 		str	r3, [r4, #1288]
 355:ROSSerial/ros/node_handle.h ****         {
 3949              		.loc 7 355 0
 3950 010c 9B1A     		subs	r3, r3, r2
 3951 010e D2B2     		uxtb	r2, r2
 3952 0110 DBB2     		uxtb	r3, r3
 3953 0112 58BF     		it	pl
 3954 0114 5A42     		rsbpl	r2, r3, #0
 3955 0116 FF2A     		cmp	r2, #255
 3956 0118 ADD1     		bne	.L210
 357:ROSSerial/ros/node_handle.h ****           {
 3957              		.loc 7 357 0
 3958 011a D4F81065 		ldr	r6, [r4, #1296]
 3959 011e 002E     		cmp	r6, #0
 3960 0120 00F0BA80 		beq	.L267
 365:ROSSerial/ros/node_handle.h ****           {
 3961              		.loc 7 365 0
 3962 0124 0A2E     		cmp	r6, #10
 3963 0126 00F00E81 		beq	.L268
 369:ROSSerial/ros/node_handle.h ****           {
 3964              		.loc 7 369 0
ARM GAS  /var/folders/l3/4y5292px21b4835bsnjwqc7w009kq1/T//ccOXyXY5.s 			page 100


 3965 012a 062E     		cmp	r6, #6
 3966 012c 00F05081 		beq	.L269
 374:ROSSerial/ros/node_handle.h ****           {
 3967              		.loc 7 374 0
 3968 0130 0B2E     		cmp	r6, #11
 3969 0132 00F0F381 		beq	.L270
 380:ROSSerial/ros/node_handle.h ****               s_CallBack = (void (*)(char*))subscribers2[topic_ - 100].callback;
 3970              		.loc 7 380 0
 3971 0136 643E     		subs	r6, r6, #100
 3972 0138 06EB8603 		add	r3, r6, r6, lsl #2
 3973 013c 04EB8303 		add	r3, r4, r3, lsl #2
 3974 0140 B3F8A434 		ldrh	r3, [r3, #1188]
 3975 0144 002B     		cmp	r3, #0
 3976 0146 96D0     		beq	.L210
 381:ROSSerial/ros/node_handle.h ****               s_CallBack(message_in);
 3977              		.loc 7 381 0
 3978 0148 06EB8606 		add	r6, r6, r6, lsl #2
 3979 014c 04EB8606 		add	r6, r4, r6, lsl #2
 3980 0150 D6F8B434 		ldr	r3, [r6, #1204]
 3981 0154 C94A     		ldr	r2, .L277
 3982 0156 1360     		str	r3, [r2]
 382:ROSSerial/ros/node_handle.h ****             }
 3983              		.loc 7 382 0
 3984 0158 04F11800 		add	r0, r4, #24
 3985 015c 9847     		blx	r3
 3986              	.LVL473:
 3987 015e 8AE7     		b	.L210
 3988              	.LVL474:
 3989              	.L261:
 309:ROSSerial/ros/node_handle.h ****         {
 3990              		.loc 7 309 0
 3991 0160 FE29     		cmp	r1, #254
 3992 0162 32D0     		beq	.L271
 315:ROSSerial/ros/node_handle.h ****           if (configured_ == false)
 3993              		.loc 7 315 0
 3994 0164 0023     		movs	r3, #0
 3995 0166 C4F80835 		str	r3, [r4, #1288]
 316:ROSSerial/ros/node_handle.h ****             requestSyncTime();  /* send a msg back showing our protocol version */
 3996              		.loc 7 316 0
 3997 016a 94F81C35 		ldrb	r3, [r4, #1308]	@ zero_extendqisi2
 3998 016e 002B     		cmp	r3, #0
 3999 0170 81D1     		bne	.L210
 4000              	.LVL475:
 4001              	.LBB581:
 4002              	.LBB582:
 4003              	.LBB583:
 4004              	.LBB584:
  14:ROSSerial/std_msgs/Time.h ****   {
 4005              		.loc 1 14 0
 4006 0172 C34B     		ldr	r3, .L277+4
 4007 0174 0193     		str	r3, [sp, #4]
 4008              	.LVL476:
 4009              	.LBB585:
 4010              	.LBB586:
 4011              	.LBB587:
 4012              		.loc 9 51 0
 4013 0176 0026     		movs	r6, #0
ARM GAS  /var/folders/l3/4y5292px21b4835bsnjwqc7w009kq1/T//ccOXyXY5.s 			page 101


 4014 0178 0296     		str	r6, [sp, #8]
 4015 017a 0396     		str	r6, [sp, #12]
 4016              	.LVL477:
 4017              	.LBE587:
 4018              	.LBE586:
 4019              	.LBE585:
 4020              	.LBE584:
 4021              	.LBE583:
 4022              	.LBB588:
 4023              	.LBB589:
 609:ROSSerial/ros/node_handle.h **** 
 4024              		.loc 7 609 0
 4025 017c 1B68     		ldr	r3, [r3]
 4026 017e 04F21F21 		addw	r1, r4, #543
 4027              	.LVL478:
 4028 0182 01A8     		add	r0, sp, #4
 4029              	.LVL479:
 4030 0184 9847     		blx	r3
 4031              	.LVL480:
 612:ROSSerial/ros/node_handle.h ****     message_out[1] = PROTOCOL_VER;
 4032              		.loc 7 612 0
 4033 0186 FF23     		movs	r3, #255
 4034 0188 84F81832 		strb	r3, [r4, #536]
 613:ROSSerial/ros/node_handle.h ****     message_out[2] = (uint8_t)((uint16_t)l & 255);
 4035              		.loc 7 613 0
 4036 018c FE23     		movs	r3, #254
 4037 018e 84F81932 		strb	r3, [r4, #537]
 614:ROSSerial/ros/node_handle.h ****     message_out[3] = (uint8_t)((uint16_t)l >> 8);
 4038              		.loc 7 614 0
 4039 0192 C3B2     		uxtb	r3, r0
 4040 0194 84F81A32 		strb	r3, [r4, #538]
 615:ROSSerial/ros/node_handle.h ****     message_out[4] = 255 - ((message_out[2] + message_out[3]) % 256);
 4041              		.loc 7 615 0
 4042 0198 C0F30722 		ubfx	r2, r0, #8, #8
 4043 019c 84F81B22 		strb	r2, [r4, #539]
 616:ROSSerial/ros/node_handle.h ****     message_out[5] = (uint8_t)((int16_t)id & 255);
 4044              		.loc 7 616 0
 4045 01a0 1344     		add	r3, r3, r2
 4046 01a2 DBB2     		uxtb	r3, r3
 4047 01a4 DB43     		mvns	r3, r3
 4048 01a6 84F81C32 		strb	r3, [r4, #540]
 617:ROSSerial/ros/node_handle.h ****     message_out[6] = (uint8_t)((int16_t)id >> 8);
 4049              		.loc 7 617 0
 4050 01aa 0A23     		movs	r3, #10
 4051 01ac 84F81D32 		strb	r3, [r4, #541]
 618:ROSSerial/ros/node_handle.h **** 
 4052              		.loc 7 618 0
 4053 01b0 84F81E62 		strb	r6, [r4, #542]
 4054              	.LVL481:
 4055              	.LBB590:
 622:ROSSerial/ros/node_handle.h ****       chk += message_out[i];
 4056              		.loc 7 622 0
 4057 01b4 0522     		movs	r2, #5
 4058              	.LBE590:
 621:ROSSerial/ros/node_handle.h ****     for (int i = 5; i < l + 7; i++)
 4059              		.loc 7 621 0
 4060 01b6 3346     		mov	r3, r6
ARM GAS  /var/folders/l3/4y5292px21b4835bsnjwqc7w009kq1/T//ccOXyXY5.s 			page 102


 4061              	.LVL482:
 4062              	.L222:
 4063              	.LBB591:
 622:ROSSerial/ros/node_handle.h ****       chk += message_out[i];
 4064              		.loc 7 622 0
 4065 01b8 C11D     		adds	r1, r0, #7
 4066 01ba 9142     		cmp	r1, r2
 4067 01bc 09DD     		ble	.L221
 623:ROSSerial/ros/node_handle.h ****     l += 7;
 4068              		.loc 7 623 0
 4069 01be A118     		adds	r1, r4, r2
 4070 01c0 91F81812 		ldrb	r1, [r1, #536]	@ zero_extendqisi2
 4071 01c4 0B44     		add	r3, r3, r1
 4072              	.LVL483:
 622:ROSSerial/ros/node_handle.h ****       chk += message_out[i];
 4073              		.loc 7 622 0
 4074 01c6 0132     		adds	r2, r2, #1
 4075              	.LVL484:
 4076 01c8 F6E7     		b	.L222
 4077              	.LVL485:
 4078              	.L271:
 4079              	.LBE591:
 4080              	.LBE589:
 4081              	.LBE588:
 4082              	.LBE582:
 4083              	.LBE581:
 311:ROSSerial/ros/node_handle.h ****         }
 4084              		.loc 7 311 0
 4085 01ca 0133     		adds	r3, r3, #1
 4086 01cc C4F80835 		str	r3, [r4, #1288]
 4087 01d0 51E7     		b	.L210
 4088              	.LVL486:
 4089              	.L221:
 4090              	.LBB606:
 4091              	.LBB605:
 4092              	.LBB601:
 4093              	.LBB599:
 625:ROSSerial/ros/node_handle.h ****     //printf("Sending message - %s\n",msg->getType());
 4094              		.loc 7 625 0
 4095 01d2 5A42     		rsbs	r2, r3, #0
 4096              	.LVL487:
 4097 01d4 DBB2     		uxtb	r3, r3
 4098              	.LVL488:
 4099 01d6 D2B2     		uxtb	r2, r2
 4100 01d8 58BF     		it	pl
 4101 01da 5342     		rsbpl	r3, r2, #0
 4102 01dc 00F10802 		add	r2, r0, #8
 4103              	.LVL489:
 4104 01e0 DB43     		mvns	r3, r3
 4105 01e2 2144     		add	r1, r1, r4
 4106 01e4 81F81832 		strb	r3, [r1, #536]
 627:ROSSerial/ros/node_handle.h ****     {
 4107              		.loc 7 627 0
 4108 01e8 B2F5007F 		cmp	r2, #512
 4109 01ec 09DC     		bgt	.L223
 4110              	.LVL490:
 4111              	.LBB592:
ARM GAS  /var/folders/l3/4y5292px21b4835bsnjwqc7w009kq1/T//ccOXyXY5.s 			page 103


 4112              	.LBB593:
  89:ROSSerial/AT32hardware.h **** 	}
 4113              		.loc 8 89 0
 4114 01ee 92B2     		uxth	r2, r2
 4115              	.LVL491:
 4116 01f0 04F50671 		add	r1, r4, #536
 4117              	.LVL492:
 4118 01f4 0120     		movs	r0, #1
 4119              	.LVL493:
 4120 01f6 FFF7FEFF 		bl	comSendBuf
 4121              	.LVL494:
 4122              	.L224:
 4123              	.LBE593:
 4124              	.LBE592:
 4125              	.LBE599:
 4126              	.LBE601:
 4127              	.LBB602:
 4128              	.LBB603:
 4129              		.loc 8 102 0
 4130 01fa FFF7FEFF 		bl	millis
 4131              	.LVL495:
 4132              	.LBE603:
 4133              	.LBE602:
 414:ROSSerial/ros/node_handle.h ****   }
 4134              		.loc 7 414 0
 4135 01fe A060     		str	r0, [r4, #8]
 4136 0200 39E7     		b	.L210
 4137              	.LVL496:
 4138              	.L223:
 4139              	.LBB604:
 4140              	.LBB600:
 4141              	.LBB594:
 4142              	.LBB595:
 4143              	.LBB596:
 4144              	.LBB597:
 4145              	.LBB598:
  13:ROSSerial/rosserial_msgs/Log.h ****   {
 4146              		.loc 3 13 0
 4147 0202 A04B     		ldr	r3, .L277+8
 4148 0204 0493     		str	r3, [sp, #16]
 4149              	.LVL497:
 4150              	.LBE598:
 4151              	.LBE597:
 647:ROSSerial/ros/node_handle.h ****     l.msg = (char*)msg;
 4152              		.loc 7 647 0
 4153 0206 0323     		movs	r3, #3
 4154 0208 8DF81430 		strb	r3, [sp, #20]
 648:ROSSerial/ros/node_handle.h ****     publish1(rosserial_msgs::TopicInfo::ID_LOG, &l);
 4155              		.loc 7 648 0
 4156 020c 9E4B     		ldr	r3, .L277+12
 4157 020e 0693     		str	r3, [sp, #24]
 4158              		.loc 7 649 0
 4159 0210 04AA     		add	r2, sp, #16
 4160              	.LVL498:
 4161 0212 0721     		movs	r1, #7
 4162 0214 2046     		mov	r0, r4
 4163              	.LVL499:
ARM GAS  /var/folders/l3/4y5292px21b4835bsnjwqc7w009kq1/T//ccOXyXY5.s 			page 104


 4164 0216 FFF7FEFF 		bl	_ZN3ros11NodeHandle_I13STM32HardwareLi5ELi5ELi512ELi512EE8publish1EiPNS_3MsgE
 4165              	.LVL500:
 4166 021a EEE7     		b	.L224
 4167              	.LVL501:
 4168              	.L262:
 4169              	.LBE596:
 4170              	.LBE595:
 4171              	.LBE594:
 4172              	.LBE600:
 4173              	.LBE604:
 4174              	.LBE605:
 4175              	.LBE606:
 322:ROSSerial/ros/node_handle.h ****         index_ = 0;
 4176              		.loc 7 322 0
 4177 021c C4F80C15 		str	r1, [r4, #1292]
 323:ROSSerial/ros/node_handle.h ****         mode_++;
 4178              		.loc 7 323 0
 4179 0220 0022     		movs	r2, #0
 4180 0222 C4F81425 		str	r2, [r4, #1300]
 324:ROSSerial/ros/node_handle.h ****         checksum_ = data;               /* first byte for calculating size checksum */
 4181              		.loc 7 324 0
 4182 0226 0133     		adds	r3, r3, #1
 4183 0228 C4F80835 		str	r3, [r4, #1288]
 325:ROSSerial/ros/node_handle.h ****       }
 4184              		.loc 7 325 0
 4185 022c C4F81815 		str	r1, [r4, #1304]
 4186 0230 21E7     		b	.L210
 4187              	.L263:
 329:ROSSerial/ros/node_handle.h ****         mode_++;
 4188              		.loc 7 329 0
 4189 0232 D4F80C25 		ldr	r2, [r4, #1292]
 4190 0236 02EB0121 		add	r1, r2, r1, lsl #8
 4191              	.LVL502:
 4192 023a C4F80C15 		str	r1, [r4, #1292]
 330:ROSSerial/ros/node_handle.h ****       }
 4193              		.loc 7 330 0
 4194 023e 0133     		adds	r3, r3, #1
 4195 0240 C4F80835 		str	r3, [r4, #1288]
 4196 0244 17E7     		b	.L210
 4197              	.LVL503:
 4198              	.L264:
 334:ROSSerial/ros/node_handle.h ****           mode_++;
 4199              		.loc 7 334 0
 4200 0246 5142     		rsbs	r1, r2, #0
 4201              	.LVL504:
 4202 0248 D2B2     		uxtb	r2, r2
 4203 024a C9B2     		uxtb	r1, r1
 4204 024c 58BF     		it	pl
 4205 024e 4A42     		rsbpl	r2, r1, #0
 4206 0250 FF2A     		cmp	r2, #255
 4207 0252 03D0     		beq	.L272
 337:ROSSerial/ros/node_handle.h ****       }
 4208              		.loc 7 337 0
 4209 0254 0023     		movs	r3, #0
 4210 0256 C4F80835 		str	r3, [r4, #1288]
 4211 025a 0CE7     		b	.L210
 4212              	.L272:
ARM GAS  /var/folders/l3/4y5292px21b4835bsnjwqc7w009kq1/T//ccOXyXY5.s 			page 105


 335:ROSSerial/ros/node_handle.h ****         else
 4213              		.loc 7 335 0
 4214 025c 0133     		adds	r3, r3, #1
 4215 025e C4F80835 		str	r3, [r4, #1288]
 4216 0262 08E7     		b	.L210
 4217              	.LVL505:
 4218              	.L265:
 341:ROSSerial/ros/node_handle.h ****         mode_++;
 4219              		.loc 7 341 0
 4220 0264 C4F81015 		str	r1, [r4, #1296]
 342:ROSSerial/ros/node_handle.h ****         checksum_ = data;               /* first byte included in checksum */
 4221              		.loc 7 342 0
 4222 0268 0133     		adds	r3, r3, #1
 4223 026a C4F80835 		str	r3, [r4, #1288]
 343:ROSSerial/ros/node_handle.h ****       }
 4224              		.loc 7 343 0
 4225 026e C4F81815 		str	r1, [r4, #1304]
 4226 0272 00E7     		b	.L210
 4227              	.L266:
 347:ROSSerial/ros/node_handle.h ****         mode_ = MODE_MESSAGE;
 4228              		.loc 7 347 0
 4229 0274 D4F81035 		ldr	r3, [r4, #1296]
 4230 0278 03EB0123 		add	r3, r3, r1, lsl #8
 4231 027c C4F81035 		str	r3, [r4, #1296]
 348:ROSSerial/ros/node_handle.h ****         if (bytes_ == 0)
 4232              		.loc 7 348 0
 4233 0280 0723     		movs	r3, #7
 4234 0282 C4F80835 		str	r3, [r4, #1288]
 349:ROSSerial/ros/node_handle.h ****           mode_ = MODE_MSG_CHECKSUM;
 4235              		.loc 7 349 0
 4236 0286 D4F80C35 		ldr	r3, [r4, #1292]
 4237 028a 002B     		cmp	r3, #0
 4238 028c 7FF4F3AE 		bne	.L210
 350:ROSSerial/ros/node_handle.h ****       }
 4239              		.loc 7 350 0
 4240 0290 0823     		movs	r3, #8
 4241 0292 C4F80835 		str	r3, [r4, #1288]
 4242 0296 EEE6     		b	.L210
 4243              	.L267:
 359:ROSSerial/ros/node_handle.h ****             negotiateTopics();
 4244              		.loc 7 359 0
 4245 0298 2046     		mov	r0, r4
 4246 029a FFF7FEFF 		bl	_ZN3ros11NodeHandle_I13STM32HardwareLi5ELi5ELi512ELi512EE15requestSyncTimeEv
 4247              	.LVL506:
 4248              	.LBB607:
 4249              	.LBB608:
 4250              	.LBB609:
 4251              	.LBB610:
  12:ROSSerial/rosserial_msgs/TopicInfo.h ****   {
 4252              		.loc 2 12 0
 4253 029e 7B4B     		ldr	r3, .L277+16
 4254 02a0 0493     		str	r3, [sp, #16]
 4255              	.LVL507:
 4256              	.LBE610:
 4257              	.LBE609:
 556:ROSSerial/ros/node_handle.h ****     {
 4258              		.loc 7 556 0
ARM GAS  /var/folders/l3/4y5292px21b4835bsnjwqc7w009kq1/T//ccOXyXY5.s 			page 106


 4259 02a2 3746     		mov	r7, r6
 4260 02a4 00E0     		b	.L234
 4261              	.LVL508:
 4262              	.L233:
 4263 02a6 0137     		adds	r7, r7, #1
 4264              	.LVL509:
 4265              	.L234:
 4266 02a8 042F     		cmp	r7, #4
 4267 02aa 20DC     		bgt	.L232
 558:ROSSerial/ros/node_handle.h ****       {
 4268              		.loc 7 558 0
 4269 02ac 07EB8703 		add	r3, r7, r7, lsl #2
 4270 02b0 04EB8303 		add	r3, r4, r3, lsl #2
 4271 02b4 B3F82C34 		ldrh	r3, [r3, #1068]
 4272 02b8 002B     		cmp	r3, #0
 4273 02ba F4D0     		beq	.L233
 567:ROSSerial/ros/node_handle.h ****         ti.topic_name = publishers2[i].topic_name;
 4274              		.loc 7 567 0
 4275 02bc ADF81430 		strh	r3, [sp, #20]	@ movhi
 568:ROSSerial/ros/node_handle.h ****         ti.message_type = publishers2[i].message_type;
 4276              		.loc 7 568 0
 4277 02c0 07EB8703 		add	r3, r7, r7, lsl #2
 4278 02c4 04EB8303 		add	r3, r4, r3, lsl #2
 4279 02c8 D3F83024 		ldr	r2, [r3, #1072]
 4280 02cc 0692     		str	r2, [sp, #24]
 569:ROSSerial/ros/node_handle.h ****         ti.md5sum = publishers2[i].md5sum;
 4281              		.loc 7 569 0
 4282 02ce D3F83824 		ldr	r2, [r3, #1080]
 4283 02d2 0792     		str	r2, [sp, #28]
 570:ROSSerial/ros/node_handle.h ****         ti.buffer_size = OUTPUT_SIZE;
 4284              		.loc 7 570 0
 4285 02d4 D3F83C34 		ldr	r3, [r3, #1084]
 4286 02d8 0893     		str	r3, [sp, #32]
 571:ROSSerial/ros/node_handle.h ****         publish1(TopicInfo::ID_PUBLISHER, &ti);
 4287              		.loc 7 571 0
 4288 02da 4FF40073 		mov	r3, #512
 4289 02de 0993     		str	r3, [sp, #36]
 572:ROSSerial/ros/node_handle.h ****       }
 4290              		.loc 7 572 0
 4291 02e0 04AA     		add	r2, sp, #16
 4292 02e2 0021     		movs	r1, #0
 4293 02e4 2046     		mov	r0, r4
 4294 02e6 FFF7FEFF 		bl	_ZN3ros11NodeHandle_I13STM32HardwareLi5ELi5ELi512ELi512EE8publish1EiPNS_3MsgE
 4295              	.LVL510:
 4296 02ea DCE7     		b	.L233
 4297              	.LVL511:
 4298              	.L236:
 575:ROSSerial/ros/node_handle.h ****     {
 4299              		.loc 7 575 0
 4300 02ec 0136     		adds	r6, r6, #1
 4301              	.LVL512:
 4302              	.L232:
 4303 02ee 042E     		cmp	r6, #4
 4304 02f0 1FDC     		bgt	.L235
 577:ROSSerial/ros/node_handle.h ****       {
 4305              		.loc 7 577 0
 4306 02f2 06EB8603 		add	r3, r6, r6, lsl #2
ARM GAS  /var/folders/l3/4y5292px21b4835bsnjwqc7w009kq1/T//ccOXyXY5.s 			page 107


 4307 02f6 04EB8303 		add	r3, r4, r3, lsl #2
 4308 02fa B3F8A434 		ldrh	r3, [r3, #1188]
 4309 02fe 002B     		cmp	r3, #0
 4310 0300 F4D0     		beq	.L236
 586:ROSSerial/ros/node_handle.h ****         ti.topic_name = subscribers2[i].topic_name;
 4311              		.loc 7 586 0
 4312 0302 ADF81430 		strh	r3, [sp, #20]	@ movhi
 587:ROSSerial/ros/node_handle.h ****         ti.message_type = subscribers2[i].message_type;
 4313              		.loc 7 587 0
 4314 0306 06EB8603 		add	r3, r6, r6, lsl #2
 4315 030a 04EB8303 		add	r3, r4, r3, lsl #2
 4316 030e D3F8A824 		ldr	r2, [r3, #1192]
 4317 0312 0692     		str	r2, [sp, #24]
 588:ROSSerial/ros/node_handle.h ****         ti.md5sum = subscribers2[i].md5sum;
 4318              		.loc 7 588 0
 4319 0314 D3F8AC24 		ldr	r2, [r3, #1196]
 4320 0318 0792     		str	r2, [sp, #28]
 589:ROSSerial/ros/node_handle.h ****         ti.buffer_size = INPUT_SIZE;
 4321              		.loc 7 589 0
 4322 031a D3F8B034 		ldr	r3, [r3, #1200]
 4323 031e 0893     		str	r3, [sp, #32]
 590:ROSSerial/ros/node_handle.h ****         publish1(rosserial_msgs::TopicInfo::ID_SUBSCRIBER, &ti);
 4324              		.loc 7 590 0
 4325 0320 4FF40073 		mov	r3, #512
 4326 0324 0993     		str	r3, [sp, #36]
 591:ROSSerial/ros/node_handle.h ****       }
 4327              		.loc 7 591 0
 4328 0326 04AA     		add	r2, sp, #16
 4329 0328 0121     		movs	r1, #1
 4330 032a 2046     		mov	r0, r4
 4331 032c FFF7FEFF 		bl	_ZN3ros11NodeHandle_I13STM32HardwareLi5ELi5ELi512ELi512EE8publish1EiPNS_3MsgE
 4332              	.LVL513:
 4333 0330 DCE7     		b	.L236
 4334              	.L235:
 594:ROSSerial/ros/node_handle.h ****   }
 4335              		.loc 7 594 0
 4336 0332 0123     		movs	r3, #1
 4337 0334 84F81C35 		strb	r3, [r4, #1308]
 4338              	.LVL514:
 4339              	.LBE608:
 4340              	.LBE607:
 361:ROSSerial/ros/node_handle.h ****             last_sync_receive_time = c_time;
 4341              		.loc 7 361 0
 4342 0338 C4F82055 		str	r5, [r4, #1312]
 362:ROSSerial/ros/node_handle.h ****             return SPIN_ERR;
 4343              		.loc 7 362 0
 4344 033c C4F82455 		str	r5, [r4, #1316]
 363:ROSSerial/ros/node_handle.h ****           }
 4345              		.loc 7 363 0
 4346 0340 4FF0FF30 		mov	r0, #-1
 4347 0344 44E1     		b	.L207
 4348              	.LVL515:
 4349              	.L268:
 367:ROSSerial/ros/node_handle.h ****           }
 4350              		.loc 7 367 0
 4351 0346 04F11806 		add	r6, r4, #24
 4352              	.LVL516:
ARM GAS  /var/folders/l3/4y5292px21b4835bsnjwqc7w009kq1/T//ccOXyXY5.s 			page 108


 4353              	.LBB611:
 4354              	.LBB612:
 4355              	.LBB613:
 4356              	.LBB614:
 4357              		.loc 8 102 0
 4358 034a FFF7FEFF 		bl	millis
 4359              	.LVL517:
 4360              	.LBE614:
 4361              	.LBE613:
 420:ROSSerial/ros/node_handle.h **** 
 4362              		.loc 7 420 0
 4363 034e A368     		ldr	r3, [r4, #8]
 4364 0350 C01A     		subs	r0, r0, r3
 4365              	.LVL518:
 4366              	.LBB615:
 4367              	.LBB616:
  38:ROSSerial/std_msgs/Time.h ****       this->data.sec |= ((uint32_t) (*(inbuffer + offset + 1))) << (8 * 1);
 4368              		.loc 1 38 0
 4369 0352 227E     		ldrb	r2, [r4, #24]	@ zero_extendqisi2
  39:ROSSerial/std_msgs/Time.h ****       this->data.sec |= ((uint32_t) (*(inbuffer + offset + 2))) << (8 * 2);
 4370              		.loc 1 39 0
 4371 0354 3346     		mov	r3, r6
 4372 0356 7178     		ldrb	r1, [r6, #1]	@ zero_extendqisi2
 4373 0358 42EA0122 		orr	r2, r2, r1, lsl #8
  40:ROSSerial/std_msgs/Time.h ****       this->data.sec |= ((uint32_t) (*(inbuffer + offset + 3))) << (8 * 3);
 4374              		.loc 1 40 0
 4375 035c B178     		ldrb	r1, [r6, #2]	@ zero_extendqisi2
 4376 035e 42EA0142 		orr	r2, r2, r1, lsl #16
  41:ROSSerial/std_msgs/Time.h ****       offset += sizeof(this->data.sec);
 4377              		.loc 1 41 0
 4378 0362 F178     		ldrb	r1, [r6, #3]	@ zero_extendqisi2
 4379 0364 42EA0161 		orr	r1, r2, r1, lsl #24
 4380              	.LVL519:
  43:ROSSerial/std_msgs/Time.h ****       this->data.nsec |= ((uint32_t) (*(inbuffer + offset + 1))) << (8 * 1);
 4381              		.loc 1 43 0
 4382 0368 3279     		ldrb	r2, [r6, #4]	@ zero_extendqisi2
  44:ROSSerial/std_msgs/Time.h ****       this->data.nsec |= ((uint32_t) (*(inbuffer + offset + 2))) << (8 * 2);
 4383              		.loc 1 44 0
 4384 036a 7679     		ldrb	r6, [r6, #5]	@ zero_extendqisi2
 4385 036c 42EA0622 		orr	r2, r2, r6, lsl #8
  45:ROSSerial/std_msgs/Time.h ****       this->data.nsec |= ((uint32_t) (*(inbuffer + offset + 3))) << (8 * 3);
 4386              		.loc 1 45 0
 4387 0370 9E79     		ldrb	r6, [r3, #6]	@ zero_extendqisi2
 4388 0372 42EA0642 		orr	r2, r2, r6, lsl #16
  46:ROSSerial/std_msgs/Time.h ****       offset += sizeof(this->data.nsec);
 4389              		.loc 1 46 0
 4390 0376 DB79     		ldrb	r3, [r3, #7]	@ zero_extendqisi2
 4391 0378 42EA0362 		orr	r2, r2, r3, lsl #24
 4392              	.LVL520:
 4393              	.LBE616:
 4394              	.LBE615:
 423:ROSSerial/ros/node_handle.h ****     t.data.nsec += (offset % 1000) * 1000000UL;
 4395              		.loc 7 423 0
 4396 037c 444E     		ldr	r6, .L277+20
 4397 037e A6FB0073 		umull	r7, r3, r6, r0
 4398 0382 9B09     		lsrs	r3, r3, #6
 4399 0384 1944     		add	r1, r1, r3
ARM GAS  /var/folders/l3/4y5292px21b4835bsnjwqc7w009kq1/T//ccOXyXY5.s 			page 109


 4400 0386 0591     		str	r1, [sp, #20]
 424:ROSSerial/ros/node_handle.h **** 
 4401              		.loc 7 424 0
 4402 0388 4FF47A78 		mov	r8, #1000
 4403 038c 08FB1303 		mls	r3, r8, r3, r0
 4404 0390 404F     		ldr	r7, .L277+24
 4405 0392 07FB0323 		mla	r3, r7, r3, r2
 4406 0396 0693     		str	r3, [sp, #24]
 4407              	.LVL521:
 4408              	.LBB617:
 4409              	.LBB618:
 4410              	.LBB619:
 4411              	.LBB620:
 4412              		.loc 8 102 0
 4413 0398 FFF7FEFF 		bl	millis
 4414              	.LVL522:
 4415              	.LBE620:
 4416              	.LBE619:
 443:ROSSerial/ros/node_handle.h ****     nsec_offset = new_now.nsec - (ms % 1000) * 1000000UL + 1000000000UL;
 4417              		.loc 7 443 0
 4418 039c A6FB0023 		umull	r2, r3, r6, r0
 4419 03a0 9B09     		lsrs	r3, r3, #6
 4420 03a2 059A     		ldr	r2, [sp, #20]
 4421 03a4 D21A     		subs	r2, r2, r3
 4422 03a6 013A     		subs	r2, r2, #1
 4423 03a8 E260     		str	r2, [r4, #12]
 444:ROSSerial/ros/node_handle.h ****     normalizeSecNSec(sec_offset, nsec_offset);
 4424              		.loc 7 444 0
 4425 03aa 08FB1303 		mls	r3, r8, r3, r0
 4426 03ae 069A     		ldr	r2, [sp, #24]
 4427 03b0 07FB1323 		mls	r3, r7, r3, r2
 4428 03b4 384A     		ldr	r2, .L277+28
 4429 03b6 1A44     		add	r2, r2, r3
 4430 03b8 2146     		mov	r1, r4
 4431 03ba 41F8102F 		str	r2, [r1, #16]!
 445:ROSSerial/ros/node_handle.h ****   }
 4432              		.loc 7 445 0
 4433 03be 04F10C00 		add	r0, r4, #12
 4434              	.LVL523:
 4435 03c2 FFF7FEFF 		bl	_ZN3ros16normalizeSecNSecERmS0_
 4436              	.LVL524:
 4437              	.LBE618:
 4438              	.LBE617:
 4439              	.LBB621:
 4440              	.LBB622:
 4441              		.loc 8 102 0
 4442 03c6 FFF7FEFF 		bl	millis
 4443              	.LVL525:
 4444              	.LBE622:
 4445              	.LBE621:
 427:ROSSerial/ros/node_handle.h ****   }
 4446              		.loc 7 427 0
 4447 03ca C4F82405 		str	r0, [r4, #1316]
 4448 03ce 52E6     		b	.L210
 4449              	.LVL526:
 4450              	.L269:
 4451              	.LBE612:
ARM GAS  /var/folders/l3/4y5292px21b4835bsnjwqc7w009kq1/T//ccOXyXY5.s 			page 110


 4452              	.LBE611:
 371:ROSSerial/ros/node_handle.h ****             param_recieved = true;
 4453              		.loc 7 371 0
 4454 03d0 04F5A668 		add	r8, r4, #1328
 4455 03d4 04F11807 		add	r7, r4, #24
 4456              	.LVL527:
 4457              	.LBB623:
 4458              	.LBB624:
 116:ROSSerial/rosserial_msgs/RequestParam.h ****       if(ints_lengthT > ints_length)
 4459              		.loc 4 116 0
 4460 03d8 267E     		ldrb	r6, [r4, #24]	@ zero_extendqisi2
 4461              	.LVL528:
 117:ROSSerial/rosserial_msgs/RequestParam.h ****         this->ints = (int32_t*)realloc(this->ints, ints_lengthT * sizeof(int32_t));
 4462              		.loc 4 117 0
 4463 03da 98F80430 		ldrb	r3, [r8, #4]	@ zero_extendqisi2
 4464 03de 9E42     		cmp	r6, r3
 4465 03e0 1ED8     		bhi	.L273
 4466              	.LVL529:
 4467              	.L239:
 120:ROSSerial/rosserial_msgs/RequestParam.h ****       for( uint8_t i = 0; i < ints_length; i++){
 4468              		.loc 4 120 0
 4469 03e2 88F80460 		strb	r6, [r8, #4]
 4470              	.LVL530:
 4471              	.LBB625:
 121:ROSSerial/rosserial_msgs/RequestParam.h ****       union {
 4472              		.loc 4 121 0
 4473 03e6 0022     		movs	r2, #0
 4474              	.LBE625:
 119:ROSSerial/rosserial_msgs/RequestParam.h ****       ints_length = ints_lengthT;
 4475              		.loc 4 119 0
 4476 03e8 0426     		movs	r6, #4
 4477              	.LVL531:
 4478              	.L241:
 4479              	.LBB627:
 121:ROSSerial/rosserial_msgs/RequestParam.h ****       union {
 4480              		.loc 4 121 0
 4481 03ea 98F80430 		ldrb	r3, [r8, #4]	@ zero_extendqisi2
 4482 03ee 9342     		cmp	r3, r2
 4483 03f0 1ED9     		bls	.L240
 4484              	.LBB626:
 127:ROSSerial/rosserial_msgs/RequestParam.h ****       u_st_ints.base |= ((uint32_t) (*(inbuffer + offset + 1))) << (8 * 1);
 4485              		.loc 4 127 0
 4486 03f2 BB5D     		ldrb	r3, [r7, r6]	@ zero_extendqisi2
 128:ROSSerial/rosserial_msgs/RequestParam.h ****       u_st_ints.base |= ((uint32_t) (*(inbuffer + offset + 2))) << (8 * 2);
 4487              		.loc 4 128 0
 4488 03f4 711C     		adds	r1, r6, #1
 4489 03f6 795C     		ldrb	r1, [r7, r1]	@ zero_extendqisi2
 4490 03f8 43EA0123 		orr	r3, r3, r1, lsl #8
 129:ROSSerial/rosserial_msgs/RequestParam.h ****       u_st_ints.base |= ((uint32_t) (*(inbuffer + offset + 3))) << (8 * 3);
 4491              		.loc 4 129 0
 4492 03fc B11C     		adds	r1, r6, #2
 4493 03fe 795C     		ldrb	r1, [r7, r1]	@ zero_extendqisi2
 4494 0400 43EA0143 		orr	r3, r3, r1, lsl #16
 130:ROSSerial/rosserial_msgs/RequestParam.h ****       this->st_ints = u_st_ints.real;
 4495              		.loc 4 130 0
 4496 0404 F11C     		adds	r1, r6, #3
 4497 0406 795C     		ldrb	r1, [r7, r1]	@ zero_extendqisi2
ARM GAS  /var/folders/l3/4y5292px21b4835bsnjwqc7w009kq1/T//ccOXyXY5.s 			page 111


 4498 0408 43EA0163 		orr	r3, r3, r1, lsl #24
 131:ROSSerial/rosserial_msgs/RequestParam.h ****       offset += sizeof(this->st_ints);
 4499              		.loc 4 131 0
 4500 040c C8F80830 		str	r3, [r8, #8]
 132:ROSSerial/rosserial_msgs/RequestParam.h ****         memcpy( &(this->ints[i]), &(this->st_ints), sizeof(int32_t));
 4501              		.loc 4 132 0
 4502 0410 0436     		adds	r6, r6, #4
 4503              	.LVL532:
 133:ROSSerial/rosserial_msgs/RequestParam.h ****       }
 4504              		.loc 4 133 0
 4505 0412 D8F80C10 		ldr	r1, [r8, #12]
 4506 0416 41F82230 		str	r3, [r1, r2, lsl #2]	@ unaligned
 4507              	.LBE626:
 121:ROSSerial/rosserial_msgs/RequestParam.h ****       union {
 4508              		.loc 4 121 0
 4509 041a 0132     		adds	r2, r2, #1
 4510              	.LVL533:
 4511 041c D2B2     		uxtb	r2, r2
 4512              	.LVL534:
 4513 041e E4E7     		b	.L241
 4514              	.LVL535:
 4515              	.L273:
 4516              	.LBE627:
 118:ROSSerial/rosserial_msgs/RequestParam.h ****       offset += 3;
 4517              		.loc 4 118 0
 4518 0420 B100     		lsls	r1, r6, #2
 4519              	.LVL536:
 4520 0422 D8F80C00 		ldr	r0, [r8, #12]
 4521 0426 FFF7FEFF 		bl	realloc
 4522              	.LVL537:
 4523 042a C8F80C00 		str	r0, [r8, #12]
 4524 042e D8E7     		b	.L239
 4525              	.LVL538:
 4526              	.L240:
 135:ROSSerial/rosserial_msgs/RequestParam.h ****       if(floats_lengthT > floats_length)
 4527              		.loc 4 135 0
 4528 0430 17F80690 		ldrb	r9, [r7, r6]	@ zero_extendqisi2
 4529              	.LVL539:
 136:ROSSerial/rosserial_msgs/RequestParam.h ****         this->floats = (float*)realloc(this->floats, floats_lengthT * sizeof(float));
 4530              		.loc 4 136 0
 4531 0434 98F81030 		ldrb	r3, [r8, #16]	@ zero_extendqisi2
 4532 0438 9945     		cmp	r9, r3
 4533 043a 2FD8     		bhi	.L274
 4534              	.LVL540:
 4535              	.L242:
 138:ROSSerial/rosserial_msgs/RequestParam.h ****       floats_length = floats_lengthT;
 4536              		.loc 4 138 0
 4537 043c 0436     		adds	r6, r6, #4
 4538              	.LVL541:
 139:ROSSerial/rosserial_msgs/RequestParam.h ****       for( uint8_t i = 0; i < floats_length; i++){
 4539              		.loc 4 139 0
 4540 043e 88F81090 		strb	r9, [r8, #16]
 4541              	.LVL542:
 4542              	.LBB628:
 140:ROSSerial/rosserial_msgs/RequestParam.h ****       union {
 4543              		.loc 4 140 0
 4544 0442 0022     		movs	r2, #0
ARM GAS  /var/folders/l3/4y5292px21b4835bsnjwqc7w009kq1/T//ccOXyXY5.s 			page 112


 4545              	.LVL543:
 4546              	.L244:
 4547 0444 98F81030 		ldrb	r3, [r8, #16]	@ zero_extendqisi2
 4548 0448 9342     		cmp	r3, r2
 4549 044a 30D9     		bls	.L243
 4550              	.LBB629:
 146:ROSSerial/rosserial_msgs/RequestParam.h ****       u_st_floats.base |= ((uint32_t) (*(inbuffer + offset + 1))) << (8 * 1);
 4551              		.loc 4 146 0
 4552 044c BB5D     		ldrb	r3, [r7, r6]	@ zero_extendqisi2
 147:ROSSerial/rosserial_msgs/RequestParam.h ****       u_st_floats.base |= ((uint32_t) (*(inbuffer + offset + 2))) << (8 * 2);
 4553              		.loc 4 147 0
 4554 044e 711C     		adds	r1, r6, #1
 4555 0450 795C     		ldrb	r1, [r7, r1]	@ zero_extendqisi2
 4556 0452 43EA0123 		orr	r3, r3, r1, lsl #8
 148:ROSSerial/rosserial_msgs/RequestParam.h ****       u_st_floats.base |= ((uint32_t) (*(inbuffer + offset + 3))) << (8 * 3);
 4557              		.loc 4 148 0
 4558 0456 B11C     		adds	r1, r6, #2
 4559 0458 795C     		ldrb	r1, [r7, r1]	@ zero_extendqisi2
 4560 045a 43EA0143 		orr	r3, r3, r1, lsl #16
 149:ROSSerial/rosserial_msgs/RequestParam.h ****       this->st_floats = u_st_floats.real;
 4561              		.loc 4 149 0
 4562 045e F11C     		adds	r1, r6, #3
 4563 0460 795C     		ldrb	r1, [r7, r1]	@ zero_extendqisi2
 4564 0462 43EA0163 		orr	r3, r3, r1, lsl #24
 150:ROSSerial/rosserial_msgs/RequestParam.h ****       offset += sizeof(this->st_floats);
 4565              		.loc 4 150 0
 4566 0466 C8F81430 		str	r3, [r8, #20]	@ float
 151:ROSSerial/rosserial_msgs/RequestParam.h ****         memcpy( &(this->floats[i]), &(this->st_floats), sizeof(float));
 4567              		.loc 4 151 0
 4568 046a 0436     		adds	r6, r6, #4
 4569              	.LVL544:
 152:ROSSerial/rosserial_msgs/RequestParam.h ****       }
 4570              		.loc 4 152 0
 4571 046c D8F81810 		ldr	r1, [r8, #24]
 4572 0470 41F82230 		str	r3, [r1, r2, lsl #2]	@ unaligned
 4573              	.LBE629:
 140:ROSSerial/rosserial_msgs/RequestParam.h ****       union {
 4574              		.loc 4 140 0
 4575 0474 0132     		adds	r2, r2, #1
 4576              	.LVL545:
 4577 0476 D2B2     		uxtb	r2, r2
 4578              	.LVL546:
 4579 0478 E4E7     		b	.L244
 4580              	.L278:
 4581 047a 00BF     		.align	2
 4582              	.L277:
 4583 047c 00000000 		.word	_ZZN3ros11NodeHandle_I13STM32HardwareLi5ELi5ELi512ELi512EE9spinOnce1EvE10s_CallBack
 4584 0480 08000000 		.word	_ZTVN8std_msgs4TimeE+8
 4585 0484 08000000 		.word	_ZTVN14rosserial_msgs3LogE+8
 4586 0488 00000000 		.word	.LC10
 4587 048c 08000000 		.word	_ZTVN14rosserial_msgs9TopicInfoE+8
 4588 0490 D34D6210 		.word	274877907
 4589 0494 40420F00 		.word	1000000
 4590 0498 00CA9A3B 		.word	1000000000
 4591              	.LVL547:
 4592              	.L274:
 4593              	.LBE628:
ARM GAS  /var/folders/l3/4y5292px21b4835bsnjwqc7w009kq1/T//ccOXyXY5.s 			page 113


 137:ROSSerial/rosserial_msgs/RequestParam.h ****       offset += 3;
 4594              		.loc 4 137 0
 4595 049c 4FEA8901 		lsl	r1, r9, #2
 4596 04a0 D8F81800 		ldr	r0, [r8, #24]
 4597 04a4 FFF7FEFF 		bl	realloc
 4598              	.LVL548:
 4599 04a8 C8F81800 		str	r0, [r8, #24]
 4600 04ac C6E7     		b	.L242
 4601              	.LVL549:
 4602              	.L243:
 154:ROSSerial/rosserial_msgs/RequestParam.h ****       if(strings_lengthT > strings_length)
 4603              		.loc 4 154 0
 4604 04ae 17F80690 		ldrb	r9, [r7, r6]	@ zero_extendqisi2
 4605              	.LVL550:
 155:ROSSerial/rosserial_msgs/RequestParam.h ****         this->strings = (char**)realloc(this->strings, strings_lengthT * sizeof(char*));
 4606              		.loc 4 155 0
 4607 04b2 98F81C30 		ldrb	r3, [r8, #28]	@ zero_extendqisi2
 4608 04b6 9945     		cmp	r9, r3
 4609 04b8 05D8     		bhi	.L275
 4610              	.LVL551:
 4611              	.L245:
 157:ROSSerial/rosserial_msgs/RequestParam.h ****       strings_length = strings_lengthT;
 4612              		.loc 4 157 0
 4613 04ba 321D     		adds	r2, r6, #4
 4614              	.LVL552:
 158:ROSSerial/rosserial_msgs/RequestParam.h ****       for( uint8_t i = 0; i < strings_length; i++){
 4615              		.loc 4 158 0
 4616 04bc 88F81C90 		strb	r9, [r8, #28]
 4617              	.LVL553:
 4618              	.LBB630:
 159:ROSSerial/rosserial_msgs/RequestParam.h ****       uint32_t length_st_strings;
 4619              		.loc 4 159 0
 4620 04c0 4FF0000C 		mov	ip, #0
 4621 04c4 17E0     		b	.L249
 4622              	.LVL554:
 4623              	.L275:
 4624              	.LBE630:
 156:ROSSerial/rosserial_msgs/RequestParam.h ****       offset += 3;
 4625              		.loc 4 156 0
 4626 04c6 4FEA8901 		lsl	r1, r9, #2
 4627 04ca D8F82400 		ldr	r0, [r8, #36]
 4628 04ce FFF7FEFF 		bl	realloc
 4629              	.LVL555:
 4630 04d2 C8F82400 		str	r0, [r8, #36]
 4631 04d6 F0E7     		b	.L245
 4632              	.LVL556:
 4633              	.L247:
 4634              	.LBB634:
 4635              	.LBB631:
 166:ROSSerial/rosserial_msgs/RequestParam.h ****       this->st_strings = (char *)(inbuffer + offset-1);
 4636              		.loc 4 166 0
 4637 04d8 531E     		subs	r3, r2, #1
 4638              	.LVL557:
 4639 04da 0021     		movs	r1, #0
 4640 04dc F954     		strb	r1, [r7, r3]
 167:ROSSerial/rosserial_msgs/RequestParam.h ****       offset += length_st_strings;
 4641              		.loc 4 167 0
ARM GAS  /var/folders/l3/4y5292px21b4835bsnjwqc7w009kq1/T//ccOXyXY5.s 			page 114


 4642 04de 731E     		subs	r3, r6, #1
 4643 04e0 3B44     		add	r3, r3, r7
 4644 04e2 C8F82030 		str	r3, [r8, #32]
 4645              	.LVL558:
 169:ROSSerial/rosserial_msgs/RequestParam.h ****       }
 4646              		.loc 4 169 0
 4647 04e6 D8F82410 		ldr	r1, [r8, #36]
 4648 04ea 41F82C30 		str	r3, [r1, ip, lsl #2]	@ unaligned
 4649              	.LVL559:
 4650              	.LBE631:
 159:ROSSerial/rosserial_msgs/RequestParam.h ****       uint32_t length_st_strings;
 4651              		.loc 4 159 0
 4652 04ee 0CF1010C 		add	ip, ip, #1
 4653              	.LVL560:
 4654 04f2 5FFA8CFC 		uxtb	ip, ip
 4655              	.LVL561:
 4656              	.L249:
 4657 04f6 98F81C30 		ldrb	r3, [r8, #28]	@ zero_extendqisi2
 4658 04fa 6345     		cmp	r3, ip
 4659 04fc 0AD9     		bls	.L246
 4660              	.LBB633:
 161:ROSSerial/rosserial_msgs/RequestParam.h ****       offset += 4;
 4661              		.loc 4 161 0
 4662 04fe B858     		ldr	r0, [r7, r2]	@ unaligned
 4663              	.LVL562:
 162:ROSSerial/rosserial_msgs/RequestParam.h ****       for(unsigned int k= offset; k< offset+length_st_strings; ++k){
 4664              		.loc 4 162 0
 4665 0500 161D     		adds	r6, r2, #4
 4666              	.LVL563:
 4667              	.LBB632:
 163:ROSSerial/rosserial_msgs/RequestParam.h ****           inbuffer[k-1]=inbuffer[k];
 4668              		.loc 4 163 0
 4669 0502 3346     		mov	r3, r6
 4670              	.LVL564:
 4671              	.L248:
 4672 0504 8219     		adds	r2, r0, r6
 4673 0506 9A42     		cmp	r2, r3
 4674 0508 E6D9     		bls	.L247
 164:ROSSerial/rosserial_msgs/RequestParam.h ****       }
 4675              		.loc 4 164 0
 4676 050a 5A1E     		subs	r2, r3, #1
 4677 050c F95C     		ldrb	r1, [r7, r3]	@ zero_extendqisi2
 4678 050e B954     		strb	r1, [r7, r2]
 163:ROSSerial/rosserial_msgs/RequestParam.h ****           inbuffer[k-1]=inbuffer[k];
 4679              		.loc 4 163 0
 4680 0510 0133     		adds	r3, r3, #1
 4681              	.LVL565:
 4682 0512 F7E7     		b	.L248
 4683              	.LVL566:
 4684              	.L246:
 4685              	.LBE632:
 4686              	.LBE633:
 4687              	.LBE634:
 4688              	.LBE624:
 4689              	.LBE623:
 372:ROSSerial/ros/node_handle.h ****           }
 4690              		.loc 7 372 0
ARM GAS  /var/folders/l3/4y5292px21b4835bsnjwqc7w009kq1/T//ccOXyXY5.s 			page 115


 4691 0514 0123     		movs	r3, #1
 4692 0516 84F82C35 		strb	r3, [r4, #1324]
 4693 051a ACE5     		b	.L210
 4694              	.LVL567:
 4695              	.L270:
 376:ROSSerial/ros/node_handle.h ****           }
 4696              		.loc 7 376 0
 4697 051c 0023     		movs	r3, #0
 4698 051e 84F81C35 		strb	r3, [r4, #1308]
 4699 0522 A8E5     		b	.L210
 4700              	.LVL568:
 4701              	.L258:
 4702              	.LBE574:
 4703              	.LBB635:
 4704              	.LBB636:
 4705              	.LBB637:
 4706              	.LBB638:
  14:ROSSerial/std_msgs/Time.h ****   {
 4707              		.loc 1 14 0
 4708 0524 2C4B     		ldr	r3, .L279
 4709 0526 0193     		str	r3, [sp, #4]
 4710              	.LVL569:
 4711              	.LBB639:
 4712              	.LBB640:
 4713              	.LBB641:
 4714              		.loc 9 51 0
 4715 0528 0026     		movs	r6, #0
 4716 052a 0296     		str	r6, [sp, #8]
 4717 052c 0396     		str	r6, [sp, #12]
 4718              	.LVL570:
 4719              	.LBE641:
 4720              	.LBE640:
 4721              	.LBE639:
 4722              	.LBE638:
 4723              	.LBE637:
 4724              	.LBB642:
 4725              	.LBB643:
 609:ROSSerial/ros/node_handle.h **** 
 4726              		.loc 7 609 0
 4727 052e 1B68     		ldr	r3, [r3]
 4728 0530 04F21F21 		addw	r1, r4, #543
 4729 0534 01A8     		add	r0, sp, #4
 4730              	.LVL571:
 4731 0536 9847     		blx	r3
 4732              	.LVL572:
 612:ROSSerial/ros/node_handle.h ****     message_out[1] = PROTOCOL_VER;
 4733              		.loc 7 612 0
 4734 0538 FF23     		movs	r3, #255
 4735 053a 84F81832 		strb	r3, [r4, #536]
 613:ROSSerial/ros/node_handle.h ****     message_out[2] = (uint8_t)((uint16_t)l & 255);
 4736              		.loc 7 613 0
 4737 053e FE23     		movs	r3, #254
 4738 0540 84F81932 		strb	r3, [r4, #537]
 614:ROSSerial/ros/node_handle.h ****     message_out[3] = (uint8_t)((uint16_t)l >> 8);
 4739              		.loc 7 614 0
 4740 0544 C3B2     		uxtb	r3, r0
 4741 0546 84F81A32 		strb	r3, [r4, #538]
ARM GAS  /var/folders/l3/4y5292px21b4835bsnjwqc7w009kq1/T//ccOXyXY5.s 			page 116


 615:ROSSerial/ros/node_handle.h ****     message_out[4] = 255 - ((message_out[2] + message_out[3]) % 256);
 4742              		.loc 7 615 0
 4743 054a C0F30722 		ubfx	r2, r0, #8, #8
 4744 054e 84F81B22 		strb	r2, [r4, #539]
 616:ROSSerial/ros/node_handle.h ****     message_out[5] = (uint8_t)((int16_t)id & 255);
 4745              		.loc 7 616 0
 4746 0552 1344     		add	r3, r3, r2
 4747 0554 DBB2     		uxtb	r3, r3
 4748 0556 DB43     		mvns	r3, r3
 4749 0558 84F81C32 		strb	r3, [r4, #540]
 617:ROSSerial/ros/node_handle.h ****     message_out[6] = (uint8_t)((int16_t)id >> 8);
 4750              		.loc 7 617 0
 4751 055c 0A23     		movs	r3, #10
 4752 055e 84F81D32 		strb	r3, [r4, #541]
 618:ROSSerial/ros/node_handle.h **** 
 4753              		.loc 7 618 0
 4754 0562 84F81E62 		strb	r6, [r4, #542]
 4755              	.LVL573:
 4756              	.LBB644:
 622:ROSSerial/ros/node_handle.h ****       chk += message_out[i];
 4757              		.loc 7 622 0
 4758 0566 0522     		movs	r2, #5
 4759              	.LBE644:
 621:ROSSerial/ros/node_handle.h ****     for (int i = 5; i < l + 7; i++)
 4760              		.loc 7 621 0
 4761 0568 3346     		mov	r3, r6
 4762 056a 04E0     		b	.L252
 4763              	.LVL574:
 4764              	.L276:
 4765              	.LBB645:
 623:ROSSerial/ros/node_handle.h ****     l += 7;
 4766              		.loc 7 623 0
 4767 056c A118     		adds	r1, r4, r2
 4768 056e 91F81812 		ldrb	r1, [r1, #536]	@ zero_extendqisi2
 4769 0572 0B44     		add	r3, r3, r1
 4770              	.LVL575:
 622:ROSSerial/ros/node_handle.h ****       chk += message_out[i];
 4771              		.loc 7 622 0
 4772 0574 0132     		adds	r2, r2, #1
 4773              	.LVL576:
 4774              	.L252:
 4775 0576 C11D     		adds	r1, r0, #7
 4776 0578 9142     		cmp	r1, r2
 4777 057a F7DC     		bgt	.L276
 4778              	.LVL577:
 4779              	.LBE645:
 625:ROSSerial/ros/node_handle.h ****     //printf("Sending message - %s\n",msg->getType());
 4780              		.loc 7 625 0
 4781 057c 5A42     		rsbs	r2, r3, #0
 4782              	.LVL578:
 4783 057e DBB2     		uxtb	r3, r3
 4784              	.LVL579:
 4785 0580 D2B2     		uxtb	r2, r2
 4786 0582 58BF     		it	pl
 4787 0584 5342     		rsbpl	r3, r2, #0
 4788 0586 00F10802 		add	r2, r0, #8
 4789              	.LVL580:
ARM GAS  /var/folders/l3/4y5292px21b4835bsnjwqc7w009kq1/T//ccOXyXY5.s 			page 117


 4790 058a DB43     		mvns	r3, r3
 4791 058c 2144     		add	r1, r1, r4
 4792 058e 81F81832 		strb	r3, [r1, #536]
 627:ROSSerial/ros/node_handle.h ****     {
 4793              		.loc 7 627 0
 4794 0592 B2F5007F 		cmp	r2, #512
 4795 0596 0CDC     		bgt	.L253
 4796              	.LVL581:
 4797              	.LBB646:
 4798              	.LBB647:
  89:ROSSerial/AT32hardware.h **** 	}
 4799              		.loc 8 89 0
 4800 0598 92B2     		uxth	r2, r2
 4801              	.LVL582:
 4802 059a 04F50671 		add	r1, r4, #536
 4803              	.LVL583:
 4804 059e 0120     		movs	r0, #1
 4805              	.LVL584:
 4806 05a0 FFF7FEFF 		bl	comSendBuf
 4807              	.LVL585:
 4808              	.L254:
 4809              	.LBE647:
 4810              	.LBE646:
 4811              	.LBE643:
 4812              	.LBE642:
 4813              	.LBB654:
 4814              	.LBB655:
 4815              		.loc 8 102 0
 4816 05a4 FFF7FEFF 		bl	millis
 4817              	.LVL586:
 4818              	.LBE655:
 4819              	.LBE654:
 414:ROSSerial/ros/node_handle.h ****   }
 4820              		.loc 7 414 0
 4821 05a8 A060     		str	r0, [r4, #8]
 4822              	.LVL587:
 4823              	.LBE636:
 4824              	.LBE635:
 393:ROSSerial/ros/node_handle.h ****     }
 4825              		.loc 7 393 0
 4826 05aa C4F82055 		str	r5, [r4, #1312]
 396:ROSSerial/ros/node_handle.h ****   }
 4827              		.loc 7 396 0
 4828 05ae 0020     		movs	r0, #0
 4829 05b0 0EE0     		b	.L207
 4830              	.LVL588:
 4831              	.L253:
 4832              	.LBB658:
 4833              	.LBB657:
 4834              	.LBB656:
 4835              	.LBB653:
 4836              	.LBB648:
 4837              	.LBB649:
 4838              	.LBB650:
 4839              	.LBB651:
 4840              	.LBB652:
  13:ROSSerial/rosserial_msgs/Log.h ****   {
ARM GAS  /var/folders/l3/4y5292px21b4835bsnjwqc7w009kq1/T//ccOXyXY5.s 			page 118


 4841              		.loc 3 13 0
 4842 05b2 0A4B     		ldr	r3, .L279+4
 4843 05b4 0493     		str	r3, [sp, #16]
 4844              	.LVL589:
 4845              	.LBE652:
 4846              	.LBE651:
 647:ROSSerial/ros/node_handle.h ****     l.msg = (char*)msg;
 4847              		.loc 7 647 0
 4848 05b6 0323     		movs	r3, #3
 4849 05b8 8DF81430 		strb	r3, [sp, #20]
 648:ROSSerial/ros/node_handle.h ****     publish1(rosserial_msgs::TopicInfo::ID_LOG, &l);
 4850              		.loc 7 648 0
 4851 05bc 084B     		ldr	r3, .L279+8
 4852 05be 0693     		str	r3, [sp, #24]
 4853              		.loc 7 649 0
 4854 05c0 04AA     		add	r2, sp, #16
 4855              	.LVL590:
 4856 05c2 0721     		movs	r1, #7
 4857 05c4 2046     		mov	r0, r4
 4858              	.LVL591:
 4859 05c6 FFF7FEFF 		bl	_ZN3ros11NodeHandle_I13STM32HardwareLi5ELi5ELi512ELi512EE8publish1EiPNS_3MsgE
 4860              	.LVL592:
 4861 05ca EBE7     		b	.L254
 4862              	.LVL593:
 4863              	.L255:
 4864              	.LBE650:
 4865              	.LBE649:
 4866              	.LBE648:
 4867              	.LBE653:
 4868              	.LBE656:
 4869              	.LBE657:
 4870              	.LBE658:
 4871              	.LBB659:
 279:ROSSerial/ros/node_handle.h ****         }
 4872              		.loc 7 279 0
 4873 05cc 6FF00100 		mvn	r0, #1
 4874              	.LVL594:
 4875              	.L207:
 4876              	.LBE659:
 4877              	.LBE660:
 4878              	.LBE661:
 240:ROSSerial/ros/node_handle.h **** 
 4879              		.loc 7 240 0
 4880 05d0 0BB0     		add	sp, sp, #44
 4881              	.LCFI28:
 4882              		.cfi_def_cfa_offset 28
 4883              		@ sp needed
 4884 05d2 BDE8F083 		pop	{r4, r5, r6, r7, r8, r9, pc}
 4885              	.LVL595:
 4886              	.L280:
 4887 05d6 00BF     		.align	2
 4888              	.L279:
 4889 05d8 08000000 		.word	_ZTVN8std_msgs4TimeE+8
 4890 05dc 08000000 		.word	_ZTVN14rosserial_msgs3LogE+8
 4891 05e0 00000000 		.word	.LC10
 4892              		.cfi_endproc
 4893              	.LFE512:
ARM GAS  /var/folders/l3/4y5292px21b4835bsnjwqc7w009kq1/T//ccOXyXY5.s 			page 119


 4894              		.fnend
 4896              		.section	.text._GLOBAL__sub_I_nh,"ax",%progbits
 4897              		.align	1
 4898              		.syntax unified
 4899              		.thumb
 4900              		.thumb_func
 4901              		.fpu fpv4-sp-d16
 4903              	_GLOBAL__sub_I_nh:
 4904              		.fnstart
 4905              	.LFB514:
 4906              		.loc 6 37 0
 4907              		.cfi_startproc
 4908              		@ args = 0, pretend = 0, frame = 0
 4909              		@ frame_needed = 0, uses_anonymous_args = 0
 4910 0000 08B5     		push	{r3, lr}
 4911              	.LCFI29:
 4912              		.cfi_def_cfa_offset 8
 4913              		.cfi_offset 3, -8
 4914              		.cfi_offset 14, -4
 4915              		.loc 6 37 0
 4916 0002 4FF6FF71 		movw	r1, #65535
 4917 0006 0120     		movs	r0, #1
 4918 0008 FFF7FEFF 		bl	_Z41__static_initialization_and_destruction_0ii
 4919              	.LVL596:
 4920 000c 08BD     		pop	{r3, pc}
 4921              		.cfi_endproc
 4922              	.LFE514:
 4923              		.cantunwind
 4924              		.fnend
 4926              		.section	.init_array,"aw",%init_array
 4927              		.align	2
 4928 0000 00000000 		.word	_GLOBAL__sub_I_nh(target1)
 4929              		.weak	_ZTVN8std_msgs4TimeE
 4930              		.section	.rodata._ZTVN8std_msgs4TimeE,"aG",%progbits,_ZTVN8std_msgs4TimeE,comdat
 4931              		.align	2
 4934              	_ZTVN8std_msgs4TimeE:
 4935 0000 00000000 		.word	0
 4936 0004 00000000 		.word	0
 4937 0008 00000000 		.word	_ZNK8std_msgs4Time9serializeEPh
 4938 000c 00000000 		.word	_ZN8std_msgs4Time11deserializeEPh
 4939 0010 00000000 		.word	_ZN8std_msgs4Time7getTypeEv
 4940 0014 00000000 		.word	_ZN8std_msgs4Time6getMD5Ev
 4941              		.weak	_ZTVN14rosserial_msgs9TopicInfoE
 4942              		.section	.rodata._ZTVN14rosserial_msgs9TopicInfoE,"aG",%progbits,_ZTVN14rosserial_msgs9TopicInfoE,
 4943              		.align	2
 4946              	_ZTVN14rosserial_msgs9TopicInfoE:
 4947 0000 00000000 		.word	0
 4948 0004 00000000 		.word	0
 4949 0008 00000000 		.word	_ZNK14rosserial_msgs9TopicInfo9serializeEPh
 4950 000c 00000000 		.word	_ZN14rosserial_msgs9TopicInfo11deserializeEPh
 4951 0010 00000000 		.word	_ZN14rosserial_msgs9TopicInfo7getTypeEv
 4952 0014 00000000 		.word	_ZN14rosserial_msgs9TopicInfo6getMD5Ev
 4953              		.weak	_ZTVN14rosserial_msgs3LogE
 4954              		.section	.rodata._ZTVN14rosserial_msgs3LogE,"aG",%progbits,_ZTVN14rosserial_msgs3LogE,comdat
 4955              		.align	2
 4958              	_ZTVN14rosserial_msgs3LogE:
 4959 0000 00000000 		.word	0
ARM GAS  /var/folders/l3/4y5292px21b4835bsnjwqc7w009kq1/T//ccOXyXY5.s 			page 120


 4960 0004 00000000 		.word	0
 4961 0008 00000000 		.word	_ZNK14rosserial_msgs3Log9serializeEPh
 4962 000c 00000000 		.word	_ZN14rosserial_msgs3Log11deserializeEPh
 4963 0010 00000000 		.word	_ZN14rosserial_msgs3Log7getTypeEv
 4964 0014 00000000 		.word	_ZN14rosserial_msgs3Log6getMD5Ev
 4965              		.weak	_ZTVN14rosserial_msgs20RequestParamResponseE
 4966              		.section	.rodata._ZTVN14rosserial_msgs20RequestParamResponseE,"aG",%progbits,_ZTVN14rosserial_msgs
 4967              		.align	2
 4970              	_ZTVN14rosserial_msgs20RequestParamResponseE:
 4971 0000 00000000 		.word	0
 4972 0004 00000000 		.word	0
 4973 0008 00000000 		.word	_ZNK14rosserial_msgs20RequestParamResponse9serializeEPh
 4974 000c 00000000 		.word	_ZN14rosserial_msgs20RequestParamResponse11deserializeEPh
 4975 0010 00000000 		.word	_ZN14rosserial_msgs20RequestParamResponse7getTypeEv
 4976 0014 00000000 		.word	_ZN14rosserial_msgs20RequestParamResponse6getMD5Ev
 4977              		.weak	_ZTVN8std_msgs6StringE
 4978              		.section	.rodata._ZTVN8std_msgs6StringE,"aG",%progbits,_ZTVN8std_msgs6StringE,comdat
 4979              		.align	2
 4982              	_ZTVN8std_msgs6StringE:
 4983 0000 00000000 		.word	0
 4984 0004 00000000 		.word	0
 4985 0008 00000000 		.word	_ZNK8std_msgs6String9serializeEPh
 4986 000c 00000000 		.word	_ZN8std_msgs6String11deserializeEPh
 4987 0010 00000000 		.word	_ZN8std_msgs6String7getTypeEv
 4988 0014 00000000 		.word	_ZN8std_msgs6String6getMD5Ev
 4989              		.weak	_ZTVN3ros11NodeHandle_I13STM32HardwareLi5ELi5ELi512ELi512EEE
 4990              		.section	.rodata._ZTVN3ros11NodeHandle_I13STM32HardwareLi5ELi5ELi512ELi512EEE,"aG",%progbits,_ZTVN
 4991              		.align	2
 4994              	_ZTVN3ros11NodeHandle_I13STM32HardwareLi5ELi5ELi512ELi512EEE:
 4995 0000 00000000 		.word	0
 4996 0004 00000000 		.word	0
 4997 0008 00000000 		.word	_ZN3ros11NodeHandle_I13STM32HardwareLi5ELi5ELi512ELi512EE7publishEiPKNS_3MsgE
 4998 000c 00000000 		.word	_ZN3ros11NodeHandle_I13STM32HardwareLi5ELi5ELi512ELi512EE8spinOnceEv
 4999 0010 00000000 		.word	_ZN3ros11NodeHandle_I13STM32HardwareLi5ELi5ELi512ELi512EE9connectedEv
 5000              		.weak	_ZZN3ros11NodeHandle_I13STM32HardwareLi5ELi5ELi512ELi512EE9spinOnce1EvE10s_CallBack
 5001              		.section	.bss._ZZN3ros11NodeHandle_I13STM32HardwareLi5ELi5ELi512ELi512EE9spinOnce1EvE10s_CallBack,
 5002              		.align	2
 5005              	_ZZN3ros11NodeHandle_I13STM32HardwareLi5ELi5ELi512ELi512EE9spinOnce1EvE10s_CallBack:
 5006 0000 00000000 		.space	4
 5007              		.global	chatter
 5008              		.global	nh
 5009              		.section	.bss.chatter,"aw",%nobits
 5010              		.align	2
 5011              		.set	.LANCHOR2,. + 0
 5014              	chatter:
 5015 0000 00000000 		.space	4
 5016              		.section	.bss.nh,"aw",%nobits
 5017              		.align	2
 5018              		.set	.LANCHOR1,. + 0
 5021              	nh:
 5022 0000 00000000 		.space	1368
 5022      00000000 
 5022      00000000 
 5022      00000000 
 5022      00000000 
 5023              		.section	.rodata._Z7ros_runv.str1.4,"aMS",%progbits,1
 5024              		.align	2
ARM GAS  /var/folders/l3/4y5292px21b4835bsnjwqc7w009kq1/T//ccOXyXY5.s 			page 121


 5025              	.LC11:
 5026 0000 4D696C6C 		.ascii	"Millis %d\000"
 5026      69732025 
 5026      6400
 5027              		.section	.rodata._Z8ros_initv.str1.4,"aMS",%progbits,1
 5028              		.align	2
 5029              	.LC9:
 5030 0000 63686174 		.ascii	"chatter\000"
 5030      74657200 
 5031              		.section	.rodata._ZN14rosserial_msgs20RequestParamResponse6getMD5Ev.str1.4,"aMS",%progbits,1
 5032              		.align	2
 5033              	.LC6:
 5034 0000 39663065 		.ascii	"9f0e98bda65981986ddf53afa7a40e49\000"
 5034      39386264 
 5034      61363539 
 5034      38313938 
 5034      36646466 
 5035              		.section	.rodata._ZN14rosserial_msgs3Log6getMD5Ev.str1.4,"aMS",%progbits,1
 5036              		.align	2
 5037              	.LC5:
 5038 0000 31316162 		.ascii	"11abd731c25933261cd6183bd12d6295\000"
 5038      64373331 
 5038      63323539 
 5038      33333236 
 5038      31636436 
 5039              		.section	.rodata._ZN14rosserial_msgs3Log7getTypeEv.str1.4,"aMS",%progbits,1
 5040              		.align	2
 5041              	.LC4:
 5042 0000 726F7373 		.ascii	"rosserial_msgs/Log\000"
 5042      65726961 
 5042      6C5F6D73 
 5042      67732F4C 
 5042      6F6700
 5043              		.section	.rodata._ZN14rosserial_msgs9TopicInfo6getMD5Ev.str1.4,"aMS",%progbits,1
 5044              		.align	2
 5045              	.LC3:
 5046 0000 30616435 		.ascii	"0ad51f88fc44892f8c10684077646005\000"
 5046      31663838 
 5046      66633434 
 5046      38393266 
 5046      38633130 
 5047              		.section	.rodata._ZN14rosserial_msgs9TopicInfo7getTypeEv.str1.4,"aMS",%progbits,1
 5048              		.align	2
 5049              	.LC2:
 5050 0000 726F7373 		.ascii	"rosserial_msgs/TopicInfo\000"
 5050      65726961 
 5050      6C5F6D73 
 5050      67732F54 
 5050      6F706963 
 5051              		.section	.rodata._ZN14rosserial_msgsL12REQUESTPARAME,"a",%progbits
 5052              		.align	2
 5053              		.set	.LANCHOR0,. + 0
 5056              	_ZN14rosserial_msgsL12REQUESTPARAME:
 5057 0000 726F7373 		.ascii	"rosserial_msgs/RequestParam\000"
 5057      65726961 
 5057      6C5F6D73 
 5057      67732F52 
ARM GAS  /var/folders/l3/4y5292px21b4835bsnjwqc7w009kq1/T//ccOXyXY5.s 			page 122


 5057      65717565 
 5058              		.section	.rodata._ZN3ros11NodeHandle_I13STM32HardwareLi5ELi5ELi512ELi512EE8publish1EiPNS_3MsgE.str
 5059              		.align	2
 5060              	.LC10:
 5061 0000 4D657373 		.ascii	"Message from device dropped: message larger than bu"
 5061      61676520 
 5061      66726F6D 
 5061      20646576 
 5061      69636520 
 5062 0033 66666572 		.ascii	"ffer.\000"
 5062      2E00
 5063              		.section	.rodata._ZN8std_msgs4Time6getMD5Ev.str1.4,"aMS",%progbits,1
 5064              		.align	2
 5065              	.LC1:
 5066 0000 63643731 		.ascii	"cd7166c74c552c311fbcc2fe5a7bc289\000"
 5066      36366337 
 5066      34633535 
 5066      32633331 
 5066      31666263 
 5067              		.section	.rodata._ZN8std_msgs4Time7getTypeEv.str1.4,"aMS",%progbits,1
 5068              		.align	2
 5069              	.LC0:
 5070 0000 7374645F 		.ascii	"std_msgs/Time\000"
 5070      6D736773 
 5070      2F54696D 
 5070      6500
 5071              		.section	.rodata._ZN8std_msgs6String6getMD5Ev.str1.4,"aMS",%progbits,1
 5072              		.align	2
 5073              	.LC8:
 5074 0000 39393263 		.ascii	"992ce8a1687cec8c8bd883ec73ca41d1\000"
 5074      65386131 
 5074      36383763 
 5074      65633863 
 5074      38626438 
 5075              		.section	.rodata._ZN8std_msgs6String7getTypeEv.str1.4,"aMS",%progbits,1
 5076              		.align	2
 5077              	.LC7:
 5078 0000 7374645F 		.ascii	"std_msgs/String\000"
 5078      6D736773 
 5078      2F537472 
 5078      696E6700 
 5079              		.text
 5080              	.Letext0:
 5081              		.file 10 "/usr/local/Cellar/gcc-arm-none-eabi/20180627/arm-none-eabi/include/machine/_default_type
 5082              		.file 11 "/usr/local/Cellar/gcc-arm-none-eabi/20180627/arm-none-eabi/include/sys/_stdint.h"
 5083              		.file 12 "../Libraries/CMSIS/CM4/CoreSupport/core_cm4.h"
 5084              		.file 13 "../Libraries/CMSIS/CM4/DeviceSupport/system_at32f4xx.h"
 5085              		.file 14 "../Libraries/CMSIS/CM4/DeviceSupport/at32f4xx.h"
 5086              		.file 15 "bsp/inc/bsp_uart_fifo.h"
 5087              		.file 16 "/usr/local/Cellar/gcc-arm-none-eabi/20180627/lib/gcc/arm-none-eabi/7.3.1/include/stddef.
 5088              		.file 17 "/usr/local/Cellar/gcc-arm-none-eabi/20180627/arm-none-eabi/include/sys/lock.h"
 5089              		.file 18 "/usr/local/Cellar/gcc-arm-none-eabi/20180627/arm-none-eabi/include/sys/_types.h"
 5090              		.file 19 "/usr/local/Cellar/gcc-arm-none-eabi/20180627/arm-none-eabi/include/sys/reent.h"
 5091              		.file 20 "/usr/local/Cellar/gcc-arm-none-eabi/20180627/arm-none-eabi/include/c++/7.3.1/cstdlib"
 5092              		.file 21 "/usr/local/Cellar/gcc-arm-none-eabi/20180627/arm-none-eabi/include/c++/7.3.1/bits/cpp_ty
 5093              		.file 22 "/usr/local/Cellar/gcc-arm-none-eabi/20180627/arm-none-eabi/include/c++/7.3.1/cmath"
 5094              		.file 23 "/usr/local/Cellar/gcc-arm-none-eabi/20180627/arm-none-eabi/include/c++/7.3.1/cstring"
ARM GAS  /var/folders/l3/4y5292px21b4835bsnjwqc7w009kq1/T//ccOXyXY5.s 			page 123


 5095              		.file 24 "/usr/local/Cellar/gcc-arm-none-eabi/20180627/arm-none-eabi/include/c++/7.3.1/arm-none-ea
 5096              		.file 25 "/usr/local/Cellar/gcc-arm-none-eabi/20180627/arm-none-eabi/include/stdlib.h"
 5097              		.file 26 "/usr/local/Cellar/gcc-arm-none-eabi/20180627/arm-none-eabi/include/c++/7.3.1/stdlib.h"
 5098              		.file 27 "/usr/local/Cellar/gcc-arm-none-eabi/20180627/arm-none-eabi/include/math.h"
 5099              		.file 28 "/usr/local/Cellar/gcc-arm-none-eabi/20180627/arm-none-eabi/include/c++/7.3.1/math.h"
 5100              		.file 29 "<built-in>"
 5101              		.file 30 "ROSSerial/ros/msg.h"
 5102              		.file 31 "ROSSerial/ros/duration.h"
 5103              		.file 32 "ROSSerial/ros/publisher.h"
 5104              		.file 33 "ROSSerial/ros.h"
 5105              		.file 34 "/usr/local/Cellar/gcc-arm-none-eabi/20180627/arm-none-eabi/include/string.h"
 5106              		.file 35 "bsp/inc/bsp_timer.h"
 5107              		.file 36 "/usr/local/Cellar/gcc-arm-none-eabi/20180627/arm-none-eabi/include/stdio.h"
ARM GAS  /var/folders/l3/4y5292px21b4835bsnjwqc7w009kq1/T//ccOXyXY5.s 			page 124


DEFINED SYMBOLS
                            *ABS*:0000000000000000 ros.cpp
/var/folders/l3/4y5292px21b4835bsnjwqc7w009kq1/T//ccOXyXY5.s:17     .text._ZNK8std_msgs4Time9serializeEPh:0000000000000000 $t
/var/folders/l3/4y5292px21b4835bsnjwqc7w009kq1/T//ccOXyXY5.s:24     .text._ZNK8std_msgs4Time9serializeEPh:0000000000000000 _ZNK8std_msgs4Time9serializeEPh
.ARM.exidx.text._ZNK8std_msgs4Time9serializeEPh:0000000000000000 $d
/var/folders/l3/4y5292px21b4835bsnjwqc7w009kq1/T//ccOXyXY5.s:72     .text._ZN8std_msgs4Time11deserializeEPh:0000000000000000 $t
/var/folders/l3/4y5292px21b4835bsnjwqc7w009kq1/T//ccOXyXY5.s:79     .text._ZN8std_msgs4Time11deserializeEPh:0000000000000000 _ZN8std_msgs4Time11deserializeEPh
.ARM.exidx.text._ZN8std_msgs4Time11deserializeEPh:0000000000000000 $d
/var/folders/l3/4y5292px21b4835bsnjwqc7w009kq1/T//ccOXyXY5.s:130    .text._ZN8std_msgs4Time7getTypeEv:0000000000000000 $t
/var/folders/l3/4y5292px21b4835bsnjwqc7w009kq1/T//ccOXyXY5.s:137    .text._ZN8std_msgs4Time7getTypeEv:0000000000000000 _ZN8std_msgs4Time7getTypeEv
/var/folders/l3/4y5292px21b4835bsnjwqc7w009kq1/T//ccOXyXY5.s:153    .text._ZN8std_msgs4Time7getTypeEv:0000000000000004 $d
.ARM.exidx.text._ZN8std_msgs4Time7getTypeEv:0000000000000000 $d
/var/folders/l3/4y5292px21b4835bsnjwqc7w009kq1/T//ccOXyXY5.s:160    .text._ZN8std_msgs4Time6getMD5Ev:0000000000000000 $t
/var/folders/l3/4y5292px21b4835bsnjwqc7w009kq1/T//ccOXyXY5.s:167    .text._ZN8std_msgs4Time6getMD5Ev:0000000000000000 _ZN8std_msgs4Time6getMD5Ev
/var/folders/l3/4y5292px21b4835bsnjwqc7w009kq1/T//ccOXyXY5.s:183    .text._ZN8std_msgs4Time6getMD5Ev:0000000000000004 $d
.ARM.exidx.text._ZN8std_msgs4Time6getMD5Ev:0000000000000000 $d
/var/folders/l3/4y5292px21b4835bsnjwqc7w009kq1/T//ccOXyXY5.s:190    .text._ZN14rosserial_msgs9TopicInfo11deserializeEPh:0000000000000000 $t
/var/folders/l3/4y5292px21b4835bsnjwqc7w009kq1/T//ccOXyXY5.s:197    .text._ZN14rosserial_msgs9TopicInfo11deserializeEPh:0000000000000000 _ZN14rosserial_msgs9TopicInfo11deserializeEPh
.ARM.exidx.text._ZN14rosserial_msgs9TopicInfo11deserializeEPh:0000000000000000 $d
/var/folders/l3/4y5292px21b4835bsnjwqc7w009kq1/T//ccOXyXY5.s:359    .text._ZN14rosserial_msgs9TopicInfo7getTypeEv:0000000000000000 $t
/var/folders/l3/4y5292px21b4835bsnjwqc7w009kq1/T//ccOXyXY5.s:366    .text._ZN14rosserial_msgs9TopicInfo7getTypeEv:0000000000000000 _ZN14rosserial_msgs9TopicInfo7getTypeEv
/var/folders/l3/4y5292px21b4835bsnjwqc7w009kq1/T//ccOXyXY5.s:382    .text._ZN14rosserial_msgs9TopicInfo7getTypeEv:0000000000000004 $d
.ARM.exidx.text._ZN14rosserial_msgs9TopicInfo7getTypeEv:0000000000000000 $d
/var/folders/l3/4y5292px21b4835bsnjwqc7w009kq1/T//ccOXyXY5.s:389    .text._ZN14rosserial_msgs9TopicInfo6getMD5Ev:0000000000000000 $t
/var/folders/l3/4y5292px21b4835bsnjwqc7w009kq1/T//ccOXyXY5.s:396    .text._ZN14rosserial_msgs9TopicInfo6getMD5Ev:0000000000000000 _ZN14rosserial_msgs9TopicInfo6getMD5Ev
/var/folders/l3/4y5292px21b4835bsnjwqc7w009kq1/T//ccOXyXY5.s:412    .text._ZN14rosserial_msgs9TopicInfo6getMD5Ev:0000000000000004 $d
.ARM.exidx.text._ZN14rosserial_msgs9TopicInfo6getMD5Ev:0000000000000000 $d
/var/folders/l3/4y5292px21b4835bsnjwqc7w009kq1/T//ccOXyXY5.s:419    .text._ZN14rosserial_msgs3Log11deserializeEPh:0000000000000000 $t
/var/folders/l3/4y5292px21b4835bsnjwqc7w009kq1/T//ccOXyXY5.s:426    .text._ZN14rosserial_msgs3Log11deserializeEPh:0000000000000000 _ZN14rosserial_msgs3Log11deserializeEPh
.ARM.exidx.text._ZN14rosserial_msgs3Log11deserializeEPh:0000000000000000 $d
/var/folders/l3/4y5292px21b4835bsnjwqc7w009kq1/T//ccOXyXY5.s:494    .text._ZN14rosserial_msgs3Log7getTypeEv:0000000000000000 $t
/var/folders/l3/4y5292px21b4835bsnjwqc7w009kq1/T//ccOXyXY5.s:501    .text._ZN14rosserial_msgs3Log7getTypeEv:0000000000000000 _ZN14rosserial_msgs3Log7getTypeEv
/var/folders/l3/4y5292px21b4835bsnjwqc7w009kq1/T//ccOXyXY5.s:517    .text._ZN14rosserial_msgs3Log7getTypeEv:0000000000000004 $d
.ARM.exidx.text._ZN14rosserial_msgs3Log7getTypeEv:0000000000000000 $d
/var/folders/l3/4y5292px21b4835bsnjwqc7w009kq1/T//ccOXyXY5.s:524    .text._ZN14rosserial_msgs3Log6getMD5Ev:0000000000000000 $t
/var/folders/l3/4y5292px21b4835bsnjwqc7w009kq1/T//ccOXyXY5.s:531    .text._ZN14rosserial_msgs3Log6getMD5Ev:0000000000000000 _ZN14rosserial_msgs3Log6getMD5Ev
/var/folders/l3/4y5292px21b4835bsnjwqc7w009kq1/T//ccOXyXY5.s:547    .text._ZN14rosserial_msgs3Log6getMD5Ev:0000000000000004 $d
.ARM.exidx.text._ZN14rosserial_msgs3Log6getMD5Ev:0000000000000000 $d
/var/folders/l3/4y5292px21b4835bsnjwqc7w009kq1/T//ccOXyXY5.s:554    .text._ZN14rosserial_msgs20RequestParamResponse7getTypeEv:0000000000000000 $t
/var/folders/l3/4y5292px21b4835bsnjwqc7w009kq1/T//ccOXyXY5.s:561    .text._ZN14rosserial_msgs20RequestParamResponse7getTypeEv:0000000000000000 _ZN14rosserial_msgs20RequestParamResponse7getTypeEv
/var/folders/l3/4y5292px21b4835bsnjwqc7w009kq1/T//ccOXyXY5.s:578    .text._ZN14rosserial_msgs20RequestParamResponse7getTypeEv:0000000000000004 $d
.ARM.exidx.text._ZN14rosserial_msgs20RequestParamResponse7getTypeEv:0000000000000000 $d
/var/folders/l3/4y5292px21b4835bsnjwqc7w009kq1/T//ccOXyXY5.s:585    .text._ZN14rosserial_msgs20RequestParamResponse6getMD5Ev:0000000000000000 $t
/var/folders/l3/4y5292px21b4835bsnjwqc7w009kq1/T//ccOXyXY5.s:592    .text._ZN14rosserial_msgs20RequestParamResponse6getMD5Ev:0000000000000000 _ZN14rosserial_msgs20RequestParamResponse6getMD5Ev
/var/folders/l3/4y5292px21b4835bsnjwqc7w009kq1/T//ccOXyXY5.s:608    .text._ZN14rosserial_msgs20RequestParamResponse6getMD5Ev:0000000000000004 $d
.ARM.exidx.text._ZN14rosserial_msgs20RequestParamResponse6getMD5Ev:0000000000000000 $d
/var/folders/l3/4y5292px21b4835bsnjwqc7w009kq1/T//ccOXyXY5.s:615    .text._ZN8std_msgs6String11deserializeEPh:0000000000000000 $t
/var/folders/l3/4y5292px21b4835bsnjwqc7w009kq1/T//ccOXyXY5.s:622    .text._ZN8std_msgs6String11deserializeEPh:0000000000000000 _ZN8std_msgs6String11deserializeEPh
.ARM.exidx.text._ZN8std_msgs6String11deserializeEPh:0000000000000000 $d
/var/folders/l3/4y5292px21b4835bsnjwqc7w009kq1/T//ccOXyXY5.s:686    .text._ZN8std_msgs6String7getTypeEv:0000000000000000 $t
/var/folders/l3/4y5292px21b4835bsnjwqc7w009kq1/T//ccOXyXY5.s:693    .text._ZN8std_msgs6String7getTypeEv:0000000000000000 _ZN8std_msgs6String7getTypeEv
/var/folders/l3/4y5292px21b4835bsnjwqc7w009kq1/T//ccOXyXY5.s:709    .text._ZN8std_msgs6String7getTypeEv:0000000000000004 $d
.ARM.exidx.text._ZN8std_msgs6String7getTypeEv:0000000000000000 $d
/var/folders/l3/4y5292px21b4835bsnjwqc7w009kq1/T//ccOXyXY5.s:716    .text._ZN8std_msgs6String6getMD5Ev:0000000000000000 $t
/var/folders/l3/4y5292px21b4835bsnjwqc7w009kq1/T//ccOXyXY5.s:723    .text._ZN8std_msgs6String6getMD5Ev:0000000000000000 _ZN8std_msgs6String6getMD5Ev
/var/folders/l3/4y5292px21b4835bsnjwqc7w009kq1/T//ccOXyXY5.s:739    .text._ZN8std_msgs6String6getMD5Ev:0000000000000004 $d
.ARM.exidx.text._ZN8std_msgs6String6getMD5Ev:0000000000000000 $d
ARM GAS  /var/folders/l3/4y5292px21b4835bsnjwqc7w009kq1/T//ccOXyXY5.s 			page 125


/var/folders/l3/4y5292px21b4835bsnjwqc7w009kq1/T//ccOXyXY5.s:746    .text._Z41__static_initialization_and_destruction_0ii:0000000000000000 $t
/var/folders/l3/4y5292px21b4835bsnjwqc7w009kq1/T//ccOXyXY5.s:752    .text._Z41__static_initialization_and_destruction_0ii:0000000000000000 _Z41__static_initialization_and_destruction_0ii
/var/folders/l3/4y5292px21b4835bsnjwqc7w009kq1/T//ccOXyXY5.s:896    .text._Z41__static_initialization_and_destruction_0ii:00000000000000a0 $d
/var/folders/l3/4y5292px21b4835bsnjwqc7w009kq1/T//ccOXyXY5.s:4994   .rodata._ZTVN3ros11NodeHandle_I13STM32HardwareLi5ELi5ELi512ELi512EEE:0000000000000000 _ZTVN3ros11NodeHandle_I13STM32HardwareLi5ELi5ELi512ELi512EEE
/var/folders/l3/4y5292px21b4835bsnjwqc7w009kq1/T//ccOXyXY5.s:4970   .rodata._ZTVN14rosserial_msgs20RequestParamResponseE:0000000000000000 _ZTVN14rosserial_msgs20RequestParamResponseE
.ARM.exidx.text._Z41__static_initialization_and_destruction_0ii:0000000000000000 $d
/var/folders/l3/4y5292px21b4835bsnjwqc7w009kq1/T//ccOXyXY5.s:905    .text._ZN3ros11NodeHandle_I13STM32HardwareLi5ELi5ELi512ELi512EE7publishEiPKNS_3MsgE:0000000000000000 $t
/var/folders/l3/4y5292px21b4835bsnjwqc7w009kq1/T//ccOXyXY5.s:912    .text._ZN3ros11NodeHandle_I13STM32HardwareLi5ELi5ELi512ELi512EE7publishEiPKNS_3MsgE:0000000000000000 _ZN3ros11NodeHandle_I13STM32HardwareLi5ELi5ELi512ELi512EE7publishEiPKNS_3MsgE
.ARM.exidx.text._ZN3ros11NodeHandle_I13STM32HardwareLi5ELi5ELi512ELi512EE7publishEiPKNS_3MsgE:0000000000000000 $d
/var/folders/l3/4y5292px21b4835bsnjwqc7w009kq1/T//ccOXyXY5.s:930    .text._ZN3ros11NodeHandle_I13STM32HardwareLi5ELi5ELi512ELi512EE9connectedEv:0000000000000000 $t
/var/folders/l3/4y5292px21b4835bsnjwqc7w009kq1/T//ccOXyXY5.s:937    .text._ZN3ros11NodeHandle_I13STM32HardwareLi5ELi5ELi512ELi512EE9connectedEv:0000000000000000 _ZN3ros11NodeHandle_I13STM32HardwareLi5ELi5ELi512ELi512EE9connectedEv
.ARM.exidx.text._ZN3ros11NodeHandle_I13STM32HardwareLi5ELi5ELi512ELi512EE9connectedEv:0000000000000000 $d
/var/folders/l3/4y5292px21b4835bsnjwqc7w009kq1/T//ccOXyXY5.s:956    .text._ZNK8std_msgs6String9serializeEPh:0000000000000000 $t
/var/folders/l3/4y5292px21b4835bsnjwqc7w009kq1/T//ccOXyXY5.s:963    .text._ZNK8std_msgs6String9serializeEPh:0000000000000000 _ZNK8std_msgs6String9serializeEPh
.ARM.exidx.text._ZNK8std_msgs6String9serializeEPh:0000000000000000 $d
/var/folders/l3/4y5292px21b4835bsnjwqc7w009kq1/T//ccOXyXY5.s:1008   .text._ZNK14rosserial_msgs9TopicInfo9serializeEPh:0000000000000000 $t
/var/folders/l3/4y5292px21b4835bsnjwqc7w009kq1/T//ccOXyXY5.s:1015   .text._ZNK14rosserial_msgs9TopicInfo9serializeEPh:0000000000000000 _ZNK14rosserial_msgs9TopicInfo9serializeEPh
.ARM.exidx.text._ZNK14rosserial_msgs9TopicInfo9serializeEPh:0000000000000000 $d
/var/folders/l3/4y5292px21b4835bsnjwqc7w009kq1/T//ccOXyXY5.s:1132   .text._ZNK14rosserial_msgs3Log9serializeEPh:0000000000000000 $t
/var/folders/l3/4y5292px21b4835bsnjwqc7w009kq1/T//ccOXyXY5.s:1139   .text._ZNK14rosserial_msgs3Log9serializeEPh:0000000000000000 _ZNK14rosserial_msgs3Log9serializeEPh
.ARM.exidx.text._ZNK14rosserial_msgs3Log9serializeEPh:0000000000000000 $d
/var/folders/l3/4y5292px21b4835bsnjwqc7w009kq1/T//ccOXyXY5.s:1188   .text._ZNK14rosserial_msgs20RequestParamResponse9serializeEPh:0000000000000000 $t
/var/folders/l3/4y5292px21b4835bsnjwqc7w009kq1/T//ccOXyXY5.s:1195   .text._ZNK14rosserial_msgs20RequestParamResponse9serializeEPh:0000000000000000 _ZNK14rosserial_msgs20RequestParamResponse9serializeEPh
.ARM.exidx.text._ZNK14rosserial_msgs20RequestParamResponse9serializeEPh:0000000000000000 $d
/var/folders/l3/4y5292px21b4835bsnjwqc7w009kq1/T//ccOXyXY5.s:1390   .text._ZN14rosserial_msgs20RequestParamResponse11deserializeEPh:0000000000000000 $t
/var/folders/l3/4y5292px21b4835bsnjwqc7w009kq1/T//ccOXyXY5.s:1397   .text._ZN14rosserial_msgs20RequestParamResponse11deserializeEPh:0000000000000000 _ZN14rosserial_msgs20RequestParamResponse11deserializeEPh
.ARM.exidx.text._ZN14rosserial_msgs20RequestParamResponse11deserializeEPh:0000000000000000 $d
/var/folders/l3/4y5292px21b4835bsnjwqc7w009kq1/T//ccOXyXY5.s:1647   .text._Z8ros_initv:0000000000000000 $t
/var/folders/l3/4y5292px21b4835bsnjwqc7w009kq1/T//ccOXyXY5.s:1654   .text._Z8ros_initv:0000000000000000 _Z8ros_initv
/var/folders/l3/4y5292px21b4835bsnjwqc7w009kq1/T//ccOXyXY5.s:1766   .text._Z8ros_initv:000000000000007c $d
/var/folders/l3/4y5292px21b4835bsnjwqc7w009kq1/T//ccOXyXY5.s:4982   .rodata._ZTVN8std_msgs6StringE:0000000000000000 _ZTVN8std_msgs6StringE
     .ARM.exidx.text._Z8ros_initv:0000000000000000 $d
/var/folders/l3/4y5292px21b4835bsnjwqc7w009kq1/T//ccOXyXY5.s:1775   .text._ZN3ros11NodeHandle_I13STM32HardwareLi5ELi5ELi512ELi512EE8publish1EiPNS_3MsgE:0000000000000000 $t
/var/folders/l3/4y5292px21b4835bsnjwqc7w009kq1/T//ccOXyXY5.s:1782   .text._ZN3ros11NodeHandle_I13STM32HardwareLi5ELi5ELi512ELi512EE8publish1EiPNS_3MsgE:0000000000000000 _ZN3ros11NodeHandle_I13STM32HardwareLi5ELi5ELi512ELi512EE8publish1EiPNS_3MsgE
/var/folders/l3/4y5292px21b4835bsnjwqc7w009kq1/T//ccOXyXY5.s:1948   .text._ZN3ros11NodeHandle_I13STM32HardwareLi5ELi5ELi512ELi512EE8publish1EiPNS_3MsgE:00000000000000b8 $d
/var/folders/l3/4y5292px21b4835bsnjwqc7w009kq1/T//ccOXyXY5.s:4958   .rodata._ZTVN14rosserial_msgs3LogE:0000000000000000 _ZTVN14rosserial_msgs3LogE
.ARM.exidx.text._ZN3ros11NodeHandle_I13STM32HardwareLi5ELi5ELi512ELi512EE8publish1EiPNS_3MsgE:0000000000000000 $d
/var/folders/l3/4y5292px21b4835bsnjwqc7w009kq1/T//ccOXyXY5.s:1955   .text._ZN3ros11NodeHandle_I13STM32HardwareLi5ELi5ELi512ELi512EE15requestSyncTimeEv:0000000000000000 $t
/var/folders/l3/4y5292px21b4835bsnjwqc7w009kq1/T//ccOXyXY5.s:1962   .text._ZN3ros11NodeHandle_I13STM32HardwareLi5ELi5ELi512ELi512EE15requestSyncTimeEv:0000000000000000 _ZN3ros11NodeHandle_I13STM32HardwareLi5ELi5ELi512ELi512EE15requestSyncTimeEv
/var/folders/l3/4y5292px21b4835bsnjwqc7w009kq1/T//ccOXyXY5.s:2249   .text._ZN3ros11NodeHandle_I13STM32HardwareLi5ELi5ELi512ELi512EE15requestSyncTimeEv:0000000000000130 $d
/var/folders/l3/4y5292px21b4835bsnjwqc7w009kq1/T//ccOXyXY5.s:4934   .rodata._ZTVN8std_msgs4TimeE:0000000000000000 _ZTVN8std_msgs4TimeE
.ARM.exidx.text._ZN3ros11NodeHandle_I13STM32HardwareLi5ELi5ELi512ELi512EE15requestSyncTimeEv:0000000000000000 $d
/var/folders/l3/4y5292px21b4835bsnjwqc7w009kq1/T//ccOXyXY5.s:2267   .text._Z7ros_runv:0000000000000000 $t
/var/folders/l3/4y5292px21b4835bsnjwqc7w009kq1/T//ccOXyXY5.s:2274   .text._Z7ros_runv:0000000000000000 _Z7ros_runv
/var/folders/l3/4y5292px21b4835bsnjwqc7w009kq1/T//ccOXyXY5.s:2849   .text._Z7ros_runv:0000000000000304 $d
/var/folders/l3/4y5292px21b4835bsnjwqc7w009kq1/T//ccOXyXY5.s:5005   .bss._ZZN3ros11NodeHandle_I13STM32HardwareLi5ELi5ELi512ELi512EE9spinOnce1EvE10s_CallBack:0000000000000000 _ZZN3ros11NodeHandle_I13STM32HardwareLi5ELi5ELi512ELi512EE9spinOnce1EvE10s_CallBack
/var/folders/l3/4y5292px21b4835bsnjwqc7w009kq1/T//ccOXyXY5.s:2859   .text._Z7ros_runv:0000000000000324 $t
/var/folders/l3/4y5292px21b4835bsnjwqc7w009kq1/T//ccOXyXY5.s:3360   .text._Z7ros_runv:00000000000005f8 $d
/var/folders/l3/4y5292px21b4835bsnjwqc7w009kq1/T//ccOXyXY5.s:4946   .rodata._ZTVN14rosserial_msgs9TopicInfoE:0000000000000000 _ZTVN14rosserial_msgs9TopicInfoE
/var/folders/l3/4y5292px21b4835bsnjwqc7w009kq1/T//ccOXyXY5.s:3374   .text._Z7ros_runv:0000000000000610 $t
/var/folders/l3/4y5292px21b4835bsnjwqc7w009kq1/T//ccOXyXY5.s:3735   .text._Z7ros_runv:0000000000000798 $d
      .ARM.exidx.text._Z7ros_runv:0000000000000000 $d
/var/folders/l3/4y5292px21b4835bsnjwqc7w009kq1/T//ccOXyXY5.s:3744   .text._ZN3ros11NodeHandle_I13STM32HardwareLi5ELi5ELi512ELi512EE8spinOnceEv:0000000000000000 $t
/var/folders/l3/4y5292px21b4835bsnjwqc7w009kq1/T//ccOXyXY5.s:3751   .text._ZN3ros11NodeHandle_I13STM32HardwareLi5ELi5ELi512ELi512EE8spinOnceEv:0000000000000000 _ZN3ros11NodeHandle_I13STM32HardwareLi5ELi5ELi512ELi512EE8spinOnceEv
/var/folders/l3/4y5292px21b4835bsnjwqc7w009kq1/T//ccOXyXY5.s:4583   .text._ZN3ros11NodeHandle_I13STM32HardwareLi5ELi5ELi512ELi512EE8spinOnceEv:000000000000047c $d
/var/folders/l3/4y5292px21b4835bsnjwqc7w009kq1/T//ccOXyXY5.s:4595   .text._ZN3ros11NodeHandle_I13STM32HardwareLi5ELi5ELi512ELi512EE8spinOnceEv:000000000000049c $t
/var/folders/l3/4y5292px21b4835bsnjwqc7w009kq1/T//ccOXyXY5.s:4889   .text._ZN3ros11NodeHandle_I13STM32HardwareLi5ELi5ELi512ELi512EE8spinOnceEv:00000000000005d8 $d
ARM GAS  /var/folders/l3/4y5292px21b4835bsnjwqc7w009kq1/T//ccOXyXY5.s 			page 126


.ARM.exidx.text._ZN3ros11NodeHandle_I13STM32HardwareLi5ELi5ELi512ELi512EE8spinOnceEv:0000000000000000 $d
/var/folders/l3/4y5292px21b4835bsnjwqc7w009kq1/T//ccOXyXY5.s:4897   .text._GLOBAL__sub_I_nh:0000000000000000 $t
/var/folders/l3/4y5292px21b4835bsnjwqc7w009kq1/T//ccOXyXY5.s:4903   .text._GLOBAL__sub_I_nh:0000000000000000 _GLOBAL__sub_I_nh
.ARM.exidx.text._GLOBAL__sub_I_nh:0000000000000000 $d
/var/folders/l3/4y5292px21b4835bsnjwqc7w009kq1/T//ccOXyXY5.s:4927   .init_array:0000000000000000 $d
/var/folders/l3/4y5292px21b4835bsnjwqc7w009kq1/T//ccOXyXY5.s:4931   .rodata._ZTVN8std_msgs4TimeE:0000000000000000 $d
/var/folders/l3/4y5292px21b4835bsnjwqc7w009kq1/T//ccOXyXY5.s:4943   .rodata._ZTVN14rosserial_msgs9TopicInfoE:0000000000000000 $d
/var/folders/l3/4y5292px21b4835bsnjwqc7w009kq1/T//ccOXyXY5.s:4955   .rodata._ZTVN14rosserial_msgs3LogE:0000000000000000 $d
/var/folders/l3/4y5292px21b4835bsnjwqc7w009kq1/T//ccOXyXY5.s:4967   .rodata._ZTVN14rosserial_msgs20RequestParamResponseE:0000000000000000 $d
/var/folders/l3/4y5292px21b4835bsnjwqc7w009kq1/T//ccOXyXY5.s:4979   .rodata._ZTVN8std_msgs6StringE:0000000000000000 $d
/var/folders/l3/4y5292px21b4835bsnjwqc7w009kq1/T//ccOXyXY5.s:4991   .rodata._ZTVN3ros11NodeHandle_I13STM32HardwareLi5ELi5ELi512ELi512EEE:0000000000000000 $d
/var/folders/l3/4y5292px21b4835bsnjwqc7w009kq1/T//ccOXyXY5.s:5002   .bss._ZZN3ros11NodeHandle_I13STM32HardwareLi5ELi5ELi512ELi512EE9spinOnce1EvE10s_CallBack:0000000000000000 $d
/var/folders/l3/4y5292px21b4835bsnjwqc7w009kq1/T//ccOXyXY5.s:5014   .bss.chatter:0000000000000000 chatter
/var/folders/l3/4y5292px21b4835bsnjwqc7w009kq1/T//ccOXyXY5.s:5021   .bss.nh:0000000000000000 nh
/var/folders/l3/4y5292px21b4835bsnjwqc7w009kq1/T//ccOXyXY5.s:5010   .bss.chatter:0000000000000000 $d
/var/folders/l3/4y5292px21b4835bsnjwqc7w009kq1/T//ccOXyXY5.s:5017   .bss.nh:0000000000000000 $d
/var/folders/l3/4y5292px21b4835bsnjwqc7w009kq1/T//ccOXyXY5.s:5024   .rodata._Z7ros_runv.str1.4:0000000000000000 $d
/var/folders/l3/4y5292px21b4835bsnjwqc7w009kq1/T//ccOXyXY5.s:5028   .rodata._Z8ros_initv.str1.4:0000000000000000 $d
/var/folders/l3/4y5292px21b4835bsnjwqc7w009kq1/T//ccOXyXY5.s:5032   .rodata._ZN14rosserial_msgs20RequestParamResponse6getMD5Ev.str1.4:0000000000000000 $d
/var/folders/l3/4y5292px21b4835bsnjwqc7w009kq1/T//ccOXyXY5.s:5036   .rodata._ZN14rosserial_msgs3Log6getMD5Ev.str1.4:0000000000000000 $d
/var/folders/l3/4y5292px21b4835bsnjwqc7w009kq1/T//ccOXyXY5.s:5040   .rodata._ZN14rosserial_msgs3Log7getTypeEv.str1.4:0000000000000000 $d
/var/folders/l3/4y5292px21b4835bsnjwqc7w009kq1/T//ccOXyXY5.s:5044   .rodata._ZN14rosserial_msgs9TopicInfo6getMD5Ev.str1.4:0000000000000000 $d
/var/folders/l3/4y5292px21b4835bsnjwqc7w009kq1/T//ccOXyXY5.s:5048   .rodata._ZN14rosserial_msgs9TopicInfo7getTypeEv.str1.4:0000000000000000 $d
/var/folders/l3/4y5292px21b4835bsnjwqc7w009kq1/T//ccOXyXY5.s:5052   .rodata._ZN14rosserial_msgsL12REQUESTPARAME:0000000000000000 $d
/var/folders/l3/4y5292px21b4835bsnjwqc7w009kq1/T//ccOXyXY5.s:5056   .rodata._ZN14rosserial_msgsL12REQUESTPARAME:0000000000000000 _ZN14rosserial_msgsL12REQUESTPARAME
/var/folders/l3/4y5292px21b4835bsnjwqc7w009kq1/T//ccOXyXY5.s:5059   .rodata._ZN3ros11NodeHandle_I13STM32HardwareLi5ELi5ELi512ELi512EE8publish1EiPNS_3MsgE.str1.4:0000000000000000 $d
/var/folders/l3/4y5292px21b4835bsnjwqc7w009kq1/T//ccOXyXY5.s:5064   .rodata._ZN8std_msgs4Time6getMD5Ev.str1.4:0000000000000000 $d
/var/folders/l3/4y5292px21b4835bsnjwqc7w009kq1/T//ccOXyXY5.s:5068   .rodata._ZN8std_msgs4Time7getTypeEv.str1.4:0000000000000000 $d
/var/folders/l3/4y5292px21b4835bsnjwqc7w009kq1/T//ccOXyXY5.s:5072   .rodata._ZN8std_msgs6String6getMD5Ev.str1.4:0000000000000000 $d
/var/folders/l3/4y5292px21b4835bsnjwqc7w009kq1/T//ccOXyXY5.s:5076   .rodata._ZN8std_msgs6String7getTypeEv.str1.4:0000000000000000 $d

UNDEFINED SYMBOLS
strlen
memcpy
realloc
__aeabi_unwind_cpp_pr0
comSendBuf
millis
sprintf
comGetChar
_ZN3ros16normalizeSecNSecERmS0_
